
CH32V307VCT6_MPU6050.elf:     file format elf32-littleriscv
CH32V307VCT6_MPU6050.elf
architecture: riscv:rv32, flags 0x00000112:
EXEC_P, HAS_SYMS, D_PAGED
start address 0x00000000

Program Header:
    LOAD off    0x00001000 vaddr 0x00000000 paddr 0x00000000 align 2**12
         filesz 0x0000dfd4 memsz 0x0000dfd4 flags r-x
    LOAD off    0x0000f000 vaddr 0x20000000 paddr 0x0000dfd4 align 2**12
         filesz 0x00000240 memsz 0x00000288 flags rw-
    LOAD off    0x0000f800 vaddr 0x20007800 paddr 0x20007800 align 2**12
         filesz 0x00000000 memsz 0x00000800 flags rw-

Sections:
Idx Name          Size      VMA       LMA       File off  Algn
  0 .init         00000038  00000000  00000000  00001000  2**1
                  CONTENTS, ALLOC, LOAD, READONLY, CODE
  1 .vector       000001c8  00000038  00000038  00001038  2**1
                  CONTENTS, ALLOC, LOAD, READONLY, CODE
  2 .text         0000ddd4  00000200  00000200  00001200  2**3
                  CONTENTS, ALLOC, LOAD, READONLY, CODE
  3 .fini         00000000  0000dfd4  0000dfd4  0000f240  2**0
                  CONTENTS, ALLOC, LOAD, CODE
  4 .dalign       00000000  20000000  20000000  0000f240  2**0
                  CONTENTS
  5 .dlalign      00000000  0000dfd4  0000dfd4  0000f240  2**0
                  CONTENTS
  6 .data         00000240  20000000  0000dfd4  0000f000  2**2
                  CONTENTS, ALLOC, LOAD, DATA
  7 .bss          00000048  20000240  0000e214  0000f240  2**2
                  ALLOC
  8 .stack        00000800  20007800  20007800  0000f800  2**0
                  ALLOC
  9 .debug_info   000158b3  00000000  00000000  0000f240  2**0
                  CONTENTS, READONLY, DEBUGGING
 10 .debug_abbrev 00003650  00000000  00000000  00024af3  2**0
                  CONTENTS, READONLY, DEBUGGING
 11 .debug_aranges 00000ba8  00000000  00000000  00028148  2**3
                  CONTENTS, READONLY, DEBUGGING
 12 .debug_ranges 00000c00  00000000  00000000  00028cf0  2**3
                  CONTENTS, READONLY, DEBUGGING
 13 .debug_line   000126a8  00000000  00000000  000298f0  2**0
                  CONTENTS, READONLY, DEBUGGING
 14 .debug_str    00003a1c  00000000  00000000  0003bf98  2**0
                  CONTENTS, READONLY, DEBUGGING
 15 .comment      00000033  00000000  00000000  0003f9b4  2**0
                  CONTENTS, READONLY
 16 .debug_frame  000039c4  00000000  00000000  0003f9e8  2**2
                  CONTENTS, READONLY, DEBUGGING
 17 .debug_loc    0000644e  00000000  00000000  000433ac  2**0
                  CONTENTS, READONLY, DEBUGGING
 18 .stab         00000084  00000000  00000000  000497fc  2**2
                  CONTENTS, READONLY, DEBUGGING
 19 .stabstr      00000117  00000000  00000000  00049880  2**0
                  CONTENTS, READONLY, DEBUGGING
SYMBOL TABLE:
00000000 l    d  .init	00000000 .init
00000038 l    d  .vector	00000000 .vector
00000200 l    d  .text	00000000 .text
0000dfd4 l    d  .fini	00000000 .fini
20000000 l    d  .dalign	00000000 .dalign
0000dfd4 l    d  .dlalign	00000000 .dlalign
20000000 l    d  .data	00000000 .data
20000240 l    d  .bss	00000000 .bss
20007800 l    d  .stack	00000000 .stack
00000000 l    d  .debug_info	00000000 .debug_info
00000000 l    d  .debug_abbrev	00000000 .debug_abbrev
00000000 l    d  .debug_aranges	00000000 .debug_aranges
00000000 l    d  .debug_ranges	00000000 .debug_ranges
00000000 l    d  .debug_line	00000000 .debug_line
00000000 l    d  .debug_str	00000000 .debug_str
00000000 l    d  .comment	00000000 .comment
00000000 l    d  .debug_frame	00000000 .debug_frame
00000000 l    d  .debug_loc	00000000 .debug_loc
00000000 l    d  .stab	00000000 .stab
00000000 l    d  .stabstr	00000000 .stabstr
00000000 l    df *ABS*	00000000 ./Startup/startup_ch32v30x_D8C.o
00000038 l       .vector	00000000 _vector_base
00000000 l    df *ABS*	00000000 ch32v30x_it.c
00000000 l    df *ABS*	00000000 main.c
00000000 l    df *ABS*	00000000 system_ch32v30x.c
00000000 l    df *ABS*	00000000 ch32v30x_gpio.c
00000000 l    df *ABS*	00000000 ch32v30x_iwdg.c
00000000 l    df *ABS*	00000000 ch32v30x_misc.c
00000000 l    df *ABS*	00000000 ch32v30x_rcc.c
20000010 l     O .data	00000010 APBAHBPrescTable
2000022c l     O .data	00000004 ADCPrescTable
00000000 l    df *ABS*	00000000 ch32v30x_tim.c
00000000 l    df *ABS*	00000000 ch32v30x_usart.c
00000000 l    df *ABS*	00000000 inv_mpu_dmp_motion_driver.c
00000d0c l     F .text	00000032 dmp_enable_gyro_cal.part.0
0000cb00 l     O .text	00000bf6 dmp_memory
20000274 l     O .bss	00000010 dmp
00000000 l    df *ABS*	00000000 inv_mpu.c
00001794 l     F .text	0000039a get_st_biases
00001b2e l     F .text	00000070 set_int_enable
20000020 l     O .data	00000009 gyro_orientation
2000002c l     O .data	0000002c st
00000000 l    df *ABS*	00000000 USART2.c
00000000 l    df *ABS*	00000000 UART4.c
00000000 l    df *ABS*	00000000 TIM2.c
00000000 l    df *ABS*	00000000 MPU6050IIC.c
00000000 l    df *ABS*	00000000 MPU6050.c
00000000 l    df *ABS*	00000000 IWDG.c
00000000 l    df *ABS*	00000000 debug.c
20000268 l     O .bss	00000002 p_ms
2000026a l     O .bss	00000001 p_us
20000230 l     O .data	00000004 curbrk.5218
00000000 l    df *ABS*	00000000 w_asin.c
00000000 l    df *ABS*	00000000 w_atan2.c
00000000 l    df *ABS*	00000000 e_asin.c
00000000 l    df *ABS*	00000000 e_atan2.c
00000000 l    df *ABS*	00000000 e_sqrt.c
00000000 l    df *ABS*	00000000 s_atan.c
0000d9a0 l     O .text	00000020 atanhi
0000d9c0 l     O .text	00000020 atanlo
00000000 l    df *ABS*	00000000 s_fabs.c
00000000 l    df *ABS*	00000000 s_matherr.c
00000000 l    df *ABS*	00000000 s_nan.c
00000000 l    df *ABS*	00000000 libgcc2.c
00000000 l    df *ABS*	00000000 adddf3.c
00000000 l    df *ABS*	00000000 divdf3.c
00000000 l    df *ABS*	00000000 gedf2.c
00000000 l    df *ABS*	00000000 muldf3.c
00000000 l    df *ABS*	00000000 subdf3.c
00000000 l    df *ABS*	00000000 unorddf2.c
00000000 l    df *ABS*	00000000 floatsidf.c
00000000 l    df *ABS*	00000000 addsf3.c
00000000 l    df *ABS*	00000000 divsf3.c
00000000 l    df *ABS*	00000000 eqsf2.c
00000000 l    df *ABS*	00000000 gesf2.c
00000000 l    df *ABS*	00000000 lesf2.c
00000000 l    df *ABS*	00000000 mulsf3.c
00000000 l    df *ABS*	00000000 subsf3.c
00000000 l    df *ABS*	00000000 fixsfsi.c
00000000 l    df *ABS*	00000000 fixunssfsi.c
00000000 l    df *ABS*	00000000 floatsisf.c
00000000 l    df *ABS*	00000000 floatunsisf.c
00000000 l    df *ABS*	00000000 extendsfdf2.c
00000000 l    df *ABS*	00000000 truncdfsf2.c
00000000 l    df *ABS*	00000000 libgcc2.c
00000000 l    df *ABS*	00000000 errno.c
00000000 l    df *ABS*	00000000 memcmp.c
00000000 l    df *ABS*	00000000 memcpy.c
00000000 l    df *ABS*	00000000 nano-vfprintf_float.c
00000000 l    df *ABS*	00000000 nano-vfprintf_i.c
00000000 l    df *ABS*	00000000 nano-vfscanf_float.c
00000000 l    df *ABS*	00000000 printf.c
00000000 l    df *ABS*	00000000 puts.c
00000000 l    df *ABS*	00000000 sf_nan.c
00000000 l    df *ABS*	00000000 sprintf.c
00000000 l    df *ABS*	00000000 strlen.c
00000000 l    df *ABS*	00000000 strtod.c
00008690 l     F .text	0000004e sulp
0000dcc0 l     O .text	00000014 fpi.3395
0000dcd4 l     O .text	00000014 fpinan.3431
0000dce8 l     O .text	00000028 tinytens
00000000 l    df *ABS*	00000000 strtol.c
00009360 l     F .text	0000013a _strtol_l.isra.0
00000000 l    df *ABS*	00000000 wbuf.c
00000000 l    df *ABS*	00000000 wsetup.c
00000000 l    df *ABS*	00000000 dtoa.c
00009674 l     F .text	0000013a quorem
00000000 l    df *ABS*	00000000 fflush.c
00000000 l    df *ABS*	00000000 findfp.c
0000a55c l     F .text	00000066 std
00000000 l    df *ABS*	00000000 fwalk.c
00000000 l    df *ABS*	00000000 gdtoa-gethex.c
0000a78a l     F .text	00000076 rshift
00000000 l    df *ABS*	00000000 gdtoa-hexnan.c
0000ad0c l     F .text	0000002c L_shift
00000000 l    df *ABS*	00000000 locale.c
00000000 l    df *ABS*	00000000 localeconv.c
00000000 l    df *ABS*	00000000 makebuf.c
00000000 l    df *ABS*	00000000 malloc.c
00000000 l    df *ABS*	00000000 mbtowc_r.c
00000000 l    df *ABS*	00000000 memchr.c
00000000 l    df *ABS*	00000000 mprec.c
0000deb0 l     O .text	0000000c p05.3319
00000000 l    df *ABS*	00000000 nano-mallocr.c
00000000 l    df *ABS*	00000000 nano-mallocr.c
00000000 l    df *ABS*	00000000 nano-mallocr.c
00000000 l    df *ABS*	00000000 nano-vfprintf.c
00000000 l    df *ABS*	00000000 nano-vfprintf.c
0000bea2 l     F .text	00000028 __sfputc_r
00000000 l    df *ABS*	00000000 sbrkr.c
00000000 l    df *ABS*	00000000 stdio.c
00000000 l    df *ABS*	00000000 strncmp.c
00000000 l    df *ABS*	00000000 wctomb_r.c
00000000 l    df *ABS*	00000000 writer.c
00000000 l    df *ABS*	00000000 closer.c
00000000 l    df *ABS*	00000000 fstatr.c
00000000 l    df *ABS*	00000000 isattyr.c
00000000 l    df *ABS*	00000000 lseekr.c
00000000 l    df *ABS*	00000000 memmove.c
00000000 l    df *ABS*	00000000 mlock.c
00000000 l    df *ABS*	00000000 nano-mallocr.c
00000000 l    df *ABS*	00000000 readr.c
00000000 l    df *ABS*	00000000 nano-mallocr.c
00000000 l    df *ABS*	00000000 eqdf2.c
00000000 l    df *ABS*	00000000 ledf2.c
00000000 l    df *ABS*	00000000 fixdfsi.c
00000000 l    df *ABS*	00000000 fixunsdfsi.c
00000000 l    df *ABS*	00000000 floatunsidf.c
00000000 l    df *ABS*	00000000 extenddftf2.c
00000000 l    df *ABS*	00000000 trunctfdf2.c
00000000 l    df *ABS*	00000000 close.c
00000000 l    df *ABS*	00000000 fstat.c
00000000 l    df *ABS*	00000000 isatty.c
00000000 l    df *ABS*	00000000 lseek.c
00000000 l    df *ABS*	00000000 read.c
00000000 l    df *ABS*	00000000 libgcc2.c
00000000 l    df *ABS*	00000000 ctype_.c
00000000 l    df *ABS*	00000000 impure.c
20000058 l     O .data	00000060 impure_data
00000000 l    df *ABS*	00000000 s_lib_ver.c
00000000 l    df *ABS*	00000000 reent.c
0000c454 g     F .text	00000014 _malloc_usable_size_r
000076b2 g     F .text	000000ea __cvt
000006a4  w      .text	00000000 EXTI2_IRQHandler
000006ee  w      .text	00000000 TIM8_TRG_COM_IRQHandler
000006f0  w      .text	00000000 TIM8_CC_IRQHandler
20000254 g     O .bss	00000004 Yaw
0000b96e g     F .text	00000046 __any_on
0000c332 g     F .text	00000028 _isatty_r
00003492 g     F .text	00000098 MPU_Init
00008542 g     F .text	000000de _puts_r
0000453c g     F .text	00000006 fabs
0000c35a g     F .text	0000002c _lseek_r
00000726  w      .text	00000000 UART8_IRQHandler
0000c468 g     F .text	0000006a .hidden __eqdf2
00004554 g     F .text	000003d4 .hidden __divdi3
00002036 g     F .text	0000009a mpu_read_fifo_stream
000012f0 g     F .text	0000003e dmp_set_shake_reject_thresh
00008500 g     F .text	00000042 printf
20000a28 g       .data	00000000 __global_pointer$
00000208 g     F .text	00000028 .hidden __riscv_save_8
000006ca  w      .text	00000000 TIM1_CC_IRQHandler
0000c236 g     F .text	00000030 __sseek
0000a614 g     F .text	0000006c __sinit
000094b0 g     F .text	000000c2 __swbuf_r
000026c8 g     F .text	00000080 mpu_set_dmp_state
0000030c g     F .text	00000002 HardFault_Handler
00000d5e g     F .text	000000fa dmp_set_orientation
0000363e g     F .text	00000044 MPU_Get_Accelerometer
00001d2c g     F .text	0000007c mpu_set_gyro_fsr
0000a5cc g     F .text	00000048 __sfmoreglue
0000220a g     F .text	000000b0 mpu_lp_accel_mode
0000c3ce g     F .text	00000002 __malloc_unlock
0000104c g     F .text	00000056 dmp_set_fifo_rate
20000244 g     O .bss	00000002 Aacz
00000254 g     F .text	0000000c .hidden __riscv_restore_3
00000700  w      .text	00000000 TIM6_IRQHandler
0000934a g     F .text	00000016 _strtod_r
000066c8 g     F .text	000002b2 .hidden __divsf3
00001da8 g     F .text	00000046 mpu_get_accel_fsr
00000690  w      .text	00000000 SysTick_Handler
0000a800 g     F .text	00000040 __hexdig_fun
0000d81c g     O .text	0000001b reg
000008da g     F .text	000000a6 NVIC_Init
00000696  w      .text	00000000 PVD_IRQHandler
000006f6  w      .text	00000000 SDIO_IRQHandler
000021a8 g     F .text	00000062 mpu_set_int_latched
0000c386 g     F .text	00000046 memmove
00000728  w      .text	00000000 TIM9_BRK_IRQHandler
000035fa g     F .text	00000044 MPU_Get_Gyroscope
00000240 g     F .text	00000020 .hidden __riscv_restore_10
0000073c  w      .text	00000000 DMA2_Channel8_IRQHandler
00000308 g     F .text	00000004 NMI_Handler
0000b02a g     F .text	0000008c _Balloc
00007104 g     F .text	00000062 .hidden __fixsfsi
00000716  w      .text	00000000 CAN2_RX1_IRQHandler
000006a6  w      .text	00000000 EXTI3_IRQHandler
00000208 g     F .text	00000028 .hidden __riscv_save_11
0000560c g     F .text	000000ae .hidden __gtdf2
000075d4 g     F .text	00000008 __errno
0000aeca g     F .text	00000006 __localeconv_l
0000071e  w      .text	00000000 USBHS_IRQHandler
0000254c g     F .text	0000006a mpu_write_mem
00000d02 g     F .text	0000000a USART_GetFlagStatus
0000073e  w      .text	00000000 DMA2_Channel9_IRQHandler
0000c308 g     F .text	0000002a _fstat_r
00000736  w      .text	00000000 TIM10_CC_IRQHandler
20000284 g     O .bss	00000004 errno
20000240 g       .bss	00000000 _sbss
00000800 g       *ABS*	00000000 __stack_size
00001eac g     F .text	0000007e mpu_set_lpf
00003880 g     F .text	0000005a USART_Printf_Init
00006d7c g     F .text	00000388 .hidden __subsf3
000036f0 g     F .text	000000c8 usart4_report_imu
00000254 g     F .text	0000000c .hidden __riscv_restore_2
00001f90 g     F .text	0000004e mpu_get_accel_sens
000030cc g     F .text	0000005e IIC_Stop
00002354 g     F .text	000000bc mpu_set_sensors
000008b0 g     F .text	00000008 IWDG_SetReload
00007600 g     F .text	000000b2 memcpy
0000ad66 g     F .text	0000015e __hexnan
0000a5c2 g     F .text	0000000a _cleanup_r
00002ed4 g     F .text	00000082 usart4_niming_report
0000bc3a g     F .text	00000268 _svfprintf_r
000062ec g     F .text	00000072 .hidden __floatsidf
0000c4d2 g     F .text	000000b6 .hidden __ltdf2
000006a0  w      .text	00000000 EXTI0_IRQHandler
000006d6  w      .text	00000000 I2C2_EV_IRQHandler
00000734  w      .text	00000000 TIM10_TRG_COM_IRQHandler
00000bdc g     F .text	00000018 TIM_Cmd
00008620 g     F .text	0000000c puts
20000228 g     O .data	00000004 SystemCoreClock
0000b8c4 g     F .text	00000074 __ratio
0000afd4 g     F .text	0000000c malloc
0000ca7e g     F .text	0000000c _fstat
0000dde8 g     O .text	000000c8 __mprec_tens
00000038 g       .init	00000000 _einit
00000c1e g     F .text	0000000c TIM_ClearITPendingBit
00006a5c g     F .text	0000008c .hidden __lesf2
00000af6 g     F .text	0000001e RCC_APB2PeriphClockCmd
0000c5f0 g     F .text	0000005c .hidden __fixunsdfsi
00000200 g     F .text	00000030 .hidden __riscv_save_12
00000718  w      .text	00000000 CAN2_SCE_IRQHandler
000006b8  w      .text	00000000 ADC1_2_IRQHandler
000007ce g     F .text	000000c0 GPIO_Init
00001272 g     F .text	0000002e dmp_set_tap_count
0000068e  w      .text	00000000 Break_Point_Handler
0000aed0 g     F .text	00000018 _localeconv_r
0000b2e6 g     F .text	0000001c __i2b
00000240 g     F .text	00000020 .hidden __riscv_restore_11
2000025c g     O .bss	00000004 NVIC_Priority_Group
000006da  w      .text	00000000 SPI1_IRQHandler
00000ce4 g     F .text	00000016 USART_Cmd
0000c198 g     F .text	0000002a _sbrk_r
00000230 g     F .text	0000000c .hidden __riscv_save_1
00000698  w      .text	00000000 TAMPER_IRQHandler
00000254 g     F .text	0000000c .hidden __riscv_restore_0
0000c428 g     F .text	0000002c _read_r
20000258 g     O .bss	00000004 new_roll
00000216 g     F .text	0000001a .hidden __riscv_save_7
00000714  w      .text	00000000 CAN2_RX0_IRQHandler
000033ba g     F .text	00000016 MPU_Set_Accel_Fsr
00007350 g     F .text	000000ac .hidden __extendsfdf2
000006ec  w      .text	00000000 TIM8_UP_IRQHandler
0000318a g     F .text	00000060 IIC_NAck
00000b14 g     F .text	0000001e RCC_APB1PeriphClockCmd
00004928 g     F .text	00000730 .hidden __adddf3
0000697a g     F .text	0000005c .hidden __nesf2
0000068a  w      .text	00000000 Ecall_M_Mode_Handler
20007800 g       .stack	00000000 _heap_end
0000b73c g     F .text	000000b4 __b2d
00002b28 g     F .text	00000030 inv_row_2_scale
0000ca8a g     F .text	0000000c _isatty
20000234 g     O .data	00000004 __fdlib_version
00002e4e g     F .text	0000005e Usart4_Init
00003814 g     F .text	00000036 Delay_Us
2000023c g     O .data	00000004 _global_impure_ptr
0000024a g     F .text	00000016 .hidden __riscv_restore_5
20000250 g     O .bss	00000004 Roll
0000c3d0 g     F .text	00000058 _realloc_r
00001cee g     F .text	0000003e mpu_get_gyro_fsr
00002c1e g     F .text	000001cc mpu_dmp_get_data
20000246 g     O .bss	00000002 Gyrox
00000706  w      .text	00000000 DMA2_Channel2_IRQHandler
000006b0  w      .text	00000000 DMA1_Channel4_IRQHandler
0000ddc0 g     O .text	00000028 __mprec_bigtens
0000b192 g     F .text	000000a4 __s2b
0000c64c g     F .text	00000068 .hidden __floatunsidf
00003918 g     F .text	00000026 _sbrk
0000b5d2 g     F .text	00000032 __mcmp
00002620 g     F .text	000000a8 mpu_load_firmware
000008b8 g     F .text	0000000e IWDG_ReloadCounter
0000072a  w      .text	00000000 TIM9_UP_IRQHandler
0000024a g     F .text	00000016 .hidden __riscv_restore_6
000006e2  w      .text	00000000 USART3_IRQHandler
000020d0 g     F .text	000000d8 mpu_set_bypass
0000069a  w      .text	00000000 RTC_IRQHandler
000086de g     F .text	00000c6c _strtod_l
0000ad38 g     F .text	0000002e __match
20000288 g       .bss	00000000 _ebss
0000312a g     F .text	00000060 IIC_Ack
000006b6  w      .text	00000000 DMA1_Channel7_IRQHandler
0000b236 g     F .text	00000046 __hi0bits
00001414 g     F .text	000001be dmp_enable_feature
000006be  w      .text	00000000 CAN1_RX1_IRQHandler
0000c588 g     F .text	00000068 .hidden __fixdfsi
000037ea g     F .text	0000002a Delay_Init
00000720  w      .text	00000000 DVP_IRQHandler
000006fe  w      .text	00000000 UART5_IRQHandler
20000240 g     O .bss	00000002 Aacx
00003e64 g     F .text	000001de __ieee754_atan2
000069d6 g     F .text	00000086 .hidden __gtsf2
00000898 g     F .text	00000004 GPIO_SetBits
00002748 g     F .text	00000354 mpu_run_self_test
000006d0  w      .text	00000000 TIM4_IRQHandler
0000c4d2 g     F .text	000000b6 .hidden __ledf2
00000208 g     F .text	00000028 .hidden __riscv_save_9
00000704  w      .text	00000000 DMA2_Channel1_IRQHandler
0000b446 g     F .text	000000be __pow5mult
0000dd50 g     O .text	00000020 __sf_fake_stderr
00000216 g     F .text	0000001a .hidden __riscv_save_4
000006d2  w      .text	00000000 I2C1_EV_IRQHandler
0000bb56 g     F .text	000000e4 __ssputs_r
00000c06 g     F .text	00000018 TIM_GetITStatus
00000980 g     F .text	00000176 RCC_GetClocksFreq
000039fe g     F .text	00000466 __ieee754_asin
00000e58 g     F .text	000000f8 dmp_set_gyro_bias
0000344c g     F .text	00000046 MPU_Read_Byte
000006b4  w      .text	00000000 DMA1_Channel6_IRQHandler
00007566 g     F .text	0000006e .hidden __clzsi2
0000beca g     F .text	00000042 __sfputs_r
000006fc  w      .text	00000000 UART4_IRQHandler
0000070a  w      .text	00000000 DMA2_Channel4_IRQHandler
0000b012 g     F .text	00000018 memchr
00007820  w    F .text	000004c4 _printf_float
00000c2a g     F .text	000000ba USART_Init
0000b9da g     F .text	000000a8 _free_r
000006ce  w      .text	00000000 TIM3_IRQHandler
0000069e  w      .text	00000000 RCC_IRQHandler
00000230 g     F .text	0000000c .hidden __riscv_save_3
00003262 g     F .text	0000007c IIC_Send_Byte
000006c8  w      .text	00000000 TIM1_TRG_COM_IRQHandler
0000d838 g     O .text	00000028 test
00001f44 g     F .text	0000004c mpu_get_gyro_sens
000006aa  w      .text	00000000 DMA1_Channel1_IRQHandler
000008a0 g     F .text	00000008 IWDG_WriteAccessCmd
00000000 g       .init	00000000 _start
0000073a  w      .text	00000000 DMA2_Channel7_IRQHandler
20000000 g     O .data	00000010 AHBPrescTable
0000ca96 g     F .text	0000000c _lseek
0000b504 g     F .text	000000ce __lshift
000025b6 g     F .text	0000006a mpu_read_mem
0000122c g     F .text	00000046 dmp_set_tap_axes
000039fc g     F .text	00000002 atan2
000071bc g     F .text	000000c6 .hidden __floatsisf
000006e4  w      .text	00000000 EXTI15_10_IRQHandler
00000bf4 g     F .text	00000012 TIM_ITConfig
00001dee g     F .text	00000074 mpu_set_accel_fsr
0000c26c g     F .text	00000028 strncmp
000032de g     F .text	0000007e IIC_Read_Byte
000008c6 g     F .text	0000000e IWDG_Enable
0000b302 g     F .text	00000144 __multiply
0000697a g     F .text	0000005c .hidden __eqsf2
0000b7f0 g     F .text	000000d4 __d2b
0000089c g     F .text	00000004 GPIO_ResetBits
00000702  w      .text	00000000 TIM7_IRQHandler
0000c6b4 g     F .text	000001a0 .hidden __extenddftf2
0000c2e0 g     F .text	00000028 _close_r
00000712  w      .text	00000000 CAN2_TX_IRQHandler
20000000 g       .dalign	00000000 _data_vma
000006f8  w      .text	00000000 TIM5_IRQHandler
000075dc g     F .text	00000024 memcmp
0000306e g     F .text	0000005e IIC_Start
000015d2 g     F .text	000001c2 dmp_read_fifo
00009572 g     F .text	00000102 __swsetup_r
000006c2  w      .text	00000000 EXTI9_5_IRQHandler
00005058 g     F .text	000005b4 .hidden __divdf3
0000a680 g     F .text	000000a0 __sfp
0000b938 g     F .text	00000036 __copybits
000056ba g     F .text	000004b8 .hidden __muldf3
00000208 g     F .text	00000028 .hidden __riscv_save_10
0000c1c2 g     F .text	0000002c __sread
00002dea g     F .text	00000064 Init_UART2
00000710  w      .text	00000000 ETH_WKUP_IRQHandler
000013e0 g     F .text	00000034 dmp_enable_6x_lp_quat
0000c3cc g     F .text	00000002 __malloc_lock
0000024a g     F .text	00000016 .hidden __riscv_restore_4
00000240 g     F .text	00000020 .hidden __riscv_restore_8
0000a4f6 g     F .text	00000066 _fflush_r
00000216 g     F .text	0000001a .hidden __riscv_save_6
0000b9b4 g     F .text	00000026 _calloc_r
000006dc  w      .text	00000000 SPI2_IRQHandler
0000352a g     F .text	0000005c MPU_Write_Len
0000dd70 g     O .text	00000020 __sf_fake_stdin
00003682 g     F .text	0000006e mpu6050_send_data
000033a4 g     F .text	00000016 MPU_Set_Gyro_Fsr
00000260 g     F .text	000000a8 memset
00002b84 g     F .text	00000002 mget_ms
00000240 g     F .text	00000020 .hidden __riscv_restore_9
0000024a g     F .text	00000016 .hidden __riscv_restore_7
0000030e g     F .text	000001c0 main
000037b8 g     F .text	00000032 IWDG_Feed_Init
00002a9c g     F .text	0000008c run_self_test
00000730  w      .text	00000000 TIM10_BRK_IRQHandler
0000335c g     F .text	00000048 MPU_Write_Byte
0000072e  w      .text	00000000 TIM9_CC_IRQHandler
00006a5c g     F .text	0000008c .hidden __ltsf2
000010a2 g     F .text	0000018a dmp_set_tap_thresh
0000c266 g     F .text	00000006 __sclose
00004542 g     F .text	00000004 matherr
0000070c  w      .text	00000000 DMA2_Channel5_IRQHandler
00003032 g     F .text	0000003c IIC_Init
0000949a g     F .text	00000016 _strtol_r
000073fc g     F .text	0000016a .hidden __truncdfsf2
000097ae g     F .text	00000c16 _dtoa_r
0000ba82 g     F .text	000000d4 _malloc_r
2000024a g     O .bss	00000002 Gyroz
0000c294 g     F .text	0000001e __ascii_wctomb
000006b2  w      .text	00000000 DMA1_Channel5_IRQHandler
0000137e g     F .text	0000002e dmp_enable_gyro_cal
000006a8  w      .text	00000000 EXTI4_IRQHandler
0000384a g     F .text	00000036 Delay_Ms
000006bc  w      .text	00000000 USB_LP_CAN1_RX0_IRQHandler
00006ae8 g     F .text	00000294 .hidden __mulsf3
20000242 g     O .bss	00000002 Aacy
000004ce g     F .text	000000fa SystemInit
0000d734 g     O .text	0000000c hw
000006f2  w      .text	00000000 RNG_IRQHandler
00000d3e g     F .text	00000020 dmp_load_motion_driver_firmware
0000c468 g     F .text	0000006a .hidden __nedf2
00008500 g     F .text	00000042 iprintf
00004218 g     F .text	00000324 atan
000006ba  w      .text	00000000 USB_HP_CAN1_TX_IRQHandler
00008638 g     F .text	00000046 sprintf
0000db28 g     O .text	00000100 .hidden __clz_tab
0000779c g     F .text	00000084 __exponent
00000000 g       .init	00000000 _sinit
000069d6 g     F .text	00000086 .hidden __gesf2
0000c2b2 g     F .text	0000002e _write_r
0000393e g     F .text	000000be asin
000006ae  w      .text	00000000 DMA1_Channel3_IRQHandler
000022ba g     F .text	0000009a mpu_set_sample_rate
000006f4  w      .text	00000000 FSMC_IRQHandler
00001e62 g     F .text	0000004a mpu_get_lpf
0000070e  w      .text	00000000 ETH_IRQHandler
0000862c g     F .text	0000000c nanf
00007ce4 g     F .text	0000010c _printf_common
20000238 g     O .data	00000004 _impure_ptr
000006c6  w      .text	00000000 TIM1_UP_IRQHandler
0000a3c4 g     F .text	00000132 __sflush_r
00002eac g     F .text	00000028 usart4_send_char
0000bc3a g     F .text	00000268 _svfiprintf_r
00000694  w      .text	00000000 WWDG_IRQHandler
0000071c  w      .text	00000000 USBHSWakeup_IRQHandler
00000742  w      .text	00000000 DMA2_Channel11_IRQHandler
0000afe0 g     F .text	00000032 __ascii_mbtowc
0000068c  w      .text	00000000 Ecall_U_Mode_Handler
0000b6f6 g     F .text	00000046 __ulp
00003586 g     F .text	00000074 MPU_Read_Len
00000738  w      .text	00000000 DMA2_Channel6_IRQHandler
20000260 g     O .bss	00000004 angle_change
00002fac g     F .text	00000086 TIM2_IRQHandler
20008000 g       .stack	00000000 _eusrstack
000031ea g     F .text	00000078 IIC_Wait_Ack
00000230 g     F .text	0000000c .hidden __riscv_save_2
00000692  w      .text	00000000 SW_Handler
00002410 g     F .text	0000013c mpu_init
00004546 g     F .text	0000000e nan
20000248 g     O .bss	00000002 Gyroy
00002b86 g     F .text	00000098 mpu_dmp_init
00004042 g     F .text	000001d6 __ieee754_sqrt
000006c4  w      .text	00000000 TIM1_BRK_IRQHandler
0000aee8 g     F .text	00000058 __swhatbuf_r
00000cfa g     F .text	00000008 USART_SendData
00000740  w      .text	00000000 DMA2_Channel10_IRQHandler
000006a2  w      .text	00000000 EXTI1_IRQHandler
000033d0 g     F .text	00000034 MPU_Set_LPF
00000216 g     F .text	0000001a .hidden __riscv_save_5
000038da g     F .text	0000003e _write
20000240 g       .data	00000000 _edata
20000288 g       .bss	00000000 _end
00002b58 g     F .text	0000002c inv_orientation_matrix_to_scalar
00000b32 g     F .text	000000aa TIM_TimeBaseInit
000006e6  w      .text	00000000 RTCAlarm_IRQHandler
0000dfd4 g       .dlalign	00000000 _data_lma
00000732  w      .text	00000000 TIM10_UP_IRQHandler
0000072c  w      .text	00000000 TIM9_TRG_COM_IRQHandler
00000724  w      .text	00000000 UART7_IRQHandler
000006e0  w      .text	00000000 USART2_IRQHandler
00000722  w      .text	00000000 UART6_IRQHandler
0000c1ee g     F .text	00000048 __swrite
0000bf0c g     F .text	0000028c _vfiprintf_r
0000a720 g     F .text	0000006a _fwalk_reent
000005c8 g     F .text	000000be SystemCoreClockUpdate
00007282 g     F .text	000000ce .hidden __floatunsisf
0000b604 g     F .text	000000f2 __mdiff
00001f2a g     F .text	0000001a mpu_get_sample_rate
000006d8  w      .text	00000000 I2C2_ER_IRQHandler
000006ac  w      .text	00000000 DMA1_Channel2_IRQHandler
0000dd90 g     O .text	00000020 __sf_fake_stdout
00008638 g     F .text	00000046 siprintf
20000264 g     O .bss	00000004 prev_angle
000012c8 g     F .text	00000028 dmp_set_tap_time_multi
0000023c g     F .text	00000024 .hidden __riscv_restore_12
000006ea  w      .text	00000000 TIM8_BRK_IRQHandler
0000ded0 g     O .text	00000101 _ctype_
0000caa2 g     F .text	0000000c _read
000062b0 g     F .text	0000003c .hidden __unorddf2
00000744  w      .text	00000000 handle_reset
000008a8 g     F .text	00000008 IWDG_SetPrescaler
000006c0  w      .text	00000000 CAN1_SCE_IRQHandler
00007166 g     F .text	00000056 .hidden __fixunssfsi
00000230 g     F .text	0000000c .hidden __riscv_save_0
0000069c  w      .text	00000000 FLASH_IRQHandler
00000f50 g     F .text	000000fc dmp_set_accel_bias
000006de  w      .text	00000000 USART1_IRQHandler
000013ac g     F .text	00000034 dmp_enable_lp_quat
0000af40 g     F .text	00000094 __smakebuf_r
0000867e g     F .text	00000012 strlen
0000071a  w      .text	00000000 OTG_FS_IRQHandler
00007df0 g     F .text	000002a4 _printf_i
000006fa  w      .text	00000000 SPI3_IRQHandler
0000aec4 g     F .text	00000006 __locale_ctype_ptr_l
0000560c g     F .text	000000ae .hidden __gedf2
0000a840 g     F .text	000004cc __gethex
20000270 g     O .bss	00000004 __malloc_sbrk_start
000006d4  w      .text	00000000 I2C1_ER_IRQHandler
00002f56 g     F .text	00000056 TIM2_init
000008d4 g     F .text	00000006 NVIC_PriorityGroupConfig
000012a0 g     F .text	00000028 dmp_set_tap_time
2000026c g     O .bss	00000004 __malloc_free_list
00001356 g     F .text	00000028 dmp_set_shake_reject_timeout
00000254 g     F .text	0000000c .hidden __riscv_restore_1
0000132e g     F .text	00000028 dmp_set_shake_reject_time
00005b72 g     F .text	0000073e .hidden __subdf3
0000bf0c g     F .text	0000028c _vfprintf_r
0000b27c g     F .text	0000006a __lo0bits
0000088e g     F .text	0000000a GPIO_ReadInputDataBit
00001fde g     F .text	00000058 mpu_configure_fifo
0000635e g     F .text	0000036a .hidden __addsf3
2000024c g     O .bss	00000004 Pitch
200000b8 g     O .data	0000016c __global_locale
000006e8  w      .text	00000000 USBWakeUp_IRQHandler
0000c854 g     F .text	0000021e .hidden __trunctfdf2
00001b9e g     F .text	00000150 mpu_reset_fifo
0000ca72 g     F .text	0000000c _close
00008094  w    F .text	0000046c _scanf_float
00000708  w      .text	00000000 DMA2_Channel3_IRQHandler
0000b0fa g     F .text	00000098 __multadd
0000b0b6 g     F .text	00000044 _Bfree
00003404 g     F .text	00000048 MPU_Set_Rate



Disassembly of section .init:

00000000 <_sinit>:
   0:	7440006f          	j	744 <handle_reset>
   4:	00000013          	nop
   8:	00000013          	nop
   c:	00000013          	nop
  10:	00000013          	nop
  14:	00000013          	nop
  18:	00000013          	nop
  1c:	00000013          	nop
  20:	00000013          	nop
  24:	00000013          	nop
  28:	00000013          	nop
  2c:	00000013          	nop
  30:	00000013          	nop
  34:	00100073          	ebreak

Disassembly of section .vector:

00000038 <_vector_base>:
	...
  40:	0308                	addi	a0,sp,384
  42:	0000                	unimp
  44:	030c                	addi	a1,sp,384
  46:	0000                	unimp
  48:	0000                	unimp
  4a:	0000                	unimp
  4c:	068a                	slli	a3,a3,0x2
	...
  56:	0000                	unimp
  58:	068c                	addi	a1,sp,832
  5a:	0000                	unimp
  5c:	068e                	slli	a3,a3,0x3
	...
  66:	0000                	unimp
  68:	0690                	addi	a2,sp,832
  6a:	0000                	unimp
  6c:	0000                	unimp
  6e:	0000                	unimp
  70:	0692                	slli	a3,a3,0x4
  72:	0000                	unimp
  74:	0000                	unimp
  76:	0000                	unimp
  78:	0694                	addi	a3,sp,832
  7a:	0000                	unimp
  7c:	0696                	slli	a3,a3,0x5
  7e:	0000                	unimp
  80:	0698                	addi	a4,sp,832
  82:	0000                	unimp
  84:	069a                	slli	a3,a3,0x6
  86:	0000                	unimp
  88:	069c                	addi	a5,sp,832
  8a:	0000                	unimp
  8c:	069e                	slli	a3,a3,0x7
  8e:	0000                	unimp
  90:	06a0                	addi	s0,sp,840
  92:	0000                	unimp
  94:	06a2                	slli	a3,a3,0x8
  96:	0000                	unimp
  98:	06a4                	addi	s1,sp,840
  9a:	0000                	unimp
  9c:	06a6                	slli	a3,a3,0x9
  9e:	0000                	unimp
  a0:	06a8                	addi	a0,sp,840
  a2:	0000                	unimp
  a4:	06aa                	slli	a3,a3,0xa
  a6:	0000                	unimp
  a8:	06ac                	addi	a1,sp,840
  aa:	0000                	unimp
  ac:	06ae                	slli	a3,a3,0xb
  ae:	0000                	unimp
  b0:	06b0                	addi	a2,sp,840
  b2:	0000                	unimp
  b4:	06b2                	slli	a3,a3,0xc
  b6:	0000                	unimp
  b8:	06b4                	addi	a3,sp,840
  ba:	0000                	unimp
  bc:	06b6                	slli	a3,a3,0xd
  be:	0000                	unimp
  c0:	06b8                	addi	a4,sp,840
  c2:	0000                	unimp
  c4:	06ba                	slli	a3,a3,0xe
  c6:	0000                	unimp
  c8:	06bc                	addi	a5,sp,840
  ca:	0000                	unimp
  cc:	06be                	slli	a3,a3,0xf
  ce:	0000                	unimp
  d0:	06c0                	addi	s0,sp,836
  d2:	0000                	unimp
  d4:	06c2                	slli	a3,a3,0x10
  d6:	0000                	unimp
  d8:	06c4                	addi	s1,sp,836
  da:	0000                	unimp
  dc:	06c6                	slli	a3,a3,0x11
  de:	0000                	unimp
  e0:	06c8                	addi	a0,sp,836
  e2:	0000                	unimp
  e4:	06ca                	slli	a3,a3,0x12
  e6:	0000                	unimp
  e8:	2fac                	lbu	a1,26(a5)
  ea:	0000                	unimp
  ec:	06ce                	slli	a3,a3,0x13
  ee:	0000                	unimp
  f0:	06d0                	addi	a2,sp,836
  f2:	0000                	unimp
  f4:	06d2                	slli	a3,a3,0x14
  f6:	0000                	unimp
  f8:	06d4                	addi	a3,sp,836
  fa:	0000                	unimp
  fc:	06d6                	slli	a3,a3,0x15
  fe:	0000                	unimp
 100:	06d8                	addi	a4,sp,836
 102:	0000                	unimp
 104:	06da                	slli	a3,a3,0x16
 106:	0000                	unimp
 108:	06dc                	addi	a5,sp,836
 10a:	0000                	unimp
 10c:	06de                	slli	a3,a3,0x17
 10e:	0000                	unimp
 110:	06e0                	addi	s0,sp,844
 112:	0000                	unimp
 114:	06e2                	slli	a3,a3,0x18
 116:	0000                	unimp
 118:	06e4                	addi	s1,sp,844
 11a:	0000                	unimp
 11c:	06e6                	slli	a3,a3,0x19
 11e:	0000                	unimp
 120:	06e8                	addi	a0,sp,844
 122:	0000                	unimp
 124:	06ea                	slli	a3,a3,0x1a
 126:	0000                	unimp
 128:	06ec                	addi	a1,sp,844
 12a:	0000                	unimp
 12c:	06ee                	slli	a3,a3,0x1b
 12e:	0000                	unimp
 130:	06f0                	addi	a2,sp,844
 132:	0000                	unimp
 134:	06f2                	slli	a3,a3,0x1c
 136:	0000                	unimp
 138:	06f4                	addi	a3,sp,844
 13a:	0000                	unimp
 13c:	06f6                	slli	a3,a3,0x1d
 13e:	0000                	unimp
 140:	06f8                	addi	a4,sp,844
 142:	0000                	unimp
 144:	06fa                	slli	a3,a3,0x1e
 146:	0000                	unimp
 148:	06fc                	addi	a5,sp,844
 14a:	0000                	unimp
 14c:	06fe                	slli	a3,a3,0x1f
 14e:	0000                	unimp
 150:	0700                	addi	s0,sp,896
 152:	0000                	unimp
 154:	0702                	c.slli64	a4
 156:	0000                	unimp
 158:	0704                	addi	s1,sp,896
 15a:	0000                	unimp
 15c:	0706                	slli	a4,a4,0x1
 15e:	0000                	unimp
 160:	0708                	addi	a0,sp,896
 162:	0000                	unimp
 164:	070a                	slli	a4,a4,0x2
 166:	0000                	unimp
 168:	070c                	addi	a1,sp,896
 16a:	0000                	unimp
 16c:	070e                	slli	a4,a4,0x3
 16e:	0000                	unimp
 170:	0710                	addi	a2,sp,896
 172:	0000                	unimp
 174:	0712                	slli	a4,a4,0x4
 176:	0000                	unimp
 178:	0714                	addi	a3,sp,896
 17a:	0000                	unimp
 17c:	0716                	slli	a4,a4,0x5
 17e:	0000                	unimp
 180:	0718                	addi	a4,sp,896
 182:	0000                	unimp
 184:	071a                	slli	a4,a4,0x6
 186:	0000                	unimp
 188:	071c                	addi	a5,sp,896
 18a:	0000                	unimp
 18c:	071e                	slli	a4,a4,0x7
 18e:	0000                	unimp
 190:	0720                	addi	s0,sp,904
 192:	0000                	unimp
 194:	0722                	slli	a4,a4,0x8
 196:	0000                	unimp
 198:	0724                	addi	s1,sp,904
 19a:	0000                	unimp
 19c:	0726                	slli	a4,a4,0x9
 19e:	0000                	unimp
 1a0:	0728                	addi	a0,sp,904
 1a2:	0000                	unimp
 1a4:	072a                	slli	a4,a4,0xa
 1a6:	0000                	unimp
 1a8:	072c                	addi	a1,sp,904
 1aa:	0000                	unimp
 1ac:	072e                	slli	a4,a4,0xb
 1ae:	0000                	unimp
 1b0:	0730                	addi	a2,sp,904
 1b2:	0000                	unimp
 1b4:	0732                	slli	a4,a4,0xc
 1b6:	0000                	unimp
 1b8:	0734                	addi	a3,sp,904
 1ba:	0000                	unimp
 1bc:	0736                	slli	a4,a4,0xd
 1be:	0000                	unimp
 1c0:	0738                	addi	a4,sp,904
 1c2:	0000                	unimp
 1c4:	073a                	slli	a4,a4,0xe
 1c6:	0000                	unimp
 1c8:	073c                	addi	a5,sp,904
 1ca:	0000                	unimp
 1cc:	073e                	slli	a4,a4,0xf
 1ce:	0000                	unimp
 1d0:	0740                	addi	s0,sp,900
 1d2:	0000                	unimp
 1d4:	0742                	slli	a4,a4,0x10
	...

Disassembly of section .text:

00000200 <__riscv_save_12>:
     200:	7139                	addi	sp,sp,-64
     202:	4301                	li	t1,0
     204:	c66e                	sw	s11,12(sp)
     206:	a019                	j	20c <__riscv_save_10+0x4>

00000208 <__riscv_save_10>:
     208:	7139                	addi	sp,sp,-64
     20a:	5341                	li	t1,-16
     20c:	c86a                	sw	s10,16(sp)
     20e:	ca66                	sw	s9,20(sp)
     210:	cc62                	sw	s8,24(sp)
     212:	ce5e                	sw	s7,28(sp)
     214:	a019                	j	21a <__riscv_save_4+0x4>

00000216 <__riscv_save_4>:
     216:	7139                	addi	sp,sp,-64
     218:	5301                	li	t1,-32
     21a:	d05a                	sw	s6,32(sp)
     21c:	d256                	sw	s5,36(sp)
     21e:	d452                	sw	s4,40(sp)
     220:	d64e                	sw	s3,44(sp)
     222:	d84a                	sw	s2,48(sp)
     224:	da26                	sw	s1,52(sp)
     226:	dc22                	sw	s0,56(sp)
     228:	de06                	sw	ra,60(sp)
     22a:	40610133          	sub	sp,sp,t1
     22e:	8282                	jr	t0

00000230 <__riscv_save_0>:
     230:	1141                	addi	sp,sp,-16
     232:	c04a                	sw	s2,0(sp)
     234:	c226                	sw	s1,4(sp)
     236:	c422                	sw	s0,8(sp)
     238:	c606                	sw	ra,12(sp)
     23a:	8282                	jr	t0

0000023c <__riscv_restore_12>:
     23c:	4db2                	lw	s11,12(sp)
     23e:	0141                	addi	sp,sp,16

00000240 <__riscv_restore_10>:
     240:	4d02                	lw	s10,0(sp)
     242:	4c92                	lw	s9,4(sp)
     244:	4c22                	lw	s8,8(sp)
     246:	4bb2                	lw	s7,12(sp)
     248:	0141                	addi	sp,sp,16

0000024a <__riscv_restore_4>:
     24a:	4b02                	lw	s6,0(sp)
     24c:	4a92                	lw	s5,4(sp)
     24e:	4a22                	lw	s4,8(sp)
     250:	49b2                	lw	s3,12(sp)
     252:	0141                	addi	sp,sp,16

00000254 <__riscv_restore_0>:
     254:	4902                	lw	s2,0(sp)
     256:	4492                	lw	s1,4(sp)
     258:	4422                	lw	s0,8(sp)
     25a:	40b2                	lw	ra,12(sp)
     25c:	0141                	addi	sp,sp,16
     25e:	8082                	ret

00000260 <memset>:
     260:	433d                	li	t1,15
     262:	872a                	mv	a4,a0
     264:	02c37363          	bgeu	t1,a2,28a <memset+0x2a>
     268:	00f77793          	andi	a5,a4,15
     26c:	efbd                	bnez	a5,2ea <memset+0x8a>
     26e:	e5ad                	bnez	a1,2d8 <memset+0x78>
     270:	ff067693          	andi	a3,a2,-16
     274:	8a3d                	andi	a2,a2,15
     276:	96ba                	add	a3,a3,a4
     278:	c30c                	sw	a1,0(a4)
     27a:	c34c                	sw	a1,4(a4)
     27c:	c70c                	sw	a1,8(a4)
     27e:	c74c                	sw	a1,12(a4)
     280:	0741                	addi	a4,a4,16
     282:	fed76be3          	bltu	a4,a3,278 <memset+0x18>
     286:	e211                	bnez	a2,28a <memset+0x2a>
     288:	8082                	ret
     28a:	40c306b3          	sub	a3,t1,a2
     28e:	068a                	slli	a3,a3,0x2
     290:	00000297          	auipc	t0,0x0
     294:	9696                	add	a3,a3,t0
     296:	00a68067          	jr	10(a3)
     29a:	00b70723          	sb	a1,14(a4)
     29e:	00b706a3          	sb	a1,13(a4)
     2a2:	00b70623          	sb	a1,12(a4)
     2a6:	00b705a3          	sb	a1,11(a4)
     2aa:	00b70523          	sb	a1,10(a4)
     2ae:	00b704a3          	sb	a1,9(a4)
     2b2:	00b70423          	sb	a1,8(a4)
     2b6:	00b703a3          	sb	a1,7(a4)
     2ba:	00b70323          	sb	a1,6(a4)
     2be:	00b702a3          	sb	a1,5(a4)
     2c2:	00b70223          	sb	a1,4(a4)
     2c6:	00b701a3          	sb	a1,3(a4)
     2ca:	00b70123          	sb	a1,2(a4)
     2ce:	00b700a3          	sb	a1,1(a4)
     2d2:	00b70023          	sb	a1,0(a4)
     2d6:	8082                	ret
     2d8:	0ff5f593          	andi	a1,a1,255
     2dc:	00859693          	slli	a3,a1,0x8
     2e0:	8dd5                	or	a1,a1,a3
     2e2:	01059693          	slli	a3,a1,0x10
     2e6:	8dd5                	or	a1,a1,a3
     2e8:	b761                	j	270 <memset+0x10>
     2ea:	00279693          	slli	a3,a5,0x2
     2ee:	00000297          	auipc	t0,0x0
     2f2:	9696                	add	a3,a3,t0
     2f4:	8286                	mv	t0,ra
     2f6:	fa8680e7          	jalr	-88(a3)
     2fa:	8096                	mv	ra,t0
     2fc:	17c1                	addi	a5,a5,-16
     2fe:	8f1d                	sub	a4,a4,a5
     300:	963e                	add	a2,a2,a5
     302:	f8c374e3          	bgeu	t1,a2,28a <memset+0x2a>
     306:	b7a5                	j	26e <memset+0xe>

00000308 <NMI_Handler>:
     308:	30200073          	mret

0000030c <HardFault_Handler>:
     30c:	a001                	j	30c <HardFault_Handler>

0000030e <main>:
     30e:	ef3ff2ef          	jal	t0,200 <__riscv_save_12>
     312:	7179                	addi	sp,sp,-48
     314:	4509                	li	a0,2
     316:	2b7d                	jal	8d4 <NVIC_PriorityGroupConfig>
     318:	2c45                	jal	5c8 <SystemCoreClockUpdate>
     31a:	4d0030ef          	jal	ra,37ea <Delay_Init>
     31e:	6571                	lui	a0,0x1c
     320:	20050513          	addi	a0,a0,512 # 1c200 <_data_lma+0xe22c>
     324:	55c030ef          	jal	ra,3880 <USART_Printf_Init>
     328:	0003f537          	lui	a0,0x3f
     32c:	80050513          	addi	a0,a0,-2048 # 3e800 <_data_lma+0x3082c>
     330:	31f020ef          	jal	ra,2e4e <Usart4_Init>
     334:	15e030ef          	jal	ra,3492 <MPU_Init>
     338:	04f020ef          	jal	ra,2b86 <mpu_dmp_init>
     33c:	2af020ef          	jal	ra,2dea <Init_UART2>
     340:	417020ef          	jal	ra,2f56 <TIM2_init>
     344:	7d000593          	li	a1,2000
     348:	02000513          	li	a0,32
     34c:	46c030ef          	jal	ra,37b8 <IWDG_Feed_Init>
     350:	0000d7b7          	lui	a5,0xd
     354:	ae07ac83          	lw	s9,-1312(a5) # cae0 <_read+0x3e>
     358:	0000d7b7          	lui	a5,0xd
     35c:	ae47a783          	lw	a5,-1308(a5) # cae4 <_read+0x42>
     360:	ca3e                	sw	a5,20(sp)
     362:	0000d7b7          	lui	a5,0xd
     366:	ae87ad03          	lw	s10,-1304(a5) # cae8 <_read+0x46>
     36a:	0000d7b7          	lui	a5,0xd
     36e:	af07ad83          	lw	s11,-1296(a5) # caf0 <_read+0x4e>
     372:	81c18613          	addi	a2,gp,-2020 # 20000244 <Aacz>
     376:	81a18593          	addi	a1,gp,-2022 # 20000242 <Aacy>
     37a:	81818513          	addi	a0,gp,-2024 # 20000240 <_edata>
     37e:	2c0030ef          	jal	ra,363e <MPU_Get_Accelerometer>
     382:	82218613          	addi	a2,gp,-2014 # 2000024a <Gyroz>
     386:	82018593          	addi	a1,gp,-2016 # 20000248 <Gyroy>
     38a:	81e18513          	addi	a0,gp,-2018 # 20000246 <Gyrox>
     38e:	26c030ef          	jal	ra,35fa <MPU_Get_Gyroscope>
     392:	82c18b93          	addi	s7,gp,-2004 # 20000254 <Yaw>
     396:	82818b13          	addi	s6,gp,-2008 # 20000250 <Roll>
     39a:	82418c13          	addi	s8,gp,-2012 # 2000024c <Pitch>
     39e:	865e                	mv	a2,s7
     3a0:	85da                	mv	a1,s6
     3a2:	8562                	mv	a0,s8
     3a4:	07b020ef          	jal	ra,2c1e <mpu_dmp_get_data>
     3a8:	f97d                	bnez	a0,39e <main+0x90>
     3aa:	000b2503          	lw	a0,0(s6)
     3ae:	82218a93          	addi	s5,gp,-2014 # 2000024a <Gyroz>
     3b2:	82018a13          	addi	s4,gp,-2016 # 20000248 <Gyroy>
     3b6:	79b060ef          	jal	ra,7350 <__extendsfdf2>
     3ba:	862a                	mv	a2,a0
     3bc:	0000d537          	lui	a0,0xd
     3c0:	86ae                	mv	a3,a1
     3c2:	af450513          	addi	a0,a0,-1292 # caf4 <_read+0x52>
     3c6:	13a080ef          	jal	ra,8500 <iprintf>
     3ca:	81e18993          	addi	s3,gp,-2018 # 20000246 <Gyrox>
     3ce:	81c18913          	addi	s2,gp,-2020 # 20000244 <Aacz>
     3d2:	81a18493          	addi	s1,gp,-2022 # 20000242 <Aacy>
     3d6:	81818413          	addi	s0,gp,-2024 # 20000240 <_edata>
     3da:	000a1703          	lh	a4,0(s4)
     3de:	00099683          	lh	a3,0(s3)
     3e2:	00091603          	lh	a2,0(s2)
     3e6:	000a9783          	lh	a5,0(s5)
     3ea:	00049583          	lh	a1,0(s1)
     3ee:	00041503          	lh	a0,0(s0)
     3f2:	290030ef          	jal	ra,3682 <mpu6050_send_data>
     3f6:	000c2503          	lw	a0,0(s8)
     3fa:	85e6                	mv	a1,s9
     3fc:	6ec060ef          	jal	ra,6ae8 <__mulsf3>
     400:	505060ef          	jal	ra,7104 <__fixsfsi>
     404:	0000d7b7          	lui	a5,0xd
     408:	ae07a583          	lw	a1,-1312(a5) # cae0 <_read+0x3e>
     40c:	01051893          	slli	a7,a0,0x10
     410:	000b2503          	lw	a0,0(s6)
     414:	4108d893          	srai	a7,a7,0x10
     418:	d646                	sw	a7,44(sp)
     41a:	6ce060ef          	jal	ra,6ae8 <__mulsf3>
     41e:	4e7060ef          	jal	ra,7104 <__fixsfsi>
     422:	000a9783          	lh	a5,0(s5)
     426:	000a1703          	lh	a4,0(s4)
     42a:	00099683          	lh	a3,0(s3)
     42e:	00091603          	lh	a2,0(s2)
     432:	45d2                	lw	a1,20(sp)
     434:	01051813          	slli	a6,a0,0x10
     438:	000ba503          	lw	a0,0(s7)
     43c:	41085813          	srai	a6,a6,0x10
     440:	d442                	sw	a6,40(sp)
     442:	d23e                	sw	a5,36(sp)
     444:	d03a                	sw	a4,32(sp)
     446:	ce36                	sw	a3,28(sp)
     448:	cc32                	sw	a2,24(sp)
     44a:	69e060ef          	jal	ra,6ae8 <__mulsf3>
     44e:	4b7060ef          	jal	ra,7104 <__fixsfsi>
     452:	00041403          	lh	s0,0(s0)
     456:	00049483          	lh	s1,0(s1)
     45a:	58b2                	lw	a7,44(sp)
     45c:	5822                	lw	a6,40(sp)
     45e:	5792                	lw	a5,36(sp)
     460:	5702                	lw	a4,32(sp)
     462:	46f2                	lw	a3,28(sp)
     464:	4662                	lw	a2,24(sp)
     466:	0542                	slli	a0,a0,0x10
     468:	8541                	srai	a0,a0,0x10
     46a:	85a6                	mv	a1,s1
     46c:	c02a                	sw	a0,0(sp)
     46e:	8522                	mv	a0,s0
     470:	280030ef          	jal	ra,36f0 <usart4_report_imu>
     474:	06400513          	li	a0,100
     478:	3d2030ef          	jal	ra,384a <Delay_Ms>
     47c:	000b2403          	lw	s0,0(s6)
     480:	00000593          	li	a1,0
     484:	8522                	mv	a0,s0
     486:	5d6060ef          	jal	ra,6a5c <__lesf2>
     48a:	02055163          	bgez	a0,4ac <main+0x19e>
     48e:	85ea                	mv	a1,s10
     490:	8522                	mv	a0,s0
     492:	544060ef          	jal	ra,69d6 <__gesf2>
     496:	00a05b63          	blez	a0,4ac <main+0x19e>
     49a:	0000d7b7          	lui	a5,0xd
     49e:	aec7a583          	lw	a1,-1300(a5) # caec <_read+0x4a>
     4a2:	8522                	mv	a0,s0
     4a4:	6bb050ef          	jal	ra,635e <__addsf3>
     4a8:	82a1a823          	sw	a0,-2000(gp) # 20000258 <new_roll>
     4ac:	00000593          	li	a1,0
     4b0:	8522                	mv	a0,s0
     4b2:	524060ef          	jal	ra,69d6 <__gesf2>
     4b6:	00054a63          	bltz	a0,4ca <main+0x1bc>
     4ba:	85ee                	mv	a1,s11
     4bc:	8522                	mv	a0,s0
     4be:	59e060ef          	jal	ra,6a5c <__lesf2>
     4c2:	00a04463          	bgtz	a0,4ca <main+0x1bc>
     4c6:	8281a823          	sw	s0,-2000(gp) # 20000258 <new_roll>
     4ca:	26fd                	jal	8b8 <IWDG_ReloadCounter>
     4cc:	b55d                	j	372 <main+0x64>

000004ce <SystemInit>:
     4ce:	400217b7          	lui	a5,0x40021
     4d2:	4398                	lw	a4,0(a5)
     4d4:	f8ff06b7          	lui	a3,0xf8ff0
     4d8:	1141                	addi	sp,sp,-16
     4da:	00176713          	ori	a4,a4,1
     4de:	c398                	sw	a4,0(a5)
     4e0:	43d8                	lw	a4,4(a5)
     4e2:	00020637          	lui	a2,0x20
     4e6:	8f75                	and	a4,a4,a3
     4e8:	c3d8                	sw	a4,4(a5)
     4ea:	4398                	lw	a4,0(a5)
     4ec:	fef706b7          	lui	a3,0xfef70
     4f0:	16fd                	addi	a3,a3,-1
     4f2:	8f75                	and	a4,a4,a3
     4f4:	c398                	sw	a4,0(a5)
     4f6:	4398                	lw	a4,0(a5)
     4f8:	fffc06b7          	lui	a3,0xfffc0
     4fc:	16fd                	addi	a3,a3,-1
     4fe:	8f75                	and	a4,a4,a3
     500:	c398                	sw	a4,0(a5)
     502:	43d8                	lw	a4,4(a5)
     504:	ff8106b7          	lui	a3,0xff810
     508:	16fd                	addi	a3,a3,-1
     50a:	8f75                	and	a4,a4,a3
     50c:	c3d8                	sw	a4,4(a5)
     50e:	4398                	lw	a4,0(a5)
     510:	ec0006b7          	lui	a3,0xec000
     514:	16fd                	addi	a3,a3,-1
     516:	8f75                	and	a4,a4,a3
     518:	c398                	sw	a4,0(a5)
     51a:	00ff0737          	lui	a4,0xff0
     51e:	c798                	sw	a4,8(a5)
     520:	0207a623          	sw	zero,44(a5) # 4002102c <_eusrstack+0x2001902c>
     524:	c402                	sw	zero,8(sp)
     526:	c602                	sw	zero,12(sp)
     528:	4398                	lw	a4,0(a5)
     52a:	66c1                	lui	a3,0x10
     52c:	8f55                	or	a4,a4,a3
     52e:	c398                	sw	a4,0(a5)
     530:	400216b7          	lui	a3,0x40021
     534:	6705                	lui	a4,0x1
     536:	429c                	lw	a5,0(a3)
     538:	8ff1                	and	a5,a5,a2
     53a:	c63e                	sw	a5,12(sp)
     53c:	47a2                	lw	a5,8(sp)
     53e:	0785                	addi	a5,a5,1
     540:	c43e                	sw	a5,8(sp)
     542:	47b2                	lw	a5,12(sp)
     544:	e781                	bnez	a5,54c <SystemInit+0x7e>
     546:	47a2                	lw	a5,8(sp)
     548:	fee797e3          	bne	a5,a4,536 <SystemInit+0x68>
     54c:	400217b7          	lui	a5,0x40021
     550:	439c                	lw	a5,0(a5)
     552:	00e79713          	slli	a4,a5,0xe
     556:	06075763          	bgez	a4,5c4 <SystemInit+0xf6>
     55a:	4785                	li	a5,1
     55c:	c63e                	sw	a5,12(sp)
     55e:	4732                	lw	a4,12(sp)
     560:	4785                	li	a5,1
     562:	04f71f63          	bne	a4,a5,5c0 <SystemInit+0xf2>
     566:	400217b7          	lui	a5,0x40021
     56a:	43d8                	lw	a4,4(a5)
     56c:	ffc106b7          	lui	a3,0xffc10
     570:	16fd                	addi	a3,a3,-1
     572:	c3d8                	sw	a4,4(a5)
     574:	43d8                	lw	a4,4(a5)
     576:	c3d8                	sw	a4,4(a5)
     578:	43d8                	lw	a4,4(a5)
     57a:	40076713          	ori	a4,a4,1024
     57e:	c3d8                	sw	a4,4(a5)
     580:	43d8                	lw	a4,4(a5)
     582:	8f75                	and	a4,a4,a3
     584:	c3d8                	sw	a4,4(a5)
     586:	43d8                	lw	a4,4(a5)
     588:	002906b7          	lui	a3,0x290
     58c:	8f55                	or	a4,a4,a3
     58e:	c3d8                	sw	a4,4(a5)
     590:	4398                	lw	a4,0(a5)
     592:	010006b7          	lui	a3,0x1000
     596:	8f55                	or	a4,a4,a3
     598:	c398                	sw	a4,0(a5)
     59a:	4398                	lw	a4,0(a5)
     59c:	00671693          	slli	a3,a4,0x6
     5a0:	fe06dde3          	bgez	a3,59a <SystemInit+0xcc>
     5a4:	43d8                	lw	a4,4(a5)
     5a6:	400216b7          	lui	a3,0x40021
     5aa:	9b71                	andi	a4,a4,-4
     5ac:	c3d8                	sw	a4,4(a5)
     5ae:	43d8                	lw	a4,4(a5)
     5b0:	00276713          	ori	a4,a4,2
     5b4:	c3d8                	sw	a4,4(a5)
     5b6:	4721                	li	a4,8
     5b8:	42dc                	lw	a5,4(a3)
     5ba:	8bb1                	andi	a5,a5,12
     5bc:	fee79ee3          	bne	a5,a4,5b8 <SystemInit+0xea>
     5c0:	0141                	addi	sp,sp,16
     5c2:	8082                	ret
     5c4:	c602                	sw	zero,12(sp)
     5c6:	bf61                	j	55e <SystemInit+0x90>

000005c8 <SystemCoreClockUpdate>:
     5c8:	40021637          	lui	a2,0x40021
     5cc:	425c                	lw	a5,4(a2)
     5ce:	20000737          	lui	a4,0x20000
     5d2:	4691                	li	a3,4
     5d4:	8bb1                	andi	a5,a5,12
     5d6:	22870713          	addi	a4,a4,552 # 20000228 <SystemCoreClock>
     5da:	00d78563          	beq	a5,a3,5e4 <SystemCoreClockUpdate+0x1c>
     5de:	46a1                	li	a3,8
     5e0:	02d78863          	beq	a5,a3,610 <SystemCoreClockUpdate+0x48>
     5e4:	007a17b7          	lui	a5,0x7a1
     5e8:	20078793          	addi	a5,a5,512 # 7a1200 <_data_lma+0x79322c>
     5ec:	c31c                	sw	a5,0(a4)
     5ee:	400217b7          	lui	a5,0x40021
     5f2:	43dc                	lw	a5,4(a5)
     5f4:	8391                	srli	a5,a5,0x4
     5f6:	00f7f693          	andi	a3,a5,15
     5fa:	200007b7          	lui	a5,0x20000
     5fe:	00078793          	mv	a5,a5
     602:	97b6                	add	a5,a5,a3
     604:	2394                	lbu	a3,0(a5)
     606:	431c                	lw	a5,0(a4)
     608:	00d7d7b3          	srl	a5,a5,a3
     60c:	c31c                	sw	a5,0(a4)
     60e:	8082                	ret
     610:	4254                	lw	a3,4(a2)
     612:	4250                	lw	a2,4(a2)
     614:	67c1                	lui	a5,0x10
     616:	82c9                	srli	a3,a3,0x12
     618:	8abd                	andi	a3,a3,15
     61a:	8e7d                	and	a2,a2,a5
     61c:	00268793          	addi	a5,a3,2 # 40021002 <_eusrstack+0x20019002>
     620:	ca85                	beqz	a3,650 <SystemCoreClockUpdate+0x88>
     622:	46bd                	li	a3,15
     624:	02d78963          	beq	a5,a3,656 <SystemCoreClockUpdate+0x8e>
     628:	46c1                	li	a3,16
     62a:	02d78963          	beq	a5,a3,65c <SystemCoreClockUpdate+0x94>
     62e:	45c5                	li	a1,17
     630:	4681                	li	a3,0
     632:	00b79363          	bne	a5,a1,638 <SystemCoreClockUpdate+0x70>
     636:	47c1                	li	a5,16
     638:	e60d                	bnez	a2,662 <SystemCoreClockUpdate+0x9a>
     63a:	40024637          	lui	a2,0x40024
     63e:	80062603          	lw	a2,-2048(a2) # 40023800 <_eusrstack+0x2001b800>
     642:	8a41                	andi	a2,a2,16
     644:	c615                	beqz	a2,670 <SystemCoreClockUpdate+0xa8>
     646:	007a1637          	lui	a2,0x7a1
     64a:	20060613          	addi	a2,a2,512 # 7a1200 <_data_lma+0x79322c>
     64e:	a02d                	j	678 <SystemCoreClockUpdate+0xb0>
     650:	4681                	li	a3,0
     652:	47c9                	li	a5,18
     654:	b7d5                	j	638 <SystemCoreClockUpdate+0x70>
     656:	4685                	li	a3,1
     658:	47b5                	li	a5,13
     65a:	bff9                	j	638 <SystemCoreClockUpdate+0x70>
     65c:	4681                	li	a3,0
     65e:	47bd                	li	a5,15
     660:	bfe1                	j	638 <SystemCoreClockUpdate+0x70>
     662:	40021637          	lui	a2,0x40021
     666:	4250                	lw	a2,4(a2)
     668:	00e61593          	slli	a1,a2,0xe
     66c:	fc05dde3          	bgez	a1,646 <SystemCoreClockUpdate+0x7e>
     670:	003d1637          	lui	a2,0x3d1
     674:	90060613          	addi	a2,a2,-1792 # 3d0900 <_data_lma+0x3c292c>
     678:	02c787b3          	mul	a5,a5,a2
     67c:	c31c                	sw	a5,0(a4)
     67e:	daa5                	beqz	a3,5ee <SystemCoreClockUpdate+0x26>
     680:	431c                	lw	a5,0(a4)
     682:	8385                	srli	a5,a5,0x1
     684:	b7a5                	j	5ec <SystemCoreClockUpdate+0x24>
     686:	a001                	j	686 <SystemCoreClockUpdate+0xbe>
     688:	a001                	j	688 <SystemCoreClockUpdate+0xc0>

0000068a <Ecall_M_Mode_Handler>:
     68a:	a001                	j	68a <Ecall_M_Mode_Handler>

0000068c <Ecall_U_Mode_Handler>:
     68c:	a001                	j	68c <Ecall_U_Mode_Handler>

0000068e <Break_Point_Handler>:
     68e:	a001                	j	68e <Break_Point_Handler>

00000690 <SysTick_Handler>:
     690:	a001                	j	690 <SysTick_Handler>

00000692 <SW_Handler>:
     692:	a001                	j	692 <SW_Handler>

00000694 <WWDG_IRQHandler>:
     694:	a001                	j	694 <WWDG_IRQHandler>

00000696 <PVD_IRQHandler>:
     696:	a001                	j	696 <PVD_IRQHandler>

00000698 <TAMPER_IRQHandler>:
     698:	a001                	j	698 <TAMPER_IRQHandler>

0000069a <RTC_IRQHandler>:
     69a:	a001                	j	69a <RTC_IRQHandler>

0000069c <FLASH_IRQHandler>:
     69c:	a001                	j	69c <FLASH_IRQHandler>

0000069e <RCC_IRQHandler>:
     69e:	a001                	j	69e <RCC_IRQHandler>

000006a0 <EXTI0_IRQHandler>:
     6a0:	a001                	j	6a0 <EXTI0_IRQHandler>

000006a2 <EXTI1_IRQHandler>:
     6a2:	a001                	j	6a2 <EXTI1_IRQHandler>

000006a4 <EXTI2_IRQHandler>:
     6a4:	a001                	j	6a4 <EXTI2_IRQHandler>

000006a6 <EXTI3_IRQHandler>:
     6a6:	a001                	j	6a6 <EXTI3_IRQHandler>

000006a8 <EXTI4_IRQHandler>:
     6a8:	a001                	j	6a8 <EXTI4_IRQHandler>

000006aa <DMA1_Channel1_IRQHandler>:
     6aa:	a001                	j	6aa <DMA1_Channel1_IRQHandler>

000006ac <DMA1_Channel2_IRQHandler>:
     6ac:	a001                	j	6ac <DMA1_Channel2_IRQHandler>

000006ae <DMA1_Channel3_IRQHandler>:
     6ae:	a001                	j	6ae <DMA1_Channel3_IRQHandler>

000006b0 <DMA1_Channel4_IRQHandler>:
     6b0:	a001                	j	6b0 <DMA1_Channel4_IRQHandler>

000006b2 <DMA1_Channel5_IRQHandler>:
     6b2:	a001                	j	6b2 <DMA1_Channel5_IRQHandler>

000006b4 <DMA1_Channel6_IRQHandler>:
     6b4:	a001                	j	6b4 <DMA1_Channel6_IRQHandler>

000006b6 <DMA1_Channel7_IRQHandler>:
     6b6:	a001                	j	6b6 <DMA1_Channel7_IRQHandler>

000006b8 <ADC1_2_IRQHandler>:
     6b8:	a001                	j	6b8 <ADC1_2_IRQHandler>

000006ba <USB_HP_CAN1_TX_IRQHandler>:
     6ba:	a001                	j	6ba <USB_HP_CAN1_TX_IRQHandler>

000006bc <USB_LP_CAN1_RX0_IRQHandler>:
     6bc:	a001                	j	6bc <USB_LP_CAN1_RX0_IRQHandler>

000006be <CAN1_RX1_IRQHandler>:
     6be:	a001                	j	6be <CAN1_RX1_IRQHandler>

000006c0 <CAN1_SCE_IRQHandler>:
     6c0:	a001                	j	6c0 <CAN1_SCE_IRQHandler>

000006c2 <EXTI9_5_IRQHandler>:
     6c2:	a001                	j	6c2 <EXTI9_5_IRQHandler>

000006c4 <TIM1_BRK_IRQHandler>:
     6c4:	a001                	j	6c4 <TIM1_BRK_IRQHandler>

000006c6 <TIM1_UP_IRQHandler>:
     6c6:	a001                	j	6c6 <TIM1_UP_IRQHandler>

000006c8 <TIM1_TRG_COM_IRQHandler>:
     6c8:	a001                	j	6c8 <TIM1_TRG_COM_IRQHandler>

000006ca <TIM1_CC_IRQHandler>:
     6ca:	a001                	j	6ca <TIM1_CC_IRQHandler>
     6cc:	a001                	j	6cc <TIM1_CC_IRQHandler+0x2>

000006ce <TIM3_IRQHandler>:
     6ce:	a001                	j	6ce <TIM3_IRQHandler>

000006d0 <TIM4_IRQHandler>:
     6d0:	a001                	j	6d0 <TIM4_IRQHandler>

000006d2 <I2C1_EV_IRQHandler>:
     6d2:	a001                	j	6d2 <I2C1_EV_IRQHandler>

000006d4 <I2C1_ER_IRQHandler>:
     6d4:	a001                	j	6d4 <I2C1_ER_IRQHandler>

000006d6 <I2C2_EV_IRQHandler>:
     6d6:	a001                	j	6d6 <I2C2_EV_IRQHandler>

000006d8 <I2C2_ER_IRQHandler>:
     6d8:	a001                	j	6d8 <I2C2_ER_IRQHandler>

000006da <SPI1_IRQHandler>:
     6da:	a001                	j	6da <SPI1_IRQHandler>

000006dc <SPI2_IRQHandler>:
     6dc:	a001                	j	6dc <SPI2_IRQHandler>

000006de <USART1_IRQHandler>:
     6de:	a001                	j	6de <USART1_IRQHandler>

000006e0 <USART2_IRQHandler>:
     6e0:	a001                	j	6e0 <USART2_IRQHandler>

000006e2 <USART3_IRQHandler>:
     6e2:	a001                	j	6e2 <USART3_IRQHandler>

000006e4 <EXTI15_10_IRQHandler>:
     6e4:	a001                	j	6e4 <EXTI15_10_IRQHandler>

000006e6 <RTCAlarm_IRQHandler>:
     6e6:	a001                	j	6e6 <RTCAlarm_IRQHandler>

000006e8 <USBWakeUp_IRQHandler>:
     6e8:	a001                	j	6e8 <USBWakeUp_IRQHandler>

000006ea <TIM8_BRK_IRQHandler>:
     6ea:	a001                	j	6ea <TIM8_BRK_IRQHandler>

000006ec <TIM8_UP_IRQHandler>:
     6ec:	a001                	j	6ec <TIM8_UP_IRQHandler>

000006ee <TIM8_TRG_COM_IRQHandler>:
     6ee:	a001                	j	6ee <TIM8_TRG_COM_IRQHandler>

000006f0 <TIM8_CC_IRQHandler>:
     6f0:	a001                	j	6f0 <TIM8_CC_IRQHandler>

000006f2 <RNG_IRQHandler>:
     6f2:	a001                	j	6f2 <RNG_IRQHandler>

000006f4 <FSMC_IRQHandler>:
     6f4:	a001                	j	6f4 <FSMC_IRQHandler>

000006f6 <SDIO_IRQHandler>:
     6f6:	a001                	j	6f6 <SDIO_IRQHandler>

000006f8 <TIM5_IRQHandler>:
     6f8:	a001                	j	6f8 <TIM5_IRQHandler>

000006fa <SPI3_IRQHandler>:
     6fa:	a001                	j	6fa <SPI3_IRQHandler>

000006fc <UART4_IRQHandler>:
     6fc:	a001                	j	6fc <UART4_IRQHandler>

000006fe <UART5_IRQHandler>:
     6fe:	a001                	j	6fe <UART5_IRQHandler>

00000700 <TIM6_IRQHandler>:
     700:	a001                	j	700 <TIM6_IRQHandler>

00000702 <TIM7_IRQHandler>:
     702:	a001                	j	702 <TIM7_IRQHandler>

00000704 <DMA2_Channel1_IRQHandler>:
     704:	a001                	j	704 <DMA2_Channel1_IRQHandler>

00000706 <DMA2_Channel2_IRQHandler>:
     706:	a001                	j	706 <DMA2_Channel2_IRQHandler>

00000708 <DMA2_Channel3_IRQHandler>:
     708:	a001                	j	708 <DMA2_Channel3_IRQHandler>

0000070a <DMA2_Channel4_IRQHandler>:
     70a:	a001                	j	70a <DMA2_Channel4_IRQHandler>

0000070c <DMA2_Channel5_IRQHandler>:
     70c:	a001                	j	70c <DMA2_Channel5_IRQHandler>

0000070e <ETH_IRQHandler>:
     70e:	a001                	j	70e <ETH_IRQHandler>

00000710 <ETH_WKUP_IRQHandler>:
     710:	a001                	j	710 <ETH_WKUP_IRQHandler>

00000712 <CAN2_TX_IRQHandler>:
     712:	a001                	j	712 <CAN2_TX_IRQHandler>

00000714 <CAN2_RX0_IRQHandler>:
     714:	a001                	j	714 <CAN2_RX0_IRQHandler>

00000716 <CAN2_RX1_IRQHandler>:
     716:	a001                	j	716 <CAN2_RX1_IRQHandler>

00000718 <CAN2_SCE_IRQHandler>:
     718:	a001                	j	718 <CAN2_SCE_IRQHandler>

0000071a <OTG_FS_IRQHandler>:
     71a:	a001                	j	71a <OTG_FS_IRQHandler>

0000071c <USBHSWakeup_IRQHandler>:
     71c:	a001                	j	71c <USBHSWakeup_IRQHandler>

0000071e <USBHS_IRQHandler>:
     71e:	a001                	j	71e <USBHS_IRQHandler>

00000720 <DVP_IRQHandler>:
     720:	a001                	j	720 <DVP_IRQHandler>

00000722 <UART6_IRQHandler>:
     722:	a001                	j	722 <UART6_IRQHandler>

00000724 <UART7_IRQHandler>:
     724:	a001                	j	724 <UART7_IRQHandler>

00000726 <UART8_IRQHandler>:
     726:	a001                	j	726 <UART8_IRQHandler>

00000728 <TIM9_BRK_IRQHandler>:
     728:	a001                	j	728 <TIM9_BRK_IRQHandler>

0000072a <TIM9_UP_IRQHandler>:
     72a:	a001                	j	72a <TIM9_UP_IRQHandler>

0000072c <TIM9_TRG_COM_IRQHandler>:
     72c:	a001                	j	72c <TIM9_TRG_COM_IRQHandler>

0000072e <TIM9_CC_IRQHandler>:
     72e:	a001                	j	72e <TIM9_CC_IRQHandler>

00000730 <TIM10_BRK_IRQHandler>:
     730:	a001                	j	730 <TIM10_BRK_IRQHandler>

00000732 <TIM10_UP_IRQHandler>:
     732:	a001                	j	732 <TIM10_UP_IRQHandler>

00000734 <TIM10_TRG_COM_IRQHandler>:
     734:	a001                	j	734 <TIM10_TRG_COM_IRQHandler>

00000736 <TIM10_CC_IRQHandler>:
     736:	a001                	j	736 <TIM10_CC_IRQHandler>

00000738 <DMA2_Channel6_IRQHandler>:
     738:	a001                	j	738 <DMA2_Channel6_IRQHandler>

0000073a <DMA2_Channel7_IRQHandler>:
     73a:	a001                	j	73a <DMA2_Channel7_IRQHandler>

0000073c <DMA2_Channel8_IRQHandler>:
     73c:	a001                	j	73c <DMA2_Channel8_IRQHandler>

0000073e <DMA2_Channel9_IRQHandler>:
     73e:	a001                	j	73e <DMA2_Channel9_IRQHandler>

00000740 <DMA2_Channel10_IRQHandler>:
     740:	a001                	j	740 <DMA2_Channel10_IRQHandler>

00000742 <DMA2_Channel11_IRQHandler>:
     742:	a001                	j	742 <DMA2_Channel11_IRQHandler>

00000744 <handle_reset>:
     744:	20000197          	auipc	gp,0x20000
     748:	2e418193          	addi	gp,gp,740 # 20000a28 <__global_pointer$>
     74c:	20008117          	auipc	sp,0x20008
     750:	8b410113          	addi	sp,sp,-1868 # 20008000 <_eusrstack>
     754:	0000e517          	auipc	a0,0xe
     758:	88050513          	addi	a0,a0,-1920 # dfd4 <_data_lma>
     75c:	20000597          	auipc	a1,0x20000
     760:	8a458593          	addi	a1,a1,-1884 # 20000000 <_data_vma>
     764:	81818613          	addi	a2,gp,-2024 # 20000240 <_edata>
     768:	00c5fa63          	bgeu	a1,a2,77c <handle_reset+0x38>
     76c:	00052283          	lw	t0,0(a0)
     770:	0055a023          	sw	t0,0(a1)
     774:	0511                	addi	a0,a0,4
     776:	0591                	addi	a1,a1,4
     778:	fec5eae3          	bltu	a1,a2,76c <handle_reset+0x28>
     77c:	81818513          	addi	a0,gp,-2024 # 20000240 <_edata>
     780:	86018593          	addi	a1,gp,-1952 # 20000288 <_ebss>
     784:	00b57763          	bgeu	a0,a1,792 <handle_reset+0x4e>
     788:	00052023          	sw	zero,0(a0)
     78c:	0511                	addi	a0,a0,4
     78e:	feb56de3          	bltu	a0,a1,788 <handle_reset+0x44>
     792:	42fd                	li	t0,31
     794:	bc029073          	csrw	0xbc0,t0
     798:	42ad                	li	t0,11
     79a:	80429073          	csrw	0x804,t0
     79e:	000062b7          	lui	t0,0x6
     7a2:	08828293          	addi	t0,t0,136 # 6088 <__subdf3+0x516>
     7a6:	3002a073          	csrs	mstatus,t0
     7aa:	00000297          	auipc	t0,0x0
     7ae:	88e28293          	addi	t0,t0,-1906 # 38 <_einit>
     7b2:	0032e293          	ori	t0,t0,3
     7b6:	30529073          	csrw	mtvec,t0
     7ba:	d15ff0ef          	jal	ra,4ce <SystemInit>
     7be:	00000297          	auipc	t0,0x0
     7c2:	b5028293          	addi	t0,t0,-1200 # 30e <main>
     7c6:	34129073          	csrw	mepc,t0
     7ca:	30200073          	mret

000007ce <GPIO_Init>:
     7ce:	459c                	lw	a5,8(a1)
     7d0:	0107f713          	andi	a4,a5,16
     7d4:	00f7f813          	andi	a6,a5,15
     7d8:	c701                	beqz	a4,7e0 <GPIO_Init+0x12>
     7da:	41d8                	lw	a4,4(a1)
     7dc:	00e86833          	or	a6,a6,a4
     7e0:	218e                	lhu	a1,0(a1)
     7e2:	0ff5f713          	andi	a4,a1,255
     7e6:	c339                	beqz	a4,82c <__stack_size+0x2c>
     7e8:	4118                	lw	a4,0(a0)
     7ea:	4681                	li	a3,0
     7ec:	4e85                	li	t4,1
     7ee:	4f3d                	li	t5,15
     7f0:	02800f93          	li	t6,40
     7f4:	04800293          	li	t0,72
     7f8:	4e21                	li	t3,8
     7fa:	00de9633          	sll	a2,t4,a3
     7fe:	00c5f8b3          	and	a7,a1,a2
     802:	03161163          	bne	a2,a7,824 <__stack_size+0x24>
     806:	00269893          	slli	a7,a3,0x2
     80a:	011f1333          	sll	t1,t5,a7
     80e:	fff34313          	not	t1,t1
     812:	00e37733          	and	a4,t1,a4
     816:	011818b3          	sll	a7,a6,a7
     81a:	00e8e733          	or	a4,a7,a4
     81e:	05f79f63          	bne	a5,t6,87c <__stack_size+0x7c>
     822:	c950                	sw	a2,20(a0)
     824:	0685                	addi	a3,a3,1
     826:	fdc69ae3          	bne	a3,t3,7fa <GPIO_Init+0x2c>
     82a:	c118                	sw	a4,0(a0)
     82c:	0ff00713          	li	a4,255
     830:	04b77563          	bgeu	a4,a1,87a <__stack_size+0x7a>
     834:	4154                	lw	a3,4(a0)
     836:	4621                	li	a2,8
     838:	4e85                	li	t4,1
     83a:	4f3d                	li	t5,15
     83c:	02800f93          	li	t6,40
     840:	04800293          	li	t0,72
     844:	4e41                	li	t3,16
     846:	00ce98b3          	sll	a7,t4,a2
     84a:	0115f733          	and	a4,a1,a7
     84e:	02e89263          	bne	a7,a4,872 <__stack_size+0x72>
     852:	00261713          	slli	a4,a2,0x2
     856:	1701                	addi	a4,a4,-32
     858:	00ef1333          	sll	t1,t5,a4
     85c:	fff34313          	not	t1,t1
     860:	00d376b3          	and	a3,t1,a3
     864:	00e81733          	sll	a4,a6,a4
     868:	8ed9                	or	a3,a3,a4
     86a:	01f79d63          	bne	a5,t6,884 <__stack_size+0x84>
     86e:	01152a23          	sw	a7,20(a0)
     872:	0605                	addi	a2,a2,1
     874:	fdc619e3          	bne	a2,t3,846 <__stack_size+0x46>
     878:	c154                	sw	a3,4(a0)
     87a:	8082                	ret
     87c:	fa5794e3          	bne	a5,t0,824 <__stack_size+0x24>
     880:	c910                	sw	a2,16(a0)
     882:	b74d                	j	824 <__stack_size+0x24>
     884:	fe5797e3          	bne	a5,t0,872 <__stack_size+0x72>
     888:	01152823          	sw	a7,16(a0)
     88c:	b7dd                	j	872 <__stack_size+0x72>

0000088e <GPIO_ReadInputDataBit>:
     88e:	4508                	lw	a0,8(a0)
     890:	8d6d                	and	a0,a0,a1
     892:	00a03533          	snez	a0,a0
     896:	8082                	ret

00000898 <GPIO_SetBits>:
     898:	c90c                	sw	a1,16(a0)
     89a:	8082                	ret

0000089c <GPIO_ResetBits>:
     89c:	c94c                	sw	a1,20(a0)
     89e:	8082                	ret

000008a0 <IWDG_WriteAccessCmd>:
     8a0:	400037b7          	lui	a5,0x40003
     8a4:	c388                	sw	a0,0(a5)
     8a6:	8082                	ret

000008a8 <IWDG_SetPrescaler>:
     8a8:	400037b7          	lui	a5,0x40003
     8ac:	c3c8                	sw	a0,4(a5)
     8ae:	8082                	ret

000008b0 <IWDG_SetReload>:
     8b0:	400037b7          	lui	a5,0x40003
     8b4:	c788                	sw	a0,8(a5)
     8b6:	8082                	ret

000008b8 <IWDG_ReloadCounter>:
     8b8:	67ad                	lui	a5,0xb
     8ba:	40003737          	lui	a4,0x40003
     8be:	aaa78793          	addi	a5,a5,-1366 # aaaa <__gethex+0x26a>
     8c2:	c31c                	sw	a5,0(a4)
     8c4:	8082                	ret

000008c6 <IWDG_Enable>:
     8c6:	67b5                	lui	a5,0xd
     8c8:	40003737          	lui	a4,0x40003
     8cc:	ccc78793          	addi	a5,a5,-820 # cccc <dmp_memory+0x1cc>
     8d0:	c31c                	sw	a5,0(a4)
     8d2:	8082                	ret

000008d4 <NVIC_PriorityGroupConfig>:
     8d4:	82a1aa23          	sw	a0,-1996(gp) # 2000025c <NVIC_Priority_Group>
     8d8:	8082                	ret

000008da <NVIC_Init>:
     8da:	83418793          	addi	a5,gp,-1996 # 2000025c <NVIC_Priority_Group>
     8de:	4394                	lw	a3,0(a5)
     8e0:	2118                	lbu	a4,0(a0)
     8e2:	e681                	bnez	a3,8ea <NVIC_Init+0x10>
     8e4:	213c                	lbu	a5,2(a0)
     8e6:	0792                	slli	a5,a5,0x4
     8e8:	a821                	j	900 <NVIC_Init+0x26>
     8ea:	4394                	lw	a3,0(a5)
     8ec:	4605                	li	a2,1
     8ee:	02c69f63          	bne	a3,a2,92c <NVIC_Init+0x52>
     8f2:	213c                	lbu	a5,2(a0)
     8f4:	3110                	lbu	a2,1(a0)
     8f6:	0792                	slli	a5,a5,0x4
     8f8:	00d61463          	bne	a2,a3,900 <NVIC_Init+0x26>
     8fc:	f807e793          	ori	a5,a5,-128
     900:	e000e6b7          	lui	a3,0xe000e
     904:	0ff7f793          	andi	a5,a5,255
     908:	96ba                	add	a3,a3,a4
     90a:	40f68023          	sb	a5,1024(a3) # e000e400 <_eusrstack+0xc0006400>
     90e:	4685                	li	a3,1
     910:	00575793          	srli	a5,a4,0x5
     914:	00e69733          	sll	a4,a3,a4
     918:	4154                	lw	a3,4(a0)
     91a:	c2a5                	beqz	a3,97a <NVIC_Init+0xa0>
     91c:	04078793          	addi	a5,a5,64
     920:	078a                	slli	a5,a5,0x2
     922:	e000e6b7          	lui	a3,0xe000e
     926:	97b6                	add	a5,a5,a3
     928:	c398                	sw	a4,0(a5)
     92a:	8082                	ret
     92c:	438c                	lw	a1,0(a5)
     92e:	4689                	li	a3,2
     930:	02d59163          	bne	a1,a3,952 <NVIC_Init+0x78>
     934:	3114                	lbu	a3,1(a0)
     936:	213c                	lbu	a5,2(a0)
     938:	00d66563          	bltu	a2,a3,942 <NVIC_Init+0x68>
     93c:	068a                	slli	a3,a3,0x2
     93e:	97b6                	add	a5,a5,a3
     940:	b75d                	j	8e6 <NVIC_Init+0xc>
     942:	03e68693          	addi	a3,a3,62 # e000e03e <_eusrstack+0xc000603e>
     946:	068a                	slli	a3,a3,0x2
     948:	97b6                	add	a5,a5,a3
     94a:	0ff7f793          	andi	a5,a5,255
     94e:	0792                	slli	a5,a5,0x4
     950:	b775                	j	8fc <NVIC_Init+0x22>
     952:	4390                	lw	a2,0(a5)
     954:	468d                	li	a3,3
     956:	00d61c63          	bne	a2,a3,96e <NVIC_Init+0x94>
     95a:	3114                	lbu	a3,1(a0)
     95c:	213c                	lbu	a5,2(a0)
     95e:	00d66463          	bltu	a2,a3,966 <NVIC_Init+0x8c>
     962:	0686                	slli	a3,a3,0x1
     964:	bfe9                	j	93e <NVIC_Init+0x64>
     966:	07c68693          	addi	a3,a3,124
     96a:	0686                	slli	a3,a3,0x1
     96c:	bff1                	j	948 <NVIC_Init+0x6e>
     96e:	4394                	lw	a3,0(a5)
     970:	4791                	li	a5,4
     972:	f8f69ee3          	bne	a3,a5,90e <NVIC_Init+0x34>
     976:	311c                	lbu	a5,1(a0)
     978:	b7bd                	j	8e6 <NVIC_Init+0xc>
     97a:	06078793          	addi	a5,a5,96
     97e:	b74d                	j	920 <NVIC_Init+0x46>

00000980 <RCC_GetClocksFreq>:
     980:	40021737          	lui	a4,0x40021
     984:	435c                	lw	a5,4(a4)
     986:	4691                	li	a3,4
     988:	8bb1                	andi	a5,a5,12
     98a:	00d78563          	beq	a5,a3,994 <RCC_GetClocksFreq+0x14>
     98e:	46a1                	li	a3,8
     990:	06d78263          	beq	a5,a3,9f4 <RCC_GetClocksFreq+0x74>
     994:	007a17b7          	lui	a5,0x7a1
     998:	20078793          	addi	a5,a5,512 # 7a1200 <_data_lma+0x79322c>
     99c:	c11c                	sw	a5,0(a0)
     99e:	40021637          	lui	a2,0x40021
     9a2:	425c                	lw	a5,4(a2)
     9a4:	20000737          	lui	a4,0x20000
     9a8:	01070713          	addi	a4,a4,16 # 20000010 <APBAHBPrescTable>
     9ac:	8391                	srli	a5,a5,0x4
     9ae:	8bbd                	andi	a5,a5,15
     9b0:	97ba                	add	a5,a5,a4
     9b2:	2394                	lbu	a3,0(a5)
     9b4:	411c                	lw	a5,0(a0)
     9b6:	00d7d7b3          	srl	a5,a5,a3
     9ba:	c15c                	sw	a5,4(a0)
     9bc:	4254                	lw	a3,4(a2)
     9be:	82a1                	srli	a3,a3,0x8
     9c0:	8a9d                	andi	a3,a3,7
     9c2:	96ba                	add	a3,a3,a4
     9c4:	2294                	lbu	a3,0(a3)
     9c6:	00d7d6b3          	srl	a3,a5,a3
     9ca:	c514                	sw	a3,8(a0)
     9cc:	4254                	lw	a3,4(a2)
     9ce:	82ad                	srli	a3,a3,0xb
     9d0:	8a9d                	andi	a3,a3,7
     9d2:	9736                	add	a4,a4,a3
     9d4:	2318                	lbu	a4,0(a4)
     9d6:	00e7d7b3          	srl	a5,a5,a4
     9da:	c55c                	sw	a5,12(a0)
     9dc:	4258                	lw	a4,4(a2)
     9de:	8339                	srli	a4,a4,0xe
     9e0:	00377693          	andi	a3,a4,3
     9e4:	80418713          	addi	a4,gp,-2044 # 2000022c <ADCPrescTable>
     9e8:	9736                	add	a4,a4,a3
     9ea:	2318                	lbu	a4,0(a4)
     9ec:	02e7d7b3          	divu	a5,a5,a4
     9f0:	c91c                	sw	a5,16(a0)
     9f2:	8082                	ret
     9f4:	435c                	lw	a5,4(a4)
     9f6:	4358                	lw	a4,4(a4)
     9f8:	66c1                	lui	a3,0x10
     9fa:	83c9                	srli	a5,a5,0x12
     9fc:	8f75                	and	a4,a4,a3
     9fe:	1ffff6b7          	lui	a3,0x1ffff
     a02:	70c6a683          	lw	a3,1804(a3) # 1ffff70c <_data_lma+0x1fff1738>
     a06:	8bbd                	andi	a5,a5,15
     a08:	0789                	addi	a5,a5,2
     a0a:	01169613          	slli	a2,a3,0x11
     a0e:	00064863          	bltz	a2,a1e <RCC_GetClocksFreq+0x9e>
     a12:	46c5                	li	a3,17
     a14:	4601                	li	a2,0
     a16:	02d79263          	bne	a5,a3,a3a <RCC_GetClocksFreq+0xba>
     a1a:	47c9                	li	a5,18
     a1c:	a839                	j	a3a <RCC_GetClocksFreq+0xba>
     a1e:	4689                	li	a3,2
     a20:	02d78f63          	beq	a5,a3,a5e <RCC_GetClocksFreq+0xde>
     a24:	46bd                	li	a3,15
     a26:	02d78e63          	beq	a5,a3,a62 <RCC_GetClocksFreq+0xe2>
     a2a:	46c1                	li	a3,16
     a2c:	02d78e63          	beq	a5,a3,a68 <RCC_GetClocksFreq+0xe8>
     a30:	46c5                	li	a3,17
     a32:	4601                	li	a2,0
     a34:	00d79363          	bne	a5,a3,a3a <RCC_GetClocksFreq+0xba>
     a38:	47c1                	li	a5,16
     a3a:	ef1d                	bnez	a4,a78 <RCC_GetClocksFreq+0xf8>
     a3c:	40024737          	lui	a4,0x40024
     a40:	80072703          	lw	a4,-2048(a4) # 40023800 <_eusrstack+0x2001b800>
     a44:	8b41                	andi	a4,a4,16
     a46:	c705                	beqz	a4,a6e <RCC_GetClocksFreq+0xee>
     a48:	007a1737          	lui	a4,0x7a1
     a4c:	20070713          	addi	a4,a4,512 # 7a1200 <_data_lma+0x79322c>
     a50:	02f707b3          	mul	a5,a4,a5
     a54:	c11c                	sw	a5,0(a0)
     a56:	d621                	beqz	a2,99e <RCC_GetClocksFreq+0x1e>
     a58:	411c                	lw	a5,0(a0)
     a5a:	8385                	srli	a5,a5,0x1
     a5c:	b781                	j	99c <RCC_GetClocksFreq+0x1c>
     a5e:	4601                	li	a2,0
     a60:	bf6d                	j	a1a <RCC_GetClocksFreq+0x9a>
     a62:	4605                	li	a2,1
     a64:	47b5                	li	a5,13
     a66:	bfd1                	j	a3a <RCC_GetClocksFreq+0xba>
     a68:	4601                	li	a2,0
     a6a:	47bd                	li	a5,15
     a6c:	b7f9                	j	a3a <RCC_GetClocksFreq+0xba>
     a6e:	003d1737          	lui	a4,0x3d1
     a72:	90070713          	addi	a4,a4,-1792 # 3d0900 <_data_lma+0x3c292c>
     a76:	bfe9                	j	a50 <RCC_GetClocksFreq+0xd0>
     a78:	400215b7          	lui	a1,0x40021
     a7c:	55d8                	lw	a4,44(a1)
     a7e:	00f71693          	slli	a3,a4,0xf
     a82:	55d8                	lw	a4,44(a1)
     a84:	0406df63          	bgez	a3,ae2 <RCC_GetClocksFreq+0x162>
     a88:	8311                	srli	a4,a4,0x4
     a8a:	8b3d                	andi	a4,a4,15
     a8c:	00170693          	addi	a3,a4,1
     a90:	007a1737          	lui	a4,0x7a1
     a94:	20070713          	addi	a4,a4,512 # 7a1200 <_data_lma+0x79322c>
     a98:	02d75733          	divu	a4,a4,a3
     a9c:	c118                	sw	a4,0(a0)
     a9e:	55d4                	lw	a3,44(a1)
     aa0:	82a1                	srli	a3,a3,0x8
     aa2:	8abd                	andi	a3,a3,15
     aa4:	e28d                	bnez	a3,ac6 <RCC_GetClocksFreq+0x146>
     aa6:	4695                	li	a3,5
     aa8:	02d70733          	mul	a4,a4,a3
     aac:	8305                	srli	a4,a4,0x1
     aae:	c118                	sw	a4,0(a0)
     ab0:	40021737          	lui	a4,0x40021
     ab4:	5758                	lw	a4,44(a4)
     ab6:	4114                	lw	a3,0(a0)
     ab8:	8b3d                	andi	a4,a4,15
     aba:	0705                	addi	a4,a4,1
     abc:	02e6d733          	divu	a4,a3,a4
     ac0:	c118                	sw	a4,0(a0)
     ac2:	4118                	lw	a4,0(a0)
     ac4:	b771                	j	a50 <RCC_GetClocksFreq+0xd0>
     ac6:	4585                	li	a1,1
     ac8:	00b69463          	bne	a3,a1,ad0 <RCC_GetClocksFreq+0x150>
     acc:	46e5                	li	a3,25
     ace:	bfe9                	j	aa8 <RCC_GetClocksFreq+0x128>
     ad0:	45bd                	li	a1,15
     ad2:	00b69663          	bne	a3,a1,ade <RCC_GetClocksFreq+0x15e>
     ad6:	46d1                	li	a3,20
     ad8:	02e68733          	mul	a4,a3,a4
     adc:	bfc9                	j	aae <RCC_GetClocksFreq+0x12e>
     ade:	0689                	addi	a3,a3,2
     ae0:	bfe5                	j	ad8 <RCC_GetClocksFreq+0x158>
     ae2:	8b3d                	andi	a4,a4,15
     ae4:	00170693          	addi	a3,a4,1 # 40021001 <_eusrstack+0x20019001>
     ae8:	007a1737          	lui	a4,0x7a1
     aec:	20070713          	addi	a4,a4,512 # 7a1200 <_data_lma+0x79322c>
     af0:	02d75733          	divu	a4,a4,a3
     af4:	b7f1                	j	ac0 <RCC_GetClocksFreq+0x140>

00000af6 <RCC_APB2PeriphClockCmd>:
     af6:	c599                	beqz	a1,b04 <RCC_APB2PeriphClockCmd+0xe>
     af8:	40021737          	lui	a4,0x40021
     afc:	4f1c                	lw	a5,24(a4)
     afe:	8d5d                	or	a0,a0,a5
     b00:	cf08                	sw	a0,24(a4)
     b02:	8082                	ret
     b04:	400217b7          	lui	a5,0x40021
     b08:	4f98                	lw	a4,24(a5)
     b0a:	fff54513          	not	a0,a0
     b0e:	8d79                	and	a0,a0,a4
     b10:	cf88                	sw	a0,24(a5)
     b12:	8082                	ret

00000b14 <RCC_APB1PeriphClockCmd>:
     b14:	c599                	beqz	a1,b22 <RCC_APB1PeriphClockCmd+0xe>
     b16:	40021737          	lui	a4,0x40021
     b1a:	4f5c                	lw	a5,28(a4)
     b1c:	8d5d                	or	a0,a0,a5
     b1e:	cf48                	sw	a0,28(a4)
     b20:	8082                	ret
     b22:	400217b7          	lui	a5,0x40021
     b26:	4fd8                	lw	a4,28(a5)
     b28:	fff54513          	not	a0,a0
     b2c:	8d79                	and	a0,a0,a4
     b2e:	cfc8                	sw	a0,28(a5)
     b30:	8082                	ret

00000b32 <TIM_TimeBaseInit>:
     b32:	211e                	lhu	a5,0(a0)
     b34:	40013737          	lui	a4,0x40013
     b38:	c0070693          	addi	a3,a4,-1024 # 40012c00 <_eusrstack+0x2000ac00>
     b3c:	07c2                	slli	a5,a5,0x10
     b3e:	83c1                	srli	a5,a5,0x10
     b40:	04d50063          	beq	a0,a3,b80 <TIM_TimeBaseInit+0x4e>
     b44:	400006b7          	lui	a3,0x40000
     b48:	02d50c63          	beq	a0,a3,b80 <TIM_TimeBaseInit+0x4e>
     b4c:	40068693          	addi	a3,a3,1024 # 40000400 <_eusrstack+0x1fff8400>
     b50:	02d50863          	beq	a0,a3,b80 <TIM_TimeBaseInit+0x4e>
     b54:	400016b7          	lui	a3,0x40001
     b58:	80068613          	addi	a2,a3,-2048 # 40000800 <_eusrstack+0x1fff8800>
     b5c:	02c50263          	beq	a0,a2,b80 <TIM_TimeBaseInit+0x4e>
     b60:	c0068693          	addi	a3,a3,-1024
     b64:	00d50e63          	beq	a0,a3,b80 <TIM_TimeBaseInit+0x4e>
     b68:	40070713          	addi	a4,a4,1024
     b6c:	00e50a63          	beq	a0,a4,b80 <TIM_TimeBaseInit+0x4e>
     b70:	40015737          	lui	a4,0x40015
     b74:	c0070693          	addi	a3,a4,-1024 # 40014c00 <_eusrstack+0x2000cc00>
     b78:	00d50463          	beq	a0,a3,b80 <TIM_TimeBaseInit+0x4e>
     b7c:	00e51663          	bne	a0,a4,b88 <TIM_TimeBaseInit+0x56>
     b80:	21ba                	lhu	a4,2(a1)
     b82:	f8f7f793          	andi	a5,a5,-113
     b86:	8fd9                	or	a5,a5,a4
     b88:	40001737          	lui	a4,0x40001
     b8c:	00e50c63          	beq	a0,a4,ba4 <TIM_TimeBaseInit+0x72>
     b90:	40070713          	addi	a4,a4,1024 # 40001400 <_eusrstack+0x1fff9400>
     b94:	00e50863          	beq	a0,a4,ba4 <TIM_TimeBaseInit+0x72>
     b98:	cff7f793          	andi	a5,a5,-769
     b9c:	21fa                	lhu	a4,6(a1)
     b9e:	07c2                	slli	a5,a5,0x10
     ba0:	83c1                	srli	a5,a5,0x10
     ba2:	8fd9                	or	a5,a5,a4
     ba4:	a11e                	sh	a5,0(a0)
     ba6:	21de                	lhu	a5,4(a1)
     ba8:	b55e                	sh	a5,44(a0)
     baa:	219e                	lhu	a5,0(a1)
     bac:	b51e                	sh	a5,40(a0)
     bae:	400137b7          	lui	a5,0x40013
     bb2:	c0078713          	addi	a4,a5,-1024 # 40012c00 <_eusrstack+0x2000ac00>
     bb6:	00e50e63          	beq	a0,a4,bd2 <TIM_TimeBaseInit+0xa0>
     bba:	40078793          	addi	a5,a5,1024
     bbe:	00f50a63          	beq	a0,a5,bd2 <TIM_TimeBaseInit+0xa0>
     bc2:	400157b7          	lui	a5,0x40015
     bc6:	c0078713          	addi	a4,a5,-1024 # 40014c00 <_eusrstack+0x2000cc00>
     bca:	00e50463          	beq	a0,a4,bd2 <TIM_TimeBaseInit+0xa0>
     bce:	00f51463          	bne	a0,a5,bd6 <TIM_TimeBaseInit+0xa4>
     bd2:	259c                	lbu	a5,8(a1)
     bd4:	b91e                	sh	a5,48(a0)
     bd6:	4785                	li	a5,1
     bd8:	a95e                	sh	a5,20(a0)
     bda:	8082                	ret

00000bdc <TIM_Cmd>:
     bdc:	211e                	lhu	a5,0(a0)
     bde:	c589                	beqz	a1,be8 <TIM_Cmd+0xc>
     be0:	0017e793          	ori	a5,a5,1
     be4:	a11e                	sh	a5,0(a0)
     be6:	8082                	ret
     be8:	07c2                	slli	a5,a5,0x10
     bea:	83c1                	srli	a5,a5,0x10
     bec:	9bf9                	andi	a5,a5,-2
     bee:	07c2                	slli	a5,a5,0x10
     bf0:	83c1                	srli	a5,a5,0x10
     bf2:	bfcd                	j	be4 <TIM_Cmd+0x8>

00000bf4 <TIM_ITConfig>:
     bf4:	255e                	lhu	a5,12(a0)
     bf6:	c601                	beqz	a2,bfe <TIM_ITConfig+0xa>
     bf8:	8ddd                	or	a1,a1,a5
     bfa:	a54e                	sh	a1,12(a0)
     bfc:	8082                	ret
     bfe:	fff5c593          	not	a1,a1
     c02:	8dfd                	and	a1,a1,a5
     c04:	bfdd                	j	bfa <TIM_ITConfig+0x6>

00000c06 <TIM_GetITStatus>:
     c06:	291e                	lhu	a5,16(a0)
     c08:	254a                	lhu	a0,12(a0)
     c0a:	8fed                	and	a5,a5,a1
     c0c:	0542                	slli	a0,a0,0x10
     c0e:	8141                	srli	a0,a0,0x10
     c10:	c789                	beqz	a5,c1a <TIM_GetITStatus+0x14>
     c12:	8d6d                	and	a0,a0,a1
     c14:	00a03533          	snez	a0,a0
     c18:	8082                	ret
     c1a:	4501                	li	a0,0
     c1c:	8082                	ret

00000c1e <TIM_ClearITPendingBit>:
     c1e:	fff5c593          	not	a1,a1
     c22:	05c2                	slli	a1,a1,0x10
     c24:	81c1                	srli	a1,a1,0x10
     c26:	a90e                	sh	a1,16(a0)
     c28:	8082                	ret

00000c2a <USART_Init>:
     c2a:	e06ff2ef          	jal	t0,230 <__riscv_save_0>
     c2e:	2916                	lhu	a3,16(a0)
     c30:	77f5                	lui	a5,0xffffd
     c32:	17fd                	addi	a5,a5,-1
     c34:	8ff5                	and	a5,a5,a3
     c36:	21f6                	lhu	a3,6(a1)
     c38:	25da                	lhu	a4,12(a1)
     c3a:	7179                	addi	sp,sp,-48
     c3c:	8fd5                	or	a5,a5,a3
     c3e:	a91e                	sh	a5,16(a0)
     c40:	2556                	lhu	a3,12(a0)
     c42:	77fd                	lui	a5,0xfffff
     c44:	9f378793          	addi	a5,a5,-1549 # ffffe9f3 <_eusrstack+0xdfff69f3>
     c48:	8ff5                	and	a5,a5,a3
     c4a:	21d6                	lhu	a3,4(a1)
     c4c:	842a                	mv	s0,a0
     c4e:	c62e                	sw	a1,12(sp)
     c50:	8fd5                	or	a5,a5,a3
     c52:	2596                	lhu	a3,8(a1)
     c54:	8fd5                	or	a5,a5,a3
     c56:	25b6                	lhu	a3,10(a1)
     c58:	8fd5                	or	a5,a5,a3
     c5a:	a55e                	sh	a5,12(a0)
     c5c:	295e                	lhu	a5,20(a0)
     c5e:	07c2                	slli	a5,a5,0x10
     c60:	83c1                	srli	a5,a5,0x10
     c62:	cff7f793          	andi	a5,a5,-769
     c66:	8fd9                	or	a5,a5,a4
     c68:	a95e                	sh	a5,20(a0)
     c6a:	0868                	addi	a0,sp,28
     c6c:	3b11                	jal	980 <RCC_GetClocksFreq>
     c6e:	400147b7          	lui	a5,0x40014
     c72:	80078793          	addi	a5,a5,-2048 # 40013800 <_eusrstack+0x2000b800>
     c76:	45b2                	lw	a1,12(sp)
     c78:	04f41a63          	bne	s0,a5,ccc <USART_Init+0xa2>
     c7c:	57a2                	lw	a5,40(sp)
     c7e:	2456                	lhu	a3,12(s0)
     c80:	4765                	li	a4,25
     c82:	02e787b3          	mul	a5,a5,a4
     c86:	06c2                	slli	a3,a3,0x10
     c88:	86c1                	srai	a3,a3,0x10
     c8a:	4198                	lw	a4,0(a1)
     c8c:	0406d263          	bgez	a3,cd0 <USART_Init+0xa6>
     c90:	0706                	slli	a4,a4,0x1
     c92:	2452                	lhu	a2,12(s0)
     c94:	0642                	slli	a2,a2,0x10
     c96:	02e7d7b3          	divu	a5,a5,a4
     c9a:	06400713          	li	a4,100
     c9e:	8641                	srai	a2,a2,0x10
     ca0:	02e7d6b3          	divu	a3,a5,a4
     ca4:	02e7f7b3          	remu	a5,a5,a4
     ca8:	0692                	slli	a3,a3,0x4
     caa:	02065563          	bgez	a2,cd4 <USART_Init+0xaa>
     cae:	078e                	slli	a5,a5,0x3
     cb0:	03278793          	addi	a5,a5,50
     cb4:	02e7d7b3          	divu	a5,a5,a4
     cb8:	0077f713          	andi	a4,a5,7
     cbc:	00d767b3          	or	a5,a4,a3
     cc0:	07c2                	slli	a5,a5,0x10
     cc2:	83c1                	srli	a5,a5,0x10
     cc4:	a41e                	sh	a5,8(s0)
     cc6:	6145                	addi	sp,sp,48
     cc8:	d8cff06f          	j	254 <__riscv_restore_0>
     ccc:	5792                	lw	a5,36(sp)
     cce:	bf45                	j	c7e <USART_Init+0x54>
     cd0:	070a                	slli	a4,a4,0x2
     cd2:	b7c1                	j	c92 <USART_Init+0x68>
     cd4:	0792                	slli	a5,a5,0x4
     cd6:	03278793          	addi	a5,a5,50
     cda:	02e7d7b3          	divu	a5,a5,a4
     cde:	8bbd                	andi	a5,a5,15
     ce0:	8fd5                	or	a5,a5,a3
     ce2:	bff9                	j	cc0 <USART_Init+0x96>

00000ce4 <USART_Cmd>:
     ce4:	c591                	beqz	a1,cf0 <USART_Cmd+0xc>
     ce6:	255e                	lhu	a5,12(a0)
     ce8:	6709                	lui	a4,0x2
     cea:	8fd9                	or	a5,a5,a4
     cec:	a55e                	sh	a5,12(a0)
     cee:	8082                	ret
     cf0:	255a                	lhu	a4,12(a0)
     cf2:	77f9                	lui	a5,0xffffe
     cf4:	17fd                	addi	a5,a5,-1
     cf6:	8ff9                	and	a5,a5,a4
     cf8:	bfd5                	j	cec <USART_Cmd+0x8>

00000cfa <USART_SendData>:
     cfa:	1ff5f593          	andi	a1,a1,511
     cfe:	a14e                	sh	a1,4(a0)
     d00:	8082                	ret

00000d02 <USART_GetFlagStatus>:
     d02:	210a                	lhu	a0,0(a0)
     d04:	8d6d                	and	a0,a0,a1
     d06:	00a03533          	snez	a0,a0
     d0a:	8082                	ret

00000d0c <dmp_enable_gyro_cal.part.0>:
     d0c:	d24ff2ef          	jal	t0,230 <__riscv_save_0>
     d10:	8db3b7b7          	lui	a5,0x8db3b
     d14:	1141                	addi	sp,sp,-16
     d16:	ab878793          	addi	a5,a5,-1352 # 8db3aab8 <_eusrstack+0x6db32ab8>
     d1a:	c23e                	sw	a5,4(sp)
     d1c:	350da7b7          	lui	a5,0x350da
     d20:	8b478793          	addi	a5,a5,-1868 # 350d98b4 <_eusrstack+0x150d18b4>
     d24:	c43e                	sw	a5,8(sp)
     d26:	0050                	addi	a2,sp,4
     d28:	05d00793          	li	a5,93
     d2c:	45a5                	li	a1,9
     d2e:	4b800513          	li	a0,1208
     d32:	865c                	sb	a5,12(sp)
     d34:	019010ef          	jal	ra,254c <mpu_write_mem>
     d38:	0141                	addi	sp,sp,16
     d3a:	d1aff06f          	j	254 <__riscv_restore_0>

00000d3e <dmp_load_motion_driver_firmware>:
     d3e:	cf2ff2ef          	jal	t0,230 <__riscv_save_0>
     d42:	65b5                	lui	a1,0xd
     d44:	6505                	lui	a0,0x1
     d46:	0c800693          	li	a3,200
     d4a:	40000613          	li	a2,1024
     d4e:	b0058593          	addi	a1,a1,-1280 # cb00 <dmp_memory>
     d52:	bf650513          	addi	a0,a0,-1034 # bf6 <TIM_ITConfig+0x2>
     d56:	0cb010ef          	jal	ra,2620 <mpu_load_firmware>
     d5a:	cfaff06f          	j	254 <__riscv_restore_0>

00000d5e <dmp_set_orientation>:
     d5e:	cd2ff2ef          	jal	t0,230 <__riscv_save_0>
     d62:	77f5                	lui	a5,0xffffd
     d64:	1141                	addi	sp,sp,-16
     d66:	d4c78713          	addi	a4,a5,-692 # ffffcd4c <_eusrstack+0xdfff4d4c>
     d6a:	90c78793          	addi	a5,a5,-1780
     d6e:	867c                	sh	a5,12(sp)
     d70:	02c00793          	li	a5,44
     d74:	8478                	sh	a4,8(sp)
     d76:	875c                	sb	a5,14(sp)
     d78:	06c00713          	li	a4,108
     d7c:	00357693          	andi	a3,a0,3
     d80:	081c                	addi	a5,sp,16
     d82:	8558                	sb	a4,10(sp)
     d84:	96be                	add	a3,a3,a5
     d86:	ff86c783          	lbu	a5,-8(a3)
     d8a:	00355713          	srli	a4,a0,0x3
     d8e:	8b0d                	andi	a4,a4,3
     d90:	805c                	sb	a5,0(sp)
     d92:	081c                	addi	a5,sp,16
     d94:	973e                	add	a4,a4,a5
     d96:	ff874783          	lbu	a5,-8(a4) # 1ff8 <mpu_configure_fifo+0x1a>
     d9a:	0810                	addi	a2,sp,16
     d9c:	ffc6c683          	lbu	a3,-4(a3)
     da0:	80dc                	sb	a5,1(sp)
     da2:	00655793          	srli	a5,a0,0x6
     da6:	8b8d                	andi	a5,a5,3
     da8:	97b2                	add	a5,a5,a2
     daa:	ff87c603          	lbu	a2,-8(a5)
     dae:	ffc74703          	lbu	a4,-4(a4)
     db2:	ffc7c783          	lbu	a5,-4(a5)
     db6:	842a                	mv	s0,a0
     db8:	8150                	sb	a2,2(sp)
     dba:	458d                	li	a1,3
     dbc:	860a                	mv	a2,sp
     dbe:	42600513          	li	a0,1062
     dc2:	8254                	sb	a3,4(sp)
     dc4:	82d8                	sb	a4,5(sp)
     dc6:	835c                	sb	a5,6(sp)
     dc8:	784010ef          	jal	ra,254c <mpu_write_mem>
     dcc:	c509                	beqz	a0,dd6 <dmp_set_orientation+0x78>
     dce:	557d                	li	a0,-1
     dd0:	0141                	addi	sp,sp,16
     dd2:	c82ff06f          	j	254 <__riscv_restore_0>
     dd6:	0050                	addi	a2,sp,4
     dd8:	458d                	li	a1,3
     dda:	42a00513          	li	a0,1066
     dde:	76e010ef          	jal	ra,254c <mpu_write_mem>
     de2:	f575                	bnez	a0,dce <dmp_set_orientation+0x70>
     de4:	6795                	lui	a5,0x5
     de6:	63678793          	addi	a5,a5,1590 # 5636 <__gedf2+0x2a>
     dea:	807c                	sh	a5,0(sp)
     dec:	07600793          	li	a5,118
     df0:	815c                	sb	a5,2(sp)
     df2:	6791                	lui	a5,0x4
     df4:	62678793          	addi	a5,a5,1574 # 4626 <__divdi3+0xd2>
     df8:	827c                	sh	a5,4(sp)
     dfa:	06600793          	li	a5,102
     dfe:	835c                	sb	a5,6(sp)
     e00:	00447793          	andi	a5,s0,4
     e04:	c799                	beqz	a5,e12 <dmp_set_orientation+0xb4>
     e06:	03700793          	li	a5,55
     e0a:	805c                	sb	a5,0(sp)
     e0c:	02700793          	li	a5,39
     e10:	825c                	sb	a5,4(sp)
     e12:	02047793          	andi	a5,s0,32
     e16:	c799                	beqz	a5,e24 <dmp_set_orientation+0xc6>
     e18:	05700793          	li	a5,87
     e1c:	80dc                	sb	a5,1(sp)
     e1e:	04700793          	li	a5,71
     e22:	82dc                	sb	a5,5(sp)
     e24:	10047793          	andi	a5,s0,256
     e28:	c799                	beqz	a5,e36 <dmp_set_orientation+0xd8>
     e2a:	07700793          	li	a5,119
     e2e:	815c                	sb	a5,2(sp)
     e30:	06700793          	li	a5,103
     e34:	835c                	sb	a5,6(sp)
     e36:	860a                	mv	a2,sp
     e38:	458d                	li	a1,3
     e3a:	44000513          	li	a0,1088
     e3e:	70e010ef          	jal	ra,254c <mpu_write_mem>
     e42:	f551                	bnez	a0,dce <dmp_set_orientation+0x70>
     e44:	0050                	addi	a2,sp,4
     e46:	458d                	li	a1,3
     e48:	43100513          	li	a0,1073
     e4c:	700010ef          	jal	ra,254c <mpu_write_mem>
     e50:	fd3d                	bnez	a0,dce <dmp_set_orientation+0x70>
     e52:	84819a23          	sh	s0,-1964(gp) # 2000027c <dmp+0x8>
     e56:	bfad                	j	dd0 <dmp_set_orientation+0x72>

00000e58 <dmp_set_gyro_bias>:
     e58:	bd8ff2ef          	jal	t0,230 <__riscv_save_0>
     e5c:	8541d783          	lhu	a5,-1964(gp) # 2000027c <dmp+0x8>
     e60:	1141                	addi	sp,sp,-16
     e62:	0037f713          	andi	a4,a5,3
     e66:	070a                	slli	a4,a4,0x2
     e68:	972a                	add	a4,a4,a0
     e6a:	430c                	lw	a1,0(a4)
     e6c:	0047f713          	andi	a4,a5,4
     e70:	c319                	beqz	a4,e76 <dmp_set_gyro_bias+0x1e>
     e72:	40b005b3          	neg	a1,a1
     e76:	0017d713          	srli	a4,a5,0x1
     e7a:	8b31                	andi	a4,a4,12
     e7c:	972a                	add	a4,a4,a0
     e7e:	4310                	lw	a2,0(a4)
     e80:	0207f713          	andi	a4,a5,32
     e84:	c319                	beqz	a4,e8a <dmp_set_gyro_bias+0x32>
     e86:	40c00633          	neg	a2,a2
     e8a:	0047d713          	srli	a4,a5,0x4
     e8e:	8b31                	andi	a4,a4,12
     e90:	953a                	add	a0,a0,a4
     e92:	1007f793          	andi	a5,a5,256
     e96:	4118                	lw	a4,0(a0)
     e98:	c399                	beqz	a5,e9e <dmp_set_gyro_bias+0x46>
     e9a:	40e00733          	neg	a4,a4
     e9e:	02cae6b7          	lui	a3,0x2cae
     ea2:	30968693          	addi	a3,a3,777 # 2cae309 <_data_lma+0x2ca0335>
     ea6:	02d587b3          	mul	a5,a1,a3
     eaa:	3d000513          	li	a0,976
     eae:	02d595b3          	mulh	a1,a1,a3
     eb2:	83f9                	srli	a5,a5,0x1e
     eb4:	02d70433          	mul	s0,a4,a3
     eb8:	058a                	slli	a1,a1,0x2
     eba:	8fcd                	or	a5,a5,a1
     ebc:	4591                	li	a1,4
     ebe:	02d71733          	mulh	a4,a4,a3
     ec2:	8079                	srli	s0,s0,0x1e
     ec4:	02d604b3          	mul	s1,a2,a3
     ec8:	070a                	slli	a4,a4,0x2
     eca:	8c59                	or	s0,s0,a4
     ecc:	4187d713          	srai	a4,a5,0x18
     ed0:	8658                	sb	a4,12(sp)
     ed2:	4107d713          	srai	a4,a5,0x10
     ed6:	86d8                	sb	a4,13(sp)
     ed8:	00879713          	slli	a4,a5,0x8
     edc:	07c2                	slli	a5,a5,0x10
     ede:	83c1                	srli	a5,a5,0x10
     ee0:	02d61633          	mulh	a2,a2,a3
     ee4:	80f9                	srli	s1,s1,0x1e
     ee6:	83a1                	srli	a5,a5,0x8
     ee8:	8fd9                	or	a5,a5,a4
     eea:	877c                	sh	a5,14(sp)
     eec:	060a                	slli	a2,a2,0x2
     eee:	8cd1                	or	s1,s1,a2
     ef0:	0070                	addi	a2,sp,12
     ef2:	65a010ef          	jal	ra,254c <mpu_write_mem>
     ef6:	c509                	beqz	a0,f00 <dmp_set_gyro_bias+0xa8>
     ef8:	557d                	li	a0,-1
     efa:	0141                	addi	sp,sp,16
     efc:	b58ff06f          	j	254 <__riscv_restore_0>
     f00:	4184d793          	srai	a5,s1,0x18
     f04:	865c                	sb	a5,12(sp)
     f06:	4104d793          	srai	a5,s1,0x10
     f0a:	86dc                	sb	a5,13(sp)
     f0c:	00849793          	slli	a5,s1,0x8
     f10:	04c2                	slli	s1,s1,0x10
     f12:	80c1                	srli	s1,s1,0x10
     f14:	80a1                	srli	s1,s1,0x8
     f16:	8cdd                	or	s1,s1,a5
     f18:	0070                	addi	a2,sp,12
     f1a:	4591                	li	a1,4
     f1c:	3d400513          	li	a0,980
     f20:	8764                	sh	s1,14(sp)
     f22:	62a010ef          	jal	ra,254c <mpu_write_mem>
     f26:	f969                	bnez	a0,ef8 <dmp_set_gyro_bias+0xa0>
     f28:	41845793          	srai	a5,s0,0x18
     f2c:	865c                	sb	a5,12(sp)
     f2e:	41045793          	srai	a5,s0,0x10
     f32:	86dc                	sb	a5,13(sp)
     f34:	00841793          	slli	a5,s0,0x8
     f38:	0442                	slli	s0,s0,0x10
     f3a:	8041                	srli	s0,s0,0x10
     f3c:	8021                	srli	s0,s0,0x8
     f3e:	8c5d                	or	s0,s0,a5
     f40:	0070                	addi	a2,sp,12
     f42:	4591                	li	a1,4
     f44:	3d800513          	li	a0,984
     f48:	8760                	sh	s0,14(sp)
     f4a:	602010ef          	jal	ra,254c <mpu_write_mem>
     f4e:	b775                	j	efa <dmp_set_gyro_bias+0xa2>

00000f50 <dmp_set_accel_bias>:
     f50:	ae0ff2ef          	jal	t0,230 <__riscv_save_0>
     f54:	1141                	addi	sp,sp,-16
     f56:	842a                	mv	s0,a0
     f58:	00210513          	addi	a0,sp,2
     f5c:	034010ef          	jal	ra,1f90 <mpu_get_accel_sens>
     f60:	8541d783          	lhu	a5,-1964(gp) # 2000027c <dmp+0x8>
     f64:	8130                	lhu	a2,2(sp)
     f66:	0037f713          	andi	a4,a5,3
     f6a:	070a                	slli	a4,a4,0x2
     f6c:	9722                	add	a4,a4,s0
     f6e:	0047f693          	andi	a3,a5,4
     f72:	063e                	slli	a2,a2,0xf
     f74:	4318                	lw	a4,0(a4)
     f76:	c299                	beqz	a3,f7c <dmp_set_accel_bias+0x2c>
     f78:	40e00733          	neg	a4,a4
     f7c:	0017d693          	srli	a3,a5,0x1
     f80:	8ab1                	andi	a3,a3,12
     f82:	96a2                	add	a3,a3,s0
     f84:	428c                	lw	a1,0(a3)
     f86:	0207f693          	andi	a3,a5,32
     f8a:	c299                	beqz	a3,f90 <dmp_set_accel_bias+0x40>
     f8c:	40b005b3          	neg	a1,a1
     f90:	0047d693          	srli	a3,a5,0x4
     f94:	8ab1                	andi	a3,a3,12
     f96:	9436                	add	s0,s0,a3
     f98:	1007f793          	andi	a5,a5,256
     f9c:	4008                	lw	a0,0(s0)
     f9e:	c399                	beqz	a5,fa4 <dmp_set_accel_bias+0x54>
     fa0:	40a00533          	neg	a0,a0
     fa4:	41f75793          	srai	a5,a4,0x1f
     fa8:	02c706b3          	mul	a3,a4,a2
     fac:	02c787b3          	mul	a5,a5,a2
     fb0:	82f9                	srli	a3,a3,0x1e
     fb2:	02c73733          	mulhu	a4,a4,a2
     fb6:	97ba                	add	a5,a5,a4
     fb8:	078a                	slli	a5,a5,0x2
     fba:	8edd                	or	a3,a3,a5
     fbc:	41f5d793          	srai	a5,a1,0x1f
     fc0:	02c58733          	mul	a4,a1,a2
     fc4:	02c787b3          	mul	a5,a5,a2
     fc8:	8379                	srli	a4,a4,0x1e
     fca:	02c5b5b3          	mulhu	a1,a1,a2
     fce:	97ae                	add	a5,a5,a1
     fd0:	078a                	slli	a5,a5,0x2
     fd2:	41f55593          	srai	a1,a0,0x1f
     fd6:	8f5d                	or	a4,a4,a5
     fd8:	02c585b3          	mul	a1,a1,a2
     fdc:	02c507b3          	mul	a5,a0,a2
     fe0:	02c53633          	mulhu	a2,a0,a2
     fe4:	83f9                	srli	a5,a5,0x1e
     fe6:	29400513          	li	a0,660
     fea:	962e                	add	a2,a2,a1
     fec:	060a                	slli	a2,a2,0x2
     fee:	8fd1                	or	a5,a5,a2
     ff0:	4186d613          	srai	a2,a3,0x18
     ff4:	8250                	sb	a2,4(sp)
     ff6:	4106d613          	srai	a2,a3,0x10
     ffa:	82d0                	sb	a2,5(sp)
     ffc:	00869613          	slli	a2,a3,0x8
    1000:	06c2                	slli	a3,a3,0x10
    1002:	82c1                	srli	a3,a3,0x10
    1004:	82a1                	srli	a3,a3,0x8
    1006:	8ed1                	or	a3,a3,a2
    1008:	8374                	sh	a3,6(sp)
    100a:	41875693          	srai	a3,a4,0x18
    100e:	8454                	sb	a3,8(sp)
    1010:	41075693          	srai	a3,a4,0x10
    1014:	84d4                	sb	a3,9(sp)
    1016:	00871693          	slli	a3,a4,0x8
    101a:	0742                	slli	a4,a4,0x10
    101c:	8341                	srli	a4,a4,0x10
    101e:	8321                	srli	a4,a4,0x8
    1020:	8f55                	or	a4,a4,a3
    1022:	8578                	sh	a4,10(sp)
    1024:	4187d713          	srai	a4,a5,0x18
    1028:	8658                	sb	a4,12(sp)
    102a:	4107d713          	srai	a4,a5,0x10
    102e:	86d8                	sb	a4,13(sp)
    1030:	00879713          	slli	a4,a5,0x8
    1034:	07c2                	slli	a5,a5,0x10
    1036:	83c1                	srli	a5,a5,0x10
    1038:	83a1                	srli	a5,a5,0x8
    103a:	8fd9                	or	a5,a5,a4
    103c:	0050                	addi	a2,sp,4
    103e:	45b1                	li	a1,12
    1040:	877c                	sh	a5,14(sp)
    1042:	50a010ef          	jal	ra,254c <mpu_write_mem>
    1046:	0141                	addi	sp,sp,16
    1048:	a0cff06f          	j	254 <__riscv_restore_0>

0000104c <dmp_set_fifo_rate>:
    104c:	9e4ff2ef          	jal	t0,230 <__riscv_save_0>
    1050:	1101                	addi	sp,sp,-32
    1052:	65b5                	lui	a1,0xd
    1054:	842a                	mv	s0,a0
    1056:	4631                	li	a2,12
    1058:	ab058593          	addi	a1,a1,-1360 # cab0 <_read+0xe>
    105c:	0848                	addi	a0,sp,20
    105e:	5a2060ef          	jal	ra,7600 <memcpy>
    1062:	0c800793          	li	a5,200
    1066:	0087f663          	bgeu	a5,s0,1072 <dmp_set_fifo_rate+0x26>
    106a:	557d                	li	a0,-1
    106c:	6105                	addi	sp,sp,32
    106e:	9e6ff06f          	j	254 <__riscv_restore_0>
    1072:	0287c7b3          	div	a5,a5,s0
    1076:	0070                	addi	a2,sp,12
    1078:	4589                	li	a1,2
    107a:	21600513          	li	a0,534
    107e:	00010623          	sb	zero,12(sp)
    1082:	17fd                	addi	a5,a5,-1
    1084:	86dc                	sb	a5,13(sp)
    1086:	4c6010ef          	jal	ra,254c <mpu_write_mem>
    108a:	f165                	bnez	a0,106a <dmp_set_fifo_rate+0x1e>
    108c:	6505                	lui	a0,0x1
    108e:	0850                	addi	a2,sp,20
    1090:	45b1                	li	a1,12
    1092:	ac150513          	addi	a0,a0,-1343 # ac1 <RCC_GetClocksFreq+0x141>
    1096:	4b6010ef          	jal	ra,254c <mpu_write_mem>
    109a:	f961                	bnez	a0,106a <dmp_set_fifo_rate+0x1e>
    109c:	84819c23          	sh	s0,-1960(gp) # 20000280 <dmp+0xc>
    10a0:	b7f1                	j	106c <dmp_set_fifo_rate+0x20>

000010a2 <dmp_set_tap_thresh>:
    10a2:	00757793          	andi	a5,a0,7
    10a6:	e399                	bnez	a5,10ac <dmp_set_tap_thresh+0xa>
    10a8:	557d                	li	a0,-1
    10aa:	8082                	ret
    10ac:	64000793          	li	a5,1600
    10b0:	feb7ece3          	bltu	a5,a1,10a8 <dmp_set_tap_thresh+0x6>
    10b4:	97cff2ef          	jal	t0,230 <__riscv_save_0>
    10b8:	1141                	addi	sp,sp,-16
    10ba:	842a                	mv	s0,a0
    10bc:	852e                	mv	a0,a1
    10be:	1c4060ef          	jal	ra,7282 <__floatunsisf>
    10c2:	0000d7b7          	lui	a5,0xd
    10c6:	6f87a583          	lw	a1,1784(a5) # d6f8 <dmp_memory+0xbf8>
    10ca:	5fe050ef          	jal	ra,66c8 <__divsf3>
    10ce:	84aa                	mv	s1,a0
    10d0:	00b10513          	addi	a0,sp,11
    10d4:	4d5000ef          	jal	ra,1da8 <mpu_get_accel_fsr>
    10d8:	859c                	lbu	a5,11(sp)
    10da:	4711                	li	a4,4
    10dc:	0ee78363          	beq	a5,a4,11c2 <dmp_set_tap_thresh+0x120>
    10e0:	00f76963          	bltu	a4,a5,10f2 <dmp_set_tap_thresh+0x50>
    10e4:	4709                	li	a4,2
    10e6:	02e78e63          	beq	a5,a4,1122 <dmp_set_tap_thresh+0x80>
    10ea:	557d                	li	a0,-1
    10ec:	0141                	addi	sp,sp,16
    10ee:	966ff06f          	j	254 <__riscv_restore_0>
    10f2:	4721                	li	a4,8
    10f4:	0ee78963          	beq	a5,a4,11e6 <dmp_set_tap_thresh+0x144>
    10f8:	4741                	li	a4,16
    10fa:	fee798e3          	bne	a5,a4,10ea <dmp_set_tap_thresh+0x48>
    10fe:	0000d7b7          	lui	a5,0xd
    1102:	7147a583          	lw	a1,1812(a5) # d714 <dmp_memory+0xc14>
    1106:	8526                	mv	a0,s1
    1108:	1e1050ef          	jal	ra,6ae8 <__mulsf3>
    110c:	05a060ef          	jal	ra,7166 <__fixunssfsi>
    1110:	01051913          	slli	s2,a0,0x10
    1114:	0000d7b7          	lui	a5,0xd
    1118:	01095913          	srli	s2,s2,0x10
    111c:	7187a583          	lw	a1,1816(a5) # d718 <dmp_memory+0xc18>
    1120:	a015                	j	1144 <dmp_set_tap_thresh+0xa2>
    1122:	0000d7b7          	lui	a5,0xd
    1126:	6fc7a583          	lw	a1,1788(a5) # d6fc <dmp_memory+0xbfc>
    112a:	8526                	mv	a0,s1
    112c:	1bd050ef          	jal	ra,6ae8 <__mulsf3>
    1130:	036060ef          	jal	ra,7166 <__fixunssfsi>
    1134:	0000d7b7          	lui	a5,0xd
    1138:	7007a583          	lw	a1,1792(a5) # d700 <dmp_memory+0xc00>
    113c:	01051913          	slli	s2,a0,0x10
    1140:	01095913          	srli	s2,s2,0x10
    1144:	8526                	mv	a0,s1
    1146:	1a3050ef          	jal	ra,6ae8 <__mulsf3>
    114a:	01c060ef          	jal	ra,7166 <__fixunssfsi>
    114e:	0542                	slli	a0,a0,0x10
    1150:	00891793          	slli	a5,s2,0x8
    1154:	8141                	srli	a0,a0,0x10
    1156:	00895913          	srli	s2,s2,0x8
    115a:	0127e933          	or	s2,a5,s2
    115e:	00851793          	slli	a5,a0,0x8
    1162:	8121                	srli	a0,a0,0x8
    1164:	8d5d                	or	a0,a0,a5
    1166:	01211623          	sh	s2,12(sp)
    116a:	8768                	sh	a0,14(sp)
    116c:	00147793          	andi	a5,s0,1
    1170:	efc9                	bnez	a5,120a <dmp_set_tap_thresh+0x168>
    1172:	00247793          	andi	a5,s0,2
    1176:	c385                	beqz	a5,1196 <dmp_set_tap_thresh+0xf4>
    1178:	0070                	addi	a2,sp,12
    117a:	4589                	li	a1,2
    117c:	1d800513          	li	a0,472
    1180:	3cc010ef          	jal	ra,254c <mpu_write_mem>
    1184:	f13d                	bnez	a0,10ea <dmp_set_tap_thresh+0x48>
    1186:	00e10613          	addi	a2,sp,14
    118a:	4589                	li	a1,2
    118c:	12800513          	li	a0,296
    1190:	3bc010ef          	jal	ra,254c <mpu_write_mem>
    1194:	f939                	bnez	a0,10ea <dmp_set_tap_thresh+0x48>
    1196:	8811                	andi	s0,s0,4
    1198:	4501                	li	a0,0
    119a:	d829                	beqz	s0,10ec <dmp_set_tap_thresh+0x4a>
    119c:	0070                	addi	a2,sp,12
    119e:	4589                	li	a1,2
    11a0:	1dc00513          	li	a0,476
    11a4:	3a8010ef          	jal	ra,254c <mpu_write_mem>
    11a8:	f129                	bnez	a0,10ea <dmp_set_tap_thresh+0x48>
    11aa:	00e10613          	addi	a2,sp,14
    11ae:	4589                	li	a1,2
    11b0:	12c00513          	li	a0,300
    11b4:	398010ef          	jal	ra,254c <mpu_write_mem>
    11b8:	00a03533          	snez	a0,a0
    11bc:	40a00533          	neg	a0,a0
    11c0:	b735                	j	10ec <dmp_set_tap_thresh+0x4a>
    11c2:	0000d7b7          	lui	a5,0xd
    11c6:	7047a583          	lw	a1,1796(a5) # d704 <dmp_memory+0xc04>
    11ca:	8526                	mv	a0,s1
    11cc:	11d050ef          	jal	ra,6ae8 <__mulsf3>
    11d0:	797050ef          	jal	ra,7166 <__fixunssfsi>
    11d4:	01051913          	slli	s2,a0,0x10
    11d8:	0000d7b7          	lui	a5,0xd
    11dc:	01095913          	srli	s2,s2,0x10
    11e0:	7087a583          	lw	a1,1800(a5) # d708 <dmp_memory+0xc08>
    11e4:	b785                	j	1144 <dmp_set_tap_thresh+0xa2>
    11e6:	0000d7b7          	lui	a5,0xd
    11ea:	70c7a583          	lw	a1,1804(a5) # d70c <dmp_memory+0xc0c>
    11ee:	8526                	mv	a0,s1
    11f0:	0f9050ef          	jal	ra,6ae8 <__mulsf3>
    11f4:	773050ef          	jal	ra,7166 <__fixunssfsi>
    11f8:	01051913          	slli	s2,a0,0x10
    11fc:	0000d7b7          	lui	a5,0xd
    1200:	01095913          	srli	s2,s2,0x10
    1204:	7107a583          	lw	a1,1808(a5) # d710 <dmp_memory+0xc10>
    1208:	bf35                	j	1144 <dmp_set_tap_thresh+0xa2>
    120a:	0070                	addi	a2,sp,12
    120c:	4589                	li	a1,2
    120e:	1d400513          	li	a0,468
    1212:	33a010ef          	jal	ra,254c <mpu_write_mem>
    1216:	ec051ae3          	bnez	a0,10ea <dmp_set_tap_thresh+0x48>
    121a:	00e10613          	addi	a2,sp,14
    121e:	4589                	li	a1,2
    1220:	12400513          	li	a0,292
    1224:	328010ef          	jal	ra,254c <mpu_write_mem>
    1228:	d529                	beqz	a0,1172 <dmp_set_tap_thresh+0xd0>
    122a:	b5c1                	j	10ea <dmp_set_tap_thresh+0x48>

0000122c <dmp_set_tap_axes>:
    122c:	804ff2ef          	jal	t0,230 <__riscv_save_0>
    1230:	00157793          	andi	a5,a0,1
    1234:	1141                	addi	sp,sp,-16
    1236:	eb95                	bnez	a5,126a <dmp_set_tap_axes+0x3e>
    1238:	000107a3          	sb	zero,15(sp)
    123c:	00257793          	andi	a5,a0,2
    1240:	c789                	beqz	a5,124a <dmp_set_tap_axes+0x1e>
    1242:	879c                	lbu	a5,15(sp)
    1244:	00c7e793          	ori	a5,a5,12
    1248:	87dc                	sb	a5,15(sp)
    124a:	8911                	andi	a0,a0,4
    124c:	c509                	beqz	a0,1256 <dmp_set_tap_axes+0x2a>
    124e:	879c                	lbu	a5,15(sp)
    1250:	0037e793          	ori	a5,a5,3
    1254:	87dc                	sb	a5,15(sp)
    1256:	00f10613          	addi	a2,sp,15
    125a:	4585                	li	a1,1
    125c:	14800513          	li	a0,328
    1260:	2ec010ef          	jal	ra,254c <mpu_write_mem>
    1264:	0141                	addi	sp,sp,16
    1266:	feffe06f          	j	254 <__riscv_restore_0>
    126a:	03000793          	li	a5,48
    126e:	87dc                	sb	a5,15(sp)
    1270:	b7f1                	j	123c <dmp_set_tap_axes+0x10>

00001272 <dmp_set_tap_count>:
    1272:	fbffe2ef          	jal	t0,230 <__riscv_save_0>
    1276:	1141                	addi	sp,sp,-16
    1278:	4785                	li	a5,1
    127a:	c519                	beqz	a0,1288 <dmp_set_tap_count+0x16>
    127c:	4711                	li	a4,4
    127e:	0ff57793          	andi	a5,a0,255
    1282:	00a77363          	bgeu	a4,a0,1288 <dmp_set_tap_count+0x16>
    1286:	4791                	li	a5,4
    1288:	17fd                	addi	a5,a5,-1
    128a:	00f10613          	addi	a2,sp,15
    128e:	4585                	li	a1,1
    1290:	14f00513          	li	a0,335
    1294:	87dc                	sb	a5,15(sp)
    1296:	2b6010ef          	jal	ra,254c <mpu_write_mem>
    129a:	0141                	addi	sp,sp,16
    129c:	fb9fe06f          	j	254 <__riscv_restore_0>

000012a0 <dmp_set_tap_time>:
    12a0:	f91fe2ef          	jal	t0,230 <__riscv_save_0>
    12a4:	4795                	li	a5,5
    12a6:	02f55533          	divu	a0,a0,a5
    12aa:	1141                	addi	sp,sp,-16
    12ac:	0070                	addi	a2,sp,12
    12ae:	4589                	li	a1,2
    12b0:	00851793          	slli	a5,a0,0x8
    12b4:	8121                	srli	a0,a0,0x8
    12b6:	8d5d                	or	a0,a0,a5
    12b8:	8668                	sh	a0,12(sp)
    12ba:	1de00513          	li	a0,478
    12be:	28e010ef          	jal	ra,254c <mpu_write_mem>
    12c2:	0141                	addi	sp,sp,16
    12c4:	f91fe06f          	j	254 <__riscv_restore_0>

000012c8 <dmp_set_tap_time_multi>:
    12c8:	f69fe2ef          	jal	t0,230 <__riscv_save_0>
    12cc:	4795                	li	a5,5
    12ce:	02f55533          	divu	a0,a0,a5
    12d2:	1141                	addi	sp,sp,-16
    12d4:	0070                	addi	a2,sp,12
    12d6:	4589                	li	a1,2
    12d8:	00851793          	slli	a5,a0,0x8
    12dc:	8121                	srli	a0,a0,0x8
    12de:	8d5d                	or	a0,a0,a5
    12e0:	8668                	sh	a0,12(sp)
    12e2:	1da00513          	li	a0,474
    12e6:	266010ef          	jal	ra,254c <mpu_write_mem>
    12ea:	0141                	addi	sp,sp,16
    12ec:	f69fe06f          	j	254 <__riscv_restore_0>

000012f0 <dmp_set_shake_reject_thresh>:
    12f0:	f41fe2ef          	jal	t0,230 <__riscv_save_0>
    12f4:	3e800793          	li	a5,1000
    12f8:	02f54533          	div	a0,a0,a5
    12fc:	1141                	addi	sp,sp,-16
    12fe:	0070                	addi	a2,sp,12
    1300:	02b505b3          	mul	a1,a0,a1
    1304:	15c00513          	li	a0,348
    1308:	4185d793          	srai	a5,a1,0x18
    130c:	865c                	sb	a5,12(sp)
    130e:	4105d793          	srai	a5,a1,0x10
    1312:	86dc                	sb	a5,13(sp)
    1314:	00859793          	slli	a5,a1,0x8
    1318:	05c2                	slli	a1,a1,0x10
    131a:	81c1                	srli	a1,a1,0x10
    131c:	81a1                	srli	a1,a1,0x8
    131e:	8ddd                	or	a1,a1,a5
    1320:	876c                	sh	a1,14(sp)
    1322:	4591                	li	a1,4
    1324:	228010ef          	jal	ra,254c <mpu_write_mem>
    1328:	0141                	addi	sp,sp,16
    132a:	f2bfe06f          	j	254 <__riscv_restore_0>

0000132e <dmp_set_shake_reject_time>:
    132e:	f03fe2ef          	jal	t0,230 <__riscv_save_0>
    1332:	4795                	li	a5,5
    1334:	02f55533          	divu	a0,a0,a5
    1338:	1141                	addi	sp,sp,-16
    133a:	0070                	addi	a2,sp,12
    133c:	4589                	li	a1,2
    133e:	00851793          	slli	a5,a0,0x8
    1342:	8121                	srli	a0,a0,0x8
    1344:	8d5d                	or	a0,a0,a5
    1346:	8668                	sh	a0,12(sp)
    1348:	15a00513          	li	a0,346
    134c:	200010ef          	jal	ra,254c <mpu_write_mem>
    1350:	0141                	addi	sp,sp,16
    1352:	f03fe06f          	j	254 <__riscv_restore_0>

00001356 <dmp_set_shake_reject_timeout>:
    1356:	edbfe2ef          	jal	t0,230 <__riscv_save_0>
    135a:	4795                	li	a5,5
    135c:	02f55533          	divu	a0,a0,a5
    1360:	1141                	addi	sp,sp,-16
    1362:	0070                	addi	a2,sp,12
    1364:	4589                	li	a1,2
    1366:	00851793          	slli	a5,a0,0x8
    136a:	8121                	srli	a0,a0,0x8
    136c:	8d5d                	or	a0,a0,a5
    136e:	8668                	sh	a0,12(sp)
    1370:	15800513          	li	a0,344
    1374:	1d8010ef          	jal	ra,254c <mpu_write_mem>
    1378:	0141                	addi	sp,sp,16
    137a:	edbfe06f          	j	254 <__riscv_restore_0>

0000137e <dmp_enable_gyro_cal>:
    137e:	eb3fe2ef          	jal	t0,230 <__riscv_save_0>
    1382:	1141                	addi	sp,sp,-16
    1384:	c511                	beqz	a0,1390 <dmp_enable_gyro_cal+0x12>
    1386:	987ff0ef          	jal	ra,d0c <dmp_enable_gyro_cal.part.0>
    138a:	0141                	addi	sp,sp,16
    138c:	ec9fe06f          	j	254 <__riscv_restore_0>
    1390:	65b5                	lui	a1,0xd
    1392:	4625                	li	a2,9
    1394:	abc58593          	addi	a1,a1,-1348 # cabc <_read+0x1a>
    1398:	0048                	addi	a0,sp,4
    139a:	266060ef          	jal	ra,7600 <memcpy>
    139e:	0050                	addi	a2,sp,4
    13a0:	45a5                	li	a1,9
    13a2:	4b800513          	li	a0,1208
    13a6:	1a6010ef          	jal	ra,254c <mpu_write_mem>
    13aa:	b7c5                	j	138a <dmp_enable_gyro_cal+0xc>

000013ac <dmp_enable_lp_quat>:
    13ac:	e85fe2ef          	jal	t0,230 <__riscv_save_0>
    13b0:	1141                	addi	sp,sp,-16
    13b2:	c115                	beqz	a0,13d6 <dmp_enable_lp_quat+0x2a>
    13b4:	c6c4c7b7          	lui	a5,0xc6c4c
    13b8:	2c078793          	addi	a5,a5,704 # c6c4c2c0 <_eusrstack+0xa6c442c0>
    13bc:	6505                	lui	a0,0x1
    13be:	0070                	addi	a2,sp,12
    13c0:	4591                	li	a1,4
    13c2:	a9850513          	addi	a0,a0,-1384 # a98 <RCC_GetClocksFreq+0x118>
    13c6:	c63e                	sw	a5,12(sp)
    13c8:	184010ef          	jal	ra,254c <mpu_write_mem>
    13cc:	7d2000ef          	jal	ra,1b9e <mpu_reset_fifo>
    13d0:	0141                	addi	sp,sp,16
    13d2:	e83fe06f          	j	254 <__riscv_restore_0>
    13d6:	8b8b97b7          	lui	a5,0x8b8b9
    13da:	b8b78793          	addi	a5,a5,-1141 # 8b8b8b8b <_eusrstack+0x6b8b0b8b>
    13de:	bff9                	j	13bc <dmp_enable_lp_quat+0x10>

000013e0 <dmp_enable_6x_lp_quat>:
    13e0:	e51fe2ef          	jal	t0,230 <__riscv_save_0>
    13e4:	1141                	addi	sp,sp,-16
    13e6:	c115                	beqz	a0,140a <dmp_enable_6x_lp_quat+0x2a>
    13e8:	383037b7          	lui	a5,0x38303
    13ec:	82078793          	addi	a5,a5,-2016 # 38302820 <_eusrstack+0x182fa820>
    13f0:	6505                	lui	a0,0x1
    13f2:	0070                	addi	a2,sp,12
    13f4:	4591                	li	a1,4
    13f6:	a9e50513          	addi	a0,a0,-1378 # a9e <RCC_GetClocksFreq+0x11e>
    13fa:	c63e                	sw	a5,12(sp)
    13fc:	150010ef          	jal	ra,254c <mpu_write_mem>
    1400:	79e000ef          	jal	ra,1b9e <mpu_reset_fifo>
    1404:	0141                	addi	sp,sp,16
    1406:	e4ffe06f          	j	254 <__riscv_restore_0>
    140a:	a3a3a7b7          	lui	a5,0xa3a3a
    140e:	3a378793          	addi	a5,a5,931 # a3a3a3a3 <_eusrstack+0x83a323a3>
    1412:	bff9                	j	13f0 <dmp_enable_6x_lp_quat+0x10>

00001414 <dmp_enable_feature>:
    1414:	e03fe2ef          	jal	t0,216 <__riscv_save_4>
    1418:	1141                	addi	sp,sp,-16
    141a:	09e3d7b7          	lui	a5,0x9e3d
    141e:	a0278793          	addi	a5,a5,-1534 # 9e3ca02 <_data_lma+0x9e2ea2e>
    1422:	842a                	mv	s0,a0
    1424:	0050                	addi	a2,sp,4
    1426:	4591                	li	a1,4
    1428:	06800513          	li	a0,104
    142c:	c23e                	sw	a5,4(sp)
    142e:	11e010ef          	jal	ra,254c <mpu_write_mem>
    1432:	fa300793          	li	a5,-93
    1436:	825c                	sb	a5,4(sp)
    1438:	04047a13          	andi	s4,s0,64
    143c:	140a0963          	beqz	s4,158e <dmp_enable_feature+0x17a>
    1440:	fc000793          	li	a5,-64
    1444:	82dc                	sb	a5,5(sp)
    1446:	77f1                	lui	a5,0xffffc
    1448:	2c878793          	addi	a5,a5,712 # ffffc2c8 <_eusrstack+0xdfff42c8>
    144c:	837c                	sh	a5,6(sp)
    144e:	18047913          	andi	s2,s0,384
    1452:	14090363          	beqz	s2,1598 <dmp_enable_feature+0x184>
    1456:	77f5                	lui	a5,0xffffd
    1458:	cc478793          	addi	a5,a5,-828 # ffffccc4 <_eusrstack+0xdfff4cc4>
    145c:	847c                	sh	a5,8(sp)
    145e:	fc600793          	li	a5,-58
    1462:	855c                	sb	a5,10(sp)
    1464:	fa300793          	li	a5,-93
    1468:	85dc                	sb	a5,11(sp)
    146a:	6505                	lui	a0,0x1
    146c:	77e9                	lui	a5,0xffffa
    146e:	3a378793          	addi	a5,a5,931 # ffffa3a3 <_eusrstack+0xdfff23a3>
    1472:	0050                	addi	a2,sp,4
    1474:	45a9                	li	a1,10
    1476:	aa750513          	addi	a0,a0,-1369 # aa7 <RCC_GetClocksFreq+0x127>
    147a:	867c                	sh	a5,12(sp)
    147c:	00347993          	andi	s3,s0,3
    1480:	0cc010ef          	jal	ra,254c <mpu_write_mem>
    1484:	0d800793          	li	a5,216
    1488:	00098463          	beqz	s3,1490 <dmp_enable_feature+0x7c>
    148c:	02000793          	li	a5,32
    1490:	6505                	lui	a0,0x1
    1492:	0050                	addi	a2,sp,4
    1494:	4585                	li	a1,1
    1496:	ab650513          	addi	a0,a0,-1354 # ab6 <RCC_GetClocksFreq+0x136>
    149a:	825c                	sb	a5,4(sp)
    149c:	0b0010ef          	jal	ra,254c <mpu_write_mem>
    14a0:	02047793          	andi	a5,s0,32
    14a4:	10078163          	beqz	a5,15a6 <dmp_enable_feature+0x192>
    14a8:	865ff0ef          	jal	ra,d0c <dmp_enable_gyro_cal.part.0>
    14ac:	02090263          	beqz	s2,14d0 <dmp_enable_feature+0xbc>
    14b0:	10047793          	andi	a5,s0,256
    14b4:	0e078c63          	beqz	a5,15ac <dmp_enable_feature+0x198>
    14b8:	9bb697b7          	lui	a5,0x9bb69
    14bc:	bb278793          	addi	a5,a5,-1102 # 9bb68bb2 <_eusrstack+0x7bb60bb2>
    14c0:	6505                	lui	a0,0x1
    14c2:	0050                	addi	a2,sp,4
    14c4:	4591                	li	a1,4
    14c6:	aa250513          	addi	a0,a0,-1374 # aa2 <RCC_GetClocksFreq+0x122>
    14ca:	c23e                	sw	a5,4(sp)
    14cc:	080010ef          	jal	ra,254c <mpu_write_mem>
    14d0:	00147793          	andi	a5,s0,1
    14d4:	0e078163          	beqz	a5,15b6 <dmp_enable_feature+0x1a2>
    14d8:	6505                	lui	a0,0x1
    14da:	57e1                	li	a5,-8
    14dc:	0050                	addi	a2,sp,4
    14de:	4585                	li	a1,1
    14e0:	8b050513          	addi	a0,a0,-1872 # 8b0 <IWDG_SetReload>
    14e4:	825c                	sb	a5,4(sp)
    14e6:	066010ef          	jal	ra,254c <mpu_write_mem>
    14ea:	0fa00593          	li	a1,250
    14ee:	451d                	li	a0,7
    14f0:	3e4d                	jal	10a2 <dmp_set_tap_thresh>
    14f2:	451d                	li	a0,7
    14f4:	3b25                	jal	122c <dmp_set_tap_axes>
    14f6:	4505                	li	a0,1
    14f8:	3bad                	jal	1272 <dmp_set_tap_count>
    14fa:	06400513          	li	a0,100
    14fe:	334d                	jal	12a0 <dmp_set_tap_time>
    1500:	1f400513          	li	a0,500
    1504:	33d1                	jal	12c8 <dmp_set_tap_time_multi>
    1506:	02cae537          	lui	a0,0x2cae
    150a:	0c800593          	li	a1,200
    150e:	30950513          	addi	a0,a0,777 # 2cae309 <_data_lma+0x2ca0335>
    1512:	3bf9                	jal	12f0 <dmp_set_shake_reject_thresh>
    1514:	02800513          	li	a0,40
    1518:	3d19                	jal	132e <dmp_set_shake_reject_time>
    151a:	4529                	li	a0,10
    151c:	3d2d                	jal	1356 <dmp_set_shake_reject_timeout>
    151e:	00247793          	andi	a5,s0,2
    1522:	00f037b3          	snez	a5,a5
    1526:	0d878793          	addi	a5,a5,216
    152a:	0050                	addi	a2,sp,4
    152c:	4585                	li	a1,1
    152e:	73d00513          	li	a0,1853
    1532:	825c                	sb	a5,4(sp)
    1534:	018010ef          	jal	ra,254c <mpu_write_mem>
    1538:	00447793          	andi	a5,s0,4
    153c:	4505                	li	a0,1
    153e:	e391                	bnez	a5,1542 <dmp_enable_feature+0x12e>
    1540:	4501                	li	a0,0
    1542:	35ad                	jal	13ac <dmp_enable_lp_quat>
    1544:	01047793          	andi	a5,s0,16
    1548:	4505                	li	a0,1
    154a:	e391                	bnez	a5,154e <dmp_enable_feature+0x13a>
    154c:	4501                	li	a0,0
    154e:	3d49                	jal	13e0 <dmp_enable_6x_lp_quat>
    1550:	84c18793          	addi	a5,gp,-1972 # 20000274 <dmp>
    1554:	00846713          	ori	a4,s0,8
    1558:	a7ba                	sh	a4,10(a5)
    155a:	2591                	jal	1b9e <mpu_reset_fifo>
    155c:	84c18793          	addi	a5,gp,-1972 # 20000274 <dmp>
    1560:	060a1663          	bnez	s4,15cc <dmp_enable_feature+0x1b8>
    1564:	00078723          	sb	zero,14(a5)
    1568:	00090563          	beqz	s2,1572 <dmp_enable_feature+0x15e>
    156c:	27f8                	lbu	a4,14(a5)
    156e:	0719                	addi	a4,a4,6
    1570:	a7f8                	sb	a4,14(a5)
    1572:	8851                	andi	s0,s0,20
    1574:	c401                	beqz	s0,157c <dmp_enable_feature+0x168>
    1576:	27f8                	lbu	a4,14(a5)
    1578:	0741                	addi	a4,a4,16
    157a:	a7f8                	sb	a4,14(a5)
    157c:	00098563          	beqz	s3,1586 <dmp_enable_feature+0x172>
    1580:	27f8                	lbu	a4,14(a5)
    1582:	0711                	addi	a4,a4,4
    1584:	a7f8                	sb	a4,14(a5)
    1586:	4501                	li	a0,0
    1588:	0141                	addi	sp,sp,16
    158a:	cc1fe06f          	j	24a <__riscv_restore_4>
    158e:	82dc                	sb	a5,5(sp)
    1590:	77e9                	lui	a5,0xffffa
    1592:	3a378793          	addi	a5,a5,931 # ffffa3a3 <_eusrstack+0xdfff23a3>
    1596:	bd5d                	j	144c <dmp_enable_feature+0x38>
    1598:	77e9                	lui	a5,0xffffa
    159a:	3a378793          	addi	a5,a5,931 # ffffa3a3 <_eusrstack+0xdfff23a3>
    159e:	847c                	sh	a5,8(sp)
    15a0:	fa300793          	li	a5,-93
    15a4:	bd7d                	j	1462 <dmp_enable_feature+0x4e>
    15a6:	4501                	li	a0,0
    15a8:	3bd9                	jal	137e <dmp_enable_gyro_cal>
    15aa:	b709                	j	14ac <dmp_enable_feature+0x98>
    15ac:	90b487b7          	lui	a5,0x90b48
    15b0:	0b078793          	addi	a5,a5,176 # 90b480b0 <_eusrstack+0x70b400b0>
    15b4:	b731                	j	14c0 <dmp_enable_feature+0xac>
    15b6:	6505                	lui	a0,0x1
    15b8:	fd800793          	li	a5,-40
    15bc:	0050                	addi	a2,sp,4
    15be:	4585                	li	a1,1
    15c0:	8b050513          	addi	a0,a0,-1872 # 8b0 <IWDG_SetReload>
    15c4:	825c                	sb	a5,4(sp)
    15c6:	787000ef          	jal	ra,254c <mpu_write_mem>
    15ca:	bf91                	j	151e <dmp_enable_feature+0x10a>
    15cc:	4719                	li	a4,6
    15ce:	a7f8                	sb	a4,14(a5)
    15d0:	bf61                	j	1568 <dmp_enable_feature+0x154>

000015d2 <dmp_read_fifo>:
    15d2:	c37fe2ef          	jal	t0,208 <__riscv_save_10>
    15d6:	84c18b93          	addi	s7,gp,-1972 # 20000274 <dmp>
    15da:	892a                	mv	s2,a0
    15dc:	00ebc503          	lbu	a0,14(s7)
    15e0:	7179                	addi	sp,sp,-48
    15e2:	89ae                	mv	s3,a1
    15e4:	8b32                	mv	s6,a2
    15e6:	00071023          	sh	zero,0(a4)
    15ea:	863e                	mv	a2,a5
    15ec:	858a                	mv	a1,sp
    15ee:	84b6                	mv	s1,a3
    15f0:	8a3a                	mv	s4,a4
    15f2:	245000ef          	jal	ra,2036 <mpu_read_fifo_stream>
    15f6:	e15d                	bnez	a0,169c <dmp_read_fifo+0xca>
    15f8:	00abd703          	lhu	a4,10(s7)
    15fc:	842a                	mv	s0,a0
    15fe:	84c18a93          	addi	s5,gp,-1972 # 20000274 <dmp>
    1602:	01477793          	andi	a5,a4,20
    1606:	18078563          	beqz	a5,1790 <dmp_read_fifo+0x1be>
    160a:	801c                	lbu	a5,0(sp)
    160c:	8094                	lbu	a3,1(sp)
    160e:	8290                	lbu	a2,5(sp)
    1610:	07e2                	slli	a5,a5,0x18
    1612:	06c2                	slli	a3,a3,0x10
    1614:	8fd5                	or	a5,a5,a3
    1616:	8194                	lbu	a3,3(sp)
    1618:	0642                	slli	a2,a2,0x10
    161a:	840c                	lbu	a1,8(sp)
    161c:	8fd5                	or	a5,a5,a3
    161e:	8114                	lbu	a3,2(sp)
    1620:	05e2                	slli	a1,a1,0x18
    1622:	8688                	lbu	a0,13(sp)
    1624:	06a2                	slli	a3,a3,0x8
    1626:	8fd5                	or	a5,a5,a3
    1628:	8214                	lbu	a3,4(sp)
    162a:	00fb2023          	sw	a5,0(s6)
    162e:	87c1                	srai	a5,a5,0x10
    1630:	06e2                	slli	a3,a3,0x18
    1632:	8ed1                	or	a3,a3,a2
    1634:	8390                	lbu	a2,7(sp)
    1636:	02f787b3          	mul	a5,a5,a5
    163a:	0542                	slli	a0,a0,0x10
    163c:	8ed1                	or	a3,a3,a2
    163e:	8310                	lbu	a2,6(sp)
    1640:	0622                	slli	a2,a2,0x8
    1642:	8ed1                	or	a3,a3,a2
    1644:	8490                	lbu	a2,9(sp)
    1646:	00db2223          	sw	a3,4(s6)
    164a:	86c1                	srai	a3,a3,0x10
    164c:	0642                	slli	a2,a2,0x10
    164e:	8dd1                	or	a1,a1,a2
    1650:	8590                	lbu	a2,11(sp)
    1652:	02d686b3          	mul	a3,a3,a3
    1656:	8dd1                	or	a1,a1,a2
    1658:	8510                	lbu	a2,10(sp)
    165a:	0622                	slli	a2,a2,0x8
    165c:	8dd1                	or	a1,a1,a2
    165e:	8610                	lbu	a2,12(sp)
    1660:	00bb2423          	sw	a1,8(s6)
    1664:	85c1                	srai	a1,a1,0x10
    1666:	0662                	slli	a2,a2,0x18
    1668:	8e49                	or	a2,a2,a0
    166a:	8788                	lbu	a0,15(sp)
    166c:	96be                	add	a3,a3,a5
    166e:	02b587b3          	mul	a5,a1,a1
    1672:	8e49                	or	a2,a2,a0
    1674:	8708                	lbu	a0,14(sp)
    1676:	0522                	slli	a0,a0,0x8
    1678:	8e49                	or	a2,a2,a0
    167a:	00cb2623          	sw	a2,12(s6)
    167e:	8641                	srai	a2,a2,0x10
    1680:	02c60633          	mul	a2,a2,a2
    1684:	97b6                	add	a5,a5,a3
    1686:	f10006b7          	lui	a3,0xf1000
    168a:	97b2                	add	a5,a5,a2
    168c:	97b6                	add	a5,a5,a3
    168e:	020006b7          	lui	a3,0x2000
    1692:	00f6f763          	bgeu	a3,a5,16a0 <dmp_read_fifo+0xce>
    1696:	2321                	jal	1b9e <mpu_reset_fifo>
    1698:	000a1023          	sh	zero,0(s4)
    169c:	547d                	li	s0,-1
    169e:	a0ed                	j	1788 <dmp_read_fifo+0x1b6>
    16a0:	000a5783          	lhu	a5,0(s4)
    16a4:	1007e793          	ori	a5,a5,256
    16a8:	00fa1023          	sh	a5,0(s4)
    16ac:	47c1                	li	a5,16
    16ae:	04077693          	andi	a3,a4,64
    16b2:	c6a1                	beqz	a3,16fa <dmp_read_fifo+0x128>
    16b4:	1814                	addi	a3,sp,48
    16b6:	96be                	add	a3,a3,a5
    16b8:	fd06c603          	lbu	a2,-48(a3) # 1ffffd0 <_data_lma+0x1ff1ffc>
    16bc:	fd16c583          	lbu	a1,-47(a3)
    16c0:	0799                	addi	a5,a5,6
    16c2:	0622                	slli	a2,a2,0x8
    16c4:	8e4d                	or	a2,a2,a1
    16c6:	00c99023          	sh	a2,0(s3)
    16ca:	fd26c603          	lbu	a2,-46(a3)
    16ce:	fd36c583          	lbu	a1,-45(a3)
    16d2:	0ff7f793          	andi	a5,a5,255
    16d6:	0622                	slli	a2,a2,0x8
    16d8:	8e4d                	or	a2,a2,a1
    16da:	00c99123          	sh	a2,2(s3)
    16de:	fd46c603          	lbu	a2,-44(a3)
    16e2:	fd56c683          	lbu	a3,-43(a3)
    16e6:	0622                	slli	a2,a2,0x8
    16e8:	8ed1                	or	a3,a3,a2
    16ea:	00d99223          	sh	a3,4(s3)
    16ee:	000a5683          	lhu	a3,0(s4)
    16f2:	0086e693          	ori	a3,a3,8
    16f6:	00da1023          	sh	a3,0(s4)
    16fa:	18077693          	andi	a3,a4,384
    16fe:	c6a1                	beqz	a3,1746 <dmp_read_fifo+0x174>
    1700:	1814                	addi	a3,sp,48
    1702:	96be                	add	a3,a3,a5
    1704:	fd06c603          	lbu	a2,-48(a3)
    1708:	fd16c583          	lbu	a1,-47(a3)
    170c:	0799                	addi	a5,a5,6
    170e:	0622                	slli	a2,a2,0x8
    1710:	8e4d                	or	a2,a2,a1
    1712:	00c91023          	sh	a2,0(s2)
    1716:	fd26c603          	lbu	a2,-46(a3)
    171a:	fd36c583          	lbu	a1,-45(a3)
    171e:	0ff7f793          	andi	a5,a5,255
    1722:	0622                	slli	a2,a2,0x8
    1724:	8e4d                	or	a2,a2,a1
    1726:	00c91123          	sh	a2,2(s2)
    172a:	fd46c603          	lbu	a2,-44(a3)
    172e:	fd56c683          	lbu	a3,-43(a3)
    1732:	0622                	slli	a2,a2,0x8
    1734:	8ed1                	or	a3,a3,a2
    1736:	00d91223          	sh	a3,4(s2)
    173a:	000a5683          	lhu	a3,0(s4)
    173e:	0706e693          	ori	a3,a3,112
    1742:	00da1023          	sh	a3,0(s4)
    1746:	8b0d                	andi	a4,a4,3
    1748:	cf0d                	beqz	a4,1782 <dmp_read_fifo+0x1b0>
    174a:	00f10933          	add	s2,sp,a5
    174e:	00194783          	lbu	a5,1(s2)
    1752:	00394983          	lbu	s3,3(s2)
    1756:	8b85                	andi	a5,a5,1
    1758:	cb99                	beqz	a5,176e <dmp_read_fifo+0x19c>
    175a:	000aa783          	lw	a5,0(s5)
    175e:	cb81                	beqz	a5,176e <dmp_read_fifo+0x19c>
    1760:	0079f593          	andi	a1,s3,7
    1764:	0039d513          	srli	a0,s3,0x3
    1768:	0585                	addi	a1,a1,1
    176a:	891d                	andi	a0,a0,7
    176c:	9782                	jalr	a5
    176e:	00194783          	lbu	a5,1(s2)
    1772:	8ba1                	andi	a5,a5,8
    1774:	c799                	beqz	a5,1782 <dmp_read_fifo+0x1b0>
    1776:	004aa783          	lw	a5,4(s5)
    177a:	c781                	beqz	a5,1782 <dmp_read_fifo+0x1b0>
    177c:	0069d513          	srli	a0,s3,0x6
    1780:	9782                	jalr	a5
    1782:	8526                	mv	a0,s1
    1784:	400010ef          	jal	ra,2b84 <mget_ms>
    1788:	8522                	mv	a0,s0
    178a:	6145                	addi	sp,sp,48
    178c:	ab5fe06f          	j	240 <__riscv_restore_10>
    1790:	4781                	li	a5,0
    1792:	bf31                	j	16ae <dmp_read_fifo+0xdc>

00001794 <get_st_biases>:
    1794:	a83fe2ef          	jal	t0,216 <__riscv_save_4>
    1798:	1141                	addi	sp,sp,-16
    179a:	4785                	li	a5,1
    179c:	20000437          	lui	s0,0x20000
    17a0:	827c                	sh	a5,4(sp)
    17a2:	02c40793          	addi	a5,s0,44 # 2000002c <st>
    17a6:	4398                	lw	a4,0(a5)
    17a8:	43dc                	lw	a5,4(a5)
    17aa:	892a                	mv	s2,a0
    17ac:	84ae                	mv	s1,a1
    17ae:	2388                	lbu	a0,0(a5)
    17b0:	2b2c                	lbu	a1,18(a4)
    17b2:	89b2                	mv	s3,a2
    17b4:	0054                	addi	a3,sp,4
    17b6:	4609                	li	a2,2
    17b8:	573010ef          	jal	ra,352a <MPU_Write_Len>
    17bc:	c509                	beqz	a0,17c6 <get_st_biases+0x32>
    17be:	557d                	li	a0,-1
    17c0:	0141                	addi	sp,sp,16
    17c2:	a89fe06f          	j	24a <__riscv_restore_4>
    17c6:	0c800513          	li	a0,200
    17ca:	080020ef          	jal	ra,384a <Delay_Ms>
    17ce:	02c40413          	addi	s0,s0,44
    17d2:	4018                	lw	a4,0(s0)
    17d4:	405c                	lw	a5,4(s0)
    17d6:	00010223          	sb	zero,4(sp)
    17da:	376c                	lbu	a1,15(a4)
    17dc:	2388                	lbu	a0,0(a5)
    17de:	0054                	addi	a3,sp,4
    17e0:	4605                	li	a2,1
    17e2:	549010ef          	jal	ra,352a <MPU_Write_Len>
    17e6:	fd61                	bnez	a0,17be <get_st_biases+0x2a>
    17e8:	4018                	lw	a4,0(s0)
    17ea:	405c                	lw	a5,4(s0)
    17ec:	0054                	addi	a3,sp,4
    17ee:	334c                	lbu	a1,5(a4)
    17f0:	2388                	lbu	a0,0(a5)
    17f2:	4605                	li	a2,1
    17f4:	537010ef          	jal	ra,352a <MPU_Write_Len>
    17f8:	f179                	bnez	a0,17be <get_st_biases+0x2a>
    17fa:	4018                	lw	a4,0(s0)
    17fc:	405c                	lw	a5,4(s0)
    17fe:	0054                	addi	a3,sp,4
    1800:	2b2c                	lbu	a1,18(a4)
    1802:	2388                	lbu	a0,0(a5)
    1804:	4605                	li	a2,1
    1806:	525010ef          	jal	ra,352a <MPU_Write_Len>
    180a:	f955                	bnez	a0,17be <get_st_biases+0x2a>
    180c:	4018                	lw	a4,0(s0)
    180e:	405c                	lw	a5,4(s0)
    1810:	0054                	addi	a3,sp,4
    1812:	3b6c                	lbu	a1,23(a4)
    1814:	2388                	lbu	a0,0(a5)
    1816:	4605                	li	a2,1
    1818:	513010ef          	jal	ra,352a <MPU_Write_Len>
    181c:	f14d                	bnez	a0,17be <get_st_biases+0x2a>
    181e:	4018                	lw	a4,0(s0)
    1820:	405c                	lw	a5,4(s0)
    1822:	0054                	addi	a3,sp,4
    1824:	234c                	lbu	a1,4(a4)
    1826:	2388                	lbu	a0,0(a5)
    1828:	4605                	li	a2,1
    182a:	501010ef          	jal	ra,352a <MPU_Write_Len>
    182e:	f941                	bnez	a0,17be <get_st_biases+0x2a>
    1830:	47b1                	li	a5,12
    1832:	825c                	sb	a5,4(sp)
    1834:	4018                	lw	a4,0(s0)
    1836:	405c                	lw	a5,4(s0)
    1838:	0054                	addi	a3,sp,4
    183a:	234c                	lbu	a1,4(a4)
    183c:	2388                	lbu	a0,0(a5)
    183e:	4605                	li	a2,1
    1840:	4eb010ef          	jal	ra,352a <MPU_Write_Len>
    1844:	fd2d                	bnez	a0,17be <get_st_biases+0x2a>
    1846:	453d                	li	a0,15
    1848:	002020ef          	jal	ra,384a <Delay_Ms>
    184c:	541c                	lw	a5,40(s0)
    184e:	4018                	lw	a4,0(s0)
    1850:	0054                	addi	a3,sp,4
    1852:	379c                	lbu	a5,9(a5)
    1854:	4605                	li	a2,1
    1856:	825c                	sb	a5,4(sp)
    1858:	405c                	lw	a5,4(s0)
    185a:	232c                	lbu	a1,2(a4)
    185c:	2388                	lbu	a0,0(a5)
    185e:	4cd010ef          	jal	ra,352a <MPU_Write_Len>
    1862:	fd31                	bnez	a0,17be <get_st_biases+0x2a>
    1864:	541c                	lw	a5,40(s0)
    1866:	4018                	lw	a4,0(s0)
    1868:	0054                	addi	a3,sp,4
    186a:	279c                	lbu	a5,8(a5)
    186c:	4605                	li	a2,1
    186e:	825c                	sb	a5,4(sp)
    1870:	405c                	lw	a5,4(s0)
    1872:	330c                	lbu	a1,1(a4)
    1874:	2388                	lbu	a0,0(a5)
    1876:	4b5010ef          	jal	ra,352a <MPU_Write_Len>
    187a:	f131                	bnez	a0,17be <get_st_biases+0x2a>
    187c:	541c                	lw	a5,40(s0)
    187e:	27bc                	lbu	a5,10(a5)
    1880:	00098463          	beqz	s3,1888 <get_st_biases+0xf4>
    1884:	0e07e793          	ori	a5,a5,224
    1888:	825c                	sb	a5,4(sp)
    188a:	4018                	lw	a4,0(s0)
    188c:	405c                	lw	a5,4(s0)
    188e:	0054                	addi	a3,sp,4
    1890:	236c                	lbu	a1,6(a4)
    1892:	2388                	lbu	a0,0(a5)
    1894:	4605                	li	a2,1
    1896:	495010ef          	jal	ra,352a <MPU_Write_Len>
    189a:	f20512e3          	bnez	a0,17be <get_st_biases+0x2a>
    189e:	47e1                	li	a5,24
    18a0:	00098663          	beqz	s3,18ac <get_st_biases+0x118>
    18a4:	541c                	lw	a5,40(s0)
    18a6:	37bc                	lbu	a5,11(a5)
    18a8:	0e07e793          	ori	a5,a5,224
    18ac:	825c                	sb	a5,4(sp)
    18ae:	4018                	lw	a4,0(s0)
    18b0:	405c                	lw	a5,4(s0)
    18b2:	0054                	addi	a3,sp,4
    18b4:	336c                	lbu	a1,7(a4)
    18b6:	2388                	lbu	a0,0(a5)
    18b8:	4605                	li	a2,1
    18ba:	471010ef          	jal	ra,352a <MPU_Write_Len>
    18be:	f00510e3          	bnez	a0,17be <get_st_biases+0x2a>
    18c2:	00098663          	beqz	s3,18ce <get_st_biases+0x13a>
    18c6:	0c800513          	li	a0,200
    18ca:	781010ef          	jal	ra,384a <Delay_Ms>
    18ce:	04000793          	li	a5,64
    18d2:	825c                	sb	a5,4(sp)
    18d4:	4018                	lw	a4,0(s0)
    18d6:	405c                	lw	a5,4(s0)
    18d8:	0054                	addi	a3,sp,4
    18da:	234c                	lbu	a1,4(a4)
    18dc:	2388                	lbu	a0,0(a5)
    18de:	4605                	li	a2,1
    18e0:	44b010ef          	jal	ra,352a <MPU_Write_Len>
    18e4:	ec051de3          	bnez	a0,17be <get_st_biases+0x2a>
    18e8:	07800793          	li	a5,120
    18ec:	825c                	sb	a5,4(sp)
    18ee:	4018                	lw	a4,0(s0)
    18f0:	405c                	lw	a5,4(s0)
    18f2:	0054                	addi	a3,sp,4
    18f4:	334c                	lbu	a1,5(a4)
    18f6:	2388                	lbu	a0,0(a5)
    18f8:	4605                	li	a2,1
    18fa:	431010ef          	jal	ra,352a <MPU_Write_Len>
    18fe:	ec0510e3          	bnez	a0,17be <get_st_biases+0x2a>
    1902:	03200513          	li	a0,50
    1906:	745010ef          	jal	ra,384a <Delay_Ms>
    190a:	4018                	lw	a4,0(s0)
    190c:	405c                	lw	a5,4(s0)
    190e:	00010223          	sb	zero,4(sp)
    1912:	334c                	lbu	a1,5(a4)
    1914:	2388                	lbu	a0,0(a5)
    1916:	0054                	addi	a3,sp,4
    1918:	4605                	li	a2,1
    191a:	411010ef          	jal	ra,352a <MPU_Write_Len>
    191e:	ea0510e3          	bnez	a0,17be <get_st_biases+0x2a>
    1922:	4018                	lw	a4,0(s0)
    1924:	405c                	lw	a5,4(s0)
    1926:	0054                	addi	a3,sp,4
    1928:	272c                	lbu	a1,10(a4)
    192a:	2388                	lbu	a0,0(a5)
    192c:	4609                	li	a2,2
    192e:	459010ef          	jal	ra,3586 <MPU_Read_Len>
    1932:	e80516e3          	bnez	a0,17be <get_st_biases+0x2a>
    1936:	00414a03          	lbu	s4,4(sp)
    193a:	829c                	lbu	a5,5(sp)
    193c:	00092423          	sw	zero,8(s2)
    1940:	0a22                	slli	s4,s4,0x8
    1942:	00fa6a33          	or	s4,s4,a5
    1946:	47b1                	li	a5,12
    1948:	02fa5a33          	divu	s4,s4,a5
    194c:	00092223          	sw	zero,4(s2)
    1950:	00092023          	sw	zero,0(s2)
    1954:	0004a423          	sw	zero,8(s1)
    1958:	0004a223          	sw	zero,4(s1)
    195c:	0004a023          	sw	zero,0(s1)
    1960:	4981                	li	s3,0
    1962:	0ffa7a13          	andi	s4,s4,255
    1966:	13499a63          	bne	s3,s4,1a9a <get_st_biases+0x306>
    196a:	00092503          	lw	a0,0(s2)
    196e:	08300613          	li	a2,131
    1972:	4681                	li	a3,0
    1974:	41f55793          	srai	a5,a0,0x1f
    1978:	07c2                	slli	a5,a5,0x10
    197a:	01055593          	srli	a1,a0,0x10
    197e:	8ddd                	or	a1,a1,a5
    1980:	0542                	slli	a0,a0,0x10
    1982:	3d3020ef          	jal	ra,4554 <__divdi3>
    1986:	864e                	mv	a2,s3
    1988:	4681                	li	a3,0
    198a:	3cb020ef          	jal	ra,4554 <__divdi3>
    198e:	00a92023          	sw	a0,0(s2)
    1992:	00492503          	lw	a0,4(s2)
    1996:	08300613          	li	a2,131
    199a:	4681                	li	a3,0
    199c:	41f55793          	srai	a5,a0,0x1f
    19a0:	07c2                	slli	a5,a5,0x10
    19a2:	01055593          	srli	a1,a0,0x10
    19a6:	8ddd                	or	a1,a1,a5
    19a8:	0542                	slli	a0,a0,0x10
    19aa:	3ab020ef          	jal	ra,4554 <__divdi3>
    19ae:	864e                	mv	a2,s3
    19b0:	4681                	li	a3,0
    19b2:	3a3020ef          	jal	ra,4554 <__divdi3>
    19b6:	00a92223          	sw	a0,4(s2)
    19ba:	00892503          	lw	a0,8(s2)
    19be:	08300613          	li	a2,131
    19c2:	4681                	li	a3,0
    19c4:	41f55793          	srai	a5,a0,0x1f
    19c8:	07c2                	slli	a5,a5,0x10
    19ca:	01055593          	srli	a1,a0,0x10
    19ce:	8ddd                	or	a1,a1,a5
    19d0:	0542                	slli	a0,a0,0x10
    19d2:	383020ef          	jal	ra,4554 <__divdi3>
    19d6:	864e                	mv	a2,s3
    19d8:	4681                	li	a3,0
    19da:	37b020ef          	jal	ra,4554 <__divdi3>
    19de:	00a92423          	sw	a0,8(s2)
    19e2:	4088                	lw	a0,0(s1)
    19e4:	864e                	mv	a2,s3
    19e6:	4681                	li	a3,0
    19e8:	41f55593          	srai	a1,a0,0x1f
    19ec:	01055793          	srli	a5,a0,0x10
    19f0:	01059713          	slli	a4,a1,0x10
    19f4:	8f5d                	or	a4,a4,a5
    19f6:	41f75593          	srai	a1,a4,0x1f
    19fa:	0542                	slli	a0,a0,0x10
    19fc:	7ff5f593          	andi	a1,a1,2047
    1a00:	00a587b3          	add	a5,a1,a0
    1a04:	00b7b5b3          	sltu	a1,a5,a1
    1a08:	95ba                	add	a1,a1,a4
    1a0a:	83ad                	srli	a5,a5,0xb
    1a0c:	01559513          	slli	a0,a1,0x15
    1a10:	8d5d                	or	a0,a0,a5
    1a12:	85ad                	srai	a1,a1,0xb
    1a14:	341020ef          	jal	ra,4554 <__divdi3>
    1a18:	c088                	sw	a0,0(s1)
    1a1a:	40c8                	lw	a0,4(s1)
    1a1c:	864e                	mv	a2,s3
    1a1e:	4681                	li	a3,0
    1a20:	41f55593          	srai	a1,a0,0x1f
    1a24:	01055793          	srli	a5,a0,0x10
    1a28:	01059713          	slli	a4,a1,0x10
    1a2c:	8f5d                	or	a4,a4,a5
    1a2e:	41f75593          	srai	a1,a4,0x1f
    1a32:	0542                	slli	a0,a0,0x10
    1a34:	7ff5f593          	andi	a1,a1,2047
    1a38:	00a587b3          	add	a5,a1,a0
    1a3c:	00b7b5b3          	sltu	a1,a5,a1
    1a40:	95ba                	add	a1,a1,a4
    1a42:	83ad                	srli	a5,a5,0xb
    1a44:	01559513          	slli	a0,a1,0x15
    1a48:	8d5d                	or	a0,a0,a5
    1a4a:	85ad                	srai	a1,a1,0xb
    1a4c:	309020ef          	jal	ra,4554 <__divdi3>
    1a50:	c0c8                	sw	a0,4(s1)
    1a52:	4488                	lw	a0,8(s1)
    1a54:	864e                	mv	a2,s3
    1a56:	4681                	li	a3,0
    1a58:	41f55593          	srai	a1,a0,0x1f
    1a5c:	01055793          	srli	a5,a0,0x10
    1a60:	01059713          	slli	a4,a1,0x10
    1a64:	8f5d                	or	a4,a4,a5
    1a66:	41f75593          	srai	a1,a4,0x1f
    1a6a:	0542                	slli	a0,a0,0x10
    1a6c:	7ff5f593          	andi	a1,a1,2047
    1a70:	00a587b3          	add	a5,a1,a0
    1a74:	00b7b5b3          	sltu	a1,a5,a1
    1a78:	95ba                	add	a1,a1,a4
    1a7a:	83ad                	srli	a5,a5,0xb
    1a7c:	01559513          	slli	a0,a1,0x15
    1a80:	8d5d                	or	a0,a0,a5
    1a82:	85ad                	srai	a1,a1,0xb
    1a84:	2d1020ef          	jal	ra,4554 <__divdi3>
    1a88:	c488                	sw	a0,8(s1)
    1a8a:	77c1                	lui	a5,0xffff0
    1a8c:	00a04363          	bgtz	a0,1a92 <get_st_biases+0x2fe>
    1a90:	67c1                	lui	a5,0x10
    1a92:	953e                	add	a0,a0,a5
    1a94:	c488                	sw	a0,8(s1)
    1a96:	4501                	li	a0,0
    1a98:	b325                	j	17c0 <get_st_biases+0x2c>
    1a9a:	4018                	lw	a4,0(s0)
    1a9c:	405c                	lw	a5,4(s0)
    1a9e:	0054                	addi	a3,sp,4
    1aa0:	372c                	lbu	a1,11(a4)
    1aa2:	2388                	lbu	a0,0(a5)
    1aa4:	4631                	li	a2,12
    1aa6:	2e1010ef          	jal	ra,3586 <MPU_Read_Len>
    1aaa:	d0051ae3          	bnez	a0,17be <get_st_biases+0x2a>
    1aae:	8318                	lbu	a4,6(sp)
    1ab0:	839c                	lbu	a5,7(sp)
    1ab2:	8494                	lbu	a3,9(sp)
    1ab4:	0722                	slli	a4,a4,0x8
    1ab6:	8f5d                	or	a4,a4,a5
    1ab8:	841c                	lbu	a5,8(sp)
    1aba:	8290                	lbu	a2,5(sp)
    1abc:	0742                	slli	a4,a4,0x10
    1abe:	07a2                	slli	a5,a5,0x8
    1ac0:	8fd5                	or	a5,a5,a3
    1ac2:	8214                	lbu	a3,4(sp)
    1ac4:	8741                	srai	a4,a4,0x10
    1ac6:	07c2                	slli	a5,a5,0x10
    1ac8:	06a2                	slli	a3,a3,0x8
    1aca:	8ed1                	or	a3,a3,a2
    1acc:	4090                	lw	a2,0(s1)
    1ace:	06c2                	slli	a3,a3,0x10
    1ad0:	86c1                	srai	a3,a3,0x10
    1ad2:	96b2                	add	a3,a3,a2
    1ad4:	c094                	sw	a3,0(s1)
    1ad6:	40d4                	lw	a3,4(s1)
    1ad8:	87c1                	srai	a5,a5,0x10
    1ada:	8590                	lbu	a2,11(sp)
    1adc:	9736                	add	a4,a4,a3
    1ade:	c0d8                	sw	a4,4(s1)
    1ae0:	4498                	lw	a4,8(s1)
    1ae2:	8794                	lbu	a3,15(sp)
    1ae4:	0985                	addi	s3,s3,1
    1ae6:	97ba                	add	a5,a5,a4
    1ae8:	8618                	lbu	a4,12(sp)
    1aea:	c49c                	sw	a5,8(s1)
    1aec:	869c                	lbu	a5,13(sp)
    1aee:	0722                	slli	a4,a4,0x8
    1af0:	0ff9f993          	andi	s3,s3,255
    1af4:	8f5d                	or	a4,a4,a5
    1af6:	871c                	lbu	a5,14(sp)
    1af8:	0742                	slli	a4,a4,0x10
    1afa:	8741                	srai	a4,a4,0x10
    1afc:	07a2                	slli	a5,a5,0x8
    1afe:	8fd5                	or	a5,a5,a3
    1b00:	8514                	lbu	a3,10(sp)
    1b02:	07c2                	slli	a5,a5,0x10
    1b04:	87c1                	srai	a5,a5,0x10
    1b06:	06a2                	slli	a3,a3,0x8
    1b08:	8ed1                	or	a3,a3,a2
    1b0a:	00092603          	lw	a2,0(s2)
    1b0e:	06c2                	slli	a3,a3,0x10
    1b10:	86c1                	srai	a3,a3,0x10
    1b12:	96b2                	add	a3,a3,a2
    1b14:	00d92023          	sw	a3,0(s2)
    1b18:	00492683          	lw	a3,4(s2)
    1b1c:	9736                	add	a4,a4,a3
    1b1e:	00e92223          	sw	a4,4(s2)
    1b22:	00892703          	lw	a4,8(s2)
    1b26:	97ba                	add	a5,a5,a4
    1b28:	00f92423          	sw	a5,8(s2)
    1b2c:	bd2d                	j	1966 <get_st_biases+0x1d2>

00001b2e <set_int_enable>:
    1b2e:	f02fe2ef          	jal	t0,230 <__riscv_save_0>
    1b32:	20000437          	lui	s0,0x20000
    1b36:	02c40793          	addi	a5,s0,44 # 2000002c <st>
    1b3a:	0247c783          	lbu	a5,36(a5) # 10024 <_data_lma+0x2050>
    1b3e:	1141                	addi	sp,sp,-16
    1b40:	02c40413          	addi	s0,s0,44
    1b44:	c39d                	beqz	a5,1b6a <set_int_enable+0x3c>
    1b46:	c111                	beqz	a0,1b4a <set_int_enable+0x1c>
    1b48:	4509                	li	a0,2
    1b4a:	4018                	lw	a4,0(s0)
    1b4c:	405c                	lw	a5,4(s0)
    1b4e:	87c8                	sb	a0,15(sp)
    1b50:	376c                	lbu	a1,15(a4)
    1b52:	2388                	lbu	a0,0(a5)
    1b54:	00f10693          	addi	a3,sp,15
    1b58:	4605                	li	a2,1
    1b5a:	1d1010ef          	jal	ra,352a <MPU_Write_Len>
    1b5e:	c90d                	beqz	a0,1b90 <set_int_enable+0x62>
    1b60:	57fd                	li	a5,-1
    1b62:	853e                	mv	a0,a5
    1b64:	0141                	addi	sp,sp,16
    1b66:	eeefe06f          	j	254 <__riscv_restore_0>
    1b6a:	243c                	lbu	a5,10(s0)
    1b6c:	dbf5                	beqz	a5,1b60 <set_int_enable+0x32>
    1b6e:	c50d                	beqz	a0,1b98 <set_int_enable+0x6a>
    1b70:	3818                	lbu	a4,17(s0)
    1b72:	4781                	li	a5,0
    1b74:	f77d                	bnez	a4,1b62 <set_int_enable+0x34>
    1b76:	4785                	li	a5,1
    1b78:	87dc                	sb	a5,15(sp)
    1b7a:	405c                	lw	a5,4(s0)
    1b7c:	4018                	lw	a4,0(s0)
    1b7e:	00f10693          	addi	a3,sp,15
    1b82:	2388                	lbu	a0,0(a5)
    1b84:	376c                	lbu	a1,15(a4)
    1b86:	4605                	li	a2,1
    1b88:	1a3010ef          	jal	ra,352a <MPU_Write_Len>
    1b8c:	57fd                	li	a5,-1
    1b8e:	f971                	bnez	a0,1b62 <set_int_enable+0x34>
    1b90:	879c                	lbu	a5,15(sp)
    1b92:	b81c                	sb	a5,17(s0)
    1b94:	4781                	li	a5,0
    1b96:	b7f1                	j	1b62 <set_int_enable+0x34>
    1b98:	000107a3          	sb	zero,15(sp)
    1b9c:	bff9                	j	1b7a <set_int_enable+0x4c>

00001b9e <mpu_reset_fifo>:
    1b9e:	e92fe2ef          	jal	t0,230 <__riscv_save_0>
    1ba2:	20000437          	lui	s0,0x20000
    1ba6:	02c40793          	addi	a5,s0,44 # 2000002c <st>
    1baa:	27bc                	lbu	a5,10(a5)
    1bac:	1141                	addi	sp,sp,-16
    1bae:	e789                	bnez	a5,1bb8 <mpu_reset_fifo+0x1a>
    1bb0:	557d                	li	a0,-1
    1bb2:	0141                	addi	sp,sp,16
    1bb4:	ea0fe06f          	j	254 <__riscv_restore_0>
    1bb8:	02c40413          	addi	s0,s0,44
    1bbc:	4018                	lw	a4,0(s0)
    1bbe:	405c                	lw	a5,4(s0)
    1bc0:	000107a3          	sb	zero,15(sp)
    1bc4:	376c                	lbu	a1,15(a4)
    1bc6:	2388                	lbu	a0,0(a5)
    1bc8:	00f10693          	addi	a3,sp,15
    1bcc:	4605                	li	a2,1
    1bce:	15d010ef          	jal	ra,352a <MPU_Write_Len>
    1bd2:	fd79                	bnez	a0,1bb0 <mpu_reset_fifo+0x12>
    1bd4:	4018                	lw	a4,0(s0)
    1bd6:	405c                	lw	a5,4(s0)
    1bd8:	00f10693          	addi	a3,sp,15
    1bdc:	334c                	lbu	a1,5(a4)
    1bde:	2388                	lbu	a0,0(a5)
    1be0:	4605                	li	a2,1
    1be2:	149010ef          	jal	ra,352a <MPU_Write_Len>
    1be6:	f569                	bnez	a0,1bb0 <mpu_reset_fifo+0x12>
    1be8:	4018                	lw	a4,0(s0)
    1bea:	405c                	lw	a5,4(s0)
    1bec:	00f10693          	addi	a3,sp,15
    1bf0:	234c                	lbu	a1,4(a4)
    1bf2:	2388                	lbu	a0,0(a5)
    1bf4:	4605                	li	a2,1
    1bf6:	135010ef          	jal	ra,352a <MPU_Write_Len>
    1bfa:	f95d                	bnez	a0,1bb0 <mpu_reset_fifo+0x12>
    1bfc:	405c                	lw	a5,4(s0)
    1bfe:	2388                	lbu	a0,0(a5)
    1c00:	401c                	lw	a5,0(s0)
    1c02:	23cc                	lbu	a1,4(a5)
    1c04:	02444783          	lbu	a5,36(s0)
    1c08:	cfad                	beqz	a5,1c82 <mpu_reset_fifo+0xe4>
    1c0a:	47b1                	li	a5,12
    1c0c:	00f10693          	addi	a3,sp,15
    1c10:	4605                	li	a2,1
    1c12:	87dc                	sb	a5,15(sp)
    1c14:	117010ef          	jal	ra,352a <MPU_Write_Len>
    1c18:	fd41                	bnez	a0,1bb0 <mpu_reset_fifo+0x12>
    1c1a:	03200513          	li	a0,50
    1c1e:	42d010ef          	jal	ra,384a <Delay_Ms>
    1c22:	fc000793          	li	a5,-64
    1c26:	87dc                	sb	a5,15(sp)
    1c28:	243c                	lbu	a5,10(s0)
    1c2a:	8b85                	andi	a5,a5,1
    1c2c:	c399                	beqz	a5,1c32 <mpu_reset_fifo+0x94>
    1c2e:	5781                	li	a5,-32
    1c30:	87dc                	sb	a5,15(sp)
    1c32:	4018                	lw	a4,0(s0)
    1c34:	405c                	lw	a5,4(s0)
    1c36:	00f10693          	addi	a3,sp,15
    1c3a:	234c                	lbu	a1,4(a4)
    1c3c:	2388                	lbu	a0,0(a5)
    1c3e:	4605                	li	a2,1
    1c40:	0eb010ef          	jal	ra,352a <MPU_Write_Len>
    1c44:	f535                	bnez	a0,1bb0 <mpu_reset_fifo+0x12>
    1c46:	381c                	lbu	a5,17(s0)
    1c48:	c391                	beqz	a5,1c4c <mpu_reset_fifo+0xae>
    1c4a:	4789                	li	a5,2
    1c4c:	87dc                	sb	a5,15(sp)
    1c4e:	4018                	lw	a4,0(s0)
    1c50:	405c                	lw	a5,4(s0)
    1c52:	00f10693          	addi	a3,sp,15
    1c56:	376c                	lbu	a1,15(a4)
    1c58:	2388                	lbu	a0,0(a5)
    1c5a:	4605                	li	a2,1
    1c5c:	0cf010ef          	jal	ra,352a <MPU_Write_Len>
    1c60:	f921                	bnez	a0,1bb0 <mpu_reset_fifo+0x12>
    1c62:	4018                	lw	a4,0(s0)
    1c64:	405c                	lw	a5,4(s0)
    1c66:	000107a3          	sb	zero,15(sp)
    1c6a:	00f10693          	addi	a3,sp,15
    1c6e:	334c                	lbu	a1,5(a4)
    1c70:	2388                	lbu	a0,0(a5)
    1c72:	4605                	li	a2,1
    1c74:	0b7010ef          	jal	ra,352a <MPU_Write_Len>
    1c78:	00a03533          	snez	a0,a0
    1c7c:	40a00533          	neg	a0,a0
    1c80:	bf0d                	j	1bb2 <mpu_reset_fifo+0x14>
    1c82:	4791                	li	a5,4
    1c84:	00f10693          	addi	a3,sp,15
    1c88:	4605                	li	a2,1
    1c8a:	87dc                	sb	a5,15(sp)
    1c8c:	09f010ef          	jal	ra,352a <MPU_Write_Len>
    1c90:	f20510e3          	bnez	a0,1bb0 <mpu_reset_fifo+0x12>
    1c94:	283c                	lbu	a5,18(s0)
    1c96:	04000713          	li	a4,64
    1c9a:	e791                	bnez	a5,1ca6 <mpu_reset_fifo+0x108>
    1c9c:	243c                	lbu	a5,10(s0)
    1c9e:	8b85                	andi	a5,a5,1
    1ca0:	c399                	beqz	a5,1ca6 <mpu_reset_fifo+0x108>
    1ca2:	06000713          	li	a4,96
    1ca6:	87d8                	sb	a4,15(sp)
    1ca8:	405c                	lw	a5,4(s0)
    1caa:	4018                	lw	a4,0(s0)
    1cac:	00f10693          	addi	a3,sp,15
    1cb0:	2388                	lbu	a0,0(a5)
    1cb2:	234c                	lbu	a1,4(a4)
    1cb4:	4605                	li	a2,1
    1cb6:	075010ef          	jal	ra,352a <MPU_Write_Len>
    1cba:	ee051be3          	bnez	a0,1bb0 <mpu_reset_fifo+0x12>
    1cbe:	03200513          	li	a0,50
    1cc2:	389010ef          	jal	ra,384a <Delay_Ms>
    1cc6:	381c                	lbu	a5,17(s0)
    1cc8:	4018                	lw	a4,0(s0)
    1cca:	00f10693          	addi	a3,sp,15
    1cce:	00f037b3          	snez	a5,a5
    1cd2:	87dc                	sb	a5,15(sp)
    1cd4:	405c                	lw	a5,4(s0)
    1cd6:	376c                	lbu	a1,15(a4)
    1cd8:	4605                	li	a2,1
    1cda:	2388                	lbu	a0,0(a5)
    1cdc:	04f010ef          	jal	ra,352a <MPU_Write_Len>
    1ce0:	ec0518e3          	bnez	a0,1bb0 <mpu_reset_fifo+0x12>
    1ce4:	4018                	lw	a4,0(s0)
    1ce6:	405c                	lw	a5,4(s0)
    1ce8:	01040693          	addi	a3,s0,16
    1cec:	b749                	j	1c6e <mpu_reset_fifo+0xd0>

00001cee <mpu_get_gyro_fsr>:
    1cee:	200007b7          	lui	a5,0x20000
    1cf2:	0347c783          	lbu	a5,52(a5) # 20000034 <st+0x8>
    1cf6:	4705                	li	a4,1
    1cf8:	02e78163          	beq	a5,a4,1d1a <mpu_get_gyro_fsr+0x2c>
    1cfc:	cb91                	beqz	a5,1d10 <mpu_get_gyro_fsr+0x22>
    1cfe:	4709                	li	a4,2
    1d00:	02e78063          	beq	a5,a4,1d20 <mpu_get_gyro_fsr+0x32>
    1d04:	470d                	li	a4,3
    1d06:	02e78063          	beq	a5,a4,1d26 <mpu_get_gyro_fsr+0x38>
    1d0a:	00051023          	sh	zero,0(a0)
    1d0e:	a021                	j	1d16 <mpu_get_gyro_fsr+0x28>
    1d10:	0fa00793          	li	a5,250
    1d14:	a11e                	sh	a5,0(a0)
    1d16:	4501                	li	a0,0
    1d18:	8082                	ret
    1d1a:	1f400793          	li	a5,500
    1d1e:	bfdd                	j	1d14 <mpu_get_gyro_fsr+0x26>
    1d20:	3e800793          	li	a5,1000
    1d24:	bfc5                	j	1d14 <mpu_get_gyro_fsr+0x26>
    1d26:	7d000793          	li	a5,2000
    1d2a:	b7ed                	j	1d14 <mpu_get_gyro_fsr+0x26>

00001d2c <mpu_set_gyro_fsr>:
    1d2c:	d04fe2ef          	jal	t0,230 <__riscv_save_0>
    1d30:	20000437          	lui	s0,0x20000
    1d34:	02c40793          	addi	a5,s0,44 # 2000002c <st>
    1d38:	27bc                	lbu	a5,10(a5)
    1d3a:	1141                	addi	sp,sp,-16
    1d3c:	e789                	bnez	a5,1d46 <mpu_set_gyro_fsr+0x1a>
    1d3e:	557d                	li	a0,-1
    1d40:	0141                	addi	sp,sp,16
    1d42:	d12fe06f          	j	254 <__riscv_restore_0>
    1d46:	1f400793          	li	a5,500
    1d4a:	02c40413          	addi	s0,s0,44
    1d4e:	04f50863          	beq	a0,a5,1d9e <mpu_set_gyro_fsr+0x72>
    1d52:	02a7ec63          	bltu	a5,a0,1d8a <mpu_set_gyro_fsr+0x5e>
    1d56:	0fa00793          	li	a5,250
    1d5a:	fef512e3          	bne	a0,a5,1d3e <mpu_set_gyro_fsr+0x12>
    1d5e:	000107a3          	sb	zero,15(sp)
    1d62:	879c                	lbu	a5,15(sp)
    1d64:	2418                	lbu	a4,8(s0)
    1d66:	4501                	li	a0,0
    1d68:	838d                	srli	a5,a5,0x3
    1d6a:	fcf70be3          	beq	a4,a5,1d40 <mpu_set_gyro_fsr+0x14>
    1d6e:	4018                	lw	a4,0(s0)
    1d70:	405c                	lw	a5,4(s0)
    1d72:	00f10693          	addi	a3,sp,15
    1d76:	236c                	lbu	a1,6(a4)
    1d78:	2388                	lbu	a0,0(a5)
    1d7a:	4605                	li	a2,1
    1d7c:	7ae010ef          	jal	ra,352a <MPU_Write_Len>
    1d80:	fd5d                	bnez	a0,1d3e <mpu_set_gyro_fsr+0x12>
    1d82:	879c                	lbu	a5,15(sp)
    1d84:	838d                	srli	a5,a5,0x3
    1d86:	a41c                	sb	a5,8(s0)
    1d88:	bf65                	j	1d40 <mpu_set_gyro_fsr+0x14>
    1d8a:	3e800793          	li	a5,1000
    1d8e:	00f50b63          	beq	a0,a5,1da4 <mpu_set_gyro_fsr+0x78>
    1d92:	7d000793          	li	a5,2000
    1d96:	faf514e3          	bne	a0,a5,1d3e <mpu_set_gyro_fsr+0x12>
    1d9a:	47e1                	li	a5,24
    1d9c:	a011                	j	1da0 <mpu_set_gyro_fsr+0x74>
    1d9e:	47a1                	li	a5,8
    1da0:	87dc                	sb	a5,15(sp)
    1da2:	b7c1                	j	1d62 <mpu_set_gyro_fsr+0x36>
    1da4:	47c1                	li	a5,16
    1da6:	bfed                	j	1da0 <mpu_set_gyro_fsr+0x74>

00001da8 <mpu_get_accel_fsr>:
    1da8:	20000737          	lui	a4,0x20000
    1dac:	02c70693          	addi	a3,a4,44 # 2000002c <st>
    1db0:	3694                	lbu	a3,9(a3)
    1db2:	4605                	li	a2,1
    1db4:	87aa                	mv	a5,a0
    1db6:	02c70713          	addi	a4,a4,44
    1dba:	02c68463          	beq	a3,a2,1de2 <mpu_get_accel_fsr+0x3a>
    1dbe:	ca89                	beqz	a3,1dd0 <mpu_get_accel_fsr+0x28>
    1dc0:	4609                	li	a2,2
    1dc2:	02c68263          	beq	a3,a2,1de6 <mpu_get_accel_fsr+0x3e>
    1dc6:	460d                	li	a2,3
    1dc8:	02c68163          	beq	a3,a2,1dea <mpu_get_accel_fsr+0x42>
    1dcc:	557d                	li	a0,-1
    1dce:	8082                	ret
    1dd0:	4689                	li	a3,2
    1dd2:	a394                	sb	a3,0(a5)
    1dd4:	3b38                	lbu	a4,19(a4)
    1dd6:	4501                	li	a0,0
    1dd8:	c701                	beqz	a4,1de0 <mpu_get_accel_fsr+0x38>
    1dda:	2398                	lbu	a4,0(a5)
    1ddc:	0706                	slli	a4,a4,0x1
    1dde:	a398                	sb	a4,0(a5)
    1de0:	8082                	ret
    1de2:	4691                	li	a3,4
    1de4:	b7fd                	j	1dd2 <mpu_get_accel_fsr+0x2a>
    1de6:	46a1                	li	a3,8
    1de8:	b7ed                	j	1dd2 <mpu_get_accel_fsr+0x2a>
    1dea:	46c1                	li	a3,16
    1dec:	b7dd                	j	1dd2 <mpu_get_accel_fsr+0x2a>

00001dee <mpu_set_accel_fsr>:
    1dee:	c42fe2ef          	jal	t0,230 <__riscv_save_0>
    1df2:	20000437          	lui	s0,0x20000
    1df6:	02c40793          	addi	a5,s0,44 # 2000002c <st>
    1dfa:	27bc                	lbu	a5,10(a5)
    1dfc:	1141                	addi	sp,sp,-16
    1dfe:	e789                	bnez	a5,1e08 <mpu_set_accel_fsr+0x1a>
    1e00:	557d                	li	a0,-1
    1e02:	0141                	addi	sp,sp,16
    1e04:	c50fe06f          	j	254 <__riscv_restore_0>
    1e08:	4791                	li	a5,4
    1e0a:	02c40413          	addi	s0,s0,44
    1e0e:	04f50563          	beq	a0,a5,1e58 <mpu_set_accel_fsr+0x6a>
    1e12:	02a7eb63          	bltu	a5,a0,1e48 <mpu_set_accel_fsr+0x5a>
    1e16:	4789                	li	a5,2
    1e18:	fef514e3          	bne	a0,a5,1e00 <mpu_set_accel_fsr+0x12>
    1e1c:	000107a3          	sb	zero,15(sp)
    1e20:	879c                	lbu	a5,15(sp)
    1e22:	3418                	lbu	a4,9(s0)
    1e24:	4501                	li	a0,0
    1e26:	838d                	srli	a5,a5,0x3
    1e28:	fcf70de3          	beq	a4,a5,1e02 <mpu_set_accel_fsr+0x14>
    1e2c:	4018                	lw	a4,0(s0)
    1e2e:	405c                	lw	a5,4(s0)
    1e30:	00f10693          	addi	a3,sp,15
    1e34:	336c                	lbu	a1,7(a4)
    1e36:	2388                	lbu	a0,0(a5)
    1e38:	4605                	li	a2,1
    1e3a:	6f0010ef          	jal	ra,352a <MPU_Write_Len>
    1e3e:	f169                	bnez	a0,1e00 <mpu_set_accel_fsr+0x12>
    1e40:	879c                	lbu	a5,15(sp)
    1e42:	838d                	srli	a5,a5,0x3
    1e44:	b41c                	sb	a5,9(s0)
    1e46:	bf75                	j	1e02 <mpu_set_accel_fsr+0x14>
    1e48:	47a1                	li	a5,8
    1e4a:	00f50a63          	beq	a0,a5,1e5e <mpu_set_accel_fsr+0x70>
    1e4e:	47c1                	li	a5,16
    1e50:	faf518e3          	bne	a0,a5,1e00 <mpu_set_accel_fsr+0x12>
    1e54:	47e1                	li	a5,24
    1e56:	a011                	j	1e5a <mpu_set_accel_fsr+0x6c>
    1e58:	47a1                	li	a5,8
    1e5a:	87dc                	sb	a5,15(sp)
    1e5c:	b7d1                	j	1e20 <mpu_set_accel_fsr+0x32>
    1e5e:	47c1                	li	a5,16
    1e60:	bfed                	j	1e5a <mpu_set_accel_fsr+0x6c>

00001e62 <mpu_get_lpf>:
    1e62:	200007b7          	lui	a5,0x20000
    1e66:	0377c783          	lbu	a5,55(a5) # 20000037 <st+0xb>
    1e6a:	4715                	li	a4,5
    1e6c:	17fd                	addi	a5,a5,-1
    1e6e:	0ff7f793          	andi	a5,a5,255
    1e72:	02f76a63          	bltu	a4,a5,1ea6 <mpu_get_lpf+0x44>
    1e76:	6735                	lui	a4,0xd
    1e78:	078a                	slli	a5,a5,0x2
    1e7a:	71c70713          	addi	a4,a4,1820 # d71c <dmp_memory+0xc1c>
    1e7e:	97ba                	add	a5,a5,a4
    1e80:	439c                	lw	a5,0(a5)
    1e82:	8782                	jr	a5
    1e84:	0bc00793          	li	a5,188
    1e88:	a11e                	sh	a5,0(a0)
    1e8a:	4501                	li	a0,0
    1e8c:	8082                	ret
    1e8e:	06200793          	li	a5,98
    1e92:	bfdd                	j	1e88 <mpu_get_lpf+0x26>
    1e94:	02a00793          	li	a5,42
    1e98:	bfc5                	j	1e88 <mpu_get_lpf+0x26>
    1e9a:	47d1                	li	a5,20
    1e9c:	b7f5                	j	1e88 <mpu_get_lpf+0x26>
    1e9e:	47a9                	li	a5,10
    1ea0:	b7e5                	j	1e88 <mpu_get_lpf+0x26>
    1ea2:	4795                	li	a5,5
    1ea4:	b7d5                	j	1e88 <mpu_get_lpf+0x26>
    1ea6:	00051023          	sh	zero,0(a0)
    1eaa:	b7c5                	j	1e8a <mpu_get_lpf+0x28>

00001eac <mpu_set_lpf>:
    1eac:	b84fe2ef          	jal	t0,230 <__riscv_save_0>
    1eb0:	20000437          	lui	s0,0x20000
    1eb4:	02c40793          	addi	a5,s0,44 # 2000002c <st>
    1eb8:	27bc                	lbu	a5,10(a5)
    1eba:	1141                	addi	sp,sp,-16
    1ebc:	e789                	bnez	a5,1ec6 <mpu_set_lpf+0x1a>
    1ebe:	557d                	li	a0,-1
    1ec0:	0141                	addi	sp,sp,16
    1ec2:	b92fe06f          	j	254 <__riscv_restore_0>
    1ec6:	0bb00793          	li	a5,187
    1eca:	02c40413          	addi	s0,s0,44
    1ece:	02a7f663          	bgeu	a5,a0,1efa <mpu_set_lpf+0x4e>
    1ed2:	4785                	li	a5,1
    1ed4:	87dc                	sb	a5,15(sp)
    1ed6:	3438                	lbu	a4,11(s0)
    1ed8:	879c                	lbu	a5,15(sp)
    1eda:	4501                	li	a0,0
    1edc:	fef702e3          	beq	a4,a5,1ec0 <mpu_set_lpf+0x14>
    1ee0:	4018                	lw	a4,0(s0)
    1ee2:	405c                	lw	a5,4(s0)
    1ee4:	00f10693          	addi	a3,sp,15
    1ee8:	232c                	lbu	a1,2(a4)
    1eea:	2388                	lbu	a0,0(a5)
    1eec:	4605                	li	a2,1
    1eee:	63c010ef          	jal	ra,352a <MPU_Write_Len>
    1ef2:	f571                	bnez	a0,1ebe <mpu_set_lpf+0x12>
    1ef4:	879c                	lbu	a5,15(sp)
    1ef6:	b43c                	sb	a5,11(s0)
    1ef8:	b7e1                	j	1ec0 <mpu_set_lpf+0x14>
    1efa:	06100793          	li	a5,97
    1efe:	00a7f463          	bgeu	a5,a0,1f06 <mpu_set_lpf+0x5a>
    1f02:	4789                	li	a5,2
    1f04:	bfc1                	j	1ed4 <mpu_set_lpf+0x28>
    1f06:	02900793          	li	a5,41
    1f0a:	00a7f463          	bgeu	a5,a0,1f12 <mpu_set_lpf+0x66>
    1f0e:	478d                	li	a5,3
    1f10:	b7d1                	j	1ed4 <mpu_set_lpf+0x28>
    1f12:	47cd                	li	a5,19
    1f14:	00a7f463          	bgeu	a5,a0,1f1c <mpu_set_lpf+0x70>
    1f18:	4791                	li	a5,4
    1f1a:	bf6d                	j	1ed4 <mpu_set_lpf+0x28>
    1f1c:	47a5                	li	a5,9
    1f1e:	00a7f463          	bgeu	a5,a0,1f26 <mpu_set_lpf+0x7a>
    1f22:	4795                	li	a5,5
    1f24:	bf45                	j	1ed4 <mpu_set_lpf+0x28>
    1f26:	4799                	li	a5,6
    1f28:	b775                	j	1ed4 <mpu_set_lpf+0x28>

00001f2a <mpu_get_sample_rate>:
    1f2a:	200007b7          	lui	a5,0x20000
    1f2e:	02c78793          	addi	a5,a5,44 # 2000002c <st>
    1f32:	0247c703          	lbu	a4,36(a5)
    1f36:	e709                	bnez	a4,1f40 <mpu_get_sample_rate+0x16>
    1f38:	27fe                	lhu	a5,14(a5)
    1f3a:	a11e                	sh	a5,0(a0)
    1f3c:	4501                	li	a0,0
    1f3e:	8082                	ret
    1f40:	557d                	li	a0,-1
    1f42:	8082                	ret

00001f44 <mpu_get_gyro_sens>:
    1f44:	200007b7          	lui	a5,0x20000
    1f48:	0347c783          	lbu	a5,52(a5) # 20000034 <st+0x8>
    1f4c:	4705                	li	a4,1
    1f4e:	02e78263          	beq	a5,a4,1f72 <mpu_get_gyro_sens+0x2e>
    1f52:	cb89                	beqz	a5,1f64 <mpu_get_gyro_sens+0x20>
    1f54:	4709                	li	a4,2
    1f56:	02e78363          	beq	a5,a4,1f7c <mpu_get_gyro_sens+0x38>
    1f5a:	470d                	li	a4,3
    1f5c:	02e78563          	beq	a5,a4,1f86 <mpu_get_gyro_sens+0x42>
    1f60:	557d                	li	a0,-1
    1f62:	8082                	ret
    1f64:	0000d7b7          	lui	a5,0xd
    1f68:	7507a783          	lw	a5,1872(a5) # d750 <hw+0x1c>
    1f6c:	c11c                	sw	a5,0(a0)
    1f6e:	4501                	li	a0,0
    1f70:	8082                	ret
    1f72:	0000d7b7          	lui	a5,0xd
    1f76:	7547a783          	lw	a5,1876(a5) # d754 <hw+0x20>
    1f7a:	bfcd                	j	1f6c <mpu_get_gyro_sens+0x28>
    1f7c:	0000d7b7          	lui	a5,0xd
    1f80:	7587a783          	lw	a5,1880(a5) # d758 <hw+0x24>
    1f84:	b7e5                	j	1f6c <mpu_get_gyro_sens+0x28>
    1f86:	0000d7b7          	lui	a5,0xd
    1f8a:	75c7a783          	lw	a5,1884(a5) # d75c <hw+0x28>
    1f8e:	bff9                	j	1f6c <mpu_get_gyro_sens+0x28>

00001f90 <mpu_get_accel_sens>:
    1f90:	20000737          	lui	a4,0x20000
    1f94:	02c70693          	addi	a3,a4,44 # 2000002c <st>
    1f98:	3694                	lbu	a3,9(a3)
    1f9a:	4605                	li	a2,1
    1f9c:	87aa                	mv	a5,a0
    1f9e:	02c70713          	addi	a4,a4,44
    1fa2:	02c68463          	beq	a3,a2,1fca <mpu_get_accel_sens+0x3a>
    1fa6:	ca89                	beqz	a3,1fb8 <mpu_get_accel_sens+0x28>
    1fa8:	4609                	li	a2,2
    1faa:	02c68463          	beq	a3,a2,1fd2 <mpu_get_accel_sens+0x42>
    1fae:	460d                	li	a2,3
    1fb0:	02c68363          	beq	a3,a2,1fd6 <mpu_get_accel_sens+0x46>
    1fb4:	557d                	li	a0,-1
    1fb6:	8082                	ret
    1fb8:	6691                	lui	a3,0x4
    1fba:	a396                	sh	a3,0(a5)
    1fbc:	3b38                	lbu	a4,19(a4)
    1fbe:	4501                	li	a0,0
    1fc0:	c701                	beqz	a4,1fc8 <mpu_get_accel_sens+0x38>
    1fc2:	239a                	lhu	a4,0(a5)
    1fc4:	8305                	srli	a4,a4,0x1
    1fc6:	a39a                	sh	a4,0(a5)
    1fc8:	8082                	ret
    1fca:	6689                	lui	a3,0x2
    1fcc:	f9c68693          	addi	a3,a3,-100 # 1f9c <mpu_get_accel_sens+0xc>
    1fd0:	b7ed                	j	1fba <mpu_get_accel_sens+0x2a>
    1fd2:	6685                	lui	a3,0x1
    1fd4:	b7dd                	j	1fba <mpu_get_accel_sens+0x2a>
    1fd6:	6685                	lui	a3,0x1
    1fd8:	80068693          	addi	a3,a3,-2048 # 800 <__stack_size>
    1fdc:	bff9                	j	1fba <mpu_get_accel_sens+0x2a>

00001fde <mpu_configure_fifo>:
    1fde:	a38fe2ef          	jal	t0,216 <__riscv_save_4>
    1fe2:	20000437          	lui	s0,0x20000
    1fe6:	02c40413          	addi	s0,s0,44 # 2000002c <st>
    1fea:	02444783          	lbu	a5,36(s0)
    1fee:	4901                	li	s2,0
    1ff0:	e3a1                	bnez	a5,2030 <mpu_configure_fifo+0x52>
    1ff2:	243c                	lbu	a5,10(s0)
    1ff4:	597d                	li	s2,-1
    1ff6:	cf8d                	beqz	a5,2030 <mpu_configure_fifo+0x52>
    1ff8:	0fe57493          	andi	s1,a0,254
    1ffc:	8fe5                	and	a5,a5,s1
    1ffe:	01044983          	lbu	s3,16(s0)
    2002:	a81c                	sb	a5,16(s0)
    2004:	8f85                	sub	a5,a5,s1
    2006:	00f037b3          	snez	a5,a5
    200a:	40f00933          	neg	s2,a5
    200e:	285c                	lbu	a5,20(s0)
    2010:	8fc5                	or	a5,a5,s1
    2012:	cf81                	beqz	a5,202a <mpu_configure_fifo+0x4c>
    2014:	4505                	li	a0,1
    2016:	b19ff0ef          	jal	ra,1b2e <set_int_enable>
    201a:	c899                	beqz	s1,2030 <mpu_configure_fifo+0x52>
    201c:	b83ff0ef          	jal	ra,1b9e <mpu_reset_fifo>
    2020:	c901                	beqz	a0,2030 <mpu_configure_fifo+0x52>
    2022:	01340823          	sb	s3,16(s0)
    2026:	597d                	li	s2,-1
    2028:	a021                	j	2030 <mpu_configure_fifo+0x52>
    202a:	4501                	li	a0,0
    202c:	b03ff0ef          	jal	ra,1b2e <set_int_enable>
    2030:	854a                	mv	a0,s2
    2032:	a18fe06f          	j	24a <__riscv_restore_4>

00002036 <mpu_read_fifo_stream>:
    2036:	9e0fe2ef          	jal	t0,216 <__riscv_save_4>
    203a:	200009b7          	lui	s3,0x20000
    203e:	02c98493          	addi	s1,s3,44 # 2000002c <st>
    2042:	0244c783          	lbu	a5,36(s1)
    2046:	1141                	addi	sp,sp,-16
    2048:	e789                	bnez	a5,2052 <mpu_read_fifo_stream+0x1c>
    204a:	557d                	li	a0,-1
    204c:	0141                	addi	sp,sp,16
    204e:	9fcfe06f          	j	24a <__riscv_restore_4>
    2052:	24bc                	lbu	a5,10(s1)
    2054:	dbfd                	beqz	a5,204a <mpu_read_fifo_stream+0x14>
    2056:	4098                	lw	a4,0(s1)
    2058:	40dc                	lw	a5,4(s1)
    205a:	8aae                	mv	s5,a1
    205c:	892a                	mv	s2,a0
    205e:	272c                	lbu	a1,10(a4)
    2060:	2388                	lbu	a0,0(a5)
    2062:	8a32                	mv	s4,a2
    2064:	0074                	addi	a3,sp,12
    2066:	4609                	li	a2,2
    2068:	51e010ef          	jal	ra,3586 <MPU_Read_Len>
    206c:	fd79                	bnez	a0,204a <mpu_read_fifo_stream+0x14>
    206e:	861c                	lbu	a5,12(sp)
    2070:	8680                	lbu	s0,13(sp)
    2072:	07a2                	slli	a5,a5,0x8
    2074:	8c5d                	or	s0,s0,a5
    2076:	01247563          	bgeu	s0,s2,2080 <mpu_read_fifo_stream+0x4a>
    207a:	000a0023          	sb	zero,0(s4)
    207e:	b7f1                	j	204a <mpu_read_fifo_stream+0x14>
    2080:	40d8                	lw	a4,4(s1)
    2082:	02c98993          	addi	s3,s3,44
    2086:	233e                	lhu	a5,2(a4)
    2088:	8385                	srli	a5,a5,0x1
    208a:	0287f163          	bgeu	a5,s0,20ac <mpu_read_fifo_stream+0x76>
    208e:	409c                	lw	a5,0(s1)
    2090:	2308                	lbu	a0,0(a4)
    2092:	0074                	addi	a3,sp,12
    2094:	3b8c                	lbu	a1,17(a5)
    2096:	4605                	li	a2,1
    2098:	4ee010ef          	jal	ra,3586 <MPU_Read_Len>
    209c:	f55d                	bnez	a0,204a <mpu_read_fifo_stream+0x14>
    209e:	861c                	lbu	a5,12(sp)
    20a0:	8bc1                	andi	a5,a5,16
    20a2:	c789                	beqz	a5,20ac <mpu_read_fifo_stream+0x76>
    20a4:	afbff0ef          	jal	ra,1b9e <mpu_reset_fifo>
    20a8:	5579                	li	a0,-2
    20aa:	b74d                	j	204c <mpu_read_fifo_stream+0x16>
    20ac:	0009a703          	lw	a4,0(s3)
    20b0:	0049a783          	lw	a5,4(s3)
    20b4:	86d6                	mv	a3,s5
    20b6:	372c                	lbu	a1,11(a4)
    20b8:	2388                	lbu	a0,0(a5)
    20ba:	0ff97613          	andi	a2,s2,255
    20be:	4c8010ef          	jal	ra,3586 <MPU_Read_Len>
    20c2:	f541                	bnez	a0,204a <mpu_read_fifo_stream+0x14>
    20c4:	03245433          	divu	s0,s0,s2
    20c8:	147d                	addi	s0,s0,-1
    20ca:	008a0023          	sb	s0,0(s4)
    20ce:	bfbd                	j	204c <mpu_read_fifo_stream+0x16>

000020d0 <mpu_set_bypass>:
    20d0:	960fe2ef          	jal	t0,230 <__riscv_save_0>
    20d4:	20000437          	lui	s0,0x20000
    20d8:	02c40793          	addi	a5,s0,44 # 2000002c <st>
    20dc:	2bbc                	lbu	a5,18(a5)
    20de:	1141                	addi	sp,sp,-16
    20e0:	0ca78263          	beq	a5,a0,21a4 <mpu_set_bypass+0xd4>
    20e4:	02c40413          	addi	s0,s0,44
    20e8:	405c                	lw	a5,4(s0)
    20ea:	84aa                	mv	s1,a0
    20ec:	00f10693          	addi	a3,sp,15
    20f0:	2388                	lbu	a0,0(a5)
    20f2:	401c                	lw	a5,0(s0)
    20f4:	4605                	li	a2,1
    20f6:	23cc                	lbu	a1,4(a5)
    20f8:	c8a9                	beqz	s1,214a <mpu_set_bypass+0x7a>
    20fa:	48c010ef          	jal	ra,3586 <MPU_Read_Len>
    20fe:	c509                	beqz	a0,2108 <mpu_set_bypass+0x38>
    2100:	557d                	li	a0,-1
    2102:	0141                	addi	sp,sp,16
    2104:	950fe06f          	j	254 <__riscv_restore_0>
    2108:	879c                	lbu	a5,15(sp)
    210a:	4018                	lw	a4,0(s0)
    210c:	00f10693          	addi	a3,sp,15
    2110:	fdf7f793          	andi	a5,a5,-33
    2114:	87dc                	sb	a5,15(sp)
    2116:	405c                	lw	a5,4(s0)
    2118:	234c                	lbu	a1,4(a4)
    211a:	4605                	li	a2,1
    211c:	2388                	lbu	a0,0(a5)
    211e:	40c010ef          	jal	ra,352a <MPU_Write_Len>
    2122:	fd79                	bnez	a0,2100 <mpu_set_bypass+0x30>
    2124:	450d                	li	a0,3
    2126:	724010ef          	jal	ra,384a <Delay_Ms>
    212a:	4789                	li	a5,2
    212c:	87dc                	sb	a5,15(sp)
    212e:	02244783          	lbu	a5,34(s0)
    2132:	c781                	beqz	a5,213a <mpu_set_bypass+0x6a>
    2134:	f8200793          	li	a5,-126
    2138:	87dc                	sb	a5,15(sp)
    213a:	02344783          	lbu	a5,35(s0)
    213e:	cba1                	beqz	a5,218e <mpu_set_bypass+0xbe>
    2140:	879c                	lbu	a5,15(sp)
    2142:	0307e793          	ori	a5,a5,48
    2146:	87dc                	sb	a5,15(sp)
    2148:	a099                	j	218e <mpu_set_bypass+0xbe>
    214a:	43c010ef          	jal	ra,3586 <MPU_Read_Len>
    214e:	f94d                	bnez	a0,2100 <mpu_set_bypass+0x30>
    2150:	243c                	lbu	a5,10(s0)
    2152:	8794                	lbu	a3,15(sp)
    2154:	8b85                	andi	a5,a5,1
    2156:	0df6f713          	andi	a4,a3,223
    215a:	c399                	beqz	a5,2160 <mpu_set_bypass+0x90>
    215c:	0206e713          	ori	a4,a3,32
    2160:	87d8                	sb	a4,15(sp)
    2162:	405c                	lw	a5,4(s0)
    2164:	4018                	lw	a4,0(s0)
    2166:	00f10693          	addi	a3,sp,15
    216a:	2388                	lbu	a0,0(a5)
    216c:	234c                	lbu	a1,4(a4)
    216e:	4605                	li	a2,1
    2170:	3ba010ef          	jal	ra,352a <MPU_Write_Len>
    2174:	f551                	bnez	a0,2100 <mpu_set_bypass+0x30>
    2176:	450d                	li	a0,3
    2178:	6d2010ef          	jal	ra,384a <Delay_Ms>
    217c:	02244783          	lbu	a5,34(s0)
    2180:	c399                	beqz	a5,2186 <mpu_set_bypass+0xb6>
    2182:	08000793          	li	a5,128
    2186:	02344703          	lbu	a4,35(s0)
    218a:	87dc                	sb	a5,15(sp)
    218c:	fb5d                	bnez	a4,2142 <mpu_set_bypass+0x72>
    218e:	4018                	lw	a4,0(s0)
    2190:	405c                	lw	a5,4(s0)
    2192:	00f10693          	addi	a3,sp,15
    2196:	2b4c                	lbu	a1,20(a4)
    2198:	2388                	lbu	a0,0(a5)
    219a:	4605                	li	a2,1
    219c:	38e010ef          	jal	ra,352a <MPU_Write_Len>
    21a0:	f125                	bnez	a0,2100 <mpu_set_bypass+0x30>
    21a2:	a824                	sb	s1,18(s0)
    21a4:	4501                	li	a0,0
    21a6:	bfb1                	j	2102 <mpu_set_bypass+0x32>

000021a8 <mpu_set_int_latched>:
    21a8:	888fe2ef          	jal	t0,230 <__riscv_save_0>
    21ac:	20000437          	lui	s0,0x20000
    21b0:	02c40793          	addi	a5,s0,44 # 2000002c <st>
    21b4:	0237c783          	lbu	a5,35(a5)
    21b8:	1141                	addi	sp,sp,-16
    21ba:	04a78363          	beq	a5,a0,2200 <mpu_set_int_latched+0x58>
    21be:	02c40413          	addi	s0,s0,44
    21c2:	4781                	li	a5,0
    21c4:	c119                	beqz	a0,21ca <mpu_set_int_latched+0x22>
    21c6:	03000793          	li	a5,48
    21ca:	2838                	lbu	a4,18(s0)
    21cc:	87dc                	sb	a5,15(sp)
    21ce:	c701                	beqz	a4,21d6 <mpu_set_int_latched+0x2e>
    21d0:	0027e793          	ori	a5,a5,2
    21d4:	87dc                	sb	a5,15(sp)
    21d6:	02244783          	lbu	a5,34(s0)
    21da:	c789                	beqz	a5,21e4 <mpu_set_int_latched+0x3c>
    21dc:	879c                	lbu	a5,15(sp)
    21de:	f807e793          	ori	a5,a5,-128
    21e2:	87dc                	sb	a5,15(sp)
    21e4:	405c                	lw	a5,4(s0)
    21e6:	4018                	lw	a4,0(s0)
    21e8:	84aa                	mv	s1,a0
    21ea:	2388                	lbu	a0,0(a5)
    21ec:	2b4c                	lbu	a1,20(a4)
    21ee:	00f10693          	addi	a3,sp,15
    21f2:	4605                	li	a2,1
    21f4:	336010ef          	jal	ra,352a <MPU_Write_Len>
    21f8:	57fd                	li	a5,-1
    21fa:	e501                	bnez	a0,2202 <mpu_set_int_latched+0x5a>
    21fc:	029401a3          	sb	s1,35(s0)
    2200:	4781                	li	a5,0
    2202:	853e                	mv	a0,a5
    2204:	0141                	addi	sp,sp,16
    2206:	84efe06f          	j	254 <__riscv_restore_0>

0000220a <mpu_lp_accel_mode>:
    220a:	02800793          	li	a5,40
    220e:	00a7f563          	bgeu	a5,a0,2218 <mpu_lp_accel_mode+0xe>
    2212:	57fd                	li	a5,-1
    2214:	853e                	mv	a0,a5
    2216:	8082                	ret
    2218:	818fe2ef          	jal	t0,230 <__riscv_save_0>
    221c:	20000437          	lui	s0,0x20000
    2220:	1141                	addi	sp,sp,-16
    2222:	84aa                	mv	s1,a0
    2224:	02c40413          	addi	s0,s0,44 # 2000002c <st>
    2228:	e515                	bnez	a0,2254 <mpu_lp_accel_mode+0x4a>
    222a:	3fbd                	jal	21a8 <mpu_set_int_latched>
    222c:	70000793          	li	a5,1792
    2230:	867c                	sh	a5,12(sp)
    2232:	4018                	lw	a4,0(s0)
    2234:	405c                	lw	a5,4(s0)
    2236:	0074                	addi	a3,sp,12
    2238:	2b2c                	lbu	a1,18(a4)
    223a:	2388                	lbu	a0,0(a5)
    223c:	4609                	li	a2,2
    223e:	2ec010ef          	jal	ra,352a <MPU_Write_Len>
    2242:	57fd                	li	a5,-1
    2244:	e501                	bnez	a0,224c <mpu_lp_accel_mode+0x42>
    2246:	00040a23          	sb	zero,20(s0)
    224a:	4781                	li	a5,0
    224c:	853e                	mv	a0,a5
    224e:	0141                	addi	sp,sp,16
    2250:	804fe06f          	j	254 <__riscv_restore_0>
    2254:	4505                	li	a0,1
    2256:	3f89                	jal	21a8 <mpu_set_int_latched>
    2258:	02000793          	li	a5,32
    225c:	865c                	sb	a5,12(sp)
    225e:	4785                	li	a5,1
    2260:	02f49d63          	bne	s1,a5,229a <mpu_lp_accel_mode+0x90>
    2264:	000106a3          	sb	zero,13(sp)
    2268:	4515                	li	a0,5
    226a:	3189                	jal	1eac <mpu_set_lpf>
    226c:	869c                	lbu	a5,13(sp)
    226e:	4018                	lw	a4,0(s0)
    2270:	0074                	addi	a3,sp,12
    2272:	079a                	slli	a5,a5,0x6
    2274:	0077e793          	ori	a5,a5,7
    2278:	86dc                	sb	a5,13(sp)
    227a:	405c                	lw	a5,4(s0)
    227c:	2b2c                	lbu	a1,18(a4)
    227e:	4609                	li	a2,2
    2280:	2388                	lbu	a0,0(a5)
    2282:	2a8010ef          	jal	ra,352a <MPU_Write_Len>
    2286:	57fd                	li	a5,-1
    2288:	f171                	bnez	a0,224c <mpu_lp_accel_mode+0x42>
    228a:	47a1                	li	a5,8
    228c:	a43c                	sb	a5,10(s0)
    228e:	4785                	li	a5,1
    2290:	00040623          	sb	zero,12(s0)
    2294:	a85c                	sb	a5,20(s0)
    2296:	33a1                	jal	1fde <mpu_configure_fifo>
    2298:	bf4d                	j	224a <mpu_lp_accel_mode+0x40>
    229a:	4715                	li	a4,5
    229c:	00976463          	bltu	a4,s1,22a4 <mpu_lp_accel_mode+0x9a>
    22a0:	86dc                	sb	a5,13(sp)
    22a2:	b7d9                	j	2268 <mpu_lp_accel_mode+0x5e>
    22a4:	47d1                	li	a5,20
    22a6:	0097e663          	bltu	a5,s1,22b2 <mpu_lp_accel_mode+0xa8>
    22aa:	4789                	li	a5,2
    22ac:	86dc                	sb	a5,13(sp)
    22ae:	4529                	li	a0,10
    22b0:	bf6d                	j	226a <mpu_lp_accel_mode+0x60>
    22b2:	478d                	li	a5,3
    22b4:	86dc                	sb	a5,13(sp)
    22b6:	4551                	li	a0,20
    22b8:	bf4d                	j	226a <mpu_lp_accel_mode+0x60>

000022ba <mpu_set_sample_rate>:
    22ba:	f77fd2ef          	jal	t0,230 <__riscv_save_0>
    22be:	20000437          	lui	s0,0x20000
    22c2:	02c40793          	addi	a5,s0,44 # 2000002c <st>
    22c6:	27b8                	lbu	a4,10(a5)
    22c8:	1141                	addi	sp,sp,-16
    22ca:	e709                	bnez	a4,22d4 <mpu_set_sample_rate+0x1a>
    22cc:	557d                	li	a0,-1
    22ce:	0141                	addi	sp,sp,16
    22d0:	f85fd06f          	j	254 <__riscv_restore_0>
    22d4:	0247c703          	lbu	a4,36(a5)
    22d8:	fb75                	bnez	a4,22cc <mpu_set_sample_rate+0x12>
    22da:	2bdc                	lbu	a5,20(a5)
    22dc:	02c40413          	addi	s0,s0,44
    22e0:	84aa                	mv	s1,a0
    22e2:	c385                	beqz	a5,2302 <mpu_set_sample_rate+0x48>
    22e4:	fff50793          	addi	a5,a0,-1
    22e8:	07c2                	slli	a5,a5,0x10
    22ea:	83c1                	srli	a5,a5,0x10
    22ec:	02700713          	li	a4,39
    22f0:	00f76763          	bltu	a4,a5,22fe <mpu_set_sample_rate+0x44>
    22f4:	0ff57513          	andi	a0,a0,255
    22f8:	3f09                	jal	220a <mpu_lp_accel_mode>
    22fa:	4501                	li	a0,0
    22fc:	bfc9                	j	22ce <mpu_set_sample_rate+0x14>
    22fe:	4501                	li	a0,0
    2300:	3729                	jal	220a <mpu_lp_accel_mode>
    2302:	3e800713          	li	a4,1000
    2306:	87a6                	mv	a5,s1
    2308:	00977463          	bgeu	a4,s1,2310 <mpu_set_sample_rate+0x56>
    230c:	3e800793          	li	a5,1000
    2310:	01079693          	slli	a3,a5,0x10
    2314:	82c1                	srli	a3,a3,0x10
    2316:	4711                	li	a4,4
    2318:	00e6f363          	bgeu	a3,a4,231e <mpu_set_sample_rate+0x64>
    231c:	4791                	li	a5,4
    231e:	07c2                	slli	a5,a5,0x10
    2320:	83c1                	srli	a5,a5,0x10
    2322:	3e800493          	li	s1,1000
    2326:	02f4c7b3          	div	a5,s1,a5
    232a:	4018                	lw	a4,0(s0)
    232c:	00f10693          	addi	a3,sp,15
    2330:	4605                	li	a2,1
    2332:	330c                	lbu	a1,1(a4)
    2334:	17fd                	addi	a5,a5,-1
    2336:	87dc                	sb	a5,15(sp)
    2338:	405c                	lw	a5,4(s0)
    233a:	2388                	lbu	a0,0(a5)
    233c:	1ee010ef          	jal	ra,352a <MPU_Write_Len>
    2340:	f551                	bnez	a0,22cc <mpu_set_sample_rate+0x12>
    2342:	8788                	lbu	a0,15(sp)
    2344:	0505                	addi	a0,a0,1
    2346:	02a4c533          	div	a0,s1,a0
    234a:	a46a                	sh	a0,14(s0)
    234c:	8105                	srli	a0,a0,0x1
    234e:	b5fff0ef          	jal	ra,1eac <mpu_set_lpf>
    2352:	b765                	j	22fa <mpu_set_sample_rate+0x40>

00002354 <mpu_set_sensors>:
    2354:	eddfd2ef          	jal	t0,230 <__riscv_save_0>
    2358:	07057793          	andi	a5,a0,112
    235c:	1141                	addi	sp,sp,-16
    235e:	84aa                	mv	s1,a0
    2360:	c781                	beqz	a5,2368 <mpu_set_sensors+0x14>
    2362:	4785                	li	a5,1
    2364:	87dc                	sb	a5,15(sp)
    2366:	a021                	j	236e <mpu_set_sensors+0x1a>
    2368:	c90d                	beqz	a0,239a <mpu_set_sensors+0x46>
    236a:	000107a3          	sb	zero,15(sp)
    236e:	20000437          	lui	s0,0x20000
    2372:	02c40793          	addi	a5,s0,44 # 2000002c <st>
    2376:	4398                	lw	a4,0(a5)
    2378:	43dc                	lw	a5,4(a5)
    237a:	00f10693          	addi	a3,sp,15
    237e:	2b2c                	lbu	a1,18(a4)
    2380:	2388                	lbu	a0,0(a5)
    2382:	4605                	li	a2,1
    2384:	02c40413          	addi	s0,s0,44
    2388:	1a2010ef          	jal	ra,352a <MPU_Write_Len>
    238c:	c911                	beqz	a0,23a0 <mpu_set_sensors+0x4c>
    238e:	00040523          	sb	zero,10(s0)
    2392:	557d                	li	a0,-1
    2394:	0141                	addi	sp,sp,16
    2396:	ebffd06f          	j	254 <__riscv_restore_0>
    239a:	04000793          	li	a5,64
    239e:	b7d9                	j	2364 <mpu_set_sensors+0x10>
    23a0:	879c                	lbu	a5,15(sp)
    23a2:	fbf7f793          	andi	a5,a5,-65
    23a6:	a45c                	sb	a5,12(s0)
    23a8:	0404f793          	andi	a5,s1,64
    23ac:	cfb9                	beqz	a5,240a <mpu_set_sensors+0xb6>
    23ae:	000107a3          	sb	zero,15(sp)
    23b2:	0204f793          	andi	a5,s1,32
    23b6:	e789                	bnez	a5,23c0 <mpu_set_sensors+0x6c>
    23b8:	879c                	lbu	a5,15(sp)
    23ba:	0027e793          	ori	a5,a5,2
    23be:	87dc                	sb	a5,15(sp)
    23c0:	0104f793          	andi	a5,s1,16
    23c4:	e789                	bnez	a5,23ce <mpu_set_sensors+0x7a>
    23c6:	879c                	lbu	a5,15(sp)
    23c8:	0017e793          	ori	a5,a5,1
    23cc:	87dc                	sb	a5,15(sp)
    23ce:	0084f793          	andi	a5,s1,8
    23d2:	e789                	bnez	a5,23dc <mpu_set_sensors+0x88>
    23d4:	879c                	lbu	a5,15(sp)
    23d6:	0387e793          	ori	a5,a5,56
    23da:	87dc                	sb	a5,15(sp)
    23dc:	4018                	lw	a4,0(s0)
    23de:	405c                	lw	a5,4(s0)
    23e0:	00f10693          	addi	a3,sp,15
    23e4:	3b2c                	lbu	a1,19(a4)
    23e6:	2388                	lbu	a0,0(a5)
    23e8:	4605                	li	a2,1
    23ea:	140010ef          	jal	ra,352a <MPU_Write_Len>
    23ee:	f145                	bnez	a0,238e <mpu_set_sensors+0x3a>
    23f0:	0f74f793          	andi	a5,s1,247
    23f4:	c391                	beqz	a5,23f8 <mpu_set_sensors+0xa4>
    23f6:	3b4d                	jal	21a8 <mpu_set_int_latched>
    23f8:	03200513          	li	a0,50
    23fc:	a424                	sb	s1,10(s0)
    23fe:	00040a23          	sb	zero,20(s0)
    2402:	448010ef          	jal	ra,384a <Delay_Ms>
    2406:	4501                	li	a0,0
    2408:	b771                	j	2394 <mpu_set_sensors+0x40>
    240a:	4791                	li	a5,4
    240c:	87dc                	sb	a5,15(sp)
    240e:	b755                	j	23b2 <mpu_set_sensors+0x5e>

00002410 <mpu_init>:
    2410:	e21fd2ef          	jal	t0,230 <__riscv_save_0>
    2414:	20000437          	lui	s0,0x20000
    2418:	1141                	addi	sp,sp,-16
    241a:	f8000793          	li	a5,-128
    241e:	02c40493          	addi	s1,s0,44 # 2000002c <st>
    2422:	845c                	sb	a5,8(sp)
    2424:	4098                	lw	a4,0(s1)
    2426:	40dc                	lw	a5,4(s1)
    2428:	0034                	addi	a3,sp,8
    242a:	2b2c                	lbu	a1,18(a4)
    242c:	2388                	lbu	a0,0(a5)
    242e:	4605                	li	a2,1
    2430:	0fa010ef          	jal	ra,352a <MPU_Write_Len>
    2434:	c511                	beqz	a0,2440 <mpu_init+0x30>
    2436:	547d                	li	s0,-1
    2438:	8522                	mv	a0,s0
    243a:	0141                	addi	sp,sp,16
    243c:	e19fd06f          	j	254 <__riscv_restore_0>
    2440:	06400513          	li	a0,100
    2444:	406010ef          	jal	ra,384a <Delay_Ms>
    2448:	02c40413          	addi	s0,s0,44
    244c:	4018                	lw	a4,0(s0)
    244e:	405c                	lw	a5,4(s0)
    2450:	00010423          	sb	zero,8(sp)
    2454:	2b2c                	lbu	a1,18(a4)
    2456:	2388                	lbu	a0,0(a5)
    2458:	0034                	addi	a3,sp,8
    245a:	4605                	li	a2,1
    245c:	0ce010ef          	jal	ra,352a <MPU_Write_Len>
    2460:	f979                	bnez	a0,2436 <mpu_init+0x26>
    2462:	4018                	lw	a4,0(s0)
    2464:	405c                	lw	a5,4(s0)
    2466:	0034                	addi	a3,sp,8
    2468:	2b6c                	lbu	a1,22(a4)
    246a:	2388                	lbu	a0,0(a5)
    246c:	4619                	li	a2,6
    246e:	118010ef          	jal	ra,3586 <MPU_Read_Len>
    2472:	f171                	bnez	a0,2436 <mpu_init+0x26>
    2474:	869c                	lbu	a5,13(sp)
    2476:	8598                	lbu	a4,11(sp)
    2478:	078a                	slli	a5,a5,0x2
    247a:	0706                	slli	a4,a4,0x1
    247c:	8b09                	andi	a4,a4,2
    247e:	8b91                	andi	a5,a5,4
    2480:	8fd9                	or	a5,a5,a4
    2482:	8498                	lbu	a4,9(sp)
    2484:	8b05                	andi	a4,a4,1
    2486:	8fd9                	or	a5,a5,a4
    2488:	c3d9                	beqz	a5,250e <mpu_init+0xfe>
    248a:	4705                	li	a4,1
    248c:	0ff7f593          	andi	a1,a5,255
    2490:	00e79463          	bne	a5,a4,2498 <mpu_init+0x88>
    2494:	b83c                	sb	a5,19(s0)
    2496:	a031                	j	24a2 <mpu_init+0x92>
    2498:	4789                	li	a5,2
    249a:	06f59363          	bne	a1,a5,2500 <mpu_init+0xf0>
    249e:	000409a3          	sb	zero,19(s0)
    24a2:	57fd                	li	a5,-1
    24a4:	a47e                	sh	a5,14(s0)
    24a6:	a81c                	sb	a5,16(s0)
    24a8:	a83c                	sb	a5,18(s0)
    24aa:	57fd                	li	a5,-1
    24ac:	c41c                	sw	a5,8(s0)
    24ae:	00041a23          	sh	zero,20(s0)
    24b2:	4785                	li	a5,1
    24b4:	4631                	li	a2,12
    24b6:	4581                	li	a1,0
    24b8:	01640513          	addi	a0,s0,22
    24bc:	a45c                	sb	a5,12(s0)
    24be:	da3fd0ef          	jal	ra,260 <memset>
    24c2:	4785                	li	a5,1
    24c4:	b03e                	sh	a5,34(s0)
    24c6:	02042223          	sw	zero,36(s0)
    24ca:	7d000513          	li	a0,2000
    24ce:	85fff0ef          	jal	ra,1d2c <mpu_set_gyro_fsr>
    24d2:	f135                	bnez	a0,2436 <mpu_init+0x26>
    24d4:	4509                	li	a0,2
    24d6:	919ff0ef          	jal	ra,1dee <mpu_set_accel_fsr>
    24da:	fd31                	bnez	a0,2436 <mpu_init+0x26>
    24dc:	02a00513          	li	a0,42
    24e0:	9cdff0ef          	jal	ra,1eac <mpu_set_lpf>
    24e4:	f929                	bnez	a0,2436 <mpu_init+0x26>
    24e6:	03200513          	li	a0,50
    24ea:	3bc1                	jal	22ba <mpu_set_sample_rate>
    24ec:	f529                	bnez	a0,2436 <mpu_init+0x26>
    24ee:	af1ff0ef          	jal	ra,1fde <mpu_configure_fifo>
    24f2:	f131                	bnez	a0,2436 <mpu_init+0x26>
    24f4:	bddff0ef          	jal	ra,20d0 <mpu_set_bypass>
    24f8:	842a                	mv	s0,a0
    24fa:	fd15                	bnez	a0,2436 <mpu_init+0x26>
    24fc:	3da1                	jal	2354 <mpu_set_sensors>
    24fe:	bf2d                	j	2438 <mpu_init+0x28>
    2500:	0000d537          	lui	a0,0xd
    2504:	76050513          	addi	a0,a0,1888 # d760 <hw+0x2c>
    2508:	7f9050ef          	jal	ra,8500 <iprintf>
    250c:	b72d                	j	2436 <mpu_init+0x26>
    250e:	4098                	lw	a4,0(s1)
    2510:	40dc                	lw	a5,4(s1)
    2512:	0034                	addi	a3,sp,8
    2514:	332c                	lbu	a1,3(a4)
    2516:	2388                	lbu	a0,0(a5)
    2518:	4605                	li	a2,1
    251a:	06c010ef          	jal	ra,3586 <MPU_Read_Len>
    251e:	f0051ce3          	bnez	a0,2436 <mpu_init+0x26>
    2522:	841c                	lbu	a5,8(sp)
    2524:	8bbd                	andi	a5,a5,15
    2526:	eb81                	bnez	a5,2536 <mpu_init+0x126>
    2528:	0000d537          	lui	a0,0xd
    252c:	78850513          	addi	a0,a0,1928 # d788 <hw+0x54>
    2530:	0f0060ef          	jal	ra,8620 <puts>
    2534:	b709                	j	2436 <mpu_init+0x26>
    2536:	4711                	li	a4,4
    2538:	f6e793e3          	bne	a5,a4,249e <mpu_init+0x8e>
    253c:	0000d537          	lui	a0,0xd
    2540:	7d450513          	addi	a0,a0,2004 # d7d4 <hw+0xa0>
    2544:	0dc060ef          	jal	ra,8620 <puts>
    2548:	4785                	li	a5,1
    254a:	b7a9                	j	2494 <mpu_init+0x84>

0000254c <mpu_write_mem>:
    254c:	e619                	bnez	a2,255a <mpu_write_mem+0xe>
    254e:	557d                	li	a0,-1
    2550:	8082                	ret
    2552:	557d                	li	a0,-1
    2554:	0141                	addi	sp,sp,16
    2556:	cfffd06f          	j	254 <__riscv_restore_0>
    255a:	cd7fd2ef          	jal	t0,230 <__riscv_save_0>
    255e:	20000437          	lui	s0,0x20000
    2562:	02c40413          	addi	s0,s0,44 # 2000002c <st>
    2566:	243c                	lbu	a5,10(s0)
    2568:	1141                	addi	sp,sp,-16
    256a:	d7e5                	beqz	a5,2552 <mpu_write_mem+0x6>
    256c:	00855713          	srli	a4,a0,0x8
    2570:	00851793          	slli	a5,a0,0x8
    2574:	8fd9                	or	a5,a5,a4
    2576:	867c                	sh	a5,12(sp)
    2578:	405c                	lw	a5,4(s0)
    257a:	0ff57513          	andi	a0,a0,255
    257e:	952e                	add	a0,a0,a1
    2580:	27ba                	lhu	a4,10(a5)
    2582:	fca748e3          	blt	a4,a0,2552 <mpu_write_mem+0x6>
    2586:	4018                	lw	a4,0(s0)
    2588:	84ae                	mv	s1,a1
    258a:	2388                	lbu	a0,0(a5)
    258c:	2f0c                	lbu	a1,24(a4)
    258e:	8932                	mv	s2,a2
    2590:	0074                	addi	a3,sp,12
    2592:	4609                	li	a2,2
    2594:	797000ef          	jal	ra,352a <MPU_Write_Len>
    2598:	fd4d                	bnez	a0,2552 <mpu_write_mem+0x6>
    259a:	4018                	lw	a4,0(s0)
    259c:	405c                	lw	a5,4(s0)
    259e:	86ca                	mv	a3,s2
    25a0:	3b4c                	lbu	a1,21(a4)
    25a2:	2388                	lbu	a0,0(a5)
    25a4:	0ff4f613          	andi	a2,s1,255
    25a8:	783000ef          	jal	ra,352a <MPU_Write_Len>
    25ac:	00a03533          	snez	a0,a0
    25b0:	40a00533          	neg	a0,a0
    25b4:	b745                	j	2554 <mpu_write_mem+0x8>

000025b6 <mpu_read_mem>:
    25b6:	e619                	bnez	a2,25c4 <mpu_read_mem+0xe>
    25b8:	557d                	li	a0,-1
    25ba:	8082                	ret
    25bc:	557d                	li	a0,-1
    25be:	0141                	addi	sp,sp,16
    25c0:	c95fd06f          	j	254 <__riscv_restore_0>
    25c4:	c6dfd2ef          	jal	t0,230 <__riscv_save_0>
    25c8:	20000437          	lui	s0,0x20000
    25cc:	02c40413          	addi	s0,s0,44 # 2000002c <st>
    25d0:	243c                	lbu	a5,10(s0)
    25d2:	1141                	addi	sp,sp,-16
    25d4:	d7e5                	beqz	a5,25bc <mpu_read_mem+0x6>
    25d6:	00855713          	srli	a4,a0,0x8
    25da:	00851793          	slli	a5,a0,0x8
    25de:	8fd9                	or	a5,a5,a4
    25e0:	867c                	sh	a5,12(sp)
    25e2:	405c                	lw	a5,4(s0)
    25e4:	0ff57513          	andi	a0,a0,255
    25e8:	952e                	add	a0,a0,a1
    25ea:	27ba                	lhu	a4,10(a5)
    25ec:	fca748e3          	blt	a4,a0,25bc <mpu_read_mem+0x6>
    25f0:	4018                	lw	a4,0(s0)
    25f2:	84ae                	mv	s1,a1
    25f4:	2388                	lbu	a0,0(a5)
    25f6:	2f0c                	lbu	a1,24(a4)
    25f8:	8932                	mv	s2,a2
    25fa:	0074                	addi	a3,sp,12
    25fc:	4609                	li	a2,2
    25fe:	72d000ef          	jal	ra,352a <MPU_Write_Len>
    2602:	fd4d                	bnez	a0,25bc <mpu_read_mem+0x6>
    2604:	4018                	lw	a4,0(s0)
    2606:	405c                	lw	a5,4(s0)
    2608:	86ca                	mv	a3,s2
    260a:	3b4c                	lbu	a1,21(a4)
    260c:	2388                	lbu	a0,0(a5)
    260e:	0ff4f613          	andi	a2,s1,255
    2612:	775000ef          	jal	ra,3586 <MPU_Read_Len>
    2616:	00a03533          	snez	a0,a0
    261a:	40a00533          	neg	a0,a0
    261e:	b745                	j	25be <mpu_read_mem+0x8>

00002620 <mpu_load_firmware>:
    2620:	be9fd2ef          	jal	t0,208 <__riscv_save_10>
    2624:	200004b7          	lui	s1,0x20000
    2628:	02c48793          	addi	a5,s1,44 # 2000002c <st>
    262c:	0257c783          	lbu	a5,37(a5)
    2630:	1101                	addi	sp,sp,-32
    2632:	c789                	beqz	a5,263c <mpu_load_firmware+0x1c>
    2634:	557d                	li	a0,-1
    2636:	6105                	addi	sp,sp,32
    2638:	c09fd06f          	j	240 <__riscv_restore_10>
    263c:	dde5                	beqz	a1,2634 <mpu_load_firmware+0x14>
    263e:	6bc1                	lui	s7,0x10
    2640:	02c48493          	addi	s1,s1,44
    2644:	8b36                	mv	s6,a3
    2646:	8932                	mv	s2,a2
    2648:	8a2e                	mv	s4,a1
    264a:	89aa                	mv	s3,a0
    264c:	4401                	li	s0,0
    264e:	4cc1                	li	s9,16
    2650:	1bfd                	addi	s7,s7,-1
    2652:	03346963          	bltu	s0,s3,2684 <mpu_load_firmware+0x64>
    2656:	00891613          	slli	a2,s2,0x8
    265a:	4098                	lw	a4,0(s1)
    265c:	00895913          	srli	s2,s2,0x8
    2660:	40dc                	lw	a5,4(s1)
    2662:	01266933          	or	s2,a2,s2
    2666:	01211623          	sh	s2,12(sp)
    266a:	2f2c                	lbu	a1,26(a4)
    266c:	2388                	lbu	a0,0(a5)
    266e:	0074                	addi	a3,sp,12
    2670:	4609                	li	a2,2
    2672:	6b9000ef          	jal	ra,352a <MPU_Write_Len>
    2676:	fd5d                	bnez	a0,2634 <mpu_load_firmware+0x14>
    2678:	4785                	li	a5,1
    267a:	02f482a3          	sb	a5,37(s1)
    267e:	03649323          	sh	s6,38(s1)
    2682:	bf55                	j	2636 <mpu_load_firmware+0x16>
    2684:	40898ab3          	sub	s5,s3,s0
    2688:	015cd363          	bge	s9,s5,268e <mpu_load_firmware+0x6e>
    268c:	4ac1                	li	s5,16
    268e:	010a9c13          	slli	s8,s5,0x10
    2692:	010c5c13          	srli	s8,s8,0x10
    2696:	008a0d33          	add	s10,s4,s0
    269a:	866a                	mv	a2,s10
    269c:	85e2                	mv	a1,s8
    269e:	8522                	mv	a0,s0
    26a0:	3575                	jal	254c <mpu_write_mem>
    26a2:	f949                	bnez	a0,2634 <mpu_load_firmware+0x14>
    26a4:	0810                	addi	a2,sp,16
    26a6:	85e2                	mv	a1,s8
    26a8:	8522                	mv	a0,s0
    26aa:	3731                	jal	25b6 <mpu_read_mem>
    26ac:	f541                	bnez	a0,2634 <mpu_load_firmware+0x14>
    26ae:	017af633          	and	a2,s5,s7
    26b2:	080c                	addi	a1,sp,16
    26b4:	856a                	mv	a0,s10
    26b6:	727040ef          	jal	ra,75dc <memcmp>
    26ba:	e509                	bnez	a0,26c4 <mpu_load_firmware+0xa4>
    26bc:	9462                	add	s0,s0,s8
    26be:	0442                	slli	s0,s0,0x10
    26c0:	8041                	srli	s0,s0,0x10
    26c2:	bf41                	j	2652 <mpu_load_firmware+0x32>
    26c4:	5579                	li	a0,-2
    26c6:	bf85                	j	2636 <mpu_load_firmware+0x16>

000026c8 <mpu_set_dmp_state>:
    26c8:	b69fd2ef          	jal	t0,230 <__riscv_save_0>
    26cc:	20000437          	lui	s0,0x20000
    26d0:	02c40413          	addi	s0,s0,44 # 2000002c <st>
    26d4:	02444703          	lbu	a4,36(s0)
    26d8:	1141                	addi	sp,sp,-16
    26da:	04a70363          	beq	a4,a0,2720 <mpu_set_dmp_state+0x58>
    26de:	c529                	beqz	a0,2728 <mpu_set_dmp_state+0x60>
    26e0:	02544783          	lbu	a5,37(s0)
    26e4:	557d                	li	a0,-1
    26e6:	cf95                	beqz	a5,2722 <mpu_set_dmp_state+0x5a>
    26e8:	4501                	li	a0,0
    26ea:	c44ff0ef          	jal	ra,1b2e <set_int_enable>
    26ee:	4501                	li	a0,0
    26f0:	9e1ff0ef          	jal	ra,20d0 <mpu_set_bypass>
    26f4:	306a                	lhu	a0,38(s0)
    26f6:	bc5ff0ef          	jal	ra,22ba <mpu_set_sample_rate>
    26fa:	405c                	lw	a5,4(s0)
    26fc:	000107a3          	sb	zero,15(sp)
    2700:	00f10693          	addi	a3,sp,15
    2704:	2388                	lbu	a0,0(a5)
    2706:	4605                	li	a2,1
    2708:	02300593          	li	a1,35
    270c:	61f000ef          	jal	ra,352a <MPU_Write_Len>
    2710:	4785                	li	a5,1
    2712:	4505                	li	a0,1
    2714:	02f40223          	sb	a5,36(s0)
    2718:	c16ff0ef          	jal	ra,1b2e <set_int_enable>
    271c:	c82ff0ef          	jal	ra,1b9e <mpu_reset_fifo>
    2720:	4501                	li	a0,0
    2722:	0141                	addi	sp,sp,16
    2724:	b31fd06f          	j	254 <__riscv_restore_0>
    2728:	c06ff0ef          	jal	ra,1b2e <set_int_enable>
    272c:	281c                	lbu	a5,16(s0)
    272e:	00f10693          	addi	a3,sp,15
    2732:	4605                	li	a2,1
    2734:	87dc                	sb	a5,15(sp)
    2736:	405c                	lw	a5,4(s0)
    2738:	02300593          	li	a1,35
    273c:	2388                	lbu	a0,0(a5)
    273e:	5ed000ef          	jal	ra,352a <MPU_Write_Len>
    2742:	02040223          	sb	zero,36(s0)
    2746:	bfd9                	j	271c <mpu_set_dmp_state+0x54>

00002748 <mpu_run_self_test>:
    2748:	ab9fd2ef          	jal	t0,200 <__riscv_save_12>
    274c:	20000437          	lui	s0,0x20000
    2750:	02c40793          	addi	a5,s0,44 # 2000002c <st>
    2754:	0247ca03          	lbu	s4,36(a5)
    2758:	7159                	addi	sp,sp,-112
    275a:	8aaa                	mv	s5,a0
    275c:	8bae                	mv	s7,a1
    275e:	02c40413          	addi	s0,s0,44
    2762:	000a0563          	beqz	s4,276c <mpu_run_self_test+0x24>
    2766:	4501                	li	a0,0
    2768:	3785                	jal	26c8 <mpu_set_dmp_state>
    276a:	4a05                	li	s4,1
    276c:	03e10513          	addi	a0,sp,62
    2770:	d7eff0ef          	jal	ra,1cee <mpu_get_gyro_fsr>
    2774:	03d10513          	addi	a0,sp,61
    2778:	e30ff0ef          	jal	ra,1da8 <mpu_get_accel_fsr>
    277c:	04210513          	addi	a0,sp,66
    2780:	ee2ff0ef          	jal	ra,1e62 <mpu_get_lpf>
    2784:	0088                	addi	a0,sp,64
    2786:	fa4ff0ef          	jal	ra,1f2a <mpu_get_sample_rate>
    278a:	281c                	lbu	a5,16(s0)
    278c:	4601                	li	a2,0
    278e:	85de                	mv	a1,s7
    2790:	8556                	mv	a0,s5
    2792:	00a44d03          	lbu	s10,10(s0)
    2796:	c63e                	sw	a5,12(sp)
    2798:	ffdfe0ef          	jal	ra,1794 <get_st_biases>
    279c:	18051863          	bnez	a0,292c <mpu_run_self_test+0x1e4>
    27a0:	4605                	li	a2,1
    27a2:	08ac                	addi	a1,sp,88
    27a4:	00e8                	addi	a0,sp,76
    27a6:	feffe0ef          	jal	ra,1794 <get_st_biases>
    27aa:	1c051e63          	bnez	a0,2986 <mpu_run_self_test+0x23e>
    27ae:	405c                	lw	a5,4(s0)
    27b0:	00b4                	addi	a3,sp,72
    27b2:	4611                	li	a2,4
    27b4:	2388                	lbu	a0,0(a5)
    27b6:	45b5                	li	a1,13
    27b8:	5cf000ef          	jal	ra,3586 <MPU_Read_Len>
    27bc:	1c050c63          	beqz	a0,2994 <mpu_run_self_test+0x24c>
    27c0:	0000e7b7          	lui	a5,0xe
    27c4:	c83e                	sw	a5,16(sp)
    27c6:	0000e7b7          	lui	a5,0xe
    27ca:	80c7a783          	lw	a5,-2036(a5) # d80c <hw+0xd8>
    27ce:	08a4                	addi	s1,sp,88
    27d0:	06410b13          	addi	s6,sp,100
    27d4:	ca3e                	sw	a5,20(sp)
    27d6:	0000e7b7          	lui	a5,0xe
    27da:	8107a783          	lw	a5,-2032(a5) # d810 <hw+0xdc>
    27de:	4981                	li	s3,0
    27e0:	4901                	li	s2,0
    27e2:	cc3e                	sw	a5,24(sp)
    27e4:	0000e7b7          	lui	a5,0xe
    27e8:	8047a783          	lw	a5,-2044(a5) # d804 <hw+0xd0>
    27ec:	4c05                	li	s8,1
    27ee:	ce3e                	sw	a5,28(sp)
    27f0:	800007b7          	lui	a5,0x80000
    27f4:	fff7c793          	not	a5,a5
    27f8:	d03e                	sw	a5,32(sp)
    27fa:	0000e7b7          	lui	a5,0xe
    27fe:	8087ad83          	lw	s11,-2040(a5) # d808 <hw+0xd4>
    2802:	00291793          	slli	a5,s2,0x2
    2806:	97de                	add	a5,a5,s7
    2808:	4088                	lw	a0,0(s1)
    280a:	439c                	lw	a5,0(a5)
    280c:	8f89                	sub	a5,a5,a0
    280e:	41f7d513          	srai	a0,a5,0x1f
    2812:	8fa9                	xor	a5,a5,a0
    2814:	40a78533          	sub	a0,a5,a0
    2818:	1a5040ef          	jal	ra,71bc <__floatsisf>
    281c:	0000e7b7          	lui	a5,0xe
    2820:	8007a583          	lw	a1,-2048(a5) # d800 <hw+0xcc>
    2824:	2c4040ef          	jal	ra,6ae8 <__mulsf3>
    2828:	000b2703          	lw	a4,0(s6)
    282c:	8caa                	mv	s9,a0
    282e:	00000593          	li	a1,0
    2832:	853a                	mv	a0,a4
    2834:	d23a                	sw	a4,36(sp)
    2836:	144040ef          	jal	ra,697a <__eqsf2>
    283a:	1e050463          	beqz	a0,2a22 <mpu_run_self_test+0x2da>
    283e:	5712                	lw	a4,36(sp)
    2840:	8566                	mv	a0,s9
    2842:	85ba                	mv	a1,a4
    2844:	685030ef          	jal	ra,66c8 <__divsf3>
    2848:	45f2                	lw	a1,28(sp)
    284a:	532040ef          	jal	ra,6d7c <__subsf3>
    284e:	5782                	lw	a5,32(sp)
    2850:	85ee                	mv	a1,s11
    2852:	8d7d                	and	a0,a0,a5
    2854:	182040ef          	jal	ra,69d6 <__gesf2>
    2858:	00a05663          	blez	a0,2864 <mpu_run_self_test+0x11c>
    285c:	012c17b3          	sll	a5,s8,s2
    2860:	00f9e9b3          	or	s3,s3,a5
    2864:	0905                	addi	s2,s2,1
    2866:	478d                	li	a5,3
    2868:	0491                	addi	s1,s1,4
    286a:	0b11                	addi	s6,s6,4
    286c:	f8f91be3          	bne	s2,a5,2802 <mpu_run_self_test+0xba>
    2870:	0ff9f793          	andi	a5,s3,255
    2874:	8cbe                	mv	s9,a5
    2876:	405c                	lw	a5,4(s0)
    2878:	10d4                	addi	a3,sp,100
    287a:	460d                	li	a2,3
    287c:	2388                	lbu	a0,0(a5)
    287e:	45b5                	li	a1,13
    2880:	449d                	li	s1,7
    2882:	505000ef          	jal	ra,3586 <MPU_Read_Len>
    2886:	1e051a63          	bnez	a0,2a7a <mpu_run_self_test+0x332>
    288a:	06614783          	lbu	a5,102(sp)
    288e:	06415703          	lhu	a4,100(sp)
    2892:	6689                	lui	a3,0x2
    2894:	8bfd                	andi	a5,a5,31
    2896:	06f10323          	sb	a5,102(sp)
    289a:	47c2                	lw	a5,16(sp)
    289c:	f1f68693          	addi	a3,a3,-225 # 1f1f <mpu_set_lpf+0x73>
    28a0:	8f75                	and	a4,a4,a3
    28a2:	8007a783          	lw	a5,-2048(a5)
    28a6:	80000b37          	lui	s6,0x80000
    28aa:	06e11223          	sh	a4,100(sp)
    28ae:	c83e                	sw	a5,16(sp)
    28b0:	0000d7b7          	lui	a5,0xd
    28b4:	ae47a783          	lw	a5,-1308(a5) # cae4 <_read+0x42>
    28b8:	04c10993          	addi	s3,sp,76
    28bc:	4481                	li	s1,0
    28be:	ca3e                	sw	a5,20(sp)
    28c0:	0000e7b7          	lui	a5,0xe
    28c4:	8187a783          	lw	a5,-2024(a5) # d818 <hw+0xe4>
    28c8:	4901                	li	s2,0
    28ca:	4b85                	li	s7,1
    28cc:	cc3e                	sw	a5,24(sp)
    28ce:	0000d7b7          	lui	a5,0xd
    28d2:	7f47a783          	lw	a5,2036(a5) # d7f4 <hw+0xc0>
    28d6:	fffb4b13          	not	s6,s6
    28da:	ce3e                	sw	a5,28(sp)
    28dc:	0000e7b7          	lui	a5,0xe
    28e0:	8147a783          	lw	a5,-2028(a5) # d814 <hw+0xe0>
    28e4:	d03e                	sw	a5,32(sp)
    28e6:	0000e7b7          	lui	a5,0xe
    28ea:	8047a783          	lw	a5,-2044(a5) # d804 <hw+0xd0>
    28ee:	d23e                	sw	a5,36(sp)
    28f0:	0000e7b7          	lui	a5,0xe
    28f4:	8087ad83          	lw	s11,-2040(a5) # d808 <hw+0xd4>
    28f8:	00291793          	slli	a5,s2,0x2
    28fc:	97d6                	add	a5,a5,s5
    28fe:	0009a503          	lw	a0,0(s3)
    2902:	439c                	lw	a5,0(a5)
    2904:	8f89                	sub	a5,a5,a0
    2906:	41f7d513          	srai	a0,a5,0x1f
    290a:	8fa9                	xor	a5,a5,a0
    290c:	40a78533          	sub	a0,a5,a0
    2910:	0ad040ef          	jal	ra,71bc <__floatsisf>
    2914:	45c2                	lw	a1,16(sp)
    2916:	1d2040ef          	jal	ra,6ae8 <__mulsf3>
    291a:	10dc                	addi	a5,sp,100
    291c:	01278733          	add	a4,a5,s2
    2920:	231c                	lbu	a5,0(a4)
    2922:	8c2a                	mv	s8,a0
    2924:	16078463          	beqz	a5,2a8c <mpu_run_self_test+0x344>
    2928:	4572                	lw	a0,28(sp)
    292a:	aa21                	j	2a42 <mpu_run_self_test+0x2fa>
    292c:	4601                	li	a2,0
    292e:	85de                	mv	a1,s7
    2930:	8556                	mv	a0,s5
    2932:	e63fe0ef          	jal	ra,1794 <get_st_biases>
    2936:	e60505e3          	beqz	a0,27a0 <mpu_run_self_test+0x58>
    293a:	4481                	li	s1,0
    293c:	57fd                	li	a5,-1
    293e:	03e15503          	lhu	a0,62(sp)
    2942:	a47e                	sh	a5,14(s0)
    2944:	a81c                	sb	a5,16(s0)
    2946:	57fd                	li	a5,-1
    2948:	c41c                	sw	a5,8(s0)
    294a:	4785                	li	a5,1
    294c:	a45c                	sb	a5,12(s0)
    294e:	bdeff0ef          	jal	ra,1d2c <mpu_set_gyro_fsr>
    2952:	03d14503          	lbu	a0,61(sp)
    2956:	c98ff0ef          	jal	ra,1dee <mpu_set_accel_fsr>
    295a:	04215503          	lhu	a0,66(sp)
    295e:	d4eff0ef          	jal	ra,1eac <mpu_set_lpf>
    2962:	04015503          	lhu	a0,64(sp)
    2966:	955ff0ef          	jal	ra,22ba <mpu_set_sample_rate>
    296a:	856a                	mv	a0,s10
    296c:	9e9ff0ef          	jal	ra,2354 <mpu_set_sensors>
    2970:	4532                	lw	a0,12(sp)
    2972:	e6cff0ef          	jal	ra,1fde <mpu_configure_fifo>
    2976:	000a0463          	beqz	s4,297e <mpu_run_self_test+0x236>
    297a:	4505                	li	a0,1
    297c:	33b1                	jal	26c8 <mpu_set_dmp_state>
    297e:	8526                	mv	a0,s1
    2980:	6165                	addi	sp,sp,112
    2982:	8bbfd06f          	j	23c <__riscv_restore_12>
    2986:	4605                	li	a2,1
    2988:	08ac                	addi	a1,sp,88
    298a:	00e8                	addi	a0,sp,76
    298c:	e09fe0ef          	jal	ra,1794 <get_st_biases>
    2990:	f54d                	bnez	a0,293a <mpu_run_self_test+0x1f2>
    2992:	bd31                	j	27ae <mpu_run_self_test+0x66>
    2994:	04b14683          	lbu	a3,75(sp)
    2998:	04814703          	lbu	a4,72(sp)
    299c:	04410993          	addi	s3,sp,68
    29a0:	4046d793          	srai	a5,a3,0x4
    29a4:	870d                	srai	a4,a4,0x3
    29a6:	8b8d                	andi	a5,a5,3
    29a8:	8b71                	andi	a4,a4,28
    29aa:	8f5d                	or	a4,a4,a5
    29ac:	04e10223          	sb	a4,68(sp)
    29b0:	04914703          	lbu	a4,73(sp)
    29b4:	4026d793          	srai	a5,a3,0x2
    29b8:	8b8d                	andi	a5,a5,3
    29ba:	870d                	srai	a4,a4,0x3
    29bc:	8b71                	andi	a4,a4,28
    29be:	8f5d                	or	a4,a4,a5
    29c0:	04a14783          	lbu	a5,74(sp)
    29c4:	8a8d                	andi	a3,a3,3
    29c6:	04e102a3          	sb	a4,69(sp)
    29ca:	878d                	srai	a5,a5,0x3
    29cc:	8bf1                	andi	a5,a5,28
    29ce:	8fd5                	or	a5,a5,a3
    29d0:	04f10323          	sb	a5,70(sp)
    29d4:	0000d7b7          	lui	a5,0xd
    29d8:	7f87ac03          	lw	s8,2040(a5) # d7f8 <hw+0xc4>
    29dc:	0000d7b7          	lui	a5,0xd
    29e0:	7fc7ad83          	lw	s11,2044(a5) # d7fc <hw+0xc8>
    29e4:	10c4                	addi	s1,sp,100
    29e6:	07010b13          	addi	s6,sp,112
    29ea:	0009c903          	lbu	s2,0(s3)
    29ee:	00091a63          	bnez	s2,2a02 <mpu_run_self_test+0x2ba>
    29f2:	00000793          	li	a5,0
    29f6:	c09c                	sw	a5,0(s1)
    29f8:	0491                	addi	s1,s1,4
    29fa:	0985                	addi	s3,s3,1
    29fc:	fe9b17e3          	bne	s6,s1,29ea <mpu_run_self_test+0x2a2>
    2a00:	b3c1                	j	27c0 <mpu_run_self_test+0x78>
    2a02:	0184a023          	sw	s8,0(s1)
    2a06:	197d                	addi	s2,s2,-1
    2a08:	0ff97913          	andi	s2,s2,255
    2a0c:	00091563          	bnez	s2,2a16 <mpu_run_self_test+0x2ce>
    2a10:	00098023          	sb	zero,0(s3)
    2a14:	b7d5                	j	29f8 <mpu_run_self_test+0x2b0>
    2a16:	4088                	lw	a0,0(s1)
    2a18:	85ee                	mv	a1,s11
    2a1a:	0ce040ef          	jal	ra,6ae8 <__mulsf3>
    2a1e:	c088                	sw	a0,0(s1)
    2a20:	b7dd                	j	2a06 <mpu_run_self_test+0x2be>
    2a22:	45d2                	lw	a1,20(sp)
    2a24:	8566                	mv	a0,s9
    2a26:	036040ef          	jal	ra,6a5c <__lesf2>
    2a2a:	e20549e3          	bltz	a0,285c <mpu_run_self_test+0x114>
    2a2e:	45e2                	lw	a1,24(sp)
    2a30:	8566                	mv	a0,s9
    2a32:	b50d                	j	2854 <mpu_run_self_test+0x10c>
    2a34:	5582                	lw	a1,32(sp)
    2a36:	d63a                	sw	a4,44(sp)
    2a38:	d43e                	sw	a5,40(sp)
    2a3a:	0ae040ef          	jal	ra,6ae8 <__mulsf3>
    2a3e:	57a2                	lw	a5,40(sp)
    2a40:	5732                	lw	a4,44(sp)
    2a42:	17fd                	addi	a5,a5,-1
    2a44:	0ff7f793          	andi	a5,a5,255
    2a48:	f7f5                	bnez	a5,2a34 <mpu_run_self_test+0x2ec>
    2a4a:	85aa                	mv	a1,a0
    2a4c:	00070023          	sb	zero,0(a4)
    2a50:	8562                	mv	a0,s8
    2a52:	477030ef          	jal	ra,66c8 <__divsf3>
    2a56:	5592                	lw	a1,36(sp)
    2a58:	324040ef          	jal	ra,6d7c <__subsf3>
    2a5c:	85ee                	mv	a1,s11
    2a5e:	01657533          	and	a0,a0,s6
    2a62:	775030ef          	jal	ra,69d6 <__gesf2>
    2a66:	00a05563          	blez	a0,2a70 <mpu_run_self_test+0x328>
    2a6a:	012b97b3          	sll	a5,s7,s2
    2a6e:	8cdd                	or	s1,s1,a5
    2a70:	0905                	addi	s2,s2,1
    2a72:	478d                	li	a5,3
    2a74:	0991                	addi	s3,s3,4
    2a76:	e8f911e3          	bne	s2,a5,28f8 <mpu_run_self_test+0x1b0>
    2a7a:	0ff4f493          	andi	s1,s1,255
    2a7e:	0014b493          	seqz	s1,s1
    2a82:	ea0c9de3          	bnez	s9,293c <mpu_run_self_test+0x1f4>
    2a86:	0024e493          	ori	s1,s1,2
    2a8a:	bd4d                	j	293c <mpu_run_self_test+0x1f4>
    2a8c:	45d2                	lw	a1,20(sp)
    2a8e:	7cf030ef          	jal	ra,6a5c <__lesf2>
    2a92:	fc054ce3          	bltz	a0,2a6a <mpu_run_self_test+0x322>
    2a96:	45e2                	lw	a1,24(sp)
    2a98:	8562                	mv	a0,s8
    2a9a:	b7e1                	j	2a62 <mpu_run_self_test+0x31a>

00002a9c <run_self_test>:
    2a9c:	f94fd2ef          	jal	t0,230 <__riscv_save_0>
    2aa0:	1101                	addi	sp,sp,-32
    2aa2:	084c                	addi	a1,sp,20
    2aa4:	0028                	addi	a0,sp,8
    2aa6:	ca3ff0ef          	jal	ra,2748 <mpu_run_self_test>
    2aaa:	470d                	li	a4,3
    2aac:	4785                	li	a5,1
    2aae:	06e51963          	bne	a0,a4,2b20 <run_self_test+0x84>
    2ab2:	0048                	addi	a0,sp,4
    2ab4:	c90ff0ef          	jal	ra,1f44 <mpu_get_gyro_sens>
    2ab8:	4522                	lw	a0,8(sp)
    2aba:	4412                	lw	s0,4(sp)
    2abc:	700040ef          	jal	ra,71bc <__floatsisf>
    2ac0:	85a2                	mv	a1,s0
    2ac2:	026040ef          	jal	ra,6ae8 <__mulsf3>
    2ac6:	63e040ef          	jal	ra,7104 <__fixsfsi>
    2aca:	c42a                	sw	a0,8(sp)
    2acc:	4532                	lw	a0,12(sp)
    2ace:	6ee040ef          	jal	ra,71bc <__floatsisf>
    2ad2:	85a2                	mv	a1,s0
    2ad4:	014040ef          	jal	ra,6ae8 <__mulsf3>
    2ad8:	62c040ef          	jal	ra,7104 <__fixsfsi>
    2adc:	c62a                	sw	a0,12(sp)
    2ade:	4542                	lw	a0,16(sp)
    2ae0:	6dc040ef          	jal	ra,71bc <__floatsisf>
    2ae4:	85a2                	mv	a1,s0
    2ae6:	002040ef          	jal	ra,6ae8 <__mulsf3>
    2aea:	61a040ef          	jal	ra,7104 <__fixsfsi>
    2aee:	c82a                	sw	a0,16(sp)
    2af0:	0028                	addi	a0,sp,8
    2af2:	b66fe0ef          	jal	ra,e58 <dmp_set_gyro_bias>
    2af6:	00210513          	addi	a0,sp,2
    2afa:	c96ff0ef          	jal	ra,1f90 <mpu_get_accel_sens>
    2afe:	8138                	lhu	a4,2(sp)
    2b00:	47d2                	lw	a5,20(sp)
    2b02:	0848                	addi	a0,sp,20
    2b04:	02e787b3          	mul	a5,a5,a4
    2b08:	ca3e                	sw	a5,20(sp)
    2b0a:	47e2                	lw	a5,24(sp)
    2b0c:	02e787b3          	mul	a5,a5,a4
    2b10:	cc3e                	sw	a5,24(sp)
    2b12:	47f2                	lw	a5,28(sp)
    2b14:	02e787b3          	mul	a5,a5,a4
    2b18:	ce3e                	sw	a5,28(sp)
    2b1a:	c36fe0ef          	jal	ra,f50 <dmp_set_accel_bias>
    2b1e:	4781                	li	a5,0
    2b20:	853e                	mv	a0,a5
    2b22:	6105                	addi	sp,sp,32
    2b24:	f30fd06f          	j	254 <__riscv_restore_0>

00002b28 <inv_row_2_scale>:
    2b28:	00050703          	lb	a4,0(a0)
    2b2c:	4781                	li	a5,0
    2b2e:	02e04363          	bgtz	a4,2b54 <inv_row_2_scale+0x2c>
    2b32:	4791                	li	a5,4
    2b34:	e305                	bnez	a4,2b54 <inv_row_2_scale+0x2c>
    2b36:	00150703          	lb	a4,1(a0)
    2b3a:	4785                	li	a5,1
    2b3c:	00e04c63          	bgtz	a4,2b54 <inv_row_2_scale+0x2c>
    2b40:	4795                	li	a5,5
    2b42:	eb09                	bnez	a4,2b54 <inv_row_2_scale+0x2c>
    2b44:	00250703          	lb	a4,2(a0)
    2b48:	4789                	li	a5,2
    2b4a:	00e04563          	bgtz	a4,2b54 <inv_row_2_scale+0x2c>
    2b4e:	00173793          	seqz	a5,a4
    2b52:	0799                	addi	a5,a5,6
    2b54:	853e                	mv	a0,a5
    2b56:	8082                	ret

00002b58 <inv_orientation_matrix_to_scalar>:
    2b58:	ed8fd2ef          	jal	t0,230 <__riscv_save_0>
    2b5c:	84aa                	mv	s1,a0
    2b5e:	37e9                	jal	2b28 <inv_row_2_scale>
    2b60:	892a                	mv	s2,a0
    2b62:	00348513          	addi	a0,s1,3
    2b66:	37c9                	jal	2b28 <inv_row_2_scale>
    2b68:	842a                	mv	s0,a0
    2b6a:	00648513          	addi	a0,s1,6
    2b6e:	3f6d                	jal	2b28 <inv_row_2_scale>
    2b70:	00341793          	slli	a5,s0,0x3
    2b74:	051a                	slli	a0,a0,0x6
    2b76:	8d5d                	or	a0,a0,a5
    2b78:	01256533          	or	a0,a0,s2
    2b7c:	0542                	slli	a0,a0,0x10
    2b7e:	8141                	srli	a0,a0,0x10
    2b80:	ed4fd06f          	j	254 <__riscv_restore_0>

00002b84 <mget_ms>:
    2b84:	8082                	ret

00002b86 <mpu_dmp_init>:
    2b86:	eaafd2ef          	jal	t0,230 <__riscv_save_0>
    2b8a:	887ff0ef          	jal	ra,2410 <mpu_init>
    2b8e:	47a9                	li	a5,10
    2b90:	e541                	bnez	a0,2c18 <mpu_dmp_init+0x92>
    2b92:	07800513          	li	a0,120
    2b96:	fbeff0ef          	jal	ra,2354 <mpu_set_sensors>
    2b9a:	0ff57513          	andi	a0,a0,255
    2b9e:	4785                	li	a5,1
    2ba0:	ed25                	bnez	a0,2c18 <mpu_dmp_init+0x92>
    2ba2:	07800513          	li	a0,120
    2ba6:	c38ff0ef          	jal	ra,1fde <mpu_configure_fifo>
    2baa:	0ff57513          	andi	a0,a0,255
    2bae:	4789                	li	a5,2
    2bb0:	e525                	bnez	a0,2c18 <mpu_dmp_init+0x92>
    2bb2:	06400513          	li	a0,100
    2bb6:	f04ff0ef          	jal	ra,22ba <mpu_set_sample_rate>
    2bba:	0ff57513          	andi	a0,a0,255
    2bbe:	478d                	li	a5,3
    2bc0:	ed21                	bnez	a0,2c18 <mpu_dmp_init+0x92>
    2bc2:	97cfe0ef          	jal	ra,d3e <dmp_load_motion_driver_firmware>
    2bc6:	0ff57513          	andi	a0,a0,255
    2bca:	4791                	li	a5,4
    2bcc:	e531                	bnez	a0,2c18 <mpu_dmp_init+0x92>
    2bce:	20000537          	lui	a0,0x20000
    2bd2:	02050513          	addi	a0,a0,32 # 20000020 <gyro_orientation>
    2bd6:	3749                	jal	2b58 <inv_orientation_matrix_to_scalar>
    2bd8:	986fe0ef          	jal	ra,d5e <dmp_set_orientation>
    2bdc:	0ff57513          	andi	a0,a0,255
    2be0:	4795                	li	a5,5
    2be2:	e91d                	bnez	a0,2c18 <mpu_dmp_init+0x92>
    2be4:	17300513          	li	a0,371
    2be8:	82dfe0ef          	jal	ra,1414 <dmp_enable_feature>
    2bec:	0ff57513          	andi	a0,a0,255
    2bf0:	4799                	li	a5,6
    2bf2:	e11d                	bnez	a0,2c18 <mpu_dmp_init+0x92>
    2bf4:	06400513          	li	a0,100
    2bf8:	c54fe0ef          	jal	ra,104c <dmp_set_fifo_rate>
    2bfc:	0ff57513          	andi	a0,a0,255
    2c00:	479d                	li	a5,7
    2c02:	e919                	bnez	a0,2c18 <mpu_dmp_init+0x92>
    2c04:	3d61                	jal	2a9c <run_self_test>
    2c06:	47a1                	li	a5,8
    2c08:	e901                	bnez	a0,2c18 <mpu_dmp_init+0x92>
    2c0a:	4505                	li	a0,1
    2c0c:	abdff0ef          	jal	ra,26c8 <mpu_set_dmp_state>
    2c10:	0ff57793          	andi	a5,a0,255
    2c14:	c391                	beqz	a5,2c18 <mpu_dmp_init+0x92>
    2c16:	47a5                	li	a5,9
    2c18:	853e                	mv	a0,a5
    2c1a:	e3afd06f          	j	254 <__riscv_restore_0>

00002c1e <mpu_dmp_get_data>:
    2c1e:	deafd2ef          	jal	t0,208 <__riscv_save_10>
    2c22:	7139                	addi	sp,sp,-64
    2c24:	8baa                	mv	s7,a0
    2c26:	8b2e                	mv	s6,a1
    2c28:	8ab2                	mv	s5,a2
    2c2a:	01910793          	addi	a5,sp,25
    2c2e:	01a10713          	addi	a4,sp,26
    2c32:	0874                	addi	a3,sp,28
    2c34:	1810                	addi	a2,sp,48
    2c36:	102c                	addi	a1,sp,40
    2c38:	1008                	addi	a0,sp,32
    2c3a:	999fe0ef          	jal	ra,15d2 <dmp_read_fifo>
    2c3e:	1a051463          	bnez	a0,2de6 <mpu_dmp_get_data+0x1c8>
    2c42:	85bc                	lhu	a5,26(sp)
    2c44:	4509                	li	a0,2
    2c46:	1007f793          	andi	a5,a5,256
    2c4a:	18078b63          	beqz	a5,2de0 <mpu_dmp_get_data+0x1c2>
    2c4e:	5542                	lw	a0,48(sp)
    2c50:	0000d9b7          	lui	s3,0xd
    2c54:	568040ef          	jal	ra,71bc <__floatsisf>
    2c58:	7409a583          	lw	a1,1856(s3) # d740 <hw+0xc>
    2c5c:	68d030ef          	jal	ra,6ae8 <__mulsf3>
    2c60:	892a                	mv	s2,a0
    2c62:	5552                	lw	a0,52(sp)
    2c64:	558040ef          	jal	ra,71bc <__floatsisf>
    2c68:	7409a583          	lw	a1,1856(s3)
    2c6c:	67d030ef          	jal	ra,6ae8 <__mulsf3>
    2c70:	84aa                	mv	s1,a0
    2c72:	5562                	lw	a0,56(sp)
    2c74:	548040ef          	jal	ra,71bc <__floatsisf>
    2c78:	7409a583          	lw	a1,1856(s3)
    2c7c:	66d030ef          	jal	ra,6ae8 <__mulsf3>
    2c80:	842a                	mv	s0,a0
    2c82:	5572                	lw	a0,60(sp)
    2c84:	538040ef          	jal	ra,71bc <__floatsisf>
    2c88:	7409a583          	lw	a1,1856(s3)
    2c8c:	65d030ef          	jal	ra,6ae8 <__mulsf3>
    2c90:	0000d7b7          	lui	a5,0xd
    2c94:	7447a583          	lw	a1,1860(a5) # d744 <hw+0x10>
    2c98:	89aa                	mv	s3,a0
    2c9a:	8526                	mv	a0,s1
    2c9c:	64d030ef          	jal	ra,6ae8 <__mulsf3>
    2ca0:	8caa                	mv	s9,a0
    2ca2:	85ca                	mv	a1,s2
    2ca4:	854a                	mv	a0,s2
    2ca6:	6b8030ef          	jal	ra,635e <__addsf3>
    2caa:	8c2a                	mv	s8,a0
    2cac:	85ce                	mv	a1,s3
    2cae:	8566                	mv	a0,s9
    2cb0:	639030ef          	jal	ra,6ae8 <__mulsf3>
    2cb4:	8a2a                	mv	s4,a0
    2cb6:	85a2                	mv	a1,s0
    2cb8:	8562                	mv	a0,s8
    2cba:	62f030ef          	jal	ra,6ae8 <__mulsf3>
    2cbe:	85aa                	mv	a1,a0
    2cc0:	8552                	mv	a0,s4
    2cc2:	69c030ef          	jal	ra,635e <__addsf3>
    2cc6:	68a040ef          	jal	ra,7350 <__extendsfdf2>
    2cca:	475000ef          	jal	ra,393e <asin>
    2cce:	0000da37          	lui	s4,0xd
    2cd2:	748a2603          	lw	a2,1864(s4) # d748 <hw+0x14>
    2cd6:	74ca2683          	lw	a3,1868(s4)
    2cda:	1e1020ef          	jal	ra,56ba <__muldf3>
    2cde:	71e040ef          	jal	ra,73fc <__truncdfsf2>
    2ce2:	00aba023          	sw	a0,0(s7) # 10000 <_data_lma+0x202c>
    2ce6:	85a2                	mv	a1,s0
    2ce8:	8522                	mv	a0,s0
    2cea:	674030ef          	jal	ra,635e <__addsf3>
    2cee:	8baa                	mv	s7,a0
    2cf0:	85a6                	mv	a1,s1
    2cf2:	8566                	mv	a0,s9
    2cf4:	5f5030ef          	jal	ra,6ae8 <__mulsf3>
    2cf8:	85a2                	mv	a1,s0
    2cfa:	8caa                	mv	s9,a0
    2cfc:	855e                	mv	a0,s7
    2cfe:	5eb030ef          	jal	ra,6ae8 <__mulsf3>
    2d02:	85aa                	mv	a1,a0
    2d04:	8566                	mv	a0,s9
    2d06:	076040ef          	jal	ra,6d7c <__subsf3>
    2d0a:	0000e7b7          	lui	a5,0xe
    2d0e:	8047a583          	lw	a1,-2044(a5) # d804 <hw+0xd0>
    2d12:	64c030ef          	jal	ra,635e <__addsf3>
    2d16:	63a040ef          	jal	ra,7350 <__extendsfdf2>
    2d1a:	c42a                	sw	a0,8(sp)
    2d1c:	c62e                	sw	a1,12(sp)
    2d1e:	855e                	mv	a0,s7
    2d20:	85ce                	mv	a1,s3
    2d22:	5c7030ef          	jal	ra,6ae8 <__mulsf3>
    2d26:	8baa                	mv	s7,a0
    2d28:	85a6                	mv	a1,s1
    2d2a:	8562                	mv	a0,s8
    2d2c:	5bd030ef          	jal	ra,6ae8 <__mulsf3>
    2d30:	85aa                	mv	a1,a0
    2d32:	855e                	mv	a0,s7
    2d34:	62a030ef          	jal	ra,635e <__addsf3>
    2d38:	618040ef          	jal	ra,7350 <__extendsfdf2>
    2d3c:	4622                	lw	a2,8(sp)
    2d3e:	46b2                	lw	a3,12(sp)
    2d40:	4bd000ef          	jal	ra,39fc <atan2>
    2d44:	748a2603          	lw	a2,1864(s4)
    2d48:	74ca2683          	lw	a3,1868(s4)
    2d4c:	16f020ef          	jal	ra,56ba <__muldf3>
    2d50:	6ac040ef          	jal	ra,73fc <__truncdfsf2>
    2d54:	00ab2023          	sw	a0,0(s6) # 80000000 <_eusrstack+0x5fff8000>
    2d58:	85ca                	mv	a1,s2
    2d5a:	854a                	mv	a0,s2
    2d5c:	58d030ef          	jal	ra,6ae8 <__mulsf3>
    2d60:	8b2a                	mv	s6,a0
    2d62:	85a6                	mv	a1,s1
    2d64:	8526                	mv	a0,s1
    2d66:	583030ef          	jal	ra,6ae8 <__mulsf3>
    2d6a:	85aa                	mv	a1,a0
    2d6c:	855a                	mv	a0,s6
    2d6e:	5f0030ef          	jal	ra,635e <__addsf3>
    2d72:	8b2a                	mv	s6,a0
    2d74:	85a2                	mv	a1,s0
    2d76:	8522                	mv	a0,s0
    2d78:	571030ef          	jal	ra,6ae8 <__mulsf3>
    2d7c:	85aa                	mv	a1,a0
    2d7e:	855a                	mv	a0,s6
    2d80:	7fd030ef          	jal	ra,6d7c <__subsf3>
    2d84:	8b2a                	mv	s6,a0
    2d86:	85ce                	mv	a1,s3
    2d88:	854e                	mv	a0,s3
    2d8a:	55f030ef          	jal	ra,6ae8 <__mulsf3>
    2d8e:	85aa                	mv	a1,a0
    2d90:	855a                	mv	a0,s6
    2d92:	7eb030ef          	jal	ra,6d7c <__subsf3>
    2d96:	5ba040ef          	jal	ra,7350 <__extendsfdf2>
    2d9a:	c42a                	sw	a0,8(sp)
    2d9c:	c62e                	sw	a1,12(sp)
    2d9e:	8526                	mv	a0,s1
    2da0:	85a2                	mv	a1,s0
    2da2:	547030ef          	jal	ra,6ae8 <__mulsf3>
    2da6:	842a                	mv	s0,a0
    2da8:	85ce                	mv	a1,s3
    2daa:	854a                	mv	a0,s2
    2dac:	53d030ef          	jal	ra,6ae8 <__mulsf3>
    2db0:	85aa                	mv	a1,a0
    2db2:	8522                	mv	a0,s0
    2db4:	5aa030ef          	jal	ra,635e <__addsf3>
    2db8:	85aa                	mv	a1,a0
    2dba:	5a4030ef          	jal	ra,635e <__addsf3>
    2dbe:	592040ef          	jal	ra,7350 <__extendsfdf2>
    2dc2:	4622                	lw	a2,8(sp)
    2dc4:	46b2                	lw	a3,12(sp)
    2dc6:	437000ef          	jal	ra,39fc <atan2>
    2dca:	748a2603          	lw	a2,1864(s4)
    2dce:	74ca2683          	lw	a3,1868(s4)
    2dd2:	0e9020ef          	jal	ra,56ba <__muldf3>
    2dd6:	626040ef          	jal	ra,73fc <__truncdfsf2>
    2dda:	00aaa023          	sw	a0,0(s5)
    2dde:	4501                	li	a0,0
    2de0:	6121                	addi	sp,sp,64
    2de2:	c5efd06f          	j	240 <__riscv_restore_10>
    2de6:	4505                	li	a0,1
    2de8:	bfe5                	j	2de0 <mpu_dmp_get_data+0x1c2>

00002dea <Init_UART2>:
    2dea:	c46fd2ef          	jal	t0,230 <__riscv_save_0>
    2dee:	1101                	addi	sp,sp,-32
    2df0:	4585                	li	a1,1
    2df2:	00020537          	lui	a0,0x20
    2df6:	d1ffd0ef          	jal	ra,b14 <RCC_APB1PeriphClockCmd>
    2dfa:	4585                	li	a1,1
    2dfc:	4511                	li	a0,4
    2dfe:	cf9fd0ef          	jal	ra,af6 <RCC_APB2PeriphClockCmd>
    2e02:	4791                	li	a5,4
    2e04:	827c                	sh	a5,4(sp)
    2e06:	40011537          	lui	a0,0x40011
    2e0a:	47e1                	li	a5,24
    2e0c:	c63e                	sw	a5,12(sp)
    2e0e:	004c                	addi	a1,sp,4
    2e10:	478d                	li	a5,3
    2e12:	80050513          	addi	a0,a0,-2048 # 40010800 <_eusrstack+0x20008800>
    2e16:	c43e                	sw	a5,8(sp)
    2e18:	9b7fd0ef          	jal	ra,7ce <GPIO_Init>
    2e1c:	67f1                	lui	a5,0x1c
    2e1e:	40004437          	lui	s0,0x40004
    2e22:	20078793          	addi	a5,a5,512 # 1c200 <_data_lma+0xe22c>
    2e26:	c83e                	sw	a5,16(sp)
    2e28:	080c                	addi	a1,sp,16
    2e2a:	000807b7          	lui	a5,0x80
    2e2e:	40040513          	addi	a0,s0,1024 # 40004400 <_eusrstack+0x1fffc400>
    2e32:	cc3e                	sw	a5,24(sp)
    2e34:	ca02                	sw	zero,20(sp)
    2e36:	00011e23          	sh	zero,28(sp)
    2e3a:	df1fd0ef          	jal	ra,c2a <USART_Init>
    2e3e:	4585                	li	a1,1
    2e40:	40040513          	addi	a0,s0,1024
    2e44:	ea1fd0ef          	jal	ra,ce4 <USART_Cmd>
    2e48:	6105                	addi	sp,sp,32
    2e4a:	c0afd06f          	j	254 <__riscv_restore_0>

00002e4e <Usart4_Init>:
    2e4e:	be2fd2ef          	jal	t0,230 <__riscv_save_0>
    2e52:	1101                	addi	sp,sp,-32
    2e54:	842a                	mv	s0,a0
    2e56:	4585                	li	a1,1
    2e58:	4541                	li	a0,16
    2e5a:	c9dfd0ef          	jal	ra,af6 <RCC_APB2PeriphClockCmd>
    2e5e:	4585                	li	a1,1
    2e60:	00080537          	lui	a0,0x80
    2e64:	cb1fd0ef          	jal	ra,b14 <RCC_APB1PeriphClockCmd>
    2e68:	47e1                	li	a5,24
    2e6a:	c63e                	sw	a5,12(sp)
    2e6c:	40000793          	li	a5,1024
    2e70:	827c                	sh	a5,4(sp)
    2e72:	004c                	addi	a1,sp,4
    2e74:	478d                	li	a5,3
    2e76:	40011537          	lui	a0,0x40011
    2e7a:	c43e                	sw	a5,8(sp)
    2e7c:	953fd0ef          	jal	ra,7ce <GPIO_Init>
    2e80:	c822                	sw	s0,16(sp)
    2e82:	40005437          	lui	s0,0x40005
    2e86:	000807b7          	lui	a5,0x80
    2e8a:	080c                	addi	a1,sp,16
    2e8c:	c0040513          	addi	a0,s0,-1024 # 40004c00 <_eusrstack+0x1fffcc00>
    2e90:	cc3e                	sw	a5,24(sp)
    2e92:	ca02                	sw	zero,20(sp)
    2e94:	00011e23          	sh	zero,28(sp)
    2e98:	d93fd0ef          	jal	ra,c2a <USART_Init>
    2e9c:	4585                	li	a1,1
    2e9e:	c0040513          	addi	a0,s0,-1024
    2ea2:	e43fd0ef          	jal	ra,ce4 <USART_Cmd>
    2ea6:	6105                	addi	sp,sp,32
    2ea8:	bacfd06f          	j	254 <__riscv_restore_0>

00002eac <usart4_send_char>:
    2eac:	b84fd2ef          	jal	t0,230 <__riscv_save_0>
    2eb0:	40005437          	lui	s0,0x40005
    2eb4:	84aa                	mv	s1,a0
    2eb6:	c0040913          	addi	s2,s0,-1024 # 40004c00 <_eusrstack+0x1fffcc00>
    2eba:	04000593          	li	a1,64
    2ebe:	854a                	mv	a0,s2
    2ec0:	e43fd0ef          	jal	ra,d02 <USART_GetFlagStatus>
    2ec4:	d97d                	beqz	a0,2eba <usart4_send_char+0xe>
    2ec6:	85a6                	mv	a1,s1
    2ec8:	c0040513          	addi	a0,s0,-1024
    2ecc:	e2ffd0ef          	jal	ra,cfa <USART_SendData>
    2ed0:	b84fd06f          	j	254 <__riscv_restore_0>

00002ed4 <usart4_niming_report>:
    2ed4:	47f1                	li	a5,28
    2ed6:	06c7ef63          	bltu	a5,a2,2f54 <usart4_niming_report+0x80>
    2eda:	b56fd2ef          	jal	t0,230 <__riscv_save_0>
    2ede:	1101                	addi	sp,sp,-32
    2ee0:	101c                	addi	a5,sp,32
    2ee2:	00360493          	addi	s1,a2,3 # 40021003 <_eusrstack+0x20019003>
    2ee6:	00978733          	add	a4,a5,s1
    2eea:	fe070023          	sb	zero,-32(a4)
    2eee:	f8800793          	li	a5,-120
    2ef2:	805c                	sb	a5,0(sp)
    2ef4:	80c8                	sb	a0,1(sp)
    2ef6:	8150                	sb	a2,2(sp)
    2ef8:	868a                	mv	a3,sp
    2efa:	4781                	li	a5,0
    2efc:	0ff7f513          	andi	a0,a5,255
    2f00:	0685                	addi	a3,a3,1
    2f02:	00c56c63          	bltu	a0,a2,2f1a <usart4_niming_report+0x46>
    2f06:	4781                	li	a5,0
    2f08:	0609                	addi	a2,a2,2
    2f0a:	00f65e63          	bge	a2,a5,2f26 <usart4_niming_report+0x52>
    2f0e:	4401                	li	s0,0
    2f10:	0284d963          	bge	s1,s0,2f42 <usart4_niming_report+0x6e>
    2f14:	6105                	addi	sp,sp,32
    2f16:	b3efd06f          	j	254 <__riscv_restore_0>
    2f1a:	00f58533          	add	a0,a1,a5
    2f1e:	2108                	lbu	a0,0(a0)
    2f20:	0785                	addi	a5,a5,1
    2f22:	a2a8                	sb	a0,2(a3)
    2f24:	bfe1                	j	2efc <usart4_niming_report+0x28>
    2f26:	1014                	addi	a3,sp,32
    2f28:	00f685b3          	add	a1,a3,a5
    2f2c:	fe05c583          	lbu	a1,-32(a1)
    2f30:	fe074683          	lbu	a3,-32(a4)
    2f34:	0785                	addi	a5,a5,1
    2f36:	0ff7f793          	andi	a5,a5,255
    2f3a:	96ae                	add	a3,a3,a1
    2f3c:	fed70023          	sb	a3,-32(a4)
    2f40:	b7e9                	j	2f0a <usart4_niming_report+0x36>
    2f42:	101c                	addi	a5,sp,32
    2f44:	97a2                	add	a5,a5,s0
    2f46:	fe07c503          	lbu	a0,-32(a5) # 7ffe0 <_data_lma+0x7200c>
    2f4a:	0405                	addi	s0,s0,1
    2f4c:	0ff47413          	andi	s0,s0,255
    2f50:	3fb1                	jal	2eac <usart4_send_char>
    2f52:	bf7d                	j	2f10 <usart4_niming_report+0x3c>
    2f54:	8082                	ret

00002f56 <TIM2_init>:
    2f56:	adafd2ef          	jal	t0,230 <__riscv_save_0>
    2f5a:	1101                	addi	sp,sp,-32
    2f5c:	4585                	li	a1,1
    2f5e:	4505                	li	a0,1
    2f60:	bb5fd0ef          	jal	ra,b14 <RCC_APB1PeriphClockCmd>
    2f64:	6789                	lui	a5,0x2
    2f66:	57f78713          	addi	a4,a5,1407 # 257f <mpu_write_mem+0x33>
    2f6a:	084c                	addi	a1,sp,20
    2f6c:	70f78793          	addi	a5,a5,1807
    2f70:	40000537          	lui	a0,0x40000
    2f74:	ca3a                	sw	a4,20(sp)
    2f76:	cc3e                	sw	a5,24(sp)
    2f78:	bbbfd0ef          	jal	ra,b32 <TIM_TimeBaseInit>
    2f7c:	4605                	li	a2,1
    2f7e:	4585                	li	a1,1
    2f80:	40000537          	lui	a0,0x40000
    2f84:	c71fd0ef          	jal	ra,bf4 <TIM_ITConfig>
    2f88:	02c00793          	li	a5,44
    2f8c:	867c                	sh	a5,12(sp)
    2f8e:	478d                	li	a5,3
    2f90:	875c                	sb	a5,14(sp)
    2f92:	0068                	addi	a0,sp,12
    2f94:	4785                	li	a5,1
    2f96:	c83e                	sw	a5,16(sp)
    2f98:	943fd0ef          	jal	ra,8da <NVIC_Init>
    2f9c:	4585                	li	a1,1
    2f9e:	40000537          	lui	a0,0x40000
    2fa2:	c3bfd0ef          	jal	ra,bdc <TIM_Cmd>
    2fa6:	6105                	addi	sp,sp,32
    2fa8:	aacfd06f          	j	254 <__riscv_restore_0>

00002fac <TIM2_IRQHandler>:
    2fac:	1141                	addi	sp,sp,-16
    2fae:	4585                	li	a1,1
    2fb0:	40000537          	lui	a0,0x40000
    2fb4:	c622                	sw	s0,12(sp)
    2fb6:	c426                	sw	s1,8(sp)
    2fb8:	c24a                	sw	s2,4(sp)
    2fba:	c4dfd0ef          	jal	ra,c06 <TIM_GetITStatus>
    2fbe:	c525                	beqz	a0,3026 <TIM2_IRQHandler+0x7a>
    2fc0:	8301a483          	lw	s1,-2000(gp) # 20000258 <new_roll>
    2fc4:	83c1a583          	lw	a1,-1988(gp) # 20000264 <prev_angle>
    2fc8:	8526                	mv	a0,s1
    2fca:	83c18413          	addi	s0,gp,-1988 # 20000264 <prev_angle>
    2fce:	5af030ef          	jal	ra,6d7c <__subsf3>
    2fd2:	132040ef          	jal	ra,7104 <__fixsfsi>
    2fd6:	41f55793          	srai	a5,a0,0x1f
    2fda:	8d3d                	xor	a0,a0,a5
    2fdc:	8d1d                	sub	a0,a0,a5
    2fde:	1de040ef          	jal	ra,71bc <__floatsisf>
    2fe2:	82a1ac23          	sw	a0,-1992(gp) # 20000260 <angle_change>
    2fe6:	0000e7b7          	lui	a5,0xe
    2fea:	8607a583          	lw	a1,-1952(a5) # d860 <test+0x28>
    2fee:	892a                	mv	s2,a0
    2ff0:	1e7030ef          	jal	ra,69d6 <__gesf2>
    2ff4:	02a05363          	blez	a0,301a <TIM2_IRQHandler+0x6e>
    2ff8:	0000e7b7          	lui	a5,0xe
    2ffc:	8647a583          	lw	a1,-1948(a5) # d864 <test+0x2c>
    3000:	854a                	mv	a0,s2
    3002:	25b030ef          	jal	ra,6a5c <__lesf2>
    3006:	00055a63          	bgez	a0,301a <TIM2_IRQHandler+0x6e>
    300a:	40004537          	lui	a0,0x40004
    300e:	0aa00593          	li	a1,170
    3012:	40050513          	addi	a0,a0,1024 # 40004400 <_eusrstack+0x1fffc400>
    3016:	ce5fd0ef          	jal	ra,cfa <USART_SendData>
    301a:	4585                	li	a1,1
    301c:	40000537          	lui	a0,0x40000
    3020:	c004                	sw	s1,0(s0)
    3022:	bfdfd0ef          	jal	ra,c1e <TIM_ClearITPendingBit>
    3026:	4432                	lw	s0,12(sp)
    3028:	44a2                	lw	s1,8(sp)
    302a:	4912                	lw	s2,4(sp)
    302c:	0141                	addi	sp,sp,16
    302e:	30200073          	mret

00003032 <IIC_Init>:
    3032:	9fefd2ef          	jal	t0,230 <__riscv_save_0>
    3036:	1141                	addi	sp,sp,-16
    3038:	4585                	li	a1,1
    303a:	4521                	li	a0,8
    303c:	abbfd0ef          	jal	ra,af6 <RCC_APB2PeriphClockCmd>
    3040:	0c000793          	li	a5,192
    3044:	40011437          	lui	s0,0x40011
    3048:	827c                	sh	a5,4(sp)
    304a:	47d1                	li	a5,20
    304c:	c63e                	sw	a5,12(sp)
    304e:	004c                	addi	a1,sp,4
    3050:	478d                	li	a5,3
    3052:	c0040513          	addi	a0,s0,-1024 # 40010c00 <_eusrstack+0x20008c00>
    3056:	c43e                	sw	a5,8(sp)
    3058:	f76fd0ef          	jal	ra,7ce <GPIO_Init>
    305c:	0c000593          	li	a1,192
    3060:	c0040513          	addi	a0,s0,-1024
    3064:	835fd0ef          	jal	ra,898 <GPIO_SetBits>
    3068:	0141                	addi	sp,sp,16
    306a:	9eafd06f          	j	254 <__riscv_restore_0>

0000306e <IIC_Start>:
    306e:	9c2fd2ef          	jal	t0,230 <__riscv_save_0>
    3072:	400117b7          	lui	a5,0x40011
    3076:	c007a703          	lw	a4,-1024(a5) # 40010c00 <_eusrstack+0x20008c00>
    307a:	300006b7          	lui	a3,0x30000
    307e:	c0078413          	addi	s0,a5,-1024
    3082:	0712                	slli	a4,a4,0x4
    3084:	8311                	srli	a4,a4,0x4
    3086:	c0e7a023          	sw	a4,-1024(a5)
    308a:	c007a703          	lw	a4,-1024(a5)
    308e:	8522                	mv	a0,s0
    3090:	08000593          	li	a1,128
    3094:	8f55                	or	a4,a4,a3
    3096:	c0e7a023          	sw	a4,-1024(a5)
    309a:	ffefd0ef          	jal	ra,898 <GPIO_SetBits>
    309e:	04000593          	li	a1,64
    30a2:	8522                	mv	a0,s0
    30a4:	ff4fd0ef          	jal	ra,898 <GPIO_SetBits>
    30a8:	4509                	li	a0,2
    30aa:	76a000ef          	jal	ra,3814 <Delay_Us>
    30ae:	08000593          	li	a1,128
    30b2:	8522                	mv	a0,s0
    30b4:	fe8fd0ef          	jal	ra,89c <GPIO_ResetBits>
    30b8:	4509                	li	a0,2
    30ba:	75a000ef          	jal	ra,3814 <Delay_Us>
    30be:	04000593          	li	a1,64
    30c2:	8522                	mv	a0,s0
    30c4:	fd8fd0ef          	jal	ra,89c <GPIO_ResetBits>
    30c8:	98cfd06f          	j	254 <__riscv_restore_0>

000030cc <IIC_Stop>:
    30cc:	964fd2ef          	jal	t0,230 <__riscv_save_0>
    30d0:	400117b7          	lui	a5,0x40011
    30d4:	c007a703          	lw	a4,-1024(a5) # 40010c00 <_eusrstack+0x20008c00>
    30d8:	300006b7          	lui	a3,0x30000
    30dc:	c0078413          	addi	s0,a5,-1024
    30e0:	0712                	slli	a4,a4,0x4
    30e2:	8311                	srli	a4,a4,0x4
    30e4:	c0e7a023          	sw	a4,-1024(a5)
    30e8:	c007a703          	lw	a4,-1024(a5)
    30ec:	8522                	mv	a0,s0
    30ee:	04000593          	li	a1,64
    30f2:	8f55                	or	a4,a4,a3
    30f4:	c0e7a023          	sw	a4,-1024(a5)
    30f8:	fa4fd0ef          	jal	ra,89c <GPIO_ResetBits>
    30fc:	08000593          	li	a1,128
    3100:	8522                	mv	a0,s0
    3102:	f9afd0ef          	jal	ra,89c <GPIO_ResetBits>
    3106:	4509                	li	a0,2
    3108:	70c000ef          	jal	ra,3814 <Delay_Us>
    310c:	8522                	mv	a0,s0
    310e:	04000593          	li	a1,64
    3112:	f86fd0ef          	jal	ra,898 <GPIO_SetBits>
    3116:	08000593          	li	a1,128
    311a:	8522                	mv	a0,s0
    311c:	f7cfd0ef          	jal	ra,898 <GPIO_SetBits>
    3120:	4509                	li	a0,2
    3122:	6f2000ef          	jal	ra,3814 <Delay_Us>
    3126:	92efd06f          	j	254 <__riscv_restore_0>

0000312a <IIC_Ack>:
    312a:	906fd2ef          	jal	t0,230 <__riscv_save_0>
    312e:	40011437          	lui	s0,0x40011
    3132:	c0040513          	addi	a0,s0,-1024 # 40010c00 <_eusrstack+0x20008c00>
    3136:	04000593          	li	a1,64
    313a:	f62fd0ef          	jal	ra,89c <GPIO_ResetBits>
    313e:	c0042783          	lw	a5,-1024(s0)
    3142:	30000737          	lui	a4,0x30000
    3146:	c0040493          	addi	s1,s0,-1024
    314a:	0792                	slli	a5,a5,0x4
    314c:	8391                	srli	a5,a5,0x4
    314e:	c0f42023          	sw	a5,-1024(s0)
    3152:	c0042783          	lw	a5,-1024(s0)
    3156:	08000593          	li	a1,128
    315a:	8526                	mv	a0,s1
    315c:	8fd9                	or	a5,a5,a4
    315e:	c0f42023          	sw	a5,-1024(s0)
    3162:	f3afd0ef          	jal	ra,89c <GPIO_ResetBits>
    3166:	4509                	li	a0,2
    3168:	6ac000ef          	jal	ra,3814 <Delay_Us>
    316c:	04000593          	li	a1,64
    3170:	8526                	mv	a0,s1
    3172:	f26fd0ef          	jal	ra,898 <GPIO_SetBits>
    3176:	4509                	li	a0,2
    3178:	69c000ef          	jal	ra,3814 <Delay_Us>
    317c:	04000593          	li	a1,64
    3180:	8526                	mv	a0,s1
    3182:	f1afd0ef          	jal	ra,89c <GPIO_ResetBits>
    3186:	8cefd06f          	j	254 <__riscv_restore_0>

0000318a <IIC_NAck>:
    318a:	8a6fd2ef          	jal	t0,230 <__riscv_save_0>
    318e:	40011437          	lui	s0,0x40011
    3192:	c0040513          	addi	a0,s0,-1024 # 40010c00 <_eusrstack+0x20008c00>
    3196:	04000593          	li	a1,64
    319a:	f02fd0ef          	jal	ra,89c <GPIO_ResetBits>
    319e:	c0042783          	lw	a5,-1024(s0)
    31a2:	30000737          	lui	a4,0x30000
    31a6:	c0040493          	addi	s1,s0,-1024
    31aa:	0792                	slli	a5,a5,0x4
    31ac:	8391                	srli	a5,a5,0x4
    31ae:	c0f42023          	sw	a5,-1024(s0)
    31b2:	c0042783          	lw	a5,-1024(s0)
    31b6:	08000593          	li	a1,128
    31ba:	8526                	mv	a0,s1
    31bc:	8fd9                	or	a5,a5,a4
    31be:	c0f42023          	sw	a5,-1024(s0)
    31c2:	ed6fd0ef          	jal	ra,898 <GPIO_SetBits>
    31c6:	4509                	li	a0,2
    31c8:	64c000ef          	jal	ra,3814 <Delay_Us>
    31cc:	04000593          	li	a1,64
    31d0:	8526                	mv	a0,s1
    31d2:	ec6fd0ef          	jal	ra,898 <GPIO_SetBits>
    31d6:	4509                	li	a0,2
    31d8:	63c000ef          	jal	ra,3814 <Delay_Us>
    31dc:	04000593          	li	a1,64
    31e0:	8526                	mv	a0,s1
    31e2:	ebafd0ef          	jal	ra,89c <GPIO_ResetBits>
    31e6:	86efd06f          	j	254 <__riscv_restore_0>

000031ea <IIC_Wait_Ack>:
    31ea:	846fd2ef          	jal	t0,230 <__riscv_save_0>
    31ee:	400117b7          	lui	a5,0x40011
    31f2:	c007a703          	lw	a4,-1024(a5) # 40010c00 <_eusrstack+0x20008c00>
    31f6:	800006b7          	lui	a3,0x80000
    31fa:	c0078413          	addi	s0,a5,-1024
    31fe:	0712                	slli	a4,a4,0x4
    3200:	8311                	srli	a4,a4,0x4
    3202:	c0e7a023          	sw	a4,-1024(a5)
    3206:	c007a703          	lw	a4,-1024(a5)
    320a:	08000593          	li	a1,128
    320e:	8522                	mv	a0,s0
    3210:	8f55                	or	a4,a4,a3
    3212:	c0e7a023          	sw	a4,-1024(a5)
    3216:	e82fd0ef          	jal	ra,898 <GPIO_SetBits>
    321a:	4509                	li	a0,2
    321c:	2be5                	jal	3814 <Delay_Us>
    321e:	04000593          	li	a1,64
    3222:	8522                	mv	a0,s0
    3224:	e74fd0ef          	jal	ra,898 <GPIO_SetBits>
    3228:	4509                	li	a0,2
    322a:	23ed                	jal	3814 <Delay_Us>
    322c:	0fb00493          	li	s1,251
    3230:	08000593          	li	a1,128
    3234:	8522                	mv	a0,s0
    3236:	e58fd0ef          	jal	ra,88e <GPIO_ReadInputDataBit>
    323a:	e919                	bnez	a0,3250 <IIC_Wait_Ack+0x66>
    323c:	40011537          	lui	a0,0x40011
    3240:	c0050513          	addi	a0,a0,-1024 # 40010c00 <_eusrstack+0x20008c00>
    3244:	04000593          	li	a1,64
    3248:	e54fd0ef          	jal	ra,89c <GPIO_ResetBits>
    324c:	4501                	li	a0,0
    324e:	a801                	j	325e <IIC_Wait_Ack+0x74>
    3250:	14fd                	addi	s1,s1,-1
    3252:	0ff4f493          	andi	s1,s1,255
    3256:	fce9                	bnez	s1,3230 <IIC_Wait_Ack+0x46>
    3258:	e75ff0ef          	jal	ra,30cc <IIC_Stop>
    325c:	4505                	li	a0,1
    325e:	ff7fc06f          	j	254 <__riscv_restore_0>

00003262 <IIC_Send_Byte>:
    3262:	fcffc2ef          	jal	t0,230 <__riscv_save_0>
    3266:	400117b7          	lui	a5,0x40011
    326a:	c007a703          	lw	a4,-1024(a5) # 40010c00 <_eusrstack+0x20008c00>
    326e:	300006b7          	lui	a3,0x30000
    3272:	c0078413          	addi	s0,a5,-1024
    3276:	0712                	slli	a4,a4,0x4
    3278:	8311                	srli	a4,a4,0x4
    327a:	c0e7a023          	sw	a4,-1024(a5)
    327e:	c007a703          	lw	a4,-1024(a5)
    3282:	892a                	mv	s2,a0
    3284:	04000593          	li	a1,64
    3288:	8f55                	or	a4,a4,a3
    328a:	c0e7a023          	sw	a4,-1024(a5)
    328e:	8522                	mv	a0,s0
    3290:	e0cfd0ef          	jal	ra,89c <GPIO_ResetBits>
    3294:	44a1                	li	s1,8
    3296:	01891793          	slli	a5,s2,0x18
    329a:	87e1                	srai	a5,a5,0x18
    329c:	08000593          	li	a1,128
    32a0:	8522                	mv	a0,s0
    32a2:	0207db63          	bgez	a5,32d8 <IIC_Send_Byte+0x76>
    32a6:	df2fd0ef          	jal	ra,898 <GPIO_SetBits>
    32aa:	04000593          	li	a1,64
    32ae:	8522                	mv	a0,s0
    32b0:	de8fd0ef          	jal	ra,898 <GPIO_SetBits>
    32b4:	4509                	li	a0,2
    32b6:	2bb9                	jal	3814 <Delay_Us>
    32b8:	04000593          	li	a1,64
    32bc:	8522                	mv	a0,s0
    32be:	ddefd0ef          	jal	ra,89c <GPIO_ResetBits>
    32c2:	14fd                	addi	s1,s1,-1
    32c4:	0906                	slli	s2,s2,0x1
    32c6:	4509                	li	a0,2
    32c8:	0ff4f493          	andi	s1,s1,255
    32cc:	0ff97913          	andi	s2,s2,255
    32d0:	2391                	jal	3814 <Delay_Us>
    32d2:	f0f1                	bnez	s1,3296 <IIC_Send_Byte+0x34>
    32d4:	f81fc06f          	j	254 <__riscv_restore_0>
    32d8:	dc4fd0ef          	jal	ra,89c <GPIO_ResetBits>
    32dc:	b7f9                	j	32aa <IIC_Send_Byte+0x48>

000032de <IIC_Read_Byte>:
    32de:	f39fc2ef          	jal	t0,216 <__riscv_save_4>
    32e2:	89aa                	mv	s3,a0
    32e4:	40011537          	lui	a0,0x40011
    32e8:	c0052783          	lw	a5,-1024(a0) # 40010c00 <_eusrstack+0x20008c00>
    32ec:	80000737          	lui	a4,0x80000
    32f0:	4921                	li	s2,8
    32f2:	0792                	slli	a5,a5,0x4
    32f4:	8391                	srli	a5,a5,0x4
    32f6:	c0f52023          	sw	a5,-1024(a0)
    32fa:	c0052783          	lw	a5,-1024(a0)
    32fe:	4401                	li	s0,0
    3300:	c0050493          	addi	s1,a0,-1024
    3304:	8fd9                	or	a5,a5,a4
    3306:	c0f52023          	sw	a5,-1024(a0)
    330a:	04000593          	li	a1,64
    330e:	8526                	mv	a0,s1
    3310:	d8cfd0ef          	jal	ra,89c <GPIO_ResetBits>
    3314:	4509                	li	a0,2
    3316:	29fd                	jal	3814 <Delay_Us>
    3318:	04000593          	li	a1,64
    331c:	8526                	mv	a0,s1
    331e:	d7afd0ef          	jal	ra,898 <GPIO_SetBits>
    3322:	0406                	slli	s0,s0,0x1
    3324:	08000593          	li	a1,128
    3328:	8526                	mv	a0,s1
    332a:	0ff47413          	andi	s0,s0,255
    332e:	d60fd0ef          	jal	ra,88e <GPIO_ReadInputDataBit>
    3332:	c501                	beqz	a0,333a <IIC_Read_Byte+0x5c>
    3334:	0405                	addi	s0,s0,1
    3336:	0ff47413          	andi	s0,s0,255
    333a:	197d                	addi	s2,s2,-1
    333c:	4509                	li	a0,2
    333e:	0ff97913          	andi	s2,s2,255
    3342:	29c9                	jal	3814 <Delay_Us>
    3344:	fc0913e3          	bnez	s2,330a <IIC_Read_Byte+0x2c>
    3348:	00099763          	bnez	s3,3356 <IIC_Read_Byte+0x78>
    334c:	e3fff0ef          	jal	ra,318a <IIC_NAck>
    3350:	8522                	mv	a0,s0
    3352:	ef9fc06f          	j	24a <__riscv_restore_4>
    3356:	dd5ff0ef          	jal	ra,312a <IIC_Ack>
    335a:	bfdd                	j	3350 <IIC_Read_Byte+0x72>

0000335c <MPU_Write_Byte>:
    335c:	ed5fc2ef          	jal	t0,230 <__riscv_save_0>
    3360:	1141                	addi	sp,sp,-16
    3362:	84aa                	mv	s1,a0
    3364:	842e                	mv	s0,a1
    3366:	d09ff0ef          	jal	ra,306e <IIC_Start>
    336a:	0d000513          	li	a0,208
    336e:	ef5ff0ef          	jal	ra,3262 <IIC_Send_Byte>
    3372:	e79ff0ef          	jal	ra,31ea <IIC_Wait_Ack>
    3376:	c519                	beqz	a0,3384 <MPU_Write_Byte+0x28>
    3378:	d55ff0ef          	jal	ra,30cc <IIC_Stop>
    337c:	4505                	li	a0,1
    337e:	0141                	addi	sp,sp,16
    3380:	ed5fc06f          	j	254 <__riscv_restore_0>
    3384:	8526                	mv	a0,s1
    3386:	eddff0ef          	jal	ra,3262 <IIC_Send_Byte>
    338a:	e61ff0ef          	jal	ra,31ea <IIC_Wait_Ack>
    338e:	8522                	mv	a0,s0
    3390:	ed3ff0ef          	jal	ra,3262 <IIC_Send_Byte>
    3394:	e57ff0ef          	jal	ra,31ea <IIC_Wait_Ack>
    3398:	c62a                	sw	a0,12(sp)
    339a:	fd79                	bnez	a0,3378 <MPU_Write_Byte+0x1c>
    339c:	d31ff0ef          	jal	ra,30cc <IIC_Stop>
    33a0:	4532                	lw	a0,12(sp)
    33a2:	bff1                	j	337e <MPU_Write_Byte+0x22>

000033a4 <MPU_Set_Gyro_Fsr>:
    33a4:	e8dfc2ef          	jal	t0,230 <__riscv_save_0>
    33a8:	00351593          	slli	a1,a0,0x3
    33ac:	0f85f593          	andi	a1,a1,248
    33b0:	456d                	li	a0,27
    33b2:	fabff0ef          	jal	ra,335c <MPU_Write_Byte>
    33b6:	e9ffc06f          	j	254 <__riscv_restore_0>

000033ba <MPU_Set_Accel_Fsr>:
    33ba:	e77fc2ef          	jal	t0,230 <__riscv_save_0>
    33be:	00351593          	slli	a1,a0,0x3
    33c2:	0f85f593          	andi	a1,a1,248
    33c6:	4571                	li	a0,28
    33c8:	f95ff0ef          	jal	ra,335c <MPU_Write_Byte>
    33cc:	e89fc06f          	j	254 <__riscv_restore_0>

000033d0 <MPU_Set_LPF>:
    33d0:	e61fc2ef          	jal	t0,230 <__riscv_save_0>
    33d4:	0bb00793          	li	a5,187
    33d8:	4585                	li	a1,1
    33da:	02a7e063          	bltu	a5,a0,33fa <MPU_Set_LPF+0x2a>
    33de:	02900793          	li	a5,41
    33e2:	4589                	li	a1,2
    33e4:	00a7eb63          	bltu	a5,a0,33fa <MPU_Set_LPF+0x2a>
    33e8:	47cd                	li	a5,19
    33ea:	4591                	li	a1,4
    33ec:	00a7e763          	bltu	a5,a0,33fa <MPU_Set_LPF+0x2a>
    33f0:	47a5                	li	a5,9
    33f2:	4595                	li	a1,5
    33f4:	00a7e363          	bltu	a5,a0,33fa <MPU_Set_LPF+0x2a>
    33f8:	4599                	li	a1,6
    33fa:	4569                	li	a0,26
    33fc:	f61ff0ef          	jal	ra,335c <MPU_Write_Byte>
    3400:	e55fc06f          	j	254 <__riscv_restore_0>

00003404 <MPU_Set_Rate>:
    3404:	e2dfc2ef          	jal	t0,230 <__riscv_save_0>
    3408:	4711                	li	a4,4
    340a:	4791                	li	a5,4
    340c:	00e56363          	bltu	a0,a4,3412 <MPU_Set_Rate+0xe>
    3410:	87aa                	mv	a5,a0
    3412:	853e                	mv	a0,a5
    3414:	01051713          	slli	a4,a0,0x10
    3418:	8341                	srli	a4,a4,0x10
    341a:	3e800793          	li	a5,1000
    341e:	00e7f463          	bgeu	a5,a4,3426 <MPU_Set_Rate+0x22>
    3422:	3e800513          	li	a0,1000
    3426:	01051413          	slli	s0,a0,0x10
    342a:	8041                	srli	s0,s0,0x10
    342c:	3e800593          	li	a1,1000
    3430:	0285c5b3          	div	a1,a1,s0
    3434:	4565                	li	a0,25
    3436:	15fd                	addi	a1,a1,-1
    3438:	0ff5f593          	andi	a1,a1,255
    343c:	f21ff0ef          	jal	ra,335c <MPU_Write_Byte>
    3440:	00145513          	srli	a0,s0,0x1
    3444:	f8dff0ef          	jal	ra,33d0 <MPU_Set_LPF>
    3448:	e0dfc06f          	j	254 <__riscv_restore_0>

0000344c <MPU_Read_Byte>:
    344c:	de5fc2ef          	jal	t0,230 <__riscv_save_0>
    3450:	1141                	addi	sp,sp,-16
    3452:	842a                	mv	s0,a0
    3454:	c1bff0ef          	jal	ra,306e <IIC_Start>
    3458:	0d000513          	li	a0,208
    345c:	e07ff0ef          	jal	ra,3262 <IIC_Send_Byte>
    3460:	d8bff0ef          	jal	ra,31ea <IIC_Wait_Ack>
    3464:	8522                	mv	a0,s0
    3466:	dfdff0ef          	jal	ra,3262 <IIC_Send_Byte>
    346a:	d81ff0ef          	jal	ra,31ea <IIC_Wait_Ack>
    346e:	c01ff0ef          	jal	ra,306e <IIC_Start>
    3472:	0d100513          	li	a0,209
    3476:	dedff0ef          	jal	ra,3262 <IIC_Send_Byte>
    347a:	d71ff0ef          	jal	ra,31ea <IIC_Wait_Ack>
    347e:	4501                	li	a0,0
    3480:	e5fff0ef          	jal	ra,32de <IIC_Read_Byte>
    3484:	c62a                	sw	a0,12(sp)
    3486:	c47ff0ef          	jal	ra,30cc <IIC_Stop>
    348a:	4532                	lw	a0,12(sp)
    348c:	0141                	addi	sp,sp,16
    348e:	dc7fc06f          	j	254 <__riscv_restore_0>

00003492 <MPU_Init>:
    3492:	d9ffc2ef          	jal	t0,230 <__riscv_save_0>
    3496:	b9dff0ef          	jal	ra,3032 <IIC_Init>
    349a:	08000593          	li	a1,128
    349e:	06b00513          	li	a0,107
    34a2:	ebbff0ef          	jal	ra,335c <MPU_Write_Byte>
    34a6:	06400513          	li	a0,100
    34aa:	2645                	jal	384a <Delay_Ms>
    34ac:	4581                	li	a1,0
    34ae:	06b00513          	li	a0,107
    34b2:	eabff0ef          	jal	ra,335c <MPU_Write_Byte>
    34b6:	450d                	li	a0,3
    34b8:	eedff0ef          	jal	ra,33a4 <MPU_Set_Gyro_Fsr>
    34bc:	4501                	li	a0,0
    34be:	efdff0ef          	jal	ra,33ba <MPU_Set_Accel_Fsr>
    34c2:	03200513          	li	a0,50
    34c6:	f3fff0ef          	jal	ra,3404 <MPU_Set_Rate>
    34ca:	4581                	li	a1,0
    34cc:	03800513          	li	a0,56
    34d0:	e8dff0ef          	jal	ra,335c <MPU_Write_Byte>
    34d4:	4581                	li	a1,0
    34d6:	06a00513          	li	a0,106
    34da:	e83ff0ef          	jal	ra,335c <MPU_Write_Byte>
    34de:	4581                	li	a1,0
    34e0:	02300513          	li	a0,35
    34e4:	e79ff0ef          	jal	ra,335c <MPU_Write_Byte>
    34e8:	08000593          	li	a1,128
    34ec:	03700513          	li	a0,55
    34f0:	e6dff0ef          	jal	ra,335c <MPU_Write_Byte>
    34f4:	07500513          	li	a0,117
    34f8:	f55ff0ef          	jal	ra,344c <MPU_Read_Byte>
    34fc:	06800713          	li	a4,104
    3500:	4785                	li	a5,1
    3502:	02e51163          	bne	a0,a4,3524 <MPU_Init+0x92>
    3506:	4585                	li	a1,1
    3508:	06b00513          	li	a0,107
    350c:	e51ff0ef          	jal	ra,335c <MPU_Write_Byte>
    3510:	4581                	li	a1,0
    3512:	06c00513          	li	a0,108
    3516:	e47ff0ef          	jal	ra,335c <MPU_Write_Byte>
    351a:	03200513          	li	a0,50
    351e:	ee7ff0ef          	jal	ra,3404 <MPU_Set_Rate>
    3522:	4781                	li	a5,0
    3524:	853e                	mv	a0,a5
    3526:	d2ffc06f          	j	254 <__riscv_restore_0>

0000352a <MPU_Write_Len>:
    352a:	d07fc2ef          	jal	t0,230 <__riscv_save_0>
    352e:	1141                	addi	sp,sp,-16
    3530:	c42e                	sw	a1,8(sp)
    3532:	8932                	mv	s2,a2
    3534:	8436                	mv	s0,a3
    3536:	c62a                	sw	a0,12(sp)
    3538:	b37ff0ef          	jal	ra,306e <IIC_Start>
    353c:	4532                	lw	a0,12(sp)
    353e:	0506                	slli	a0,a0,0x1
    3540:	0fe57513          	andi	a0,a0,254
    3544:	d1fff0ef          	jal	ra,3262 <IIC_Send_Byte>
    3548:	ca3ff0ef          	jal	ra,31ea <IIC_Wait_Ack>
    354c:	45a2                	lw	a1,8(sp)
    354e:	c901                	beqz	a0,355e <MPU_Write_Len+0x34>
    3550:	b7dff0ef          	jal	ra,30cc <IIC_Stop>
    3554:	4485                	li	s1,1
    3556:	8526                	mv	a0,s1
    3558:	0141                	addi	sp,sp,16
    355a:	cfbfc06f          	j	254 <__riscv_restore_0>
    355e:	84aa                	mv	s1,a0
    3560:	852e                	mv	a0,a1
    3562:	d01ff0ef          	jal	ra,3262 <IIC_Send_Byte>
    3566:	c85ff0ef          	jal	ra,31ea <IIC_Wait_Ack>
    356a:	9922                	add	s2,s2,s0
    356c:	01241563          	bne	s0,s2,3576 <MPU_Write_Len+0x4c>
    3570:	b5dff0ef          	jal	ra,30cc <IIC_Stop>
    3574:	b7cd                	j	3556 <MPU_Write_Len+0x2c>
    3576:	2008                	lbu	a0,0(s0)
    3578:	0405                	addi	s0,s0,1
    357a:	ce9ff0ef          	jal	ra,3262 <IIC_Send_Byte>
    357e:	c6dff0ef          	jal	ra,31ea <IIC_Wait_Ack>
    3582:	d56d                	beqz	a0,356c <MPU_Write_Len+0x42>
    3584:	b7f1                	j	3550 <MPU_Write_Len+0x26>

00003586 <MPU_Read_Len>:
    3586:	cabfc2ef          	jal	t0,230 <__riscv_save_0>
    358a:	1141                	addi	sp,sp,-16
    358c:	84aa                	mv	s1,a0
    358e:	c62e                	sw	a1,12(sp)
    3590:	8432                	mv	s0,a2
    3592:	8936                	mv	s2,a3
    3594:	0486                	slli	s1,s1,0x1
    3596:	ad9ff0ef          	jal	ra,306e <IIC_Start>
    359a:	0fe4f513          	andi	a0,s1,254
    359e:	cc5ff0ef          	jal	ra,3262 <IIC_Send_Byte>
    35a2:	c49ff0ef          	jal	ra,31ea <IIC_Wait_Ack>
    35a6:	45b2                	lw	a1,12(sp)
    35a8:	c901                	beqz	a0,35b8 <MPU_Read_Len+0x32>
    35aa:	b23ff0ef          	jal	ra,30cc <IIC_Stop>
    35ae:	4405                	li	s0,1
    35b0:	8522                	mv	a0,s0
    35b2:	0141                	addi	sp,sp,16
    35b4:	ca1fc06f          	j	254 <__riscv_restore_0>
    35b8:	852e                	mv	a0,a1
    35ba:	ca9ff0ef          	jal	ra,3262 <IIC_Send_Byte>
    35be:	c2dff0ef          	jal	ra,31ea <IIC_Wait_Ack>
    35c2:	aadff0ef          	jal	ra,306e <IIC_Start>
    35c6:	0014e513          	ori	a0,s1,1
    35ca:	0ff57513          	andi	a0,a0,255
    35ce:	c95ff0ef          	jal	ra,3262 <IIC_Send_Byte>
    35d2:	c19ff0ef          	jal	ra,31ea <IIC_Wait_Ack>
    35d6:	4485                	li	s1,1
    35d8:	e401                	bnez	s0,35e0 <MPU_Read_Len+0x5a>
    35da:	af3ff0ef          	jal	ra,30cc <IIC_Stop>
    35de:	bfc9                	j	35b0 <MPU_Read_Len+0x2a>
    35e0:	4501                	li	a0,0
    35e2:	00940363          	beq	s0,s1,35e8 <MPU_Read_Len+0x62>
    35e6:	4505                	li	a0,1
    35e8:	cf7ff0ef          	jal	ra,32de <IIC_Read_Byte>
    35ec:	147d                	addi	s0,s0,-1
    35ee:	00a90023          	sb	a0,0(s2)
    35f2:	0ff47413          	andi	s0,s0,255
    35f6:	0905                	addi	s2,s2,1
    35f8:	b7c5                	j	35d8 <MPU_Read_Len+0x52>

000035fa <MPU_Get_Gyroscope>:
    35fa:	c37fc2ef          	jal	t0,230 <__riscv_save_0>
    35fe:	1141                	addi	sp,sp,-16
    3600:	892a                	mv	s2,a0
    3602:	84ae                	mv	s1,a1
    3604:	8432                	mv	s0,a2
    3606:	0034                	addi	a3,sp,8
    3608:	4619                	li	a2,6
    360a:	04300593          	li	a1,67
    360e:	06800513          	li	a0,104
    3612:	f75ff0ef          	jal	ra,3586 <MPU_Read_Len>
    3616:	e10d                	bnez	a0,3638 <MPU_Get_Gyroscope+0x3e>
    3618:	841c                	lbu	a5,8(sp)
    361a:	8498                	lbu	a4,9(sp)
    361c:	07a2                	slli	a5,a5,0x8
    361e:	8fd9                	or	a5,a5,a4
    3620:	00f91023          	sh	a5,0(s2)
    3624:	851c                	lbu	a5,10(sp)
    3626:	8598                	lbu	a4,11(sp)
    3628:	07a2                	slli	a5,a5,0x8
    362a:	8fd9                	or	a5,a5,a4
    362c:	a09e                	sh	a5,0(s1)
    362e:	861c                	lbu	a5,12(sp)
    3630:	8698                	lbu	a4,13(sp)
    3632:	07a2                	slli	a5,a5,0x8
    3634:	8fd9                	or	a5,a5,a4
    3636:	a01e                	sh	a5,0(s0)
    3638:	0141                	addi	sp,sp,16
    363a:	c1bfc06f          	j	254 <__riscv_restore_0>

0000363e <MPU_Get_Accelerometer>:
    363e:	bf3fc2ef          	jal	t0,230 <__riscv_save_0>
    3642:	1141                	addi	sp,sp,-16
    3644:	892a                	mv	s2,a0
    3646:	84ae                	mv	s1,a1
    3648:	8432                	mv	s0,a2
    364a:	0034                	addi	a3,sp,8
    364c:	4619                	li	a2,6
    364e:	03b00593          	li	a1,59
    3652:	06800513          	li	a0,104
    3656:	f31ff0ef          	jal	ra,3586 <MPU_Read_Len>
    365a:	e10d                	bnez	a0,367c <MPU_Get_Accelerometer+0x3e>
    365c:	841c                	lbu	a5,8(sp)
    365e:	8498                	lbu	a4,9(sp)
    3660:	07a2                	slli	a5,a5,0x8
    3662:	8fd9                	or	a5,a5,a4
    3664:	00f91023          	sh	a5,0(s2)
    3668:	851c                	lbu	a5,10(sp)
    366a:	8598                	lbu	a4,11(sp)
    366c:	07a2                	slli	a5,a5,0x8
    366e:	8fd9                	or	a5,a5,a4
    3670:	a09e                	sh	a5,0(s1)
    3672:	861c                	lbu	a5,12(sp)
    3674:	8698                	lbu	a4,13(sp)
    3676:	07a2                	slli	a5,a5,0x8
    3678:	8fd9                	or	a5,a5,a4
    367a:	a01e                	sh	a5,0(s0)
    367c:	0141                	addi	sp,sp,16
    367e:	bd7fc06f          	j	254 <__riscv_restore_0>

00003682 <mpu6050_send_data>:
    3682:	baffc2ef          	jal	t0,230 <__riscv_save_0>
    3686:	00851813          	slli	a6,a0,0x8
    368a:	0542                	slli	a0,a0,0x10
    368c:	8141                	srli	a0,a0,0x10
    368e:	8121                	srli	a0,a0,0x8
    3690:	1141                	addi	sp,sp,-16
    3692:	00a86533          	or	a0,a6,a0
    3696:	8268                	sh	a0,4(sp)
    3698:	00859513          	slli	a0,a1,0x8
    369c:	05c2                	slli	a1,a1,0x10
    369e:	81c1                	srli	a1,a1,0x10
    36a0:	81a1                	srli	a1,a1,0x8
    36a2:	8dc9                	or	a1,a1,a0
    36a4:	836c                	sh	a1,6(sp)
    36a6:	00861593          	slli	a1,a2,0x8
    36aa:	0642                	slli	a2,a2,0x10
    36ac:	8241                	srli	a2,a2,0x10
    36ae:	8221                	srli	a2,a2,0x8
    36b0:	8e4d                	or	a2,a2,a1
    36b2:	8470                	sh	a2,8(sp)
    36b4:	00869613          	slli	a2,a3,0x8
    36b8:	06c2                	slli	a3,a3,0x10
    36ba:	82c1                	srli	a3,a3,0x10
    36bc:	82a1                	srli	a3,a3,0x8
    36be:	8ed1                	or	a3,a3,a2
    36c0:	8574                	sh	a3,10(sp)
    36c2:	00871693          	slli	a3,a4,0x8
    36c6:	0742                	slli	a4,a4,0x10
    36c8:	8341                	srli	a4,a4,0x10
    36ca:	8321                	srli	a4,a4,0x8
    36cc:	8f55                	or	a4,a4,a3
    36ce:	8678                	sh	a4,12(sp)
    36d0:	00879713          	slli	a4,a5,0x8
    36d4:	07c2                	slli	a5,a5,0x10
    36d6:	83c1                	srli	a5,a5,0x10
    36d8:	83a1                	srli	a5,a5,0x8
    36da:	8fd9                	or	a5,a5,a4
    36dc:	004c                	addi	a1,sp,4
    36de:	4631                	li	a2,12
    36e0:	0a100513          	li	a0,161
    36e4:	877c                	sh	a5,14(sp)
    36e6:	feeff0ef          	jal	ra,2ed4 <usart4_niming_report>
    36ea:	0141                	addi	sp,sp,16
    36ec:	b69fc06f          	j	254 <__riscv_restore_0>

000036f0 <usart4_report_imu>:
    36f0:	b41fc2ef          	jal	t0,230 <__riscv_save_0>
    36f4:	1101                	addi	sp,sp,-32
    36f6:	03011303          	lh	t1,48(sp)
    36fa:	4e01                	li	t3,0
    36fc:	4ef1                	li	t4,28
    36fe:	00410f13          	addi	t5,sp,4
    3702:	9f72                	add	t5,t5,t3
    3704:	000f0023          	sb	zero,0(t5)
    3708:	0e05                	addi	t3,t3,1
    370a:	ffde1ae3          	bne	t3,t4,36fe <usart4_report_imu+0xe>
    370e:	00851e13          	slli	t3,a0,0x8
    3712:	0542                	slli	a0,a0,0x10
    3714:	8141                	srli	a0,a0,0x10
    3716:	8121                	srli	a0,a0,0x8
    3718:	00ae6533          	or	a0,t3,a0
    371c:	8268                	sh	a0,4(sp)
    371e:	00859513          	slli	a0,a1,0x8
    3722:	05c2                	slli	a1,a1,0x10
    3724:	81c1                	srli	a1,a1,0x10
    3726:	81a1                	srli	a1,a1,0x8
    3728:	8dc9                	or	a1,a1,a0
    372a:	836c                	sh	a1,6(sp)
    372c:	00861593          	slli	a1,a2,0x8
    3730:	0642                	slli	a2,a2,0x10
    3732:	8241                	srli	a2,a2,0x10
    3734:	8221                	srli	a2,a2,0x8
    3736:	8e4d                	or	a2,a2,a1
    3738:	8470                	sh	a2,8(sp)
    373a:	00869613          	slli	a2,a3,0x8
    373e:	06c2                	slli	a3,a3,0x10
    3740:	82c1                	srli	a3,a3,0x10
    3742:	82a1                	srli	a3,a3,0x8
    3744:	8ed1                	or	a3,a3,a2
    3746:	8574                	sh	a3,10(sp)
    3748:	00871693          	slli	a3,a4,0x8
    374c:	0742                	slli	a4,a4,0x10
    374e:	8341                	srli	a4,a4,0x10
    3750:	8321                	srli	a4,a4,0x8
    3752:	8f55                	or	a4,a4,a3
    3754:	8678                	sh	a4,12(sp)
    3756:	00879713          	slli	a4,a5,0x8
    375a:	07c2                	slli	a5,a5,0x10
    375c:	83c1                	srli	a5,a5,0x10
    375e:	83a1                	srli	a5,a5,0x8
    3760:	8fd9                	or	a5,a5,a4
    3762:	877c                	sh	a5,14(sp)
    3764:	00881793          	slli	a5,a6,0x8
    3768:	0842                	slli	a6,a6,0x10
    376a:	01085813          	srli	a6,a6,0x10
    376e:	00885813          	srli	a6,a6,0x8
    3772:	0107e833          	or	a6,a5,a6
    3776:	00889793          	slli	a5,a7,0x8
    377a:	08c2                	slli	a7,a7,0x10
    377c:	0108d893          	srli	a7,a7,0x10
    3780:	0088d893          	srli	a7,a7,0x8
    3784:	0117e8b3          	or	a7,a5,a7
    3788:	00831793          	slli	a5,t1,0x8
    378c:	0342                	slli	t1,t1,0x10
    378e:	01035313          	srli	t1,t1,0x10
    3792:	00835313          	srli	t1,t1,0x8
    3796:	0067e333          	or	t1,a5,t1
    379a:	004c                	addi	a1,sp,4
    379c:	4671                	li	a2,28
    379e:	0af00513          	li	a0,175
    37a2:	01011b23          	sh	a6,22(sp)
    37a6:	01111c23          	sh	a7,24(sp)
    37aa:	00611d23          	sh	t1,26(sp)
    37ae:	f26ff0ef          	jal	ra,2ed4 <usart4_niming_report>
    37b2:	6105                	addi	sp,sp,32
    37b4:	aa1fc06f          	j	254 <__riscv_restore_0>

000037b8 <IWDG_Feed_Init>:
    37b8:	a79fc2ef          	jal	t0,230 <__riscv_save_0>
    37bc:	842a                	mv	s0,a0
    37be:	6515                	lui	a0,0x5
    37c0:	1141                	addi	sp,sp,-16
    37c2:	55550513          	addi	a0,a0,1365 # 5555 <__divdf3+0x4fd>
    37c6:	c62e                	sw	a1,12(sp)
    37c8:	8d8fd0ef          	jal	ra,8a0 <IWDG_WriteAccessCmd>
    37cc:	0ff47513          	andi	a0,s0,255
    37d0:	8d8fd0ef          	jal	ra,8a8 <IWDG_SetPrescaler>
    37d4:	45b2                	lw	a1,12(sp)
    37d6:	852e                	mv	a0,a1
    37d8:	8d8fd0ef          	jal	ra,8b0 <IWDG_SetReload>
    37dc:	8dcfd0ef          	jal	ra,8b8 <IWDG_ReloadCounter>
    37e0:	8e6fd0ef          	jal	ra,8c6 <IWDG_Enable>
    37e4:	0141                	addi	sp,sp,16
    37e6:	a6ffc06f          	j	254 <__riscv_restore_0>

000037ea <Delay_Init>:
    37ea:	200007b7          	lui	a5,0x20000
    37ee:	2287a783          	lw	a5,552(a5) # 20000228 <SystemCoreClock>
    37f2:	007a1737          	lui	a4,0x7a1
    37f6:	20070713          	addi	a4,a4,512 # 7a1200 <_data_lma+0x79322c>
    37fa:	02e7d7b3          	divu	a5,a5,a4
    37fe:	0ff7f793          	andi	a5,a5,255
    3802:	84f18123          	sb	a5,-1982(gp) # 2000026a <p_us>
    3806:	3e800713          	li	a4,1000
    380a:	02e787b3          	mul	a5,a5,a4
    380e:	84f19023          	sh	a5,-1984(gp) # 20000268 <p_ms>
    3812:	8082                	ret

00003814 <Delay_Us>:
    3814:	e000f7b7          	lui	a5,0xe000f
    3818:	43d8                	lw	a4,4(a5)
    381a:	4681                	li	a3,0
    381c:	9b79                	andi	a4,a4,-2
    381e:	c3d8                	sw	a4,4(a5)
    3820:	8421c703          	lbu	a4,-1982(gp) # 2000026a <p_us>
    3824:	02a70633          	mul	a2,a4,a0
    3828:	cb90                	sw	a2,16(a5)
    382a:	cbd4                	sw	a3,20(a5)
    382c:	4398                	lw	a4,0(a5)
    382e:	01076713          	ori	a4,a4,16
    3832:	c398                	sw	a4,0(a5)
    3834:	4398                	lw	a4,0(a5)
    3836:	02176713          	ori	a4,a4,33
    383a:	c398                	sw	a4,0(a5)
    383c:	43d8                	lw	a4,4(a5)
    383e:	8b05                	andi	a4,a4,1
    3840:	df75                	beqz	a4,383c <Delay_Us+0x28>
    3842:	4398                	lw	a4,0(a5)
    3844:	9b79                	andi	a4,a4,-2
    3846:	c398                	sw	a4,0(a5)
    3848:	8082                	ret

0000384a <Delay_Ms>:
    384a:	e000f7b7          	lui	a5,0xe000f
    384e:	43d8                	lw	a4,4(a5)
    3850:	4681                	li	a3,0
    3852:	9b79                	andi	a4,a4,-2
    3854:	c3d8                	sw	a4,4(a5)
    3856:	8401d703          	lhu	a4,-1984(gp) # 20000268 <p_ms>
    385a:	02a70633          	mul	a2,a4,a0
    385e:	cb90                	sw	a2,16(a5)
    3860:	cbd4                	sw	a3,20(a5)
    3862:	4398                	lw	a4,0(a5)
    3864:	01076713          	ori	a4,a4,16
    3868:	c398                	sw	a4,0(a5)
    386a:	4398                	lw	a4,0(a5)
    386c:	02176713          	ori	a4,a4,33
    3870:	c398                	sw	a4,0(a5)
    3872:	43d8                	lw	a4,4(a5)
    3874:	8b05                	andi	a4,a4,1
    3876:	df75                	beqz	a4,3872 <Delay_Ms+0x28>
    3878:	4398                	lw	a4,0(a5)
    387a:	9b79                	andi	a4,a4,-2
    387c:	c398                	sw	a4,0(a5)
    387e:	8082                	ret

00003880 <USART_Printf_Init>:
    3880:	9b1fc2ef          	jal	t0,230 <__riscv_save_0>
    3884:	842a                	mv	s0,a0
    3886:	6511                	lui	a0,0x4
    3888:	1101                	addi	sp,sp,-32
    388a:	4585                	li	a1,1
    388c:	0511                	addi	a0,a0,4
    388e:	a68fd0ef          	jal	ra,af6 <RCC_APB2PeriphClockCmd>
    3892:	20000793          	li	a5,512
    3896:	827c                	sh	a5,4(sp)
    3898:	40011537          	lui	a0,0x40011
    389c:	478d                	li	a5,3
    389e:	c43e                	sw	a5,8(sp)
    38a0:	004c                	addi	a1,sp,4
    38a2:	47e1                	li	a5,24
    38a4:	80050513          	addi	a0,a0,-2048 # 40010800 <_eusrstack+0x20008800>
    38a8:	c63e                	sw	a5,12(sp)
    38aa:	f25fc0ef          	jal	ra,7ce <GPIO_Init>
    38ae:	c822                	sw	s0,16(sp)
    38b0:	40014437          	lui	s0,0x40014
    38b4:	000807b7          	lui	a5,0x80
    38b8:	080c                	addi	a1,sp,16
    38ba:	80040513          	addi	a0,s0,-2048 # 40013800 <_eusrstack+0x2000b800>
    38be:	cc3e                	sw	a5,24(sp)
    38c0:	ca02                	sw	zero,20(sp)
    38c2:	00011e23          	sh	zero,28(sp)
    38c6:	b64fd0ef          	jal	ra,c2a <USART_Init>
    38ca:	4585                	li	a1,1
    38cc:	80040513          	addi	a0,s0,-2048
    38d0:	c14fd0ef          	jal	ra,ce4 <USART_Cmd>
    38d4:	6105                	addi	sp,sp,32
    38d6:	97ffc06f          	j	254 <__riscv_restore_0>

000038da <_write>:
    38da:	93dfc2ef          	jal	t0,216 <__riscv_save_4>
    38de:	400144b7          	lui	s1,0x40014
    38e2:	89ae                	mv	s3,a1
    38e4:	8932                	mv	s2,a2
    38e6:	4401                	li	s0,0
    38e8:	80048493          	addi	s1,s1,-2048 # 40013800 <_eusrstack+0x2000b800>
    38ec:	01244563          	blt	s0,s2,38f6 <_write+0x1c>
    38f0:	854a                	mv	a0,s2
    38f2:	959fc06f          	j	24a <__riscv_restore_4>
    38f6:	04000593          	li	a1,64
    38fa:	8526                	mv	a0,s1
    38fc:	c06fd0ef          	jal	ra,d02 <USART_GetFlagStatus>
    3900:	d97d                	beqz	a0,38f6 <_write+0x1c>
    3902:	008987b3          	add	a5,s3,s0
    3906:	00078583          	lb	a1,0(a5) # 80000 <_data_lma+0x7202c>
    390a:	8526                	mv	a0,s1
    390c:	0405                	addi	s0,s0,1
    390e:	05c2                	slli	a1,a1,0x10
    3910:	81c1                	srli	a1,a1,0x10
    3912:	be8fd0ef          	jal	ra,cfa <USART_SendData>
    3916:	bfd9                	j	38ec <_write+0x12>

00003918 <_sbrk>:
    3918:	80818713          	addi	a4,gp,-2040 # 20000230 <curbrk.5218>
    391c:	431c                	lw	a5,0(a4)
    391e:	86018693          	addi	a3,gp,-1952 # 20000288 <_ebss>
    3922:	953e                	add	a0,a0,a5
    3924:	00d56b63          	bltu	a0,a3,393a <_sbrk+0x22>
    3928:	200086b7          	lui	a3,0x20008
    392c:	80068693          	addi	a3,a3,-2048 # 20007800 <_heap_end>
    3930:	00a6e563          	bltu	a3,a0,393a <_sbrk+0x22>
    3934:	c308                	sw	a0,0(a4)
    3936:	853e                	mv	a0,a5
    3938:	8082                	ret
    393a:	57fd                	li	a5,-1
    393c:	bfed                	j	3936 <_sbrk+0x1e>

0000393e <asin>:
    393e:	715d                	addi	sp,sp,-80
    3940:	c4a2                	sw	s0,72(sp)
    3942:	c2a6                	sw	s1,68(sp)
    3944:	c0ca                	sw	s2,64(sp)
    3946:	de4e                	sw	s3,60(sp)
    3948:	dc52                	sw	s4,56(sp)
    394a:	c686                	sw	ra,76(sp)
    394c:	80c18a13          	addi	s4,gp,-2036 # 20000234 <__fdlib_version>
    3950:	842a                	mv	s0,a0
    3952:	84ae                	mv	s1,a1
    3954:	206d                	jal	39fe <__ieee754_asin>
    3956:	000a2703          	lw	a4,0(s4)
    395a:	57fd                	li	a5,-1
    395c:	892a                	mv	s2,a0
    395e:	89ae                	mv	s3,a1
    3960:	02f70763          	beq	a4,a5,398e <asin+0x50>
    3964:	8622                	mv	a2,s0
    3966:	86a6                	mv	a3,s1
    3968:	8522                	mv	a0,s0
    396a:	85a6                	mv	a1,s1
    396c:	145020ef          	jal	ra,62b0 <__unorddf2>
    3970:	ed19                	bnez	a0,398e <asin+0x50>
    3972:	8522                	mv	a0,s0
    3974:	85a6                	mv	a1,s1
    3976:	3c7000ef          	jal	ra,453c <fabs>
    397a:	0000a797          	auipc	a5,0xa
    397e:	eee78793          	addi	a5,a5,-274 # d868 <test+0x30>
    3982:	4390                	lw	a2,0(a5)
    3984:	43d4                	lw	a3,4(a5)
    3986:	487010ef          	jal	ra,560c <__gedf2>
    398a:	00a04c63          	bgtz	a0,39a2 <asin+0x64>
    398e:	40b6                	lw	ra,76(sp)
    3990:	4426                	lw	s0,72(sp)
    3992:	854a                	mv	a0,s2
    3994:	85ce                	mv	a1,s3
    3996:	4496                	lw	s1,68(sp)
    3998:	4906                	lw	s2,64(sp)
    399a:	59f2                	lw	s3,60(sp)
    399c:	5a62                	lw	s4,56(sp)
    399e:	6161                	addi	sp,sp,80
    39a0:	8082                	ret
    39a2:	4785                	li	a5,1
    39a4:	c43e                	sw	a5,8(sp)
    39a6:	0000a517          	auipc	a0,0xa
    39aa:	e4a50513          	addi	a0,a0,-438 # d7f0 <hw+0xbc>
    39ae:	0000a797          	auipc	a5,0xa
    39b2:	ec278793          	addi	a5,a5,-318 # d870 <test+0x38>
    39b6:	c63e                	sw	a5,12(sp)
    39b8:	d402                	sw	zero,40(sp)
    39ba:	cc22                	sw	s0,24(sp)
    39bc:	ce26                	sw	s1,28(sp)
    39be:	c822                	sw	s0,16(sp)
    39c0:	ca26                	sw	s1,20(sp)
    39c2:	385000ef          	jal	ra,4546 <nan>
    39c6:	000a2703          	lw	a4,0(s4)
    39ca:	d02a                	sw	a0,32(sp)
    39cc:	d22e                	sw	a1,36(sp)
    39ce:	4789                	li	a5,2
    39d0:	00f70b63          	beq	a4,a5,39e6 <asin+0xa8>
    39d4:	0028                	addi	a0,sp,8
    39d6:	36d000ef          	jal	ra,4542 <matherr>
    39da:	c511                	beqz	a0,39e6 <asin+0xa8>
    39dc:	57a2                	lw	a5,40(sp)
    39de:	eb91                	bnez	a5,39f2 <asin+0xb4>
    39e0:	5902                	lw	s2,32(sp)
    39e2:	5992                	lw	s3,36(sp)
    39e4:	b76d                	j	398e <asin+0x50>
    39e6:	3ef030ef          	jal	ra,75d4 <__errno>
    39ea:	02100793          	li	a5,33
    39ee:	c11c                	sw	a5,0(a0)
    39f0:	b7f5                	j	39dc <asin+0x9e>
    39f2:	3e3030ef          	jal	ra,75d4 <__errno>
    39f6:	57a2                	lw	a5,40(sp)
    39f8:	c11c                	sw	a5,0(a0)
    39fa:	b7dd                	j	39e0 <asin+0xa2>

000039fc <atan2>:
    39fc:	a1a5                	j	3e64 <__ieee754_atan2>

000039fe <__ieee754_asin>:
    39fe:	7139                	addi	sp,sp,-64
    3a00:	d84a                	sw	s2,48(sp)
    3a02:	00159913          	slli	s2,a1,0x1
    3a06:	dc22                	sw	s0,56(sp)
    3a08:	da26                	sw	s1,52(sp)
    3a0a:	de06                	sw	ra,60(sp)
    3a0c:	d64e                	sw	s3,44(sp)
    3a0e:	d452                	sw	s4,40(sp)
    3a10:	d256                	sw	s5,36(sp)
    3a12:	d05a                	sw	s6,32(sp)
    3a14:	ce5e                	sw	s7,28(sp)
    3a16:	cc62                	sw	s8,24(sp)
    3a18:	ca66                	sw	s9,20(sp)
    3a1a:	c86a                	sw	s10,16(sp)
    3a1c:	c66e                	sw	s11,12(sp)
    3a1e:	00195913          	srli	s2,s2,0x1
    3a22:	3ff007b7          	lui	a5,0x3ff00
    3a26:	842e                	mv	s0,a1
    3a28:	84aa                	mv	s1,a0
    3a2a:	06f94d63          	blt	s2,a5,3aa4 <__ieee754_asin+0xa6>
    3a2e:	40f90933          	sub	s2,s2,a5
    3a32:	00a96933          	or	s2,s2,a0
    3a36:	02090b63          	beqz	s2,3a6c <__ieee754_asin+0x6e>
    3a3a:	862a                	mv	a2,a0
    3a3c:	86ae                	mv	a3,a1
    3a3e:	134020ef          	jal	ra,5b72 <__subdf3>
    3a42:	862a                	mv	a2,a0
    3a44:	86ae                	mv	a3,a1
    3a46:	612010ef          	jal	ra,5058 <__divdf3>
    3a4a:	84aa                	mv	s1,a0
    3a4c:	50f2                	lw	ra,60(sp)
    3a4e:	5462                	lw	s0,56(sp)
    3a50:	8526                	mv	a0,s1
    3a52:	5942                	lw	s2,48(sp)
    3a54:	54d2                	lw	s1,52(sp)
    3a56:	59b2                	lw	s3,44(sp)
    3a58:	5a22                	lw	s4,40(sp)
    3a5a:	5a92                	lw	s5,36(sp)
    3a5c:	5b02                	lw	s6,32(sp)
    3a5e:	4bf2                	lw	s7,28(sp)
    3a60:	4c62                	lw	s8,24(sp)
    3a62:	4cd2                	lw	s9,20(sp)
    3a64:	4d42                	lw	s10,16(sp)
    3a66:	4db2                	lw	s11,12(sp)
    3a68:	6121                	addi	sp,sp,64
    3a6a:	8082                	ret
    3a6c:	0000a797          	auipc	a5,0xa
    3a70:	e0c78793          	addi	a5,a5,-500 # d878 <test+0x40>
    3a74:	4390                	lw	a2,0(a5)
    3a76:	43d4                	lw	a3,4(a5)
    3a78:	443010ef          	jal	ra,56ba <__muldf3>
    3a7c:	0000a797          	auipc	a5,0xa
    3a80:	e0478793          	addi	a5,a5,-508 # d880 <test+0x48>
    3a84:	4390                	lw	a2,0(a5)
    3a86:	43d4                	lw	a3,4(a5)
    3a88:	892a                	mv	s2,a0
    3a8a:	89ae                	mv	s3,a1
    3a8c:	8526                	mv	a0,s1
    3a8e:	85a2                	mv	a1,s0
    3a90:	42b010ef          	jal	ra,56ba <__muldf3>
    3a94:	862a                	mv	a2,a0
    3a96:	86ae                	mv	a3,a1
    3a98:	854a                	mv	a0,s2
    3a9a:	85ce                	mv	a1,s3
    3a9c:	68d000ef          	jal	ra,4928 <__adddf3>
    3aa0:	84aa                	mv	s1,a0
    3aa2:	b76d                	j	3a4c <__ieee754_asin+0x4e>
    3aa4:	3fe007b7          	lui	a5,0x3fe00
    3aa8:	89ae                	mv	s3,a1
    3aaa:	0000ab17          	auipc	s6,0xa
    3aae:	dbeb0b13          	addi	s6,s6,-578 # d868 <test+0x30>
    3ab2:	02f95a63          	bge	s2,a5,3ae6 <__ieee754_asin+0xe8>
    3ab6:	3e4007b7          	lui	a5,0x3e400
    3aba:	28f95363          	bge	s2,a5,3d40 <__ieee754_asin+0x342>
    3abe:	0000a797          	auipc	a5,0xa
    3ac2:	dca78793          	addi	a5,a5,-566 # d888 <test+0x50>
    3ac6:	4390                	lw	a2,0(a5)
    3ac8:	43d4                	lw	a3,4(a5)
    3aca:	0000ab17          	auipc	s6,0xa
    3ace:	d9eb0b13          	addi	s6,s6,-610 # d868 <test+0x30>
    3ad2:	657000ef          	jal	ra,4928 <__adddf3>
    3ad6:	000b2603          	lw	a2,0(s6)
    3ada:	004b2683          	lw	a3,4(s6)
    3ade:	32f010ef          	jal	ra,560c <__gedf2>
    3ae2:	24a04d63          	bgtz	a0,3d3c <__ieee754_asin+0x33e>
    3ae6:	8526                	mv	a0,s1
    3ae8:	85a2                	mv	a1,s0
    3aea:	253000ef          	jal	ra,453c <fabs>
    3aee:	862a                	mv	a2,a0
    3af0:	86ae                	mv	a3,a1
    3af2:	000b2503          	lw	a0,0(s6)
    3af6:	004b2583          	lw	a1,4(s6)
    3afa:	078020ef          	jal	ra,5b72 <__subdf3>
    3afe:	0000a797          	auipc	a5,0xa
    3b02:	de278793          	addi	a5,a5,-542 # d8e0 <test+0xa8>
    3b06:	4390                	lw	a2,0(a5)
    3b08:	43d4                	lw	a3,4(a5)
    3b0a:	3b1010ef          	jal	ra,56ba <__muldf3>
    3b0e:	0000a797          	auipc	a5,0xa
    3b12:	d8278793          	addi	a5,a5,-638 # d890 <test+0x58>
    3b16:	4390                	lw	a2,0(a5)
    3b18:	43d4                	lw	a3,4(a5)
    3b1a:	842a                	mv	s0,a0
    3b1c:	84ae                	mv	s1,a1
    3b1e:	39d010ef          	jal	ra,56ba <__muldf3>
    3b22:	0000a797          	auipc	a5,0xa
    3b26:	d7678793          	addi	a5,a5,-650 # d898 <test+0x60>
    3b2a:	4390                	lw	a2,0(a5)
    3b2c:	43d4                	lw	a3,4(a5)
    3b2e:	5fb000ef          	jal	ra,4928 <__adddf3>
    3b32:	8622                	mv	a2,s0
    3b34:	86a6                	mv	a3,s1
    3b36:	385010ef          	jal	ra,56ba <__muldf3>
    3b3a:	0000a797          	auipc	a5,0xa
    3b3e:	d6678793          	addi	a5,a5,-666 # d8a0 <test+0x68>
    3b42:	4390                	lw	a2,0(a5)
    3b44:	43d4                	lw	a3,4(a5)
    3b46:	02c020ef          	jal	ra,5b72 <__subdf3>
    3b4a:	8622                	mv	a2,s0
    3b4c:	86a6                	mv	a3,s1
    3b4e:	36d010ef          	jal	ra,56ba <__muldf3>
    3b52:	0000a797          	auipc	a5,0xa
    3b56:	d5678793          	addi	a5,a5,-682 # d8a8 <test+0x70>
    3b5a:	4390                	lw	a2,0(a5)
    3b5c:	43d4                	lw	a3,4(a5)
    3b5e:	5cb000ef          	jal	ra,4928 <__adddf3>
    3b62:	8622                	mv	a2,s0
    3b64:	86a6                	mv	a3,s1
    3b66:	355010ef          	jal	ra,56ba <__muldf3>
    3b6a:	0000a797          	auipc	a5,0xa
    3b6e:	d4678793          	addi	a5,a5,-698 # d8b0 <test+0x78>
    3b72:	4390                	lw	a2,0(a5)
    3b74:	43d4                	lw	a3,4(a5)
    3b76:	7fd010ef          	jal	ra,5b72 <__subdf3>
    3b7a:	8622                	mv	a2,s0
    3b7c:	86a6                	mv	a3,s1
    3b7e:	33d010ef          	jal	ra,56ba <__muldf3>
    3b82:	0000a797          	auipc	a5,0xa
    3b86:	d3678793          	addi	a5,a5,-714 # d8b8 <test+0x80>
    3b8a:	4390                	lw	a2,0(a5)
    3b8c:	43d4                	lw	a3,4(a5)
    3b8e:	59b000ef          	jal	ra,4928 <__adddf3>
    3b92:	8622                	mv	a2,s0
    3b94:	86a6                	mv	a3,s1
    3b96:	325010ef          	jal	ra,56ba <__muldf3>
    3b9a:	0000a797          	auipc	a5,0xa
    3b9e:	d2678793          	addi	a5,a5,-730 # d8c0 <test+0x88>
    3ba2:	43d4                	lw	a3,4(a5)
    3ba4:	4390                	lw	a2,0(a5)
    3ba6:	8a2a                	mv	s4,a0
    3ba8:	8aae                	mv	s5,a1
    3baa:	8522                	mv	a0,s0
    3bac:	85a6                	mv	a1,s1
    3bae:	30d010ef          	jal	ra,56ba <__muldf3>
    3bb2:	0000a797          	auipc	a5,0xa
    3bb6:	d1678793          	addi	a5,a5,-746 # d8c8 <test+0x90>
    3bba:	4390                	lw	a2,0(a5)
    3bbc:	43d4                	lw	a3,4(a5)
    3bbe:	7b5010ef          	jal	ra,5b72 <__subdf3>
    3bc2:	8622                	mv	a2,s0
    3bc4:	86a6                	mv	a3,s1
    3bc6:	2f5010ef          	jal	ra,56ba <__muldf3>
    3bca:	0000a797          	auipc	a5,0xa
    3bce:	d0678793          	addi	a5,a5,-762 # d8d0 <test+0x98>
    3bd2:	4390                	lw	a2,0(a5)
    3bd4:	43d4                	lw	a3,4(a5)
    3bd6:	553000ef          	jal	ra,4928 <__adddf3>
    3bda:	8622                	mv	a2,s0
    3bdc:	86a6                	mv	a3,s1
    3bde:	2dd010ef          	jal	ra,56ba <__muldf3>
    3be2:	0000a797          	auipc	a5,0xa
    3be6:	cf678793          	addi	a5,a5,-778 # d8d8 <test+0xa0>
    3bea:	4390                	lw	a2,0(a5)
    3bec:	43d4                	lw	a3,4(a5)
    3bee:	785010ef          	jal	ra,5b72 <__subdf3>
    3bf2:	8622                	mv	a2,s0
    3bf4:	86a6                	mv	a3,s1
    3bf6:	2c5010ef          	jal	ra,56ba <__muldf3>
    3bfa:	000b2603          	lw	a2,0(s6)
    3bfe:	004b2683          	lw	a3,4(s6)
    3c02:	527000ef          	jal	ra,4928 <__adddf3>
    3c06:	8b2a                	mv	s6,a0
    3c08:	8bae                	mv	s7,a1
    3c0a:	8522                	mv	a0,s0
    3c0c:	85a6                	mv	a1,s1
    3c0e:	2915                	jal	4042 <__ieee754_sqrt>
    3c10:	3fef37b7          	lui	a5,0x3fef3
    3c14:	33278793          	addi	a5,a5,818 # 3fef3332 <_eusrstack+0x1feeb332>
    3c18:	8caa                	mv	s9,a0
    3c1a:	8c2e                	mv	s8,a1
    3c1c:	0527dd63          	bge	a5,s2,3c76 <__ieee754_asin+0x278>
    3c20:	865a                	mv	a2,s6
    3c22:	86de                	mv	a3,s7
    3c24:	8552                	mv	a0,s4
    3c26:	85d6                	mv	a1,s5
    3c28:	430010ef          	jal	ra,5058 <__divdf3>
    3c2c:	8666                	mv	a2,s9
    3c2e:	86e2                	mv	a3,s8
    3c30:	28b010ef          	jal	ra,56ba <__muldf3>
    3c34:	8666                	mv	a2,s9
    3c36:	86e2                	mv	a3,s8
    3c38:	4f1000ef          	jal	ra,4928 <__adddf3>
    3c3c:	862a                	mv	a2,a0
    3c3e:	86ae                	mv	a3,a1
    3c40:	4e9000ef          	jal	ra,4928 <__adddf3>
    3c44:	0000a797          	auipc	a5,0xa
    3c48:	c3c78793          	addi	a5,a5,-964 # d880 <test+0x48>
    3c4c:	4390                	lw	a2,0(a5)
    3c4e:	43d4                	lw	a3,4(a5)
    3c50:	723010ef          	jal	ra,5b72 <__subdf3>
    3c54:	0000a797          	auipc	a5,0xa
    3c58:	c2478793          	addi	a5,a5,-988 # d878 <test+0x40>
    3c5c:	862a                	mv	a2,a0
    3c5e:	86ae                	mv	a3,a1
    3c60:	4388                	lw	a0,0(a5)
    3c62:	43cc                	lw	a1,4(a5)
    3c64:	70f010ef          	jal	ra,5b72 <__subdf3>
    3c68:	84aa                	mv	s1,a0
    3c6a:	df3041e3          	bgtz	s3,3a4c <__ieee754_asin+0x4e>
    3c6e:	800007b7          	lui	a5,0x80000
    3c72:	8dbd                	xor	a1,a1,a5
    3c74:	bbe1                	j	3a4c <__ieee754_asin+0x4e>
    3c76:	862a                	mv	a2,a0
    3c78:	86ae                	mv	a3,a1
    3c7a:	4af000ef          	jal	ra,4928 <__adddf3>
    3c7e:	865a                	mv	a2,s6
    3c80:	86de                	mv	a3,s7
    3c82:	8d2a                	mv	s10,a0
    3c84:	8dae                	mv	s11,a1
    3c86:	8552                	mv	a0,s4
    3c88:	85d6                	mv	a1,s5
    3c8a:	3ce010ef          	jal	ra,5058 <__divdf3>
    3c8e:	862a                	mv	a2,a0
    3c90:	86ae                	mv	a3,a1
    3c92:	856a                	mv	a0,s10
    3c94:	85ee                	mv	a1,s11
    3c96:	225010ef          	jal	ra,56ba <__muldf3>
    3c9a:	4a01                	li	s4,0
    3c9c:	8b2a                	mv	s6,a0
    3c9e:	8bae                	mv	s7,a1
    3ca0:	8652                	mv	a2,s4
    3ca2:	86e2                	mv	a3,s8
    3ca4:	8552                	mv	a0,s4
    3ca6:	85e2                	mv	a1,s8
    3ca8:	213010ef          	jal	ra,56ba <__muldf3>
    3cac:	862a                	mv	a2,a0
    3cae:	86ae                	mv	a3,a1
    3cb0:	8522                	mv	a0,s0
    3cb2:	85a6                	mv	a1,s1
    3cb4:	6bf010ef          	jal	ra,5b72 <__subdf3>
    3cb8:	842a                	mv	s0,a0
    3cba:	84ae                	mv	s1,a1
    3cbc:	8652                	mv	a2,s4
    3cbe:	86e2                	mv	a3,s8
    3cc0:	8566                	mv	a0,s9
    3cc2:	85e2                	mv	a1,s8
    3cc4:	465000ef          	jal	ra,4928 <__adddf3>
    3cc8:	862a                	mv	a2,a0
    3cca:	86ae                	mv	a3,a1
    3ccc:	8522                	mv	a0,s0
    3cce:	85a6                	mv	a1,s1
    3cd0:	388010ef          	jal	ra,5058 <__divdf3>
    3cd4:	862a                	mv	a2,a0
    3cd6:	86ae                	mv	a3,a1
    3cd8:	451000ef          	jal	ra,4928 <__adddf3>
    3cdc:	0000a797          	auipc	a5,0xa
    3ce0:	ba478793          	addi	a5,a5,-1116 # d880 <test+0x48>
    3ce4:	862a                	mv	a2,a0
    3ce6:	86ae                	mv	a3,a1
    3ce8:	4388                	lw	a0,0(a5)
    3cea:	43cc                	lw	a1,4(a5)
    3cec:	0000a417          	auipc	s0,0xa
    3cf0:	bfc40413          	addi	s0,s0,-1028 # d8e8 <test+0xb0>
    3cf4:	67f010ef          	jal	ra,5b72 <__subdf3>
    3cf8:	862a                	mv	a2,a0
    3cfa:	86ae                	mv	a3,a1
    3cfc:	855a                	mv	a0,s6
    3cfe:	85de                	mv	a1,s7
    3d00:	673010ef          	jal	ra,5b72 <__subdf3>
    3d04:	8b2a                	mv	s6,a0
    3d06:	8bae                	mv	s7,a1
    3d08:	8652                	mv	a2,s4
    3d0a:	86e2                	mv	a3,s8
    3d0c:	8552                	mv	a0,s4
    3d0e:	85e2                	mv	a1,s8
    3d10:	419000ef          	jal	ra,4928 <__adddf3>
    3d14:	862a                	mv	a2,a0
    3d16:	86ae                	mv	a3,a1
    3d18:	4008                	lw	a0,0(s0)
    3d1a:	404c                	lw	a1,4(s0)
    3d1c:	657010ef          	jal	ra,5b72 <__subdf3>
    3d20:	862a                	mv	a2,a0
    3d22:	86ae                	mv	a3,a1
    3d24:	855a                	mv	a0,s6
    3d26:	85de                	mv	a1,s7
    3d28:	64b010ef          	jal	ra,5b72 <__subdf3>
    3d2c:	862a                	mv	a2,a0
    3d2e:	86ae                	mv	a3,a1
    3d30:	4008                	lw	a0,0(s0)
    3d32:	404c                	lw	a1,4(s0)
    3d34:	63f010ef          	jal	ra,5b72 <__subdf3>
    3d38:	84aa                	mv	s1,a0
    3d3a:	bf05                	j	3c6a <__ieee754_asin+0x26c>
    3d3c:	85a2                	mv	a1,s0
    3d3e:	b339                	j	3a4c <__ieee754_asin+0x4e>
    3d40:	862a                	mv	a2,a0
    3d42:	86ae                	mv	a3,a1
    3d44:	177010ef          	jal	ra,56ba <__muldf3>
    3d48:	0000a797          	auipc	a5,0xa
    3d4c:	b4878793          	addi	a5,a5,-1208 # d890 <test+0x58>
    3d50:	4390                	lw	a2,0(a5)
    3d52:	43d4                	lw	a3,4(a5)
    3d54:	892a                	mv	s2,a0
    3d56:	89ae                	mv	s3,a1
    3d58:	163010ef          	jal	ra,56ba <__muldf3>
    3d5c:	0000a797          	auipc	a5,0xa
    3d60:	b3c78793          	addi	a5,a5,-1220 # d898 <test+0x60>
    3d64:	4390                	lw	a2,0(a5)
    3d66:	43d4                	lw	a3,4(a5)
    3d68:	3c1000ef          	jal	ra,4928 <__adddf3>
    3d6c:	864a                	mv	a2,s2
    3d6e:	86ce                	mv	a3,s3
    3d70:	14b010ef          	jal	ra,56ba <__muldf3>
    3d74:	0000a797          	auipc	a5,0xa
    3d78:	b2c78793          	addi	a5,a5,-1236 # d8a0 <test+0x68>
    3d7c:	4390                	lw	a2,0(a5)
    3d7e:	43d4                	lw	a3,4(a5)
    3d80:	5f3010ef          	jal	ra,5b72 <__subdf3>
    3d84:	864a                	mv	a2,s2
    3d86:	86ce                	mv	a3,s3
    3d88:	133010ef          	jal	ra,56ba <__muldf3>
    3d8c:	0000a797          	auipc	a5,0xa
    3d90:	b1c78793          	addi	a5,a5,-1252 # d8a8 <test+0x70>
    3d94:	4390                	lw	a2,0(a5)
    3d96:	43d4                	lw	a3,4(a5)
    3d98:	391000ef          	jal	ra,4928 <__adddf3>
    3d9c:	864a                	mv	a2,s2
    3d9e:	86ce                	mv	a3,s3
    3da0:	11b010ef          	jal	ra,56ba <__muldf3>
    3da4:	0000a797          	auipc	a5,0xa
    3da8:	b0c78793          	addi	a5,a5,-1268 # d8b0 <test+0x78>
    3dac:	4390                	lw	a2,0(a5)
    3dae:	43d4                	lw	a3,4(a5)
    3db0:	5c3010ef          	jal	ra,5b72 <__subdf3>
    3db4:	864a                	mv	a2,s2
    3db6:	86ce                	mv	a3,s3
    3db8:	103010ef          	jal	ra,56ba <__muldf3>
    3dbc:	0000a797          	auipc	a5,0xa
    3dc0:	afc78793          	addi	a5,a5,-1284 # d8b8 <test+0x80>
    3dc4:	4390                	lw	a2,0(a5)
    3dc6:	43d4                	lw	a3,4(a5)
    3dc8:	361000ef          	jal	ra,4928 <__adddf3>
    3dcc:	864a                	mv	a2,s2
    3dce:	86ce                	mv	a3,s3
    3dd0:	0eb010ef          	jal	ra,56ba <__muldf3>
    3dd4:	0000a797          	auipc	a5,0xa
    3dd8:	aec78793          	addi	a5,a5,-1300 # d8c0 <test+0x88>
    3ddc:	4390                	lw	a2,0(a5)
    3dde:	43d4                	lw	a3,4(a5)
    3de0:	8a2a                	mv	s4,a0
    3de2:	8aae                	mv	s5,a1
    3de4:	854a                	mv	a0,s2
    3de6:	85ce                	mv	a1,s3
    3de8:	0d3010ef          	jal	ra,56ba <__muldf3>
    3dec:	0000a797          	auipc	a5,0xa
    3df0:	adc78793          	addi	a5,a5,-1316 # d8c8 <test+0x90>
    3df4:	4390                	lw	a2,0(a5)
    3df6:	43d4                	lw	a3,4(a5)
    3df8:	57b010ef          	jal	ra,5b72 <__subdf3>
    3dfc:	864a                	mv	a2,s2
    3dfe:	86ce                	mv	a3,s3
    3e00:	0bb010ef          	jal	ra,56ba <__muldf3>
    3e04:	0000a797          	auipc	a5,0xa
    3e08:	acc78793          	addi	a5,a5,-1332 # d8d0 <test+0x98>
    3e0c:	4390                	lw	a2,0(a5)
    3e0e:	43d4                	lw	a3,4(a5)
    3e10:	319000ef          	jal	ra,4928 <__adddf3>
    3e14:	864a                	mv	a2,s2
    3e16:	86ce                	mv	a3,s3
    3e18:	0a3010ef          	jal	ra,56ba <__muldf3>
    3e1c:	0000a797          	auipc	a5,0xa
    3e20:	abc78793          	addi	a5,a5,-1348 # d8d8 <test+0xa0>
    3e24:	4390                	lw	a2,0(a5)
    3e26:	43d4                	lw	a3,4(a5)
    3e28:	54b010ef          	jal	ra,5b72 <__subdf3>
    3e2c:	864a                	mv	a2,s2
    3e2e:	86ce                	mv	a3,s3
    3e30:	08b010ef          	jal	ra,56ba <__muldf3>
    3e34:	0000a797          	auipc	a5,0xa
    3e38:	a3478793          	addi	a5,a5,-1484 # d868 <test+0x30>
    3e3c:	4390                	lw	a2,0(a5)
    3e3e:	43d4                	lw	a3,4(a5)
    3e40:	2e9000ef          	jal	ra,4928 <__adddf3>
    3e44:	862a                	mv	a2,a0
    3e46:	86ae                	mv	a3,a1
    3e48:	8552                	mv	a0,s4
    3e4a:	85d6                	mv	a1,s5
    3e4c:	20c010ef          	jal	ra,5058 <__divdf3>
    3e50:	8626                	mv	a2,s1
    3e52:	86a2                	mv	a3,s0
    3e54:	067010ef          	jal	ra,56ba <__muldf3>
    3e58:	8626                	mv	a2,s1
    3e5a:	86a2                	mv	a3,s0
    3e5c:	2cd000ef          	jal	ra,4928 <__adddf3>
    3e60:	84aa                	mv	s1,a0
    3e62:	b6ed                	j	3a4c <__ieee754_asin+0x4e>

00003e64 <__ieee754_atan2>:
    3e64:	40c007b3          	neg	a5,a2
    3e68:	80000737          	lui	a4,0x80000
    3e6c:	fff74713          	not	a4,a4
    3e70:	8fd1                	or	a5,a5,a2
    3e72:	1141                	addi	sp,sp,-16
    3e74:	00d77e33          	and	t3,a4,a3
    3e78:	83fd                	srli	a5,a5,0x1f
    3e7a:	c606                	sw	ra,12(sp)
    3e7c:	c422                	sw	s0,8(sp)
    3e7e:	01c7e7b3          	or	a5,a5,t3
    3e82:	7ff00337          	lui	t1,0x7ff00
    3e86:	88aa                	mv	a7,a0
    3e88:	882e                	mv	a6,a1
    3e8a:	04f36763          	bltu	t1,a5,3ed8 <__ieee754_atan2+0x74>
    3e8e:	40a007b3          	neg	a5,a0
    3e92:	8fc9                	or	a5,a5,a0
    3e94:	8f6d                	and	a4,a4,a1
    3e96:	83fd                	srli	a5,a5,0x1f
    3e98:	8fd9                	or	a5,a5,a4
    3e9a:	8f2e                	mv	t5,a1
    3e9c:	02f36e63          	bltu	t1,a5,3ed8 <__ieee754_atan2+0x74>
    3ea0:	c01007b7          	lui	a5,0xc0100
    3ea4:	97b6                	add	a5,a5,a3
    3ea6:	8fd1                	or	a5,a5,a2
    3ea8:	c7e1                	beqz	a5,3f70 <__ieee754_atan2+0x10c>
    3eaa:	41e6d413          	srai	s0,a3,0x1e
    3eae:	00247593          	andi	a1,s0,2
    3eb2:	00a767b3          	or	a5,a4,a0
    3eb6:	01f85413          	srli	s0,a6,0x1f
    3eba:	8c4d                	or	s0,s0,a1
    3ebc:	eb85                	bnez	a5,3eec <__ieee754_atan2+0x88>
    3ebe:	4789                	li	a5,2
    3ec0:	0af40c63          	beq	s0,a5,3f78 <__ieee754_atan2+0x114>
    3ec4:	478d                	li	a5,3
    3ec6:	0af41063          	bne	s0,a5,3f66 <__ieee754_atan2+0x102>
    3eca:	0000a797          	auipc	a5,0xa
    3ece:	a2e78793          	addi	a5,a5,-1490 # d8f8 <test+0xc0>
    3ed2:	4388                	lw	a0,0(a5)
    3ed4:	43cc                	lw	a1,4(a5)
    3ed6:	a039                	j	3ee4 <__ieee754_atan2+0x80>
    3ed8:	8532                	mv	a0,a2
    3eda:	85b6                	mv	a1,a3
    3edc:	8646                	mv	a2,a7
    3ede:	86c2                	mv	a3,a6
    3ee0:	249000ef          	jal	ra,4928 <__adddf3>
    3ee4:	40b2                	lw	ra,12(sp)
    3ee6:	4422                	lw	s0,8(sp)
    3ee8:	0141                	addi	sp,sp,16
    3eea:	8082                	ret
    3eec:	00ce67b3          	or	a5,t3,a2
    3ef0:	c3b5                	beqz	a5,3f54 <__ieee754_atan2+0xf0>
    3ef2:	0a6e0163          	beq	t3,t1,3f94 <__ieee754_atan2+0x130>
    3ef6:	04670f63          	beq	a4,t1,3f54 <__ieee754_atan2+0xf0>
    3efa:	41c70733          	sub	a4,a4,t3
    3efe:	8751                	srai	a4,a4,0x14
    3f00:	03c00793          	li	a5,60
    3f04:	08e7c163          	blt	a5,a4,3f86 <__ieee754_atan2+0x122>
    3f08:	0006d863          	bgez	a3,3f18 <__ieee754_atan2+0xb4>
    3f0c:	fc400793          	li	a5,-60
    3f10:	4501                	li	a0,0
    3f12:	4581                	li	a1,0
    3f14:	00f74863          	blt	a4,a5,3f24 <__ieee754_atan2+0xc0>
    3f18:	8546                	mv	a0,a7
    3f1a:	85c2                	mv	a1,a6
    3f1c:	13c010ef          	jal	ra,5058 <__divdf3>
    3f20:	2d31                	jal	453c <fabs>
    3f22:	2cdd                	jal	4218 <atan>
    3f24:	4785                	li	a5,1
    3f26:	0af40f63          	beq	s0,a5,3fe4 <__ieee754_atan2+0x180>
    3f2a:	4789                	li	a5,2
    3f2c:	08f40963          	beq	s0,a5,3fbe <__ieee754_atan2+0x15a>
    3f30:	d855                	beqz	s0,3ee4 <__ieee754_atan2+0x80>
    3f32:	0000a797          	auipc	a5,0xa
    3f36:	9f678793          	addi	a5,a5,-1546 # d928 <test+0xf0>
    3f3a:	4390                	lw	a2,0(a5)
    3f3c:	43d4                	lw	a3,4(a5)
    3f3e:	435010ef          	jal	ra,5b72 <__subdf3>
    3f42:	0000a797          	auipc	a5,0xa
    3f46:	9ae78793          	addi	a5,a5,-1618 # d8f0 <test+0xb8>
    3f4a:	4390                	lw	a2,0(a5)
    3f4c:	43d4                	lw	a3,4(a5)
    3f4e:	425010ef          	jal	ra,5b72 <__subdf3>
    3f52:	bf49                	j	3ee4 <__ieee754_atan2+0x80>
    3f54:	040f4e63          	bltz	t5,3fb0 <__ieee754_atan2+0x14c>
    3f58:	0000a797          	auipc	a5,0xa
    3f5c:	92078793          	addi	a5,a5,-1760 # d878 <test+0x40>
    3f60:	4388                	lw	a0,0(a5)
    3f62:	43cc                	lw	a1,4(a5)
    3f64:	b741                	j	3ee4 <__ieee754_atan2+0x80>
    3f66:	40b2                	lw	ra,12(sp)
    3f68:	4422                	lw	s0,8(sp)
    3f6a:	85c2                	mv	a1,a6
    3f6c:	0141                	addi	sp,sp,16
    3f6e:	8082                	ret
    3f70:	4422                	lw	s0,8(sp)
    3f72:	40b2                	lw	ra,12(sp)
    3f74:	0141                	addi	sp,sp,16
    3f76:	a44d                	j	4218 <atan>
    3f78:	0000a797          	auipc	a5,0xa
    3f7c:	97878793          	addi	a5,a5,-1672 # d8f0 <test+0xb8>
    3f80:	4388                	lw	a0,0(a5)
    3f82:	43cc                	lw	a1,4(a5)
    3f84:	b785                	j	3ee4 <__ieee754_atan2+0x80>
    3f86:	0000a797          	auipc	a5,0xa
    3f8a:	8f278793          	addi	a5,a5,-1806 # d878 <test+0x40>
    3f8e:	4388                	lw	a0,0(a5)
    3f90:	43cc                	lw	a1,4(a5)
    3f92:	bf49                	j	3f24 <__ieee754_atan2+0xc0>
    3f94:	4789                	li	a5,2
    3f96:	05c70b63          	beq	a4,t3,3fec <__ieee754_atan2+0x188>
    3f9a:	fcf40fe3          	beq	s0,a5,3f78 <__ieee754_atan2+0x114>
    3f9e:	478d                	li	a5,3
    3fa0:	f2f405e3          	beq	s0,a5,3eca <__ieee754_atan2+0x66>
    3fa4:	4785                	li	a5,1
    3fa6:	06f40263          	beq	s0,a5,400a <__ieee754_atan2+0x1a6>
    3faa:	4501                	li	a0,0
    3fac:	4581                	li	a1,0
    3fae:	bf1d                	j	3ee4 <__ieee754_atan2+0x80>
    3fb0:	0000a797          	auipc	a5,0xa
    3fb4:	95878793          	addi	a5,a5,-1704 # d908 <test+0xd0>
    3fb8:	4388                	lw	a0,0(a5)
    3fba:	43cc                	lw	a1,4(a5)
    3fbc:	b725                	j	3ee4 <__ieee754_atan2+0x80>
    3fbe:	0000a797          	auipc	a5,0xa
    3fc2:	96a78793          	addi	a5,a5,-1686 # d928 <test+0xf0>
    3fc6:	4390                	lw	a2,0(a5)
    3fc8:	43d4                	lw	a3,4(a5)
    3fca:	3a9010ef          	jal	ra,5b72 <__subdf3>
    3fce:	0000a797          	auipc	a5,0xa
    3fd2:	92278793          	addi	a5,a5,-1758 # d8f0 <test+0xb8>
    3fd6:	862a                	mv	a2,a0
    3fd8:	86ae                	mv	a3,a1
    3fda:	4388                	lw	a0,0(a5)
    3fdc:	43cc                	lw	a1,4(a5)
    3fde:	395010ef          	jal	ra,5b72 <__subdf3>
    3fe2:	b709                	j	3ee4 <__ieee754_atan2+0x80>
    3fe4:	800007b7          	lui	a5,0x80000
    3fe8:	8dbd                	xor	a1,a1,a5
    3fea:	bded                	j	3ee4 <__ieee754_atan2+0x80>
    3fec:	04f40463          	beq	s0,a5,4034 <__ieee754_atan2+0x1d0>
    3ff0:	478d                	li	a5,3
    3ff2:	02f40a63          	beq	s0,a5,4026 <__ieee754_atan2+0x1c2>
    3ff6:	4785                	li	a5,1
    3ff8:	02f40063          	beq	s0,a5,4018 <__ieee754_atan2+0x1b4>
    3ffc:	0000a797          	auipc	a5,0xa
    4000:	8ec78793          	addi	a5,a5,-1812 # d8e8 <test+0xb0>
    4004:	4388                	lw	a0,0(a5)
    4006:	43cc                	lw	a1,4(a5)
    4008:	bdf1                	j	3ee4 <__ieee754_atan2+0x80>
    400a:	0000a797          	auipc	a5,0xa
    400e:	8f678793          	addi	a5,a5,-1802 # d900 <test+0xc8>
    4012:	4388                	lw	a0,0(a5)
    4014:	43cc                	lw	a1,4(a5)
    4016:	b5f9                	j	3ee4 <__ieee754_atan2+0x80>
    4018:	0000a797          	auipc	a5,0xa
    401c:	90878793          	addi	a5,a5,-1784 # d920 <test+0xe8>
    4020:	4388                	lw	a0,0(a5)
    4022:	43cc                	lw	a1,4(a5)
    4024:	b5c1                	j	3ee4 <__ieee754_atan2+0x80>
    4026:	0000a797          	auipc	a5,0xa
    402a:	8f278793          	addi	a5,a5,-1806 # d918 <test+0xe0>
    402e:	4388                	lw	a0,0(a5)
    4030:	43cc                	lw	a1,4(a5)
    4032:	bd4d                	j	3ee4 <__ieee754_atan2+0x80>
    4034:	0000a797          	auipc	a5,0xa
    4038:	8dc78793          	addi	a5,a5,-1828 # d910 <test+0xd8>
    403c:	4388                	lw	a0,0(a5)
    403e:	43cc                	lw	a1,4(a5)
    4040:	b555                	j	3ee4 <__ieee754_atan2+0x80>

00004042 <__ieee754_sqrt>:
    4042:	1141                	addi	sp,sp,-16
    4044:	7ff00737          	lui	a4,0x7ff00
    4048:	c422                	sw	s0,8(sp)
    404a:	c226                	sw	s1,4(sp)
    404c:	c606                	sw	ra,12(sp)
    404e:	00b77833          	and	a6,a4,a1
    4052:	842e                	mv	s0,a1
    4054:	84aa                	mv	s1,a0
    4056:	16e80d63          	beq	a6,a4,41d0 <__ieee754_sqrt+0x18e>
    405a:	87ae                	mv	a5,a1
    405c:	86aa                	mv	a3,a0
    405e:	0eb05f63          	blez	a1,415c <__ieee754_sqrt+0x11a>
    4062:	4145de13          	srai	t3,a1,0x14
    4066:	1a0e0163          	beqz	t3,4208 <__ieee754_sqrt+0x1c6>
    406a:	00100737          	lui	a4,0x100
    406e:	fff70613          	addi	a2,a4,-1 # fffff <_data_lma+0xf202b>
    4072:	8ff1                	and	a5,a5,a2
    4074:	8fd9                	or	a5,a5,a4
    4076:	c01e0e13          	addi	t3,t3,-1023
    407a:	00179713          	slli	a4,a5,0x1
    407e:	001e7613          	andi	a2,t3,1
    4082:	01f6d793          	srli	a5,a3,0x1f
    4086:	97ba                	add	a5,a5,a4
    4088:	00169713          	slli	a4,a3,0x1
    408c:	c611                	beqz	a2,4098 <__ieee754_sqrt+0x56>
    408e:	837d                	srli	a4,a4,0x1f
    4090:	0786                	slli	a5,a5,0x1
    4092:	97ba                	add	a5,a5,a4
    4094:	00269713          	slli	a4,a3,0x2
    4098:	401e5e13          	srai	t3,t3,0x1
    409c:	45d9                	li	a1,22
    409e:	4e81                	li	t4,0
    40a0:	4681                	li	a3,0
    40a2:	00200637          	lui	a2,0x200
    40a6:	00c68533          	add	a0,a3,a2
    40aa:	01f75813          	srli	a6,a4,0x1f
    40ae:	15fd                	addi	a1,a1,-1
    40b0:	00a7c663          	blt	a5,a0,40bc <__ieee754_sqrt+0x7a>
    40b4:	8f89                	sub	a5,a5,a0
    40b6:	00c506b3          	add	a3,a0,a2
    40ba:	9eb2                	add	t4,t4,a2
    40bc:	0786                	slli	a5,a5,0x1
    40be:	97c2                	add	a5,a5,a6
    40c0:	0706                	slli	a4,a4,0x1
    40c2:	8205                	srli	a2,a2,0x1
    40c4:	f1ed                	bnez	a1,40a6 <__ieee754_sqrt+0x64>
    40c6:	02000513          	li	a0,32
    40ca:	4301                	li	t1,0
    40cc:	4881                	li	a7,0
    40ce:	80000637          	lui	a2,0x80000
    40d2:	a819                	j	40e8 <__ieee754_sqrt+0xa6>
    40d4:	0ed78563          	beq	a5,a3,41be <__ieee754_sqrt+0x17c>
    40d8:	01f75593          	srli	a1,a4,0x1f
    40dc:	0786                	slli	a5,a5,0x1
    40de:	157d                	addi	a0,a0,-1
    40e0:	97ae                	add	a5,a5,a1
    40e2:	0706                	slli	a4,a4,0x1
    40e4:	8205                	srli	a2,a2,0x1
    40e6:	c90d                	beqz	a0,4118 <__ieee754_sqrt+0xd6>
    40e8:	011605b3          	add	a1,a2,a7
    40ec:	fef6d4e3          	bge	a3,a5,40d4 <__ieee754_sqrt+0x92>
    40f0:	00c588b3          	add	a7,a1,a2
    40f4:	8836                	mv	a6,a3
    40f6:	0a05ce63          	bltz	a1,41b2 <__ieee754_sqrt+0x170>
    40fa:	8f95                	sub	a5,a5,a3
    40fc:	00b736b3          	sltu	a3,a4,a1
    4100:	8f95                	sub	a5,a5,a3
    4102:	8f0d                	sub	a4,a4,a1
    4104:	01f75593          	srli	a1,a4,0x1f
    4108:	0786                	slli	a5,a5,0x1
    410a:	157d                	addi	a0,a0,-1
    410c:	9332                	add	t1,t1,a2
    410e:	86c2                	mv	a3,a6
    4110:	97ae                	add	a5,a5,a1
    4112:	0706                	slli	a4,a4,0x1
    4114:	8205                	srli	a2,a2,0x1
    4116:	f969                	bnez	a0,40e8 <__ieee754_sqrt+0xa6>
    4118:	8fd9                	or	a5,a5,a4
    411a:	00135493          	srli	s1,t1,0x1
    411e:	cb89                	beqz	a5,4130 <__ieee754_sqrt+0xee>
    4120:	00130493          	addi	s1,t1,1 # 7ff00001 <_eusrstack+0x5fef8001>
    4124:	57fd                	li	a5,-1
    4126:	8085                	srli	s1,s1,0x1
    4128:	00f31463          	bne	t1,a5,4130 <__ieee754_sqrt+0xee>
    412c:	0e85                	addi	t4,t4,1
    412e:	4481                	li	s1,0
    4130:	401ed713          	srai	a4,t4,0x1
    4134:	3fe00437          	lui	s0,0x3fe00
    4138:	001efe93          	andi	t4,t4,1
    413c:	943a                	add	s0,s0,a4
    413e:	000e8563          	beqz	t4,4148 <__ieee754_sqrt+0x106>
    4142:	800007b7          	lui	a5,0x80000
    4146:	8cdd                	or	s1,s1,a5
    4148:	014e1713          	slli	a4,t3,0x14
    414c:	9722                	add	a4,a4,s0
    414e:	40b2                	lw	ra,12(sp)
    4150:	4422                	lw	s0,8(sp)
    4152:	8526                	mv	a0,s1
    4154:	85ba                	mv	a1,a4
    4156:	4492                	lw	s1,4(sp)
    4158:	0141                	addi	sp,sp,16
    415a:	8082                	ret
    415c:	00159713          	slli	a4,a1,0x1
    4160:	8305                	srli	a4,a4,0x1
    4162:	00a76833          	or	a6,a4,a0
    4166:	872e                	mv	a4,a1
    4168:	fe0803e3          	beqz	a6,414e <__ieee754_sqrt+0x10c>
    416c:	e1d9                	bnez	a1,41f2 <__ieee754_sqrt+0x1b0>
    416e:	00b6d593          	srli	a1,a3,0xb
    4172:	17ad                	addi	a5,a5,-21
    4174:	872e                	mv	a4,a1
    4176:	06d6                	slli	a3,a3,0x15
    4178:	d9fd                	beqz	a1,416e <__ieee754_sqrt+0x12c>
    417a:	0145d613          	srli	a2,a1,0x14
    417e:	ea41                	bnez	a2,420e <__ieee754_sqrt+0x1cc>
    4180:	4601                	li	a2,0
    4182:	a011                	j	4186 <__ieee754_sqrt+0x144>
    4184:	862a                	mv	a2,a0
    4186:	0706                	slli	a4,a4,0x1
    4188:	00b71593          	slli	a1,a4,0xb
    418c:	00160513          	addi	a0,a2,1 # 80000001 <_eusrstack+0x5fff8001>
    4190:	fe05dae3          	bgez	a1,4184 <__ieee754_sqrt+0x142>
    4194:	02000893          	li	a7,32
    4198:	8836                	mv	a6,a3
    419a:	40a888b3          	sub	a7,a7,a0
    419e:	85ba                	mv	a1,a4
    41a0:	00a696b3          	sll	a3,a3,a0
    41a4:	01185733          	srl	a4,a6,a7
    41a8:	40c78e33          	sub	t3,a5,a2
    41ac:	00b767b3          	or	a5,a4,a1
    41b0:	bd6d                	j	406a <__ieee754_sqrt+0x28>
    41b2:	fff8c813          	not	a6,a7
    41b6:	01f85813          	srli	a6,a6,0x1f
    41ba:	9836                	add	a6,a6,a3
    41bc:	bf3d                	j	40fa <__ieee754_sqrt+0xb8>
    41be:	f0b76de3          	bltu	a4,a1,40d8 <__ieee754_sqrt+0x96>
    41c2:	00c588b3          	add	a7,a1,a2
    41c6:	fe05c6e3          	bltz	a1,41b2 <__ieee754_sqrt+0x170>
    41ca:	883e                	mv	a6,a5
    41cc:	4781                	li	a5,0
    41ce:	bf15                	j	4102 <__ieee754_sqrt+0xc0>
    41d0:	862a                	mv	a2,a0
    41d2:	86ae                	mv	a3,a1
    41d4:	4e6010ef          	jal	ra,56ba <__muldf3>
    41d8:	8626                	mv	a2,s1
    41da:	86a2                	mv	a3,s0
    41dc:	74c000ef          	jal	ra,4928 <__adddf3>
    41e0:	40b2                	lw	ra,12(sp)
    41e2:	4422                	lw	s0,8(sp)
    41e4:	84aa                	mv	s1,a0
    41e6:	872e                	mv	a4,a1
    41e8:	8526                	mv	a0,s1
    41ea:	85ba                	mv	a1,a4
    41ec:	4492                	lw	s1,4(sp)
    41ee:	0141                	addi	sp,sp,16
    41f0:	8082                	ret
    41f2:	862a                	mv	a2,a0
    41f4:	86ae                	mv	a3,a1
    41f6:	17d010ef          	jal	ra,5b72 <__subdf3>
    41fa:	862a                	mv	a2,a0
    41fc:	86ae                	mv	a3,a1
    41fe:	65b000ef          	jal	ra,5058 <__divdf3>
    4202:	84aa                	mv	s1,a0
    4204:	872e                	mv	a4,a1
    4206:	b7a1                	j	414e <__ieee754_sqrt+0x10c>
    4208:	872e                	mv	a4,a1
    420a:	4781                	li	a5,0
    420c:	bf95                	j	4180 <__ieee754_sqrt+0x13e>
    420e:	8836                	mv	a6,a3
    4210:	02000893          	li	a7,32
    4214:	567d                	li	a2,-1
    4216:	b779                	j	41a4 <__ieee754_sqrt+0x162>

00004218 <atan>:
    4218:	7179                	addi	sp,sp,-48
    421a:	d04a                	sw	s2,32(sp)
    421c:	00159913          	slli	s2,a1,0x1
    4220:	d422                	sw	s0,40(sp)
    4222:	d226                	sw	s1,36(sp)
    4224:	ca56                	sw	s5,20(sp)
    4226:	d606                	sw	ra,44(sp)
    4228:	ce4e                	sw	s3,28(sp)
    422a:	cc52                	sw	s4,24(sp)
    422c:	c85a                	sw	s6,16(sp)
    422e:	c65e                	sw	s7,12(sp)
    4230:	00195913          	srli	s2,s2,0x1
    4234:	441007b7          	lui	a5,0x44100
    4238:	842e                	mv	s0,a1
    423a:	84aa                	mv	s1,a0
    423c:	8aae                	mv	s5,a1
    423e:	04f94663          	blt	s2,a5,428a <atan+0x72>
    4242:	7ff007b7          	lui	a5,0x7ff00
    4246:	0127ce63          	blt	a5,s2,4262 <atan+0x4a>
    424a:	00f90b63          	beq	s2,a5,4260 <atan+0x48>
    424e:	1f505363          	blez	s5,4434 <atan+0x21c>
    4252:	00009797          	auipc	a5,0x9
    4256:	62678793          	addi	a5,a5,1574 # d878 <test+0x40>
    425a:	4384                	lw	s1,0(a5)
    425c:	43c0                	lw	s0,4(a5)
    425e:	a809                	j	4270 <atan+0x58>
    4260:	d57d                	beqz	a0,424e <atan+0x36>
    4262:	8626                	mv	a2,s1
    4264:	8526                	mv	a0,s1
    4266:	86a2                	mv	a3,s0
    4268:	85a2                	mv	a1,s0
    426a:	2d7d                	jal	4928 <__adddf3>
    426c:	84aa                	mv	s1,a0
    426e:	842e                	mv	s0,a1
    4270:	85a2                	mv	a1,s0
    4272:	50b2                	lw	ra,44(sp)
    4274:	5422                	lw	s0,40(sp)
    4276:	8526                	mv	a0,s1
    4278:	5902                	lw	s2,32(sp)
    427a:	5492                	lw	s1,36(sp)
    427c:	49f2                	lw	s3,28(sp)
    427e:	4a62                	lw	s4,24(sp)
    4280:	4ad2                	lw	s5,20(sp)
    4282:	4b42                	lw	s6,16(sp)
    4284:	4bb2                	lw	s7,12(sp)
    4286:	6145                	addi	sp,sp,48
    4288:	8082                	ret
    428a:	3fdc07b7          	lui	a5,0x3fdc0
    428e:	1cf95163          	bge	s2,a5,4450 <atan+0x238>
    4292:	3e2007b7          	lui	a5,0x3e200
    4296:	16f94d63          	blt	s2,a5,4410 <atan+0x1f8>
    429a:	5a7d                	li	s4,-1
    429c:	8626                	mv	a2,s1
    429e:	86a2                	mv	a3,s0
    42a0:	8526                	mv	a0,s1
    42a2:	85a2                	mv	a1,s0
    42a4:	416010ef          	jal	ra,56ba <__muldf3>
    42a8:	862a                	mv	a2,a0
    42aa:	86ae                	mv	a3,a1
    42ac:	8b2a                	mv	s6,a0
    42ae:	8bae                	mv	s7,a1
    42b0:	40a010ef          	jal	ra,56ba <__muldf3>
    42b4:	00009797          	auipc	a5,0x9
    42b8:	69478793          	addi	a5,a5,1684 # d948 <test+0x110>
    42bc:	4390                	lw	a2,0(a5)
    42be:	43d4                	lw	a3,4(a5)
    42c0:	892a                	mv	s2,a0
    42c2:	89ae                	mv	s3,a1
    42c4:	3f6010ef          	jal	ra,56ba <__muldf3>
    42c8:	00009797          	auipc	a5,0x9
    42cc:	68878793          	addi	a5,a5,1672 # d950 <test+0x118>
    42d0:	4390                	lw	a2,0(a5)
    42d2:	43d4                	lw	a3,4(a5)
    42d4:	2d91                	jal	4928 <__adddf3>
    42d6:	864a                	mv	a2,s2
    42d8:	86ce                	mv	a3,s3
    42da:	3e0010ef          	jal	ra,56ba <__muldf3>
    42de:	00009797          	auipc	a5,0x9
    42e2:	67a78793          	addi	a5,a5,1658 # d958 <test+0x120>
    42e6:	4390                	lw	a2,0(a5)
    42e8:	43d4                	lw	a3,4(a5)
    42ea:	2d3d                	jal	4928 <__adddf3>
    42ec:	864a                	mv	a2,s2
    42ee:	86ce                	mv	a3,s3
    42f0:	3ca010ef          	jal	ra,56ba <__muldf3>
    42f4:	00009797          	auipc	a5,0x9
    42f8:	66c78793          	addi	a5,a5,1644 # d960 <test+0x128>
    42fc:	4390                	lw	a2,0(a5)
    42fe:	43d4                	lw	a3,4(a5)
    4300:	2525                	jal	4928 <__adddf3>
    4302:	864a                	mv	a2,s2
    4304:	86ce                	mv	a3,s3
    4306:	3b4010ef          	jal	ra,56ba <__muldf3>
    430a:	00009797          	auipc	a5,0x9
    430e:	65e78793          	addi	a5,a5,1630 # d968 <test+0x130>
    4312:	4390                	lw	a2,0(a5)
    4314:	43d4                	lw	a3,4(a5)
    4316:	2d09                	jal	4928 <__adddf3>
    4318:	864a                	mv	a2,s2
    431a:	86ce                	mv	a3,s3
    431c:	39e010ef          	jal	ra,56ba <__muldf3>
    4320:	00009797          	auipc	a5,0x9
    4324:	65078793          	addi	a5,a5,1616 # d970 <test+0x138>
    4328:	4390                	lw	a2,0(a5)
    432a:	43d4                	lw	a3,4(a5)
    432c:	2bf5                	jal	4928 <__adddf3>
    432e:	865a                	mv	a2,s6
    4330:	86de                	mv	a3,s7
    4332:	388010ef          	jal	ra,56ba <__muldf3>
    4336:	00009797          	auipc	a5,0x9
    433a:	64278793          	addi	a5,a5,1602 # d978 <test+0x140>
    433e:	4390                	lw	a2,0(a5)
    4340:	43d4                	lw	a3,4(a5)
    4342:	8b2a                	mv	s6,a0
    4344:	8bae                	mv	s7,a1
    4346:	854a                	mv	a0,s2
    4348:	85ce                	mv	a1,s3
    434a:	370010ef          	jal	ra,56ba <__muldf3>
    434e:	00009797          	auipc	a5,0x9
    4352:	63278793          	addi	a5,a5,1586 # d980 <test+0x148>
    4356:	4390                	lw	a2,0(a5)
    4358:	43d4                	lw	a3,4(a5)
    435a:	019010ef          	jal	ra,5b72 <__subdf3>
    435e:	864a                	mv	a2,s2
    4360:	86ce                	mv	a3,s3
    4362:	358010ef          	jal	ra,56ba <__muldf3>
    4366:	00009797          	auipc	a5,0x9
    436a:	62278793          	addi	a5,a5,1570 # d988 <test+0x150>
    436e:	4390                	lw	a2,0(a5)
    4370:	43d4                	lw	a3,4(a5)
    4372:	001010ef          	jal	ra,5b72 <__subdf3>
    4376:	864a                	mv	a2,s2
    4378:	86ce                	mv	a3,s3
    437a:	340010ef          	jal	ra,56ba <__muldf3>
    437e:	00009797          	auipc	a5,0x9
    4382:	61278793          	addi	a5,a5,1554 # d990 <test+0x158>
    4386:	4390                	lw	a2,0(a5)
    4388:	43d4                	lw	a3,4(a5)
    438a:	7e8010ef          	jal	ra,5b72 <__subdf3>
    438e:	864a                	mv	a2,s2
    4390:	86ce                	mv	a3,s3
    4392:	328010ef          	jal	ra,56ba <__muldf3>
    4396:	00009797          	auipc	a5,0x9
    439a:	60278793          	addi	a5,a5,1538 # d998 <test+0x160>
    439e:	4390                	lw	a2,0(a5)
    43a0:	43d4                	lw	a3,4(a5)
    43a2:	7d0010ef          	jal	ra,5b72 <__subdf3>
    43a6:	864a                	mv	a2,s2
    43a8:	86ce                	mv	a3,s3
    43aa:	310010ef          	jal	ra,56ba <__muldf3>
    43ae:	862a                	mv	a2,a0
    43b0:	86ae                	mv	a3,a1
    43b2:	855a                	mv	a0,s6
    43b4:	85de                	mv	a1,s7
    43b6:	2b8d                	jal	4928 <__adddf3>
    43b8:	8626                	mv	a2,s1
    43ba:	86a2                	mv	a3,s0
    43bc:	2fe010ef          	jal	ra,56ba <__muldf3>
    43c0:	57fd                	li	a5,-1
    43c2:	862a                	mv	a2,a0
    43c4:	86ae                	mv	a3,a1
    43c6:	06fa0e63          	beq	s4,a5,4442 <atan+0x22a>
    43ca:	0a0e                	slli	s4,s4,0x3
    43cc:	00009797          	auipc	a5,0x9
    43d0:	5f478793          	addi	a5,a5,1524 # d9c0 <atanlo>
    43d4:	97d2                	add	a5,a5,s4
    43d6:	4390                	lw	a2,0(a5)
    43d8:	43d4                	lw	a3,4(a5)
    43da:	00009797          	auipc	a5,0x9
    43de:	5c678793          	addi	a5,a5,1478 # d9a0 <atanhi>
    43e2:	9a3e                	add	s4,s4,a5
    43e4:	78e010ef          	jal	ra,5b72 <__subdf3>
    43e8:	8626                	mv	a2,s1
    43ea:	86a2                	mv	a3,s0
    43ec:	786010ef          	jal	ra,5b72 <__subdf3>
    43f0:	862a                	mv	a2,a0
    43f2:	86ae                	mv	a3,a1
    43f4:	000a2503          	lw	a0,0(s4)
    43f8:	004a2583          	lw	a1,4(s4)
    43fc:	776010ef          	jal	ra,5b72 <__subdf3>
    4400:	84aa                	mv	s1,a0
    4402:	842e                	mv	s0,a1
    4404:	e60ad6e3          	bgez	s5,4270 <atan+0x58>
    4408:	80000437          	lui	s0,0x80000
    440c:	8c2d                	xor	s0,s0,a1
    440e:	b58d                	j	4270 <atan+0x58>
    4410:	00009797          	auipc	a5,0x9
    4414:	47878793          	addi	a5,a5,1144 # d888 <test+0x50>
    4418:	4390                	lw	a2,0(a5)
    441a:	43d4                	lw	a3,4(a5)
    441c:	2331                	jal	4928 <__adddf3>
    441e:	00009797          	auipc	a5,0x9
    4422:	44a78793          	addi	a5,a5,1098 # d868 <test+0x30>
    4426:	4390                	lw	a2,0(a5)
    4428:	43d4                	lw	a3,4(a5)
    442a:	1e2010ef          	jal	ra,560c <__gedf2>
    442e:	e6a056e3          	blez	a0,429a <atan+0x82>
    4432:	bd3d                	j	4270 <atan+0x58>
    4434:	00009797          	auipc	a5,0x9
    4438:	4d478793          	addi	a5,a5,1236 # d908 <test+0xd0>
    443c:	4384                	lw	s1,0(a5)
    443e:	43c0                	lw	s0,4(a5)
    4440:	bd05                	j	4270 <atan+0x58>
    4442:	8526                	mv	a0,s1
    4444:	85a2                	mv	a1,s0
    4446:	72c010ef          	jal	ra,5b72 <__subdf3>
    444a:	84aa                	mv	s1,a0
    444c:	842e                	mv	s0,a1
    444e:	b50d                	j	4270 <atan+0x58>
    4450:	20f5                	jal	453c <fabs>
    4452:	3ff307b7          	lui	a5,0x3ff30
    4456:	842a                	mv	s0,a0
    4458:	84ae                	mv	s1,a1
    445a:	04f95663          	bge	s2,a5,44a6 <atan+0x28e>
    445e:	3fe607b7          	lui	a5,0x3fe60
    4462:	0af95963          	bge	s2,a5,4514 <atan+0x2fc>
    4466:	862a                	mv	a2,a0
    4468:	86ae                	mv	a3,a1
    446a:	297d                	jal	4928 <__adddf3>
    446c:	00009797          	auipc	a5,0x9
    4470:	3fc78793          	addi	a5,a5,1020 # d868 <test+0x30>
    4474:	4390                	lw	a2,0(a5)
    4476:	43d4                	lw	a3,4(a5)
    4478:	4a01                	li	s4,0
    447a:	6f8010ef          	jal	ra,5b72 <__subdf3>
    447e:	00009797          	auipc	a5,0x9
    4482:	4b278793          	addi	a5,a5,1202 # d930 <test+0xf8>
    4486:	4390                	lw	a2,0(a5)
    4488:	43d4                	lw	a3,4(a5)
    448a:	892a                	mv	s2,a0
    448c:	89ae                	mv	s3,a1
    448e:	8522                	mv	a0,s0
    4490:	85a6                	mv	a1,s1
    4492:	2959                	jal	4928 <__adddf3>
    4494:	862a                	mv	a2,a0
    4496:	86ae                	mv	a3,a1
    4498:	854a                	mv	a0,s2
    449a:	85ce                	mv	a1,s3
    449c:	3bd000ef          	jal	ra,5058 <__divdf3>
    44a0:	84aa                	mv	s1,a0
    44a2:	842e                	mv	s0,a1
    44a4:	bbe5                	j	429c <atan+0x84>
    44a6:	400387b7          	lui	a5,0x40038
    44aa:	04f95763          	bge	s2,a5,44f8 <atan+0x2e0>
    44ae:	00009917          	auipc	s2,0x9
    44b2:	48a90913          	addi	s2,s2,1162 # d938 <test+0x100>
    44b6:	00092603          	lw	a2,0(s2)
    44ba:	00492683          	lw	a3,4(s2)
    44be:	4a09                	li	s4,2
    44c0:	6b2010ef          	jal	ra,5b72 <__subdf3>
    44c4:	00092603          	lw	a2,0(s2)
    44c8:	00492683          	lw	a3,4(s2)
    44cc:	8b2a                	mv	s6,a0
    44ce:	8bae                	mv	s7,a1
    44d0:	8522                	mv	a0,s0
    44d2:	85a6                	mv	a1,s1
    44d4:	1e6010ef          	jal	ra,56ba <__muldf3>
    44d8:	00009797          	auipc	a5,0x9
    44dc:	39078793          	addi	a5,a5,912 # d868 <test+0x30>
    44e0:	4390                	lw	a2,0(a5)
    44e2:	43d4                	lw	a3,4(a5)
    44e4:	2191                	jal	4928 <__adddf3>
    44e6:	862a                	mv	a2,a0
    44e8:	86ae                	mv	a3,a1
    44ea:	855a                	mv	a0,s6
    44ec:	85de                	mv	a1,s7
    44ee:	36b000ef          	jal	ra,5058 <__divdf3>
    44f2:	84aa                	mv	s1,a0
    44f4:	842e                	mv	s0,a1
    44f6:	b35d                	j	429c <atan+0x84>
    44f8:	00009797          	auipc	a5,0x9
    44fc:	44878793          	addi	a5,a5,1096 # d940 <test+0x108>
    4500:	4388                	lw	a0,0(a5)
    4502:	43cc                	lw	a1,4(a5)
    4504:	8622                	mv	a2,s0
    4506:	86a6                	mv	a3,s1
    4508:	351000ef          	jal	ra,5058 <__divdf3>
    450c:	4a0d                	li	s4,3
    450e:	84aa                	mv	s1,a0
    4510:	842e                	mv	s0,a1
    4512:	b369                	j	429c <atan+0x84>
    4514:	00009917          	auipc	s2,0x9
    4518:	35490913          	addi	s2,s2,852 # d868 <test+0x30>
    451c:	00092603          	lw	a2,0(s2)
    4520:	00492683          	lw	a3,4(s2)
    4524:	4a05                	li	s4,1
    4526:	64c010ef          	jal	ra,5b72 <__subdf3>
    452a:	8b2a                	mv	s6,a0
    452c:	8bae                	mv	s7,a1
    452e:	00092603          	lw	a2,0(s2)
    4532:	00492683          	lw	a3,4(s2)
    4536:	8522                	mv	a0,s0
    4538:	85a6                	mv	a1,s1
    453a:	b76d                	j	44e4 <atan+0x2cc>

0000453c <fabs>:
    453c:	0586                	slli	a1,a1,0x1
    453e:	8185                	srli	a1,a1,0x1
    4540:	8082                	ret

00004542 <matherr>:
    4542:	4501                	li	a0,0
    4544:	8082                	ret

00004546 <nan>:
    4546:	00009797          	auipc	a5,0x9
    454a:	49a78793          	addi	a5,a5,1178 # d9e0 <atanlo+0x20>
    454e:	4388                	lw	a0,0(a5)
    4550:	43cc                	lw	a1,4(a5)
    4552:	8082                	ret

00004554 <__divdi3>:
    4554:	4801                	li	a6,0
    4556:	0e05c563          	bltz	a1,4640 <__divdi3+0xec>
    455a:	0006db63          	bgez	a3,4570 <__divdi3+0x1c>
    455e:	40c00633          	neg	a2,a2
    4562:	00c037b3          	snez	a5,a2
    4566:	40d006b3          	neg	a3,a3
    456a:	fff84813          	not	a6,a6
    456e:	8e9d                	sub	a3,a3,a5
    4570:	87b6                	mv	a5,a3
    4572:	8332                	mv	t1,a2
    4574:	8eaa                	mv	t4,a0
    4576:	88ae                	mv	a7,a1
    4578:	16069f63          	bnez	a3,46f6 <__divdi3+0x1a2>
    457c:	0cc5fb63          	bgeu	a1,a2,4652 <__divdi3+0xfe>
    4580:	6741                	lui	a4,0x10
    4582:	1ce66f63          	bltu	a2,a4,4760 <__divdi3+0x20c>
    4586:	010007b7          	lui	a5,0x1000
    458a:	36f66363          	bltu	a2,a5,48f0 <__divdi3+0x39c>
    458e:	01865693          	srli	a3,a2,0x18
    4592:	47e1                	li	a5,24
    4594:	00009717          	auipc	a4,0x9
    4598:	59470713          	addi	a4,a4,1428 # db28 <__clz_tab>
    459c:	9736                	add	a4,a4,a3
    459e:	2318                	lbu	a4,0(a4)
    45a0:	97ba                	add	a5,a5,a4
    45a2:	02000713          	li	a4,32
    45a6:	8f1d                	sub	a4,a4,a5
    45a8:	cb19                	beqz	a4,45be <__divdi3+0x6a>
    45aa:	00e595b3          	sll	a1,a1,a4
    45ae:	00f557b3          	srl	a5,a0,a5
    45b2:	00e61333          	sll	t1,a2,a4
    45b6:	00b7e8b3          	or	a7,a5,a1
    45ba:	00e51eb3          	sll	t4,a0,a4
    45be:	01035613          	srli	a2,t1,0x10
    45c2:	02c8d7b3          	divu	a5,a7,a2
    45c6:	01031693          	slli	a3,t1,0x10
    45ca:	82c1                	srli	a3,a3,0x10
    45cc:	010ed713          	srli	a4,t4,0x10
    45d0:	02c8f5b3          	remu	a1,a7,a2
    45d4:	02f68533          	mul	a0,a3,a5
    45d8:	05c2                	slli	a1,a1,0x10
    45da:	00e5e8b3          	or	a7,a1,a4
    45de:	00a8fa63          	bgeu	a7,a0,45f2 <__divdi3+0x9e>
    45e2:	989a                	add	a7,a7,t1
    45e4:	fff78713          	addi	a4,a5,-1 # ffffff <_data_lma+0xff202b>
    45e8:	0068e463          	bltu	a7,t1,45f0 <__divdi3+0x9c>
    45ec:	32a8e863          	bltu	a7,a0,491c <__divdi3+0x3c8>
    45f0:	87ba                	mv	a5,a4
    45f2:	40a888b3          	sub	a7,a7,a0
    45f6:	02c8d5b3          	divu	a1,a7,a2
    45fa:	0ec2                	slli	t4,t4,0x10
    45fc:	010ede93          	srli	t4,t4,0x10
    4600:	02c8f8b3          	remu	a7,a7,a2
    4604:	02b686b3          	mul	a3,a3,a1
    4608:	08c2                	slli	a7,a7,0x10
    460a:	01d8e8b3          	or	a7,a7,t4
    460e:	00d8fb63          	bgeu	a7,a3,4624 <__divdi3+0xd0>
    4612:	989a                	add	a7,a7,t1
    4614:	fff58713          	addi	a4,a1,-1
    4618:	0068e563          	bltu	a7,t1,4622 <__divdi3+0xce>
    461c:	15f9                	addi	a1,a1,-2
    461e:	00d8e363          	bltu	a7,a3,4624 <__divdi3+0xd0>
    4622:	85ba                	mv	a1,a4
    4624:	01079513          	slli	a0,a5,0x10
    4628:	8d4d                	or	a0,a0,a1
    462a:	4581                	li	a1,0
    462c:	00080963          	beqz	a6,463e <__divdi3+0xea>
    4630:	40a00533          	neg	a0,a0
    4634:	00a037b3          	snez	a5,a0
    4638:	40b005b3          	neg	a1,a1
    463c:	8d9d                	sub	a1,a1,a5
    463e:	8082                	ret
    4640:	40a00533          	neg	a0,a0
    4644:	00a037b3          	snez	a5,a0
    4648:	40b005b3          	neg	a1,a1
    464c:	8d9d                	sub	a1,a1,a5
    464e:	587d                	li	a6,-1
    4650:	b729                	j	455a <__divdi3+0x6>
    4652:	e601                	bnez	a2,465a <__divdi3+0x106>
    4654:	4305                	li	t1,1
    4656:	02d35333          	divu	t1,t1,a3
    465a:	6741                	lui	a4,0x10
    465c:	0ee36963          	bltu	t1,a4,474e <__divdi3+0x1fa>
    4660:	010007b7          	lui	a5,0x1000
    4664:	28f36a63          	bltu	t1,a5,48f8 <__divdi3+0x3a4>
    4668:	01835693          	srli	a3,t1,0x18
    466c:	47e1                	li	a5,24
    466e:	00009717          	auipc	a4,0x9
    4672:	4ba70713          	addi	a4,a4,1210 # db28 <__clz_tab>
    4676:	9736                	add	a4,a4,a3
    4678:	2318                	lbu	a4,0(a4)
    467a:	97ba                	add	a5,a5,a4
    467c:	02000713          	li	a4,32
    4680:	8f1d                	sub	a4,a4,a5
    4682:	eb65                	bnez	a4,4772 <__divdi3+0x21e>
    4684:	01031893          	slli	a7,t1,0x10
    4688:	406586b3          	sub	a3,a1,t1
    468c:	01035f13          	srli	t5,t1,0x10
    4690:	0108d893          	srli	a7,a7,0x10
    4694:	4585                	li	a1,1
    4696:	010ed713          	srli	a4,t4,0x10
    469a:	03e6d7b3          	divu	a5,a3,t5
    469e:	03e6f6b3          	remu	a3,a3,t5
    46a2:	03178633          	mul	a2,a5,a7
    46a6:	06c2                	slli	a3,a3,0x10
    46a8:	8f55                	or	a4,a4,a3
    46aa:	00c77a63          	bgeu	a4,a2,46be <__divdi3+0x16a>
    46ae:	971a                	add	a4,a4,t1
    46b0:	fff78693          	addi	a3,a5,-1 # ffffff <_data_lma+0xff202b>
    46b4:	00676463          	bltu	a4,t1,46bc <__divdi3+0x168>
    46b8:	26c76563          	bltu	a4,a2,4922 <__divdi3+0x3ce>
    46bc:	87b6                	mv	a5,a3
    46be:	8f11                	sub	a4,a4,a2
    46c0:	03e756b3          	divu	a3,a4,t5
    46c4:	0ec2                	slli	t4,t4,0x10
    46c6:	010ede93          	srli	t4,t4,0x10
    46ca:	03e77733          	remu	a4,a4,t5
    46ce:	031688b3          	mul	a7,a3,a7
    46d2:	0742                	slli	a4,a4,0x10
    46d4:	01d76733          	or	a4,a4,t4
    46d8:	01177b63          	bgeu	a4,a7,46ee <__divdi3+0x19a>
    46dc:	971a                	add	a4,a4,t1
    46de:	fff68613          	addi	a2,a3,-1
    46e2:	00676563          	bltu	a4,t1,46ec <__divdi3+0x198>
    46e6:	16f9                	addi	a3,a3,-2
    46e8:	01176363          	bltu	a4,a7,46ee <__divdi3+0x19a>
    46ec:	86b2                	mv	a3,a2
    46ee:	01079513          	slli	a0,a5,0x10
    46f2:	8d55                	or	a0,a0,a3
    46f4:	bf25                	j	462c <__divdi3+0xd8>
    46f6:	04d5e163          	bltu	a1,a3,4738 <__divdi3+0x1e4>
    46fa:	67c1                	lui	a5,0x10
    46fc:	04f6e163          	bltu	a3,a5,473e <__divdi3+0x1ea>
    4700:	010007b7          	lui	a5,0x1000
    4704:	1ef6e263          	bltu	a3,a5,48e8 <__divdi3+0x394>
    4708:	0186d893          	srli	a7,a3,0x18
    470c:	4761                	li	a4,24
    470e:	00009797          	auipc	a5,0x9
    4712:	41a78793          	addi	a5,a5,1050 # db28 <__clz_tab>
    4716:	97c6                	add	a5,a5,a7
    4718:	0007c303          	lbu	t1,0(a5)
    471c:	02000793          	li	a5,32
    4720:	933a                	add	t1,t1,a4
    4722:	406787b3          	sub	a5,a5,t1
    4726:	ebe9                	bnez	a5,47f8 <__divdi3+0x2a4>
    4728:	1cb6ec63          	bltu	a3,a1,4900 <__divdi3+0x3ac>
    472c:	00c53533          	sltu	a0,a0,a2
    4730:	00154513          	xori	a0,a0,1
    4734:	4581                	li	a1,0
    4736:	bddd                	j	462c <__divdi3+0xd8>
    4738:	4581                	li	a1,0
    473a:	4501                	li	a0,0
    473c:	bdc5                	j	462c <__divdi3+0xd8>
    473e:	0ff00793          	li	a5,255
    4742:	1cd7f263          	bgeu	a5,a3,4906 <__divdi3+0x3b2>
    4746:	0086d893          	srli	a7,a3,0x8
    474a:	4721                	li	a4,8
    474c:	b7c9                	j	470e <__divdi3+0x1ba>
    474e:	0ff00713          	li	a4,255
    4752:	869a                	mv	a3,t1
    4754:	f0677de3          	bgeu	a4,t1,466e <__divdi3+0x11a>
    4758:	00835693          	srli	a3,t1,0x8
    475c:	47a1                	li	a5,8
    475e:	bf01                	j	466e <__divdi3+0x11a>
    4760:	0ff00713          	li	a4,255
    4764:	86b2                	mv	a3,a2
    4766:	e2c777e3          	bgeu	a4,a2,4594 <__divdi3+0x40>
    476a:	00865693          	srli	a3,a2,0x8
    476e:	47a1                	li	a5,8
    4770:	b515                	j	4594 <__divdi3+0x40>
    4772:	00e31333          	sll	t1,t1,a4
    4776:	00f5d633          	srl	a2,a1,a5
    477a:	01035f13          	srli	t5,t1,0x10
    477e:	03e65e33          	divu	t3,a2,t5
    4782:	00e596b3          	sll	a3,a1,a4
    4786:	00f557b3          	srl	a5,a0,a5
    478a:	8edd                	or	a3,a3,a5
    478c:	01031893          	slli	a7,t1,0x10
    4790:	0108d893          	srli	a7,a7,0x10
    4794:	00e51eb3          	sll	t4,a0,a4
    4798:	0106d593          	srli	a1,a3,0x10
    479c:	03e677b3          	remu	a5,a2,t5
    47a0:	03c88733          	mul	a4,a7,t3
    47a4:	07c2                	slli	a5,a5,0x10
    47a6:	8fcd                	or	a5,a5,a1
    47a8:	00e7fb63          	bgeu	a5,a4,47be <__divdi3+0x26a>
    47ac:	979a                	add	a5,a5,t1
    47ae:	fffe0613          	addi	a2,t3,-1
    47b2:	1667e363          	bltu	a5,t1,4918 <__divdi3+0x3c4>
    47b6:	16e7f163          	bgeu	a5,a4,4918 <__divdi3+0x3c4>
    47ba:	1e79                	addi	t3,t3,-2
    47bc:	979a                	add	a5,a5,t1
    47be:	8f99                	sub	a5,a5,a4
    47c0:	03e7d633          	divu	a2,a5,t5
    47c4:	01069713          	slli	a4,a3,0x10
    47c8:	8341                	srli	a4,a4,0x10
    47ca:	03e7f7b3          	remu	a5,a5,t5
    47ce:	02c88533          	mul	a0,a7,a2
    47d2:	01079693          	slli	a3,a5,0x10
    47d6:	8ed9                	or	a3,a3,a4
    47d8:	00a6fb63          	bgeu	a3,a0,47ee <__divdi3+0x29a>
    47dc:	969a                	add	a3,a3,t1
    47de:	fff60793          	addi	a5,a2,-1
    47e2:	1266e763          	bltu	a3,t1,4910 <__divdi3+0x3bc>
    47e6:	12a6f563          	bgeu	a3,a0,4910 <__divdi3+0x3bc>
    47ea:	1679                	addi	a2,a2,-2
    47ec:	969a                	add	a3,a3,t1
    47ee:	010e1593          	slli	a1,t3,0x10
    47f2:	8e89                	sub	a3,a3,a0
    47f4:	8dd1                	or	a1,a1,a2
    47f6:	b545                	j	4696 <__divdi3+0x142>
    47f8:	00665733          	srl	a4,a2,t1
    47fc:	00f696b3          	sll	a3,a3,a5
    4800:	8ed9                	or	a3,a3,a4
    4802:	0065d8b3          	srl	a7,a1,t1
    4806:	0106df13          	srli	t5,a3,0x10
    480a:	03e8deb3          	divu	t4,a7,t5
    480e:	01069e13          	slli	t3,a3,0x10
    4812:	00655333          	srl	t1,a0,t1
    4816:	010e5e13          	srli	t3,t3,0x10
    481a:	00f595b3          	sll	a1,a1,a5
    481e:	00b365b3          	or	a1,t1,a1
    4822:	0105d713          	srli	a4,a1,0x10
    4826:	00f61633          	sll	a2,a2,a5
    482a:	03e8f8b3          	remu	a7,a7,t5
    482e:	03de0333          	mul	t1,t3,t4
    4832:	08c2                	slli	a7,a7,0x10
    4834:	00e8e733          	or	a4,a7,a4
    4838:	00677b63          	bgeu	a4,t1,484e <__divdi3+0x2fa>
    483c:	9736                	add	a4,a4,a3
    483e:	fffe8893          	addi	a7,t4,-1
    4842:	0cd76963          	bltu	a4,a3,4914 <__divdi3+0x3c0>
    4846:	0c677763          	bgeu	a4,t1,4914 <__divdi3+0x3c0>
    484a:	1ef9                	addi	t4,t4,-2
    484c:	9736                	add	a4,a4,a3
    484e:	40670733          	sub	a4,a4,t1
    4852:	03e75333          	divu	t1,a4,t5
    4856:	05c2                	slli	a1,a1,0x10
    4858:	81c1                	srli	a1,a1,0x10
    485a:	03e77733          	remu	a4,a4,t5
    485e:	026e08b3          	mul	a7,t3,t1
    4862:	0742                	slli	a4,a4,0x10
    4864:	8dd9                	or	a1,a1,a4
    4866:	0115fb63          	bgeu	a1,a7,487c <__divdi3+0x328>
    486a:	95b6                	add	a1,a1,a3
    486c:	fff30713          	addi	a4,t1,-1
    4870:	08d5ee63          	bltu	a1,a3,490c <__divdi3+0x3b8>
    4874:	0915fc63          	bgeu	a1,a7,490c <__divdi3+0x3b8>
    4878:	1379                	addi	t1,t1,-2
    487a:	95b6                	add	a1,a1,a3
    487c:	0ec2                	slli	t4,t4,0x10
    487e:	6f41                	lui	t5,0x10
    4880:	006eeeb3          	or	t4,t4,t1
    4884:	ffff0713          	addi	a4,t5,-1 # ffff <_data_lma+0x202b>
    4888:	00eef6b3          	and	a3,t4,a4
    488c:	010ed313          	srli	t1,t4,0x10
    4890:	8f71                	and	a4,a4,a2
    4892:	8241                	srli	a2,a2,0x10
    4894:	02e68e33          	mul	t3,a3,a4
    4898:	411585b3          	sub	a1,a1,a7
    489c:	02c686b3          	mul	a3,a3,a2
    48a0:	010e5893          	srli	a7,t3,0x10
    48a4:	02e30733          	mul	a4,t1,a4
    48a8:	96ba                	add	a3,a3,a4
    48aa:	96c6                	add	a3,a3,a7
    48ac:	02c30633          	mul	a2,t1,a2
    48b0:	00e6f363          	bgeu	a3,a4,48b6 <__divdi3+0x362>
    48b4:	967a                	add	a2,a2,t5
    48b6:	0106d313          	srli	t1,a3,0x10
    48ba:	961a                	add	a2,a2,t1
    48bc:	02c5e263          	bltu	a1,a2,48e0 <__divdi3+0x38c>
    48c0:	00c58563          	beq	a1,a2,48ca <__divdi3+0x376>
    48c4:	8576                	mv	a0,t4
    48c6:	4581                	li	a1,0
    48c8:	b395                	j	462c <__divdi3+0xd8>
    48ca:	6741                	lui	a4,0x10
    48cc:	177d                	addi	a4,a4,-1
    48ce:	8ef9                	and	a3,a3,a4
    48d0:	06c2                	slli	a3,a3,0x10
    48d2:	00ee7e33          	and	t3,t3,a4
    48d6:	00f517b3          	sll	a5,a0,a5
    48da:	96f2                	add	a3,a3,t3
    48dc:	fed7f4e3          	bgeu	a5,a3,48c4 <__divdi3+0x370>
    48e0:	fffe8513          	addi	a0,t4,-1
    48e4:	4581                	li	a1,0
    48e6:	b399                	j	462c <__divdi3+0xd8>
    48e8:	0106d893          	srli	a7,a3,0x10
    48ec:	4741                	li	a4,16
    48ee:	b505                	j	470e <__divdi3+0x1ba>
    48f0:	01065693          	srli	a3,a2,0x10
    48f4:	47c1                	li	a5,16
    48f6:	b979                	j	4594 <__divdi3+0x40>
    48f8:	01035693          	srli	a3,t1,0x10
    48fc:	47c1                	li	a5,16
    48fe:	bb85                	j	466e <__divdi3+0x11a>
    4900:	4581                	li	a1,0
    4902:	4505                	li	a0,1
    4904:	b325                	j	462c <__divdi3+0xd8>
    4906:	88b6                	mv	a7,a3
    4908:	4701                	li	a4,0
    490a:	b511                	j	470e <__divdi3+0x1ba>
    490c:	833a                	mv	t1,a4
    490e:	b7bd                	j	487c <__divdi3+0x328>
    4910:	863e                	mv	a2,a5
    4912:	bdf1                	j	47ee <__divdi3+0x29a>
    4914:	8ec6                	mv	t4,a7
    4916:	bf25                	j	484e <__divdi3+0x2fa>
    4918:	8e32                	mv	t3,a2
    491a:	b555                	j	47be <__divdi3+0x26a>
    491c:	17f9                	addi	a5,a5,-2
    491e:	989a                	add	a7,a7,t1
    4920:	b9c9                	j	45f2 <__divdi3+0x9e>
    4922:	17f9                	addi	a5,a5,-2
    4924:	971a                	add	a4,a4,t1
    4926:	bb61                	j	46be <__divdi3+0x16a>

00004928 <__adddf3>:
    4928:	00100837          	lui	a6,0x100
    492c:	1101                	addi	sp,sp,-32
    492e:	187d                	addi	a6,a6,-1
    4930:	00b87733          	and	a4,a6,a1
    4934:	ca26                	sw	s1,20(sp)
    4936:	00d87833          	and	a6,a6,a3
    493a:	0145d493          	srli	s1,a1,0x14
    493e:	0146d313          	srli	t1,a3,0x14
    4942:	00371e13          	slli	t3,a4,0x3
    4946:	c64e                	sw	s3,12(sp)
    4948:	01d55713          	srli	a4,a0,0x1d
    494c:	080e                	slli	a6,a6,0x3
    494e:	01d65793          	srli	a5,a2,0x1d
    4952:	7ff4f493          	andi	s1,s1,2047
    4956:	7ff37313          	andi	t1,t1,2047
    495a:	ce06                	sw	ra,28(sp)
    495c:	cc22                	sw	s0,24(sp)
    495e:	c84a                	sw	s2,16(sp)
    4960:	01f5d993          	srli	s3,a1,0x1f
    4964:	01f6de93          	srli	t4,a3,0x1f
    4968:	01c76733          	or	a4,a4,t3
    496c:	00351f13          	slli	t5,a0,0x3
    4970:	0107e833          	or	a6,a5,a6
    4974:	00361f93          	slli	t6,a2,0x3
    4978:	40648e33          	sub	t3,s1,t1
    497c:	19d98063          	beq	s3,t4,4afc <__adddf3+0x1d4>
    4980:	13c05663          	blez	t3,4aac <__adddf3+0x184>
    4984:	1c030463          	beqz	t1,4b4c <__adddf3+0x224>
    4988:	008006b7          	lui	a3,0x800
    498c:	7ff00793          	li	a5,2047
    4990:	00d86833          	or	a6,a6,a3
    4994:	36f48f63          	beq	s1,a5,4d12 <__adddf3+0x3ea>
    4998:	03800793          	li	a5,56
    499c:	35c7c063          	blt	a5,t3,4cdc <__adddf3+0x3b4>
    49a0:	47fd                	li	a5,31
    49a2:	47c7cd63          	blt	a5,t3,4e1c <__adddf3+0x4f4>
    49a6:	02000513          	li	a0,32
    49aa:	41c50533          	sub	a0,a0,t3
    49ae:	01cfd7b3          	srl	a5,t6,t3
    49b2:	00a816b3          	sll	a3,a6,a0
    49b6:	00af9933          	sll	s2,t6,a0
    49ba:	8edd                	or	a3,a3,a5
    49bc:	01203933          	snez	s2,s2
    49c0:	01c857b3          	srl	a5,a6,t3
    49c4:	0126e933          	or	s2,a3,s2
    49c8:	8f1d                	sub	a4,a4,a5
    49ca:	412f0933          	sub	s2,t5,s2
    49ce:	012f37b3          	sltu	a5,t5,s2
    49d2:	40f70633          	sub	a2,a4,a5
    49d6:	00861793          	slli	a5,a2,0x8
    49da:	2407d463          	bgez	a5,4c22 <__adddf3+0x2fa>
    49de:	00800737          	lui	a4,0x800
    49e2:	177d                	addi	a4,a4,-1
    49e4:	00e67433          	and	s0,a2,a4
    49e8:	2c040c63          	beqz	s0,4cc0 <__adddf3+0x398>
    49ec:	8522                	mv	a0,s0
    49ee:	379020ef          	jal	ra,7566 <__clzsi2>
    49f2:	ff850713          	addi	a4,a0,-8
    49f6:	02000793          	li	a5,32
    49fa:	8f99                	sub	a5,a5,a4
    49fc:	00f957b3          	srl	a5,s2,a5
    4a00:	00e41633          	sll	a2,s0,a4
    4a04:	8fd1                	or	a5,a5,a2
    4a06:	00e91933          	sll	s2,s2,a4
    4a0a:	2a974163          	blt	a4,s1,4cac <__adddf3+0x384>
    4a0e:	40970533          	sub	a0,a4,s1
    4a12:	00150613          	addi	a2,a0,1
    4a16:	477d                	li	a4,31
    4a18:	38c74d63          	blt	a4,a2,4db2 <__adddf3+0x48a>
    4a1c:	02000713          	li	a4,32
    4a20:	8f11                	sub	a4,a4,a2
    4a22:	00c956b3          	srl	a3,s2,a2
    4a26:	00e91933          	sll	s2,s2,a4
    4a2a:	00e79733          	sll	a4,a5,a4
    4a2e:	8f55                	or	a4,a4,a3
    4a30:	01203933          	snez	s2,s2
    4a34:	01276933          	or	s2,a4,s2
    4a38:	00c7d633          	srl	a2,a5,a2
    4a3c:	4481                	li	s1,0
    4a3e:	00797793          	andi	a5,s2,7
    4a42:	cf81                	beqz	a5,4a5a <__adddf3+0x132>
    4a44:	00f97713          	andi	a4,s2,15
    4a48:	4791                	li	a5,4
    4a4a:	00f70863          	beq	a4,a5,4a5a <__adddf3+0x132>
    4a4e:	00490713          	addi	a4,s2,4
    4a52:	01273933          	sltu	s2,a4,s2
    4a56:	964a                	add	a2,a2,s2
    4a58:	893a                	mv	s2,a4
    4a5a:	00861793          	slli	a5,a2,0x8
    4a5e:	1c07d663          	bgez	a5,4c2a <__adddf3+0x302>
    4a62:	00148513          	addi	a0,s1,1
    4a66:	7ff00793          	li	a5,2047
    4a6a:	85ce                	mv	a1,s3
    4a6c:	20f50463          	beq	a0,a5,4c74 <__adddf3+0x34c>
    4a70:	ff8007b7          	lui	a5,0xff800
    4a74:	17fd                	addi	a5,a5,-1
    4a76:	8ff1                	and	a5,a5,a2
    4a78:	01d79893          	slli	a7,a5,0x1d
    4a7c:	00395913          	srli	s2,s2,0x3
    4a80:	07a6                	slli	a5,a5,0x9
    4a82:	0128e8b3          	or	a7,a7,s2
    4a86:	83b1                	srli	a5,a5,0xc
    4a88:	7ff57513          	andi	a0,a0,2047
    4a8c:	00c79693          	slli	a3,a5,0xc
    4a90:	0552                	slli	a0,a0,0x14
    4a92:	40f2                	lw	ra,28(sp)
    4a94:	4462                	lw	s0,24(sp)
    4a96:	82b1                	srli	a3,a3,0xc
    4a98:	05fe                	slli	a1,a1,0x1f
    4a9a:	8ec9                	or	a3,a3,a0
    4a9c:	8ecd                	or	a3,a3,a1
    4a9e:	44d2                	lw	s1,20(sp)
    4aa0:	4942                	lw	s2,16(sp)
    4aa2:	49b2                	lw	s3,12(sp)
    4aa4:	8546                	mv	a0,a7
    4aa6:	85b6                	mv	a1,a3
    4aa8:	6105                	addi	sp,sp,32
    4aaa:	8082                	ret
    4aac:	0a0e1e63          	bnez	t3,4b68 <__adddf3+0x240>
    4ab0:	00148313          	addi	t1,s1,1
    4ab4:	7fe37313          	andi	t1,t1,2046
    4ab8:	22031763          	bnez	t1,4ce6 <__adddf3+0x3be>
    4abc:	01e767b3          	or	a5,a4,t5
    4ac0:	01f868b3          	or	a7,a6,t6
    4ac4:	1a049d63          	bnez	s1,4c7e <__adddf3+0x356>
    4ac8:	40078763          	beqz	a5,4ed6 <__adddf3+0x5ae>
    4acc:	44088663          	beqz	a7,4f18 <__adddf3+0x5f0>
    4ad0:	41ff0933          	sub	s2,t5,t6
    4ad4:	410707b3          	sub	a5,a4,a6
    4ad8:	012f3633          	sltu	a2,t5,s2
    4adc:	40c78633          	sub	a2,a5,a2
    4ae0:	00861793          	slli	a5,a2,0x8
    4ae4:	4c07d663          	bgez	a5,4fb0 <__adddf3+0x688>
    4ae8:	41ef8933          	sub	s2,t6,t5
    4aec:	40e807b3          	sub	a5,a6,a4
    4af0:	012fb633          	sltu	a2,t6,s2
    4af4:	40c78633          	sub	a2,a5,a2
    4af8:	89f6                	mv	s3,t4
    4afa:	b791                	j	4a3e <__adddf3+0x116>
    4afc:	0fc05063          	blez	t3,4bdc <__adddf3+0x2b4>
    4b00:	0c030063          	beqz	t1,4bc0 <__adddf3+0x298>
    4b04:	008006b7          	lui	a3,0x800
    4b08:	7ff00793          	li	a5,2047
    4b0c:	00d86833          	or	a6,a6,a3
    4b10:	3af48a63          	beq	s1,a5,4ec4 <__adddf3+0x59c>
    4b14:	03800793          	li	a5,56
    4b18:	13c7cb63          	blt	a5,t3,4c4e <__adddf3+0x326>
    4b1c:	47fd                	li	a5,31
    4b1e:	35c7df63          	bge	a5,t3,4e7c <__adddf3+0x554>
    4b22:	fe0e0913          	addi	s2,t3,-32
    4b26:	02000793          	li	a5,32
    4b2a:	012856b3          	srl	a3,a6,s2
    4b2e:	00fe0a63          	beq	t3,a5,4b42 <__adddf3+0x21a>
    4b32:	04000913          	li	s2,64
    4b36:	41c90933          	sub	s2,s2,t3
    4b3a:	01281933          	sll	s2,a6,s2
    4b3e:	012fefb3          	or	t6,t6,s2
    4b42:	01f03933          	snez	s2,t6
    4b46:	00d96933          	or	s2,s2,a3
    4b4a:	a231                	j	4c56 <__adddf3+0x32e>
    4b4c:	01f867b3          	or	a5,a6,t6
    4b50:	1c078a63          	beqz	a5,4d24 <__adddf3+0x3fc>
    4b54:	fffe0793          	addi	a5,t3,-1
    4b58:	38078c63          	beqz	a5,4ef0 <__adddf3+0x5c8>
    4b5c:	7ff00693          	li	a3,2047
    4b60:	1ade0963          	beq	t3,a3,4d12 <__adddf3+0x3ea>
    4b64:	8e3e                	mv	t3,a5
    4b66:	bd0d                	j	4998 <__adddf3+0x70>
    4b68:	409305b3          	sub	a1,t1,s1
    4b6c:	22049163          	bnez	s1,4d8e <__adddf3+0x466>
    4b70:	01e767b3          	or	a5,a4,t5
    4b74:	32078763          	beqz	a5,4ea2 <__adddf3+0x57a>
    4b78:	fff58793          	addi	a5,a1,-1
    4b7c:	44078163          	beqz	a5,4fbe <__adddf3+0x696>
    4b80:	7ff00693          	li	a3,2047
    4b84:	20d58c63          	beq	a1,a3,4d9c <__adddf3+0x474>
    4b88:	85be                	mv	a1,a5
    4b8a:	03800793          	li	a5,56
    4b8e:	2ab7cc63          	blt	a5,a1,4e46 <__adddf3+0x51e>
    4b92:	47fd                	li	a5,31
    4b94:	3cb7cf63          	blt	a5,a1,4f72 <__adddf3+0x64a>
    4b98:	02000793          	li	a5,32
    4b9c:	8f8d                	sub	a5,a5,a1
    4b9e:	00f71933          	sll	s2,a4,a5
    4ba2:	00bf56b3          	srl	a3,t5,a1
    4ba6:	00ff17b3          	sll	a5,t5,a5
    4baa:	00d96933          	or	s2,s2,a3
    4bae:	00f037b3          	snez	a5,a5
    4bb2:	00b75733          	srl	a4,a4,a1
    4bb6:	00f96933          	or	s2,s2,a5
    4bba:	40e80833          	sub	a6,a6,a4
    4bbe:	ac41                	j	4e4e <__adddf3+0x526>
    4bc0:	01f867b3          	or	a5,a6,t6
    4bc4:	34078063          	beqz	a5,4f04 <__adddf3+0x5dc>
    4bc8:	fffe0793          	addi	a5,t3,-1
    4bcc:	20078a63          	beqz	a5,4de0 <__adddf3+0x4b8>
    4bd0:	7ff00693          	li	a3,2047
    4bd4:	2ede0863          	beq	t3,a3,4ec4 <__adddf3+0x59c>
    4bd8:	8e3e                	mv	t3,a5
    4bda:	bf2d                	j	4b14 <__adddf3+0x1ec>
    4bdc:	140e1e63          	bnez	t3,4d38 <__adddf3+0x410>
    4be0:	00148693          	addi	a3,s1,1
    4be4:	7fe6f793          	andi	a5,a3,2046
    4be8:	34079163          	bnez	a5,4f2a <__adddf3+0x602>
    4bec:	01e767b3          	or	a5,a4,t5
    4bf0:	2c049563          	bnez	s1,4eba <__adddf3+0x592>
    4bf4:	3e078063          	beqz	a5,4fd4 <__adddf3+0x6ac>
    4bf8:	01f867b3          	or	a5,a6,t6
    4bfc:	30078e63          	beqz	a5,4f18 <__adddf3+0x5f0>
    4c00:	01ff0933          	add	s2,t5,t6
    4c04:	010707b3          	add	a5,a4,a6
    4c08:	01e93f33          	sltu	t5,s2,t5
    4c0c:	01e78633          	add	a2,a5,t5
    4c10:	00861793          	slli	a5,a2,0x8
    4c14:	0007d763          	bgez	a5,4c22 <__adddf3+0x2fa>
    4c18:	ff8007b7          	lui	a5,0xff800
    4c1c:	17fd                	addi	a5,a5,-1
    4c1e:	8e7d                	and	a2,a2,a5
    4c20:	4485                	li	s1,1
    4c22:	00797793          	andi	a5,s2,7
    4c26:	e0079fe3          	bnez	a5,4a44 <__adddf3+0x11c>
    4c2a:	01d61793          	slli	a5,a2,0x1d
    4c2e:	00395893          	srli	a7,s2,0x3
    4c32:	00f8e8b3          	or	a7,a7,a5
    4c36:	00365793          	srli	a5,a2,0x3
    4c3a:	7ff00713          	li	a4,2047
    4c3e:	04e48d63          	beq	s1,a4,4c98 <__adddf3+0x370>
    4c42:	07b2                	slli	a5,a5,0xc
    4c44:	83b1                	srli	a5,a5,0xc
    4c46:	7ff4f513          	andi	a0,s1,2047
    4c4a:	85ce                	mv	a1,s3
    4c4c:	b581                	j	4a8c <__adddf3+0x164>
    4c4e:	01f86933          	or	s2,a6,t6
    4c52:	01203933          	snez	s2,s2
    4c56:	997a                	add	s2,s2,t5
    4c58:	01e937b3          	sltu	a5,s2,t5
    4c5c:	00e78633          	add	a2,a5,a4
    4c60:	00861793          	slli	a5,a2,0x8
    4c64:	fa07dfe3          	bgez	a5,4c22 <__adddf3+0x2fa>
    4c68:	0485                	addi	s1,s1,1
    4c6a:	7ff00793          	li	a5,2047
    4c6e:	18f49663          	bne	s1,a5,4dfa <__adddf3+0x4d2>
    4c72:	85ce                	mv	a1,s3
    4c74:	7ff00513          	li	a0,2047
    4c78:	4781                	li	a5,0
    4c7a:	4881                	li	a7,0
    4c7c:	bd01                	j	4a8c <__adddf3+0x164>
    4c7e:	ebc1                	bnez	a5,4d0e <__adddf3+0x3e6>
    4c80:	3a088463          	beqz	a7,5028 <__adddf3+0x700>
    4c84:	00361693          	slli	a3,a2,0x3
    4c88:	01d81793          	slli	a5,a6,0x1d
    4c8c:	828d                	srli	a3,a3,0x3
    4c8e:	00d7e8b3          	or	a7,a5,a3
    4c92:	89f6                	mv	s3,t4
    4c94:	00385793          	srli	a5,a6,0x3
    4c98:	00f8e7b3          	or	a5,a7,a5
    4c9c:	dbf9                	beqz	a5,4c72 <__adddf3+0x34a>
    4c9e:	4581                	li	a1,0
    4ca0:	7ff00513          	li	a0,2047
    4ca4:	000807b7          	lui	a5,0x80
    4ca8:	4881                	li	a7,0
    4caa:	b3cd                	j	4a8c <__adddf3+0x164>
    4cac:	ff800637          	lui	a2,0xff800
    4cb0:	167d                	addi	a2,a2,-1
    4cb2:	8e7d                	and	a2,a2,a5
    4cb4:	00797793          	andi	a5,s2,7
    4cb8:	8c99                	sub	s1,s1,a4
    4cba:	d80795e3          	bnez	a5,4a44 <__adddf3+0x11c>
    4cbe:	b7b5                	j	4c2a <__adddf3+0x302>
    4cc0:	854a                	mv	a0,s2
    4cc2:	0a5020ef          	jal	ra,7566 <__clzsi2>
    4cc6:	01850713          	addi	a4,a0,24
    4cca:	47fd                	li	a5,31
    4ccc:	d2e7d5e3          	bge	a5,a4,49f6 <__adddf3+0xce>
    4cd0:	ff850613          	addi	a2,a0,-8
    4cd4:	00c917b3          	sll	a5,s2,a2
    4cd8:	4901                	li	s2,0
    4cda:	bb05                	j	4a0a <__adddf3+0xe2>
    4cdc:	01f86933          	or	s2,a6,t6
    4ce0:	01203933          	snez	s2,s2
    4ce4:	b1dd                	j	49ca <__adddf3+0xa2>
    4ce6:	41ff0933          	sub	s2,t5,t6
    4cea:	41070633          	sub	a2,a4,a6
    4cee:	012f3433          	sltu	s0,t5,s2
    4cf2:	40860433          	sub	s0,a2,s0
    4cf6:	00841793          	slli	a5,s0,0x8
    4cfa:	2407cd63          	bltz	a5,4f54 <__adddf3+0x62c>
    4cfe:	008968b3          	or	a7,s2,s0
    4d02:	ce0893e3          	bnez	a7,49e8 <__adddf3+0xc0>
    4d06:	4781                	li	a5,0
    4d08:	4981                	li	s3,0
    4d0a:	4481                	li	s1,0
    4d0c:	bf1d                	j	4c42 <__adddf3+0x31a>
    4d0e:	f80898e3          	bnez	a7,4c9e <__adddf3+0x376>
    4d12:	050e                	slli	a0,a0,0x3
    4d14:	01d71793          	slli	a5,a4,0x1d
    4d18:	810d                	srli	a0,a0,0x3
    4d1a:	00a7e8b3          	or	a7,a5,a0
    4d1e:	00375793          	srli	a5,a4,0x3
    4d22:	bf9d                	j	4c98 <__adddf3+0x370>
    4d24:	050e                	slli	a0,a0,0x3
    4d26:	01d71793          	slli	a5,a4,0x1d
    4d2a:	810d                	srli	a0,a0,0x3
    4d2c:	00a7e8b3          	or	a7,a5,a0
    4d30:	84f2                	mv	s1,t3
    4d32:	00375793          	srli	a5,a4,0x3
    4d36:	b711                	j	4c3a <__adddf3+0x312>
    4d38:	40930533          	sub	a0,t1,s1
    4d3c:	12048263          	beqz	s1,4e60 <__adddf3+0x538>
    4d40:	008006b7          	lui	a3,0x800
    4d44:	7ff00793          	li	a5,2047
    4d48:	8f55                	or	a4,a4,a3
    4d4a:	2ef30d63          	beq	t1,a5,5044 <__adddf3+0x71c>
    4d4e:	03800793          	li	a5,56
    4d52:	20a7cb63          	blt	a5,a0,4f68 <__adddf3+0x640>
    4d56:	47fd                	li	a5,31
    4d58:	2aa7c363          	blt	a5,a0,4ffe <__adddf3+0x6d6>
    4d5c:	02000793          	li	a5,32
    4d60:	8f89                	sub	a5,a5,a0
    4d62:	00f71933          	sll	s2,a4,a5
    4d66:	00af56b3          	srl	a3,t5,a0
    4d6a:	00ff17b3          	sll	a5,t5,a5
    4d6e:	00d96933          	or	s2,s2,a3
    4d72:	00f037b3          	snez	a5,a5
    4d76:	00a75733          	srl	a4,a4,a0
    4d7a:	00f96933          	or	s2,s2,a5
    4d7e:	983a                	add	a6,a6,a4
    4d80:	997e                	add	s2,s2,t6
    4d82:	01f937b3          	sltu	a5,s2,t6
    4d86:	01078633          	add	a2,a5,a6
    4d8a:	849a                	mv	s1,t1
    4d8c:	bdd1                	j	4c60 <__adddf3+0x338>
    4d8e:	008006b7          	lui	a3,0x800
    4d92:	7ff00793          	li	a5,2047
    4d96:	8f55                	or	a4,a4,a3
    4d98:	def319e3          	bne	t1,a5,4b8a <__adddf3+0x262>
    4d9c:	00361793          	slli	a5,a2,0x3
    4da0:	838d                	srli	a5,a5,0x3
    4da2:	01d81893          	slli	a7,a6,0x1d
    4da6:	0117e8b3          	or	a7,a5,a7
    4daa:	89f6                	mv	s3,t4
    4dac:	00385793          	srli	a5,a6,0x3
    4db0:	b5e5                	j	4c98 <__adddf3+0x370>
    4db2:	fe150713          	addi	a4,a0,-31
    4db6:	02000693          	li	a3,32
    4dba:	00e7d733          	srl	a4,a5,a4
    4dbe:	00d60a63          	beq	a2,a3,4dd2 <__adddf3+0x4aa>
    4dc2:	04000693          	li	a3,64
    4dc6:	40c68633          	sub	a2,a3,a2
    4dca:	00c79633          	sll	a2,a5,a2
    4dce:	00c96933          	or	s2,s2,a2
    4dd2:	01203933          	snez	s2,s2
    4dd6:	00e96933          	or	s2,s2,a4
    4dda:	4601                	li	a2,0
    4ddc:	4481                	li	s1,0
    4dde:	b591                	j	4c22 <__adddf3+0x2fa>
    4de0:	01ff0933          	add	s2,t5,t6
    4de4:	010707b3          	add	a5,a4,a6
    4de8:	01e93633          	sltu	a2,s2,t5
    4dec:	963e                	add	a2,a2,a5
    4dee:	00861793          	slli	a5,a2,0x8
    4df2:	4485                	li	s1,1
    4df4:	e207d7e3          	bgez	a5,4c22 <__adddf3+0x2fa>
    4df8:	4489                	li	s1,2
    4dfa:	ff8007b7          	lui	a5,0xff800
    4dfe:	17fd                	addi	a5,a5,-1
    4e00:	8ff1                	and	a5,a5,a2
    4e02:	00195713          	srli	a4,s2,0x1
    4e06:	00197913          	andi	s2,s2,1
    4e0a:	01276933          	or	s2,a4,s2
    4e0e:	01f79893          	slli	a7,a5,0x1f
    4e12:	0128e933          	or	s2,a7,s2
    4e16:	0017d613          	srli	a2,a5,0x1
    4e1a:	b115                	j	4a3e <__adddf3+0x116>
    4e1c:	fe0e0913          	addi	s2,t3,-32
    4e20:	02000793          	li	a5,32
    4e24:	012856b3          	srl	a3,a6,s2
    4e28:	00fe0a63          	beq	t3,a5,4e3c <__adddf3+0x514>
    4e2c:	04000913          	li	s2,64
    4e30:	41c90933          	sub	s2,s2,t3
    4e34:	01281933          	sll	s2,a6,s2
    4e38:	012fefb3          	or	t6,t6,s2
    4e3c:	01f03933          	snez	s2,t6
    4e40:	00d96933          	or	s2,s2,a3
    4e44:	b659                	j	49ca <__adddf3+0xa2>
    4e46:	01e76933          	or	s2,a4,t5
    4e4a:	01203933          	snez	s2,s2
    4e4e:	412f8933          	sub	s2,t6,s2
    4e52:	012fb7b3          	sltu	a5,t6,s2
    4e56:	40f80633          	sub	a2,a6,a5
    4e5a:	849a                	mv	s1,t1
    4e5c:	89f6                	mv	s3,t4
    4e5e:	bea5                	j	49d6 <__adddf3+0xae>
    4e60:	01e767b3          	or	a5,a4,t5
    4e64:	18078263          	beqz	a5,4fe8 <__adddf3+0x6c0>
    4e68:	fff50793          	addi	a5,a0,-1
    4e6c:	1c078463          	beqz	a5,5034 <__adddf3+0x70c>
    4e70:	7ff00693          	li	a3,2047
    4e74:	12d50463          	beq	a0,a3,4f9c <__adddf3+0x674>
    4e78:	853e                	mv	a0,a5
    4e7a:	bdd1                	j	4d4e <__adddf3+0x426>
    4e7c:	02000793          	li	a5,32
    4e80:	41c787b3          	sub	a5,a5,t3
    4e84:	00f816b3          	sll	a3,a6,a5
    4e88:	00ff9933          	sll	s2,t6,a5
    4e8c:	01cfd633          	srl	a2,t6,t3
    4e90:	8ed1                	or	a3,a3,a2
    4e92:	01203933          	snez	s2,s2
    4e96:	01c857b3          	srl	a5,a6,t3
    4e9a:	0126e933          	or	s2,a3,s2
    4e9e:	973e                	add	a4,a4,a5
    4ea0:	bb5d                	j	4c56 <__adddf3+0x32e>
    4ea2:	00361793          	slli	a5,a2,0x3
    4ea6:	838d                	srli	a5,a5,0x3
    4ea8:	01d81893          	slli	a7,a6,0x1d
    4eac:	0117e8b3          	or	a7,a5,a7
    4eb0:	84ae                	mv	s1,a1
    4eb2:	00385793          	srli	a5,a6,0x3
    4eb6:	89f6                	mv	s3,t4
    4eb8:	b349                	j	4c3a <__adddf3+0x312>
    4eba:	c3ed                	beqz	a5,4f9c <__adddf3+0x674>
    4ebc:	01f86933          	or	s2,a6,t6
    4ec0:	dc091fe3          	bnez	s2,4c9e <__adddf3+0x376>
    4ec4:	050e                	slli	a0,a0,0x3
    4ec6:	01d71793          	slli	a5,a4,0x1d
    4eca:	810d                	srli	a0,a0,0x3
    4ecc:	00f568b3          	or	a7,a0,a5
    4ed0:	00375793          	srli	a5,a4,0x3
    4ed4:	b3d1                	j	4c98 <__adddf3+0x370>
    4ed6:	0e088163          	beqz	a7,4fb8 <__adddf3+0x690>
    4eda:	00361693          	slli	a3,a2,0x3
    4ede:	01d81793          	slli	a5,a6,0x1d
    4ee2:	828d                	srli	a3,a3,0x3
    4ee4:	00d7e8b3          	or	a7,a5,a3
    4ee8:	89f6                	mv	s3,t4
    4eea:	00385793          	srli	a5,a6,0x3
    4eee:	bb91                	j	4c42 <__adddf3+0x31a>
    4ef0:	41ff0933          	sub	s2,t5,t6
    4ef4:	410707b3          	sub	a5,a4,a6
    4ef8:	012f3f33          	sltu	t5,t5,s2
    4efc:	41e78633          	sub	a2,a5,t5
    4f00:	4485                	li	s1,1
    4f02:	bcd1                	j	49d6 <__adddf3+0xae>
    4f04:	050e                	slli	a0,a0,0x3
    4f06:	01d71793          	slli	a5,a4,0x1d
    4f0a:	810d                	srli	a0,a0,0x3
    4f0c:	00f568b3          	or	a7,a0,a5
    4f10:	84f2                	mv	s1,t3
    4f12:	00375793          	srli	a5,a4,0x3
    4f16:	b315                	j	4c3a <__adddf3+0x312>
    4f18:	050e                	slli	a0,a0,0x3
    4f1a:	01d71793          	slli	a5,a4,0x1d
    4f1e:	810d                	srli	a0,a0,0x3
    4f20:	00a7e8b3          	or	a7,a5,a0
    4f24:	00375793          	srli	a5,a4,0x3
    4f28:	bb29                	j	4c42 <__adddf3+0x31a>
    4f2a:	7ff00793          	li	a5,2047
    4f2e:	d4f682e3          	beq	a3,a5,4c72 <__adddf3+0x34a>
    4f32:	01ff0933          	add	s2,t5,t6
    4f36:	01e93633          	sltu	a2,s2,t5
    4f3a:	010707b3          	add	a5,a4,a6
    4f3e:	97b2                	add	a5,a5,a2
    4f40:	01f79893          	slli	a7,a5,0x1f
    4f44:	00195913          	srli	s2,s2,0x1
    4f48:	0128e933          	or	s2,a7,s2
    4f4c:	0017d613          	srli	a2,a5,0x1
    4f50:	84b6                	mv	s1,a3
    4f52:	b9c1                	j	4c22 <__adddf3+0x2fa>
    4f54:	41ef8933          	sub	s2,t6,t5
    4f58:	40e80733          	sub	a4,a6,a4
    4f5c:	012fb633          	sltu	a2,t6,s2
    4f60:	40c70433          	sub	s0,a4,a2
    4f64:	89f6                	mv	s3,t4
    4f66:	b449                	j	49e8 <__adddf3+0xc0>
    4f68:	01e76933          	or	s2,a4,t5
    4f6c:	01203933          	snez	s2,s2
    4f70:	bd01                	j	4d80 <__adddf3+0x458>
    4f72:	fe058793          	addi	a5,a1,-32
    4f76:	02000693          	li	a3,32
    4f7a:	00f757b3          	srl	a5,a4,a5
    4f7e:	00d58a63          	beq	a1,a3,4f92 <__adddf3+0x66a>
    4f82:	04000693          	li	a3,64
    4f86:	40b685b3          	sub	a1,a3,a1
    4f8a:	00b71733          	sll	a4,a4,a1
    4f8e:	00ef6f33          	or	t5,t5,a4
    4f92:	01e03933          	snez	s2,t5
    4f96:	00f96933          	or	s2,s2,a5
    4f9a:	bd55                	j	4e4e <__adddf3+0x526>
    4f9c:	00361793          	slli	a5,a2,0x3
    4fa0:	838d                	srli	a5,a5,0x3
    4fa2:	01d81893          	slli	a7,a6,0x1d
    4fa6:	0117e8b3          	or	a7,a5,a7
    4faa:	00385793          	srli	a5,a6,0x3
    4fae:	b1ed                	j	4c98 <__adddf3+0x370>
    4fb0:	00c968b3          	or	a7,s2,a2
    4fb4:	c60897e3          	bnez	a7,4c22 <__adddf3+0x2fa>
    4fb8:	4781                	li	a5,0
    4fba:	4981                	li	s3,0
    4fbc:	b159                	j	4c42 <__adddf3+0x31a>
    4fbe:	41ef8933          	sub	s2,t6,t5
    4fc2:	40e807b3          	sub	a5,a6,a4
    4fc6:	012fb633          	sltu	a2,t6,s2
    4fca:	40c78633          	sub	a2,a5,a2
    4fce:	89f6                	mv	s3,t4
    4fd0:	4485                	li	s1,1
    4fd2:	b411                	j	49d6 <__adddf3+0xae>
    4fd4:	00361693          	slli	a3,a2,0x3
    4fd8:	01d81793          	slli	a5,a6,0x1d
    4fdc:	828d                	srli	a3,a3,0x3
    4fde:	00d7e8b3          	or	a7,a5,a3
    4fe2:	00385793          	srli	a5,a6,0x3
    4fe6:	b9b1                	j	4c42 <__adddf3+0x31a>
    4fe8:	00361693          	slli	a3,a2,0x3
    4fec:	01d81793          	slli	a5,a6,0x1d
    4ff0:	828d                	srli	a3,a3,0x3
    4ff2:	00d7e8b3          	or	a7,a5,a3
    4ff6:	84aa                	mv	s1,a0
    4ff8:	00385793          	srli	a5,a6,0x3
    4ffc:	b93d                	j	4c3a <__adddf3+0x312>
    4ffe:	fe050793          	addi	a5,a0,-32
    5002:	02000693          	li	a3,32
    5006:	00f757b3          	srl	a5,a4,a5
    500a:	00d50a63          	beq	a0,a3,501e <__adddf3+0x6f6>
    500e:	04000693          	li	a3,64
    5012:	40a68533          	sub	a0,a3,a0
    5016:	00a71733          	sll	a4,a4,a0
    501a:	00ef6f33          	or	t5,t5,a4
    501e:	01e03933          	snez	s2,t5
    5022:	00f96933          	or	s2,s2,a5
    5026:	bba9                	j	4d80 <__adddf3+0x458>
    5028:	4581                	li	a1,0
    502a:	7ff00513          	li	a0,2047
    502e:	000807b7          	lui	a5,0x80
    5032:	bca9                	j	4a8c <__adddf3+0x164>
    5034:	01ff0933          	add	s2,t5,t6
    5038:	010707b3          	add	a5,a4,a6
    503c:	01f93633          	sltu	a2,s2,t6
    5040:	963e                	add	a2,a2,a5
    5042:	b375                	j	4dee <__adddf3+0x4c6>
    5044:	00361693          	slli	a3,a2,0x3
    5048:	01d81793          	slli	a5,a6,0x1d
    504c:	828d                	srli	a3,a3,0x3
    504e:	00d7e8b3          	or	a7,a5,a3
    5052:	00385793          	srli	a5,a6,0x3
    5056:	b189                	j	4c98 <__adddf3+0x370>

00005058 <__divdf3>:
    5058:	7139                	addi	sp,sp,-64
    505a:	0145d793          	srli	a5,a1,0x14
    505e:	dc22                	sw	s0,56(sp)
    5060:	d84a                	sw	s2,48(sp)
    5062:	d256                	sw	s5,36(sp)
    5064:	892a                	mv	s2,a0
    5066:	00c59413          	slli	s0,a1,0xc
    506a:	de06                	sw	ra,60(sp)
    506c:	da26                	sw	s1,52(sp)
    506e:	d64e                	sw	s3,44(sp)
    5070:	d452                	sw	s4,40(sp)
    5072:	d05a                	sw	s6,32(sp)
    5074:	ce5e                	sw	s7,28(sp)
    5076:	7ff7f513          	andi	a0,a5,2047
    507a:	8031                	srli	s0,s0,0xc
    507c:	01f5da93          	srli	s5,a1,0x1f
    5080:	10050b63          	beqz	a0,5196 <__divdf3+0x13e>
    5084:	7ff00793          	li	a5,2047
    5088:	14f50b63          	beq	a0,a5,51de <__divdf3+0x186>
    508c:	01d95a13          	srli	s4,s2,0x1d
    5090:	040e                	slli	s0,s0,0x3
    5092:	008a6433          	or	s0,s4,s0
    5096:	00800a37          	lui	s4,0x800
    509a:	01446a33          	or	s4,s0,s4
    509e:	00391b13          	slli	s6,s2,0x3
    50a2:	c0150493          	addi	s1,a0,-1023
    50a6:	4401                	li	s0,0
    50a8:	4b81                	li	s7,0
    50aa:	0146d813          	srli	a6,a3,0x14
    50ae:	00c69913          	slli	s2,a3,0xc
    50b2:	7ff87813          	andi	a6,a6,2047
    50b6:	88b2                	mv	a7,a2
    50b8:	00c95913          	srli	s2,s2,0xc
    50bc:	01f6d993          	srli	s3,a3,0x1f
    50c0:	08080e63          	beqz	a6,515c <__divdf3+0x104>
    50c4:	7ff00793          	li	a5,2047
    50c8:	04f80063          	beq	a6,a5,5108 <__divdf3+0xb0>
    50cc:	01d65713          	srli	a4,a2,0x1d
    50d0:	090e                	slli	s2,s2,0x3
    50d2:	01276933          	or	s2,a4,s2
    50d6:	c0180813          	addi	a6,a6,-1023 # ffc01 <_data_lma+0xf1c2d>
    50da:	008007b7          	lui	a5,0x800
    50de:	00f96733          	or	a4,s2,a5
    50e2:	00361893          	slli	a7,a2,0x3
    50e6:	410484b3          	sub	s1,s1,a6
    50ea:	4581                	li	a1,0
    50ec:	47bd                	li	a5,15
    50ee:	013ac833          	xor	a6,s5,s3
    50f2:	1a87e463          	bltu	a5,s0,529a <__divdf3+0x242>
    50f6:	00009797          	auipc	a5,0x9
    50fa:	8f278793          	addi	a5,a5,-1806 # d9e8 <atanlo+0x28>
    50fe:	040a                	slli	s0,s0,0x2
    5100:	943e                	add	s0,s0,a5
    5102:	4010                	lw	a2,0(s0)
    5104:	963e                	add	a2,a2,a5
    5106:	8602                	jr	a2
    5108:	00c96733          	or	a4,s2,a2
    510c:	80148493          	addi	s1,s1,-2047
    5110:	10071263          	bnez	a4,5214 <__divdf3+0x1bc>
    5114:	00246413          	ori	s0,s0,2
    5118:	4881                	li	a7,0
    511a:	4589                	li	a1,2
    511c:	bfc1                	j	50ec <__divdf3+0x94>
    511e:	7ff00613          	li	a2,2047
    5122:	4781                	li	a5,0
    5124:	4701                	li	a4,0
    5126:	07b2                	slli	a5,a5,0xc
    5128:	50f2                	lw	ra,60(sp)
    512a:	5462                	lw	s0,56(sp)
    512c:	0652                	slli	a2,a2,0x14
    512e:	83b1                	srli	a5,a5,0xc
    5130:	087e                	slli	a6,a6,0x1f
    5132:	8fd1                	or	a5,a5,a2
    5134:	0107e7b3          	or	a5,a5,a6
    5138:	54d2                	lw	s1,52(sp)
    513a:	5942                	lw	s2,48(sp)
    513c:	59b2                	lw	s3,44(sp)
    513e:	5a22                	lw	s4,40(sp)
    5140:	5a92                	lw	s5,36(sp)
    5142:	5b02                	lw	s6,32(sp)
    5144:	4bf2                	lw	s7,28(sp)
    5146:	853a                	mv	a0,a4
    5148:	85be                	mv	a1,a5
    514a:	6121                	addi	sp,sp,64
    514c:	8082                	ret
    514e:	4801                	li	a6,0
    5150:	7ff00613          	li	a2,2047
    5154:	000807b7          	lui	a5,0x80
    5158:	4701                	li	a4,0
    515a:	b7f1                	j	5126 <__divdf3+0xce>
    515c:	00c96733          	or	a4,s2,a2
    5160:	c74d                	beqz	a4,520a <__divdf3+0x1b2>
    5162:	30090863          	beqz	s2,5472 <__divdf3+0x41a>
    5166:	854a                	mv	a0,s2
    5168:	c432                	sw	a2,8(sp)
    516a:	3fc020ef          	jal	ra,7566 <__clzsi2>
    516e:	4622                	lw	a2,8(sp)
    5170:	ff550713          	addi	a4,a0,-11
    5174:	47f5                	li	a5,29
    5176:	ff850693          	addi	a3,a0,-8
    517a:	8f99                	sub	a5,a5,a4
    517c:	00d91933          	sll	s2,s2,a3
    5180:	00f657b3          	srl	a5,a2,a5
    5184:	0127e733          	or	a4,a5,s2
    5188:	00d618b3          	sll	a7,a2,a3
    518c:	9526                	add	a0,a0,s1
    518e:	3f350493          	addi	s1,a0,1011
    5192:	4581                	li	a1,0
    5194:	bfa1                	j	50ec <__divdf3+0x94>
    5196:	01246a33          	or	s4,s0,s2
    519a:	060a0363          	beqz	s4,5200 <__divdf3+0x1a8>
    519e:	c636                	sw	a3,12(sp)
    51a0:	c432                	sw	a2,8(sp)
    51a2:	2a040663          	beqz	s0,544e <__divdf3+0x3f6>
    51a6:	8522                	mv	a0,s0
    51a8:	3be020ef          	jal	ra,7566 <__clzsi2>
    51ac:	4622                	lw	a2,8(sp)
    51ae:	46b2                	lw	a3,12(sp)
    51b0:	84aa                	mv	s1,a0
    51b2:	ff550713          	addi	a4,a0,-11
    51b6:	4a75                	li	s4,29
    51b8:	ff848b13          	addi	s6,s1,-8
    51bc:	40ea0a33          	sub	s4,s4,a4
    51c0:	01641433          	sll	s0,s0,s6
    51c4:	01495a33          	srl	s4,s2,s4
    51c8:	008a6a33          	or	s4,s4,s0
    51cc:	01691b33          	sll	s6,s2,s6
    51d0:	c0d00513          	li	a0,-1011
    51d4:	409504b3          	sub	s1,a0,s1
    51d8:	4401                	li	s0,0
    51da:	4b81                	li	s7,0
    51dc:	b5f9                	j	50aa <__divdf3+0x52>
    51de:	01246a33          	or	s4,s0,s2
    51e2:	000a1863          	bnez	s4,51f2 <__divdf3+0x19a>
    51e6:	4421                	li	s0,8
    51e8:	4b01                	li	s6,0
    51ea:	7ff00493          	li	s1,2047
    51ee:	4b89                	li	s7,2
    51f0:	bd6d                	j	50aa <__divdf3+0x52>
    51f2:	8a22                	mv	s4,s0
    51f4:	8b4a                	mv	s6,s2
    51f6:	4431                	li	s0,12
    51f8:	7ff00493          	li	s1,2047
    51fc:	4b8d                	li	s7,3
    51fe:	b575                	j	50aa <__divdf3+0x52>
    5200:	4411                	li	s0,4
    5202:	4b01                	li	s6,0
    5204:	4481                	li	s1,0
    5206:	4b85                	li	s7,1
    5208:	b54d                	j	50aa <__divdf3+0x52>
    520a:	00146413          	ori	s0,s0,1
    520e:	4881                	li	a7,0
    5210:	4585                	li	a1,1
    5212:	bde9                	j	50ec <__divdf3+0x94>
    5214:	00346413          	ori	s0,s0,3
    5218:	874a                	mv	a4,s2
    521a:	458d                	li	a1,3
    521c:	bdc1                	j	50ec <__divdf3+0x94>
    521e:	2e050a63          	beqz	a0,5512 <__divdf3+0x4ba>
    5222:	4785                	li	a5,1
    5224:	8f89                	sub	a5,a5,a0
    5226:	03800693          	li	a3,56
    522a:	32f6dd63          	bge	a3,a5,5564 <__divdf3+0x50c>
    522e:	4601                	li	a2,0
    5230:	4781                	li	a5,0
    5232:	4701                	li	a4,0
    5234:	bdcd                	j	5126 <__divdf3+0xce>
    5236:	86ce                	mv	a3,s3
    5238:	4789                	li	a5,2
    523a:	3af58d63          	beq	a1,a5,55f4 <__divdf3+0x59c>
    523e:	478d                	li	a5,3
    5240:	f0f587e3          	beq	a1,a5,514e <__divdf3+0xf6>
    5244:	4785                	li	a5,1
    5246:	8836                	mv	a6,a3
    5248:	fef583e3          	beq	a1,a5,522e <__divdf3+0x1d6>
    524c:	3ff48513          	addi	a0,s1,1023
    5250:	fca057e3          	blez	a0,521e <__divdf3+0x1c6>
    5254:	0078f793          	andi	a5,a7,7
    5258:	28079663          	bnez	a5,54e4 <__divdf3+0x48c>
    525c:	0038d693          	srli	a3,a7,0x3
    5260:	00771793          	slli	a5,a4,0x7
    5264:	0007d863          	bgez	a5,5274 <__divdf3+0x21c>
    5268:	ff0007b7          	lui	a5,0xff000
    526c:	17fd                	addi	a5,a5,-1
    526e:	8f7d                	and	a4,a4,a5
    5270:	40048513          	addi	a0,s1,1024
    5274:	7fe00793          	li	a5,2046
    5278:	eaa7c3e3          	blt	a5,a0,511e <__divdf3+0xc6>
    527c:	01d71613          	slli	a2,a4,0x1d
    5280:	00971793          	slli	a5,a4,0x9
    5284:	83b1                	srli	a5,a5,0xc
    5286:	00d66733          	or	a4,a2,a3
    528a:	7ff57613          	andi	a2,a0,2047
    528e:	bd61                	j	5126 <__divdf3+0xce>
    5290:	86d6                	mv	a3,s5
    5292:	8752                	mv	a4,s4
    5294:	88da                	mv	a7,s6
    5296:	85de                	mv	a1,s7
    5298:	b745                	j	5238 <__divdf3+0x1e0>
    529a:	23476163          	bltu	a4,s4,54bc <__divdf3+0x464>
    529e:	20ea0d63          	beq	s4,a4,54b8 <__divdf3+0x460>
    52a2:	86da                	mv	a3,s6
    52a4:	14fd                	addi	s1,s1,-1
    52a6:	8452                	mv	s0,s4
    52a8:	4b01                	li	s6,0
    52aa:	00871793          	slli	a5,a4,0x8
    52ae:	0188d313          	srli	t1,a7,0x18
    52b2:	00f36333          	or	t1,t1,a5
    52b6:	01035e93          	srli	t4,t1,0x10
    52ba:	03d457b3          	divu	a5,s0,t4
    52be:	01031f13          	slli	t5,t1,0x10
    52c2:	010f5f13          	srli	t5,t5,0x10
    52c6:	0106d593          	srli	a1,a3,0x10
    52ca:	00889e13          	slli	t3,a7,0x8
    52ce:	03d47433          	remu	s0,s0,t4
    52d2:	02ff0733          	mul	a4,t5,a5
    52d6:	0442                	slli	s0,s0,0x10
    52d8:	8dc1                	or	a1,a1,s0
    52da:	00e5fb63          	bgeu	a1,a4,52f0 <__divdf3+0x298>
    52de:	959a                	add	a1,a1,t1
    52e0:	fff78613          	addi	a2,a5,-1 # feffffff <_eusrstack+0xdeff7fff>
    52e4:	2665ee63          	bltu	a1,t1,5560 <__divdf3+0x508>
    52e8:	26e5fc63          	bgeu	a1,a4,5560 <__divdf3+0x508>
    52ec:	17f9                	addi	a5,a5,-2
    52ee:	959a                	add	a1,a1,t1
    52f0:	8d99                	sub	a1,a1,a4
    52f2:	03d5d733          	divu	a4,a1,t4
    52f6:	06c2                	slli	a3,a3,0x10
    52f8:	82c1                	srli	a3,a3,0x10
    52fa:	03d5f5b3          	remu	a1,a1,t4
    52fe:	02ef0633          	mul	a2,t5,a4
    5302:	05c2                	slli	a1,a1,0x10
    5304:	8dd5                	or	a1,a1,a3
    5306:	00c5fb63          	bgeu	a1,a2,531c <__divdf3+0x2c4>
    530a:	959a                	add	a1,a1,t1
    530c:	fff70693          	addi	a3,a4,-1 # 7fffff <_data_lma+0x7f202b>
    5310:	2465e663          	bltu	a1,t1,555c <__divdf3+0x504>
    5314:	24c5f463          	bgeu	a1,a2,555c <__divdf3+0x504>
    5318:	1779                	addi	a4,a4,-2
    531a:	959a                	add	a1,a1,t1
    531c:	07c2                	slli	a5,a5,0x10
    531e:	6441                	lui	s0,0x10
    5320:	8f5d                	or	a4,a4,a5
    5322:	fff40793          	addi	a5,s0,-1 # ffff <_data_lma+0x202b>
    5326:	00f77533          	and	a0,a4,a5
    532a:	01075893          	srli	a7,a4,0x10
    532e:	010e5f93          	srli	t6,t3,0x10
    5332:	00fe77b3          	and	a5,t3,a5
    5336:	02f502b3          	mul	t0,a0,a5
    533a:	40c586b3          	sub	a3,a1,a2
    533e:	02f883b3          	mul	t2,a7,a5
    5342:	0102d593          	srli	a1,t0,0x10
    5346:	02af8633          	mul	a2,t6,a0
    534a:	961e                	add	a2,a2,t2
    534c:	962e                	add	a2,a2,a1
    534e:	03f88533          	mul	a0,a7,t6
    5352:	00767363          	bgeu	a2,t2,5358 <__divdf3+0x300>
    5356:	9522                	add	a0,a0,s0
    5358:	68c1                	lui	a7,0x10
    535a:	18fd                	addi	a7,a7,-1
    535c:	01065593          	srli	a1,a2,0x10
    5360:	01167633          	and	a2,a2,a7
    5364:	0642                	slli	a2,a2,0x10
    5366:	0112f8b3          	and	a7,t0,a7
    536a:	95aa                	add	a1,a1,a0
    536c:	9646                	add	a2,a2,a7
    536e:	12b6e663          	bltu	a3,a1,549a <__divdf3+0x442>
    5372:	12b68263          	beq	a3,a1,5496 <__divdf3+0x43e>
    5376:	40cb0633          	sub	a2,s6,a2
    537a:	8e8d                	sub	a3,a3,a1
    537c:	00cb3b33          	sltu	s6,s6,a2
    5380:	41668b33          	sub	s6,a3,s6
    5384:	3ff48513          	addi	a0,s1,1023
    5388:	17630c63          	beq	t1,s6,5500 <__divdf3+0x4a8>
    538c:	03db58b3          	divu	a7,s6,t4
    5390:	01065593          	srli	a1,a2,0x10
    5394:	03db7b33          	remu	s6,s6,t4
    5398:	031f06b3          	mul	a3,t5,a7
    539c:	0b42                	slli	s6,s6,0x10
    539e:	0165eb33          	or	s6,a1,s6
    53a2:	00db7b63          	bgeu	s6,a3,53b8 <__divdf3+0x360>
    53a6:	9b1a                	add	s6,s6,t1
    53a8:	fff88593          	addi	a1,a7,-1 # ffff <_data_lma+0x202b>
    53ac:	206b6d63          	bltu	s6,t1,55c6 <__divdf3+0x56e>
    53b0:	20db7b63          	bgeu	s6,a3,55c6 <__divdf3+0x56e>
    53b4:	18f9                	addi	a7,a7,-2
    53b6:	9b1a                	add	s6,s6,t1
    53b8:	40db0b33          	sub	s6,s6,a3
    53bc:	03db56b3          	divu	a3,s6,t4
    53c0:	0642                	slli	a2,a2,0x10
    53c2:	8241                	srli	a2,a2,0x10
    53c4:	03db7b33          	remu	s6,s6,t4
    53c8:	02df0f33          	mul	t5,t5,a3
    53cc:	0b42                	slli	s6,s6,0x10
    53ce:	01666633          	or	a2,a2,s6
    53d2:	01e67b63          	bgeu	a2,t5,53e8 <__divdf3+0x390>
    53d6:	961a                	add	a2,a2,t1
    53d8:	fff68593          	addi	a1,a3,-1 # 7fffff <_data_lma+0x7f202b>
    53dc:	1e666763          	bltu	a2,t1,55ca <__divdf3+0x572>
    53e0:	1fe67563          	bgeu	a2,t5,55ca <__divdf3+0x572>
    53e4:	16f9                	addi	a3,a3,-2
    53e6:	961a                	add	a2,a2,t1
    53e8:	08c2                	slli	a7,a7,0x10
    53ea:	00d8e8b3          	or	a7,a7,a3
    53ee:	01089593          	slli	a1,a7,0x10
    53f2:	0108d293          	srli	t0,a7,0x10
    53f6:	81c1                	srli	a1,a1,0x10
    53f8:	02f58eb3          	mul	t4,a1,a5
    53fc:	41e60633          	sub	a2,a2,t5
    5400:	02bf85b3          	mul	a1,t6,a1
    5404:	010ed693          	srli	a3,t4,0x10
    5408:	02f287b3          	mul	a5,t0,a5
    540c:	95be                	add	a1,a1,a5
    540e:	96ae                	add	a3,a3,a1
    5410:	025f8fb3          	mul	t6,t6,t0
    5414:	00f6f463          	bgeu	a3,a5,541c <__divdf3+0x3c4>
    5418:	67c1                	lui	a5,0x10
    541a:	9fbe                	add	t6,t6,a5
    541c:	65c1                	lui	a1,0x10
    541e:	15fd                	addi	a1,a1,-1
    5420:	0106d793          	srli	a5,a3,0x10
    5424:	8eed                	and	a3,a3,a1
    5426:	06c2                	slli	a3,a3,0x10
    5428:	00befeb3          	and	t4,t4,a1
    542c:	9fbe                	add	t6,t6,a5
    542e:	96f6                	add	a3,a3,t4
    5430:	09f67f63          	bgeu	a2,t6,54ce <__divdf3+0x476>
    5434:	961a                	add	a2,a2,t1
    5436:	fff88793          	addi	a5,a7,-1
    543a:	1a666963          	bltu	a2,t1,55ec <__divdf3+0x594>
    543e:	19f66863          	bltu	a2,t6,55ce <__divdf3+0x576>
    5442:	1bf60f63          	beq	a2,t6,5600 <__divdf3+0x5a8>
    5446:	88be                	mv	a7,a5
    5448:	0018e893          	ori	a7,a7,1
    544c:	b511                	j	5250 <__divdf3+0x1f8>
    544e:	854a                	mv	a0,s2
    5450:	116020ef          	jal	ra,7566 <__clzsi2>
    5454:	01550713          	addi	a4,a0,21
    5458:	45f1                	li	a1,28
    545a:	02050493          	addi	s1,a0,32
    545e:	4622                	lw	a2,8(sp)
    5460:	46b2                	lw	a3,12(sp)
    5462:	d4e5dae3          	bge	a1,a4,51b6 <__divdf3+0x15e>
    5466:	ff850413          	addi	s0,a0,-8
    546a:	00891a33          	sll	s4,s2,s0
    546e:	4b01                	li	s6,0
    5470:	b385                	j	51d0 <__divdf3+0x178>
    5472:	8532                	mv	a0,a2
    5474:	c432                	sw	a2,8(sp)
    5476:	0f0020ef          	jal	ra,7566 <__clzsi2>
    547a:	01550713          	addi	a4,a0,21
    547e:	46f1                	li	a3,28
    5480:	87aa                	mv	a5,a0
    5482:	4622                	lw	a2,8(sp)
    5484:	02050513          	addi	a0,a0,32
    5488:	cee6d6e3          	bge	a3,a4,5174 <__divdf3+0x11c>
    548c:	17e1                	addi	a5,a5,-8
    548e:	00f61733          	sll	a4,a2,a5
    5492:	4881                	li	a7,0
    5494:	b9e5                	j	518c <__divdf3+0x134>
    5496:	eecb70e3          	bgeu	s6,a2,5376 <__divdf3+0x31e>
    549a:	9b72                	add	s6,s6,t3
    549c:	01cb3533          	sltu	a0,s6,t3
    54a0:	951a                	add	a0,a0,t1
    54a2:	96aa                	add	a3,a3,a0
    54a4:	fff70513          	addi	a0,a4,-1
    54a8:	02d37863          	bgeu	t1,a3,54d8 <__divdf3+0x480>
    54ac:	10b6e663          	bltu	a3,a1,55b8 <__divdf3+0x560>
    54b0:	10d58263          	beq	a1,a3,55b4 <__divdf3+0x55c>
    54b4:	872a                	mv	a4,a0
    54b6:	b5c1                	j	5376 <__divdf3+0x31e>
    54b8:	df1b65e3          	bltu	s6,a7,52a2 <__divdf3+0x24a>
    54bc:	001b5593          	srli	a1,s6,0x1
    54c0:	01fa1693          	slli	a3,s4,0x1f
    54c4:	001a5413          	srli	s0,s4,0x1
    54c8:	8ecd                	or	a3,a3,a1
    54ca:	0b7e                	slli	s6,s6,0x1f
    54cc:	bbf9                	j	52aa <__divdf3+0x252>
    54ce:	f7f61de3          	bne	a2,t6,5448 <__divdf3+0x3f0>
    54d2:	d6068fe3          	beqz	a3,5250 <__divdf3+0x1f8>
    54d6:	bfb9                	j	5434 <__divdf3+0x3dc>
    54d8:	fcd31ee3          	bne	t1,a3,54b4 <__divdf3+0x45c>
    54dc:	fdcb78e3          	bgeu	s6,t3,54ac <__divdf3+0x454>
    54e0:	872a                	mv	a4,a0
    54e2:	bd51                	j	5376 <__divdf3+0x31e>
    54e4:	00f8f793          	andi	a5,a7,15
    54e8:	4691                	li	a3,4
    54ea:	d6d789e3          	beq	a5,a3,525c <__divdf3+0x204>
    54ee:	ffc8b793          	sltiu	a5,a7,-4
    54f2:	00488693          	addi	a3,a7,4
    54f6:	0017c793          	xori	a5,a5,1
    54fa:	828d                	srli	a3,a3,0x3
    54fc:	973e                	add	a4,a4,a5
    54fe:	b38d                	j	5260 <__divdf3+0x208>
    5500:	4681                	li	a3,0
    5502:	4785                	li	a5,1
    5504:	fea04ce3          	bgtz	a0,54fc <__divdf3+0x4a4>
    5508:	58fd                	li	a7,-1
    550a:	d0051ce3          	bnez	a0,5222 <__divdf3+0x1ca>
    550e:	c0100493          	li	s1,-1023
    5512:	4785                	li	a5,1
    5514:	41e48513          	addi	a0,s1,1054
    5518:	00a716b3          	sll	a3,a4,a0
    551c:	00f8d633          	srl	a2,a7,a5
    5520:	00a89533          	sll	a0,a7,a0
    5524:	8ed1                	or	a3,a3,a2
    5526:	00a03533          	snez	a0,a0
    552a:	8ec9                	or	a3,a3,a0
    552c:	0076f613          	andi	a2,a3,7
    5530:	00f75733          	srl	a4,a4,a5
    5534:	ce01                	beqz	a2,554c <__divdf3+0x4f4>
    5536:	00f6f793          	andi	a5,a3,15
    553a:	4611                	li	a2,4
    553c:	00c78863          	beq	a5,a2,554c <__divdf3+0x4f4>
    5540:	00468793          	addi	a5,a3,4
    5544:	00d7b6b3          	sltu	a3,a5,a3
    5548:	9736                	add	a4,a4,a3
    554a:	86be                	mv	a3,a5
    554c:	00871793          	slli	a5,a4,0x8
    5550:	0407d863          	bgez	a5,55a0 <__divdf3+0x548>
    5554:	4605                	li	a2,1
    5556:	4781                	li	a5,0
    5558:	4701                	li	a4,0
    555a:	b6f1                	j	5126 <__divdf3+0xce>
    555c:	8736                	mv	a4,a3
    555e:	bb7d                	j	531c <__divdf3+0x2c4>
    5560:	87b2                	mv	a5,a2
    5562:	b379                	j	52f0 <__divdf3+0x298>
    5564:	46fd                	li	a3,31
    5566:	faf6d7e3          	bge	a3,a5,5514 <__divdf3+0x4bc>
    556a:	5605                	li	a2,-31
    556c:	8e09                	sub	a2,a2,a0
    556e:	02000693          	li	a3,32
    5572:	00c75633          	srl	a2,a4,a2
    5576:	00d78863          	beq	a5,a3,5586 <__divdf3+0x52e>
    557a:	43e48793          	addi	a5,s1,1086
    557e:	00f717b3          	sll	a5,a4,a5
    5582:	00f8e8b3          	or	a7,a7,a5
    5586:	011036b3          	snez	a3,a7
    558a:	8ed1                	or	a3,a3,a2
    558c:	0076f613          	andi	a2,a3,7
    5590:	4781                	li	a5,0
    5592:	ce01                	beqz	a2,55aa <__divdf3+0x552>
    5594:	00f6f793          	andi	a5,a3,15
    5598:	4611                	li	a2,4
    559a:	4701                	li	a4,0
    559c:	fac792e3          	bne	a5,a2,5540 <__divdf3+0x4e8>
    55a0:	00971793          	slli	a5,a4,0x9
    55a4:	01d71613          	slli	a2,a4,0x1d
    55a8:	83b1                	srli	a5,a5,0xc
    55aa:	0036d713          	srli	a4,a3,0x3
    55ae:	8f51                	or	a4,a4,a2
    55b0:	4601                	li	a2,0
    55b2:	be95                	j	5126 <__divdf3+0xce>
    55b4:	f0cb70e3          	bgeu	s6,a2,54b4 <__divdf3+0x45c>
    55b8:	9b72                	add	s6,s6,t3
    55ba:	01cb3533          	sltu	a0,s6,t3
    55be:	951a                	add	a0,a0,t1
    55c0:	1779                	addi	a4,a4,-2
    55c2:	96aa                	add	a3,a3,a0
    55c4:	bb4d                	j	5376 <__divdf3+0x31e>
    55c6:	88ae                	mv	a7,a1
    55c8:	bbc5                	j	53b8 <__divdf3+0x360>
    55ca:	86ae                	mv	a3,a1
    55cc:	bd31                	j	53e8 <__divdf3+0x390>
    55ce:	001e1793          	slli	a5,t3,0x1
    55d2:	01c7be33          	sltu	t3,a5,t3
    55d6:	9372                	add	t1,t1,t3
    55d8:	961a                	add	a2,a2,t1
    55da:	18f9                	addi	a7,a7,-2
    55dc:	8e3e                	mv	t3,a5
    55de:	e7f615e3          	bne	a2,t6,5448 <__divdf3+0x3f0>
    55e2:	c6de07e3          	beq	t3,a3,5250 <__divdf3+0x1f8>
    55e6:	0018e893          	ori	a7,a7,1
    55ea:	b19d                	j	5250 <__divdf3+0x1f8>
    55ec:	88be                	mv	a7,a5
    55ee:	fff60ae3          	beq	a2,t6,55e2 <__divdf3+0x58a>
    55f2:	bd99                	j	5448 <__divdf3+0x3f0>
    55f4:	8836                	mv	a6,a3
    55f6:	7ff00613          	li	a2,2047
    55fa:	4781                	li	a5,0
    55fc:	4701                	li	a4,0
    55fe:	b625                	j	5126 <__divdf3+0xce>
    5600:	fcde67e3          	bltu	t3,a3,55ce <__divdf3+0x576>
    5604:	88be                	mv	a7,a5
    5606:	fede10e3          	bne	t3,a3,55e6 <__divdf3+0x58e>
    560a:	b199                	j	5250 <__divdf3+0x1f8>

0000560c <__gedf2>:
    560c:	0145d713          	srli	a4,a1,0x14
    5610:	001007b7          	lui	a5,0x100
    5614:	17fd                	addi	a5,a5,-1
    5616:	0146d813          	srli	a6,a3,0x14
    561a:	7ff77713          	andi	a4,a4,2047
    561e:	7ff00893          	li	a7,2047
    5622:	00b7f333          	and	t1,a5,a1
    5626:	8e2a                	mv	t3,a0
    5628:	8ff5                	and	a5,a5,a3
    562a:	81fd                	srli	a1,a1,0x1f
    562c:	8eb2                	mv	t4,a2
    562e:	7ff87813          	andi	a6,a6,2047
    5632:	82fd                	srli	a3,a3,0x1f
    5634:	03170863          	beq	a4,a7,5664 <__gedf2+0x58>
    5638:	03180063          	beq	a6,a7,5658 <__gedf2+0x4c>
    563c:	eb0d                	bnez	a4,566e <__gedf2+0x62>
    563e:	00a368b3          	or	a7,t1,a0
    5642:	00081463          	bnez	a6,564a <__gedf2+0x3e>
    5646:	8e5d                	or	a2,a2,a5
    5648:	ca29                	beqz	a2,569a <__gedf2+0x8e>
    564a:	04088563          	beqz	a7,5694 <__gedf2+0x88>
    564e:	02d58863          	beq	a1,a3,567e <__gedf2+0x72>
    5652:	4505                	li	a0,1
    5654:	ed95                	bnez	a1,5690 <__gedf2+0x84>
    5656:	8082                	ret
    5658:	00c7e8b3          	or	a7,a5,a2
    565c:	fe0880e3          	beqz	a7,563c <__gedf2+0x30>
    5660:	5579                	li	a0,-2
    5662:	8082                	ret
    5664:	00a36533          	or	a0,t1,a0
    5668:	fd65                	bnez	a0,5660 <__gedf2+0x54>
    566a:	02e80c63          	beq	a6,a4,56a2 <__gedf2+0x96>
    566e:	00081463          	bnez	a6,5676 <__gedf2+0x6a>
    5672:	8e5d                	or	a2,a2,a5
    5674:	de79                	beqz	a2,5652 <__gedf2+0x46>
    5676:	fcd59ee3          	bne	a1,a3,5652 <__gedf2+0x46>
    567a:	fce84ce3          	blt	a6,a4,5652 <__gedf2+0x46>
    567e:	01074863          	blt	a4,a6,568e <__gedf2+0x82>
    5682:	fc67e8e3          	bltu	a5,t1,5652 <__gedf2+0x46>
    5686:	02f30363          	beq	t1,a5,56ac <__gedf2+0xa0>
    568a:	00f37f63          	bgeu	t1,a5,56a8 <__gedf2+0x9c>
    568e:	e581                	bnez	a1,5696 <__gedf2+0x8a>
    5690:	557d                	li	a0,-1
    5692:	8082                	ret
    5694:	def5                	beqz	a3,5690 <__gedf2+0x84>
    5696:	4505                	li	a0,1
    5698:	8082                	ret
    569a:	4501                	li	a0,0
    569c:	fa089be3          	bnez	a7,5652 <__gedf2+0x46>
    56a0:	8082                	ret
    56a2:	8e5d                	or	a2,a2,a5
    56a4:	da69                	beqz	a2,5676 <__gedf2+0x6a>
    56a6:	bf6d                	j	5660 <__gedf2+0x54>
    56a8:	4501                	li	a0,0
    56aa:	8082                	ret
    56ac:	fbcee3e3          	bltu	t4,t3,5652 <__gedf2+0x46>
    56b0:	4501                	li	a0,0
    56b2:	fbde72e3          	bgeu	t3,t4,5656 <__gedf2+0x4a>
    56b6:	f1e5                	bnez	a1,5696 <__gedf2+0x8a>
    56b8:	bfe1                	j	5690 <__gedf2+0x84>

000056ba <__muldf3>:
    56ba:	7139                	addi	sp,sp,-64
    56bc:	d84a                	sw	s2,48(sp)
    56be:	0145d913          	srli	s2,a1,0x14
    56c2:	d64e                	sw	s3,44(sp)
    56c4:	d452                	sw	s4,40(sp)
    56c6:	d256                	sw	s5,36(sp)
    56c8:	00c59993          	slli	s3,a1,0xc
    56cc:	de06                	sw	ra,60(sp)
    56ce:	dc22                	sw	s0,56(sp)
    56d0:	da26                	sw	s1,52(sp)
    56d2:	d05a                	sw	s6,32(sp)
    56d4:	ce5e                	sw	s7,28(sp)
    56d6:	7ff97913          	andi	s2,s2,2047
    56da:	8a2a                	mv	s4,a0
    56dc:	00c9d993          	srli	s3,s3,0xc
    56e0:	01f5da93          	srli	s5,a1,0x1f
    56e4:	0e090d63          	beqz	s2,57de <__muldf3+0x124>
    56e8:	7ff00793          	li	a5,2047
    56ec:	18f90663          	beq	s2,a5,5878 <__muldf3+0x1be>
    56f0:	01d55413          	srli	s0,a0,0x1d
    56f4:	098e                	slli	s3,s3,0x3
    56f6:	013469b3          	or	s3,s0,s3
    56fa:	00800437          	lui	s0,0x800
    56fe:	0089e433          	or	s0,s3,s0
    5702:	00351493          	slli	s1,a0,0x3
    5706:	c0190913          	addi	s2,s2,-1023
    570a:	4981                	li	s3,0
    570c:	4b81                	li	s7,0
    570e:	0146d713          	srli	a4,a3,0x14
    5712:	00c69a13          	slli	s4,a3,0xc
    5716:	7ff77713          	andi	a4,a4,2047
    571a:	85b2                	mv	a1,a2
    571c:	00ca5a13          	srli	s4,s4,0xc
    5720:	01f6db13          	srli	s6,a3,0x1f
    5724:	10070b63          	beqz	a4,583a <__muldf3+0x180>
    5728:	7ff00793          	li	a5,2047
    572c:	04f70363          	beq	a4,a5,5772 <__muldf3+0xb8>
    5730:	01d65793          	srli	a5,a2,0x1d
    5734:	0a0e                	slli	s4,s4,0x3
    5736:	0147ea33          	or	s4,a5,s4
    573a:	c0170713          	addi	a4,a4,-1023
    573e:	008007b7          	lui	a5,0x800
    5742:	00fa67b3          	or	a5,s4,a5
    5746:	00361593          	slli	a1,a2,0x3
    574a:	993a                	add	s2,s2,a4
    574c:	4881                	li	a7,0
    574e:	016ac733          	xor	a4,s5,s6
    5752:	46bd                	li	a3,15
    5754:	853a                	mv	a0,a4
    5756:	00190813          	addi	a6,s2,1
    575a:	1736e863          	bltu	a3,s3,58ca <__muldf3+0x210>
    575e:	00008617          	auipc	a2,0x8
    5762:	2ca60613          	addi	a2,a2,714 # da28 <atanlo+0x68>
    5766:	098a                	slli	s3,s3,0x2
    5768:	99b2                	add	s3,s3,a2
    576a:	0009a683          	lw	a3,0(s3)
    576e:	96b2                	add	a3,a3,a2
    5770:	8682                	jr	a3
    5772:	00ca67b3          	or	a5,s4,a2
    5776:	7ff90913          	addi	s2,s2,2047
    577a:	12079963          	bnez	a5,58ac <__muldf3+0x1f2>
    577e:	0029e993          	ori	s3,s3,2
    5782:	4581                	li	a1,0
    5784:	4889                	li	a7,2
    5786:	b7e1                	j	574e <__muldf3+0x94>
    5788:	4701                	li	a4,0
    578a:	7ff00793          	li	a5,2047
    578e:	00080437          	lui	s0,0x80
    5792:	4481                	li	s1,0
    5794:	0432                	slli	s0,s0,0xc
    5796:	07d2                	slli	a5,a5,0x14
    5798:	8031                	srli	s0,s0,0xc
    579a:	077e                	slli	a4,a4,0x1f
    579c:	8c5d                	or	s0,s0,a5
    579e:	8c59                	or	s0,s0,a4
    57a0:	85a2                	mv	a1,s0
    57a2:	50f2                	lw	ra,60(sp)
    57a4:	5462                	lw	s0,56(sp)
    57a6:	8526                	mv	a0,s1
    57a8:	5942                	lw	s2,48(sp)
    57aa:	54d2                	lw	s1,52(sp)
    57ac:	59b2                	lw	s3,44(sp)
    57ae:	5a22                	lw	s4,40(sp)
    57b0:	5a92                	lw	s5,36(sp)
    57b2:	5b02                	lw	s6,32(sp)
    57b4:	4bf2                	lw	s7,28(sp)
    57b6:	6121                	addi	sp,sp,64
    57b8:	8082                	ret
    57ba:	855a                	mv	a0,s6
    57bc:	843e                	mv	s0,a5
    57be:	84ae                	mv	s1,a1
    57c0:	8bc6                	mv	s7,a7
    57c2:	4789                	li	a5,2
    57c4:	0efb8d63          	beq	s7,a5,58be <__muldf3+0x204>
    57c8:	478d                	li	a5,3
    57ca:	fafb8fe3          	beq	s7,a5,5788 <__muldf3+0xce>
    57ce:	4785                	li	a5,1
    57d0:	872a                	mv	a4,a0
    57d2:	38fb9e63          	bne	s7,a5,5b6e <__muldf3+0x4b4>
    57d6:	4781                	li	a5,0
    57d8:	4401                	li	s0,0
    57da:	4481                	li	s1,0
    57dc:	bf65                	j	5794 <__muldf3+0xda>
    57de:	00a9e433          	or	s0,s3,a0
    57e2:	c061                	beqz	s0,58a2 <__muldf3+0x1e8>
    57e4:	c636                	sw	a3,12(sp)
    57e6:	c432                	sw	a2,8(sp)
    57e8:	2a098c63          	beqz	s3,5aa0 <__muldf3+0x3e6>
    57ec:	854e                	mv	a0,s3
    57ee:	579010ef          	jal	ra,7566 <__clzsi2>
    57f2:	4622                	lw	a2,8(sp)
    57f4:	46b2                	lw	a3,12(sp)
    57f6:	87aa                	mv	a5,a0
    57f8:	ff550713          	addi	a4,a0,-11
    57fc:	4475                	li	s0,29
    57fe:	ff878493          	addi	s1,a5,-8 # 7ffff8 <_data_lma+0x7f2024>
    5802:	8c19                	sub	s0,s0,a4
    5804:	009999b3          	sll	s3,s3,s1
    5808:	008a5433          	srl	s0,s4,s0
    580c:	01346433          	or	s0,s0,s3
    5810:	009a14b3          	sll	s1,s4,s1
    5814:	0146d713          	srli	a4,a3,0x14
    5818:	c0d00913          	li	s2,-1011
    581c:	00c69a13          	slli	s4,a3,0xc
    5820:	7ff77713          	andi	a4,a4,2047
    5824:	40f90933          	sub	s2,s2,a5
    5828:	4981                	li	s3,0
    582a:	4b81                	li	s7,0
    582c:	85b2                	mv	a1,a2
    582e:	00ca5a13          	srli	s4,s4,0xc
    5832:	01f6db13          	srli	s6,a3,0x1f
    5836:	ee0719e3          	bnez	a4,5728 <__muldf3+0x6e>
    583a:	00ca67b3          	or	a5,s4,a2
    583e:	c7b1                	beqz	a5,588a <__muldf3+0x1d0>
    5840:	220a0f63          	beqz	s4,5a7e <__muldf3+0x3c4>
    5844:	8552                	mv	a0,s4
    5846:	c432                	sw	a2,8(sp)
    5848:	51f010ef          	jal	ra,7566 <__clzsi2>
    584c:	4622                	lw	a2,8(sp)
    584e:	872a                	mv	a4,a0
    5850:	ff550693          	addi	a3,a0,-11
    5854:	47f5                	li	a5,29
    5856:	ff870593          	addi	a1,a4,-8
    585a:	8f95                	sub	a5,a5,a3
    585c:	00ba1a33          	sll	s4,s4,a1
    5860:	00f657b3          	srl	a5,a2,a5
    5864:	0147e7b3          	or	a5,a5,s4
    5868:	00b615b3          	sll	a1,a2,a1
    586c:	40e90933          	sub	s2,s2,a4
    5870:	c0d90913          	addi	s2,s2,-1011
    5874:	4881                	li	a7,0
    5876:	bde1                	j	574e <__muldf3+0x94>
    5878:	00a9e433          	or	s0,s3,a0
    587c:	ec01                	bnez	s0,5894 <__muldf3+0x1da>
    587e:	49a1                	li	s3,8
    5880:	4481                	li	s1,0
    5882:	7ff00913          	li	s2,2047
    5886:	4b89                	li	s7,2
    5888:	b559                	j	570e <__muldf3+0x54>
    588a:	0019e993          	ori	s3,s3,1
    588e:	4581                	li	a1,0
    5890:	4885                	li	a7,1
    5892:	bd75                	j	574e <__muldf3+0x94>
    5894:	844e                	mv	s0,s3
    5896:	84aa                	mv	s1,a0
    5898:	49b1                	li	s3,12
    589a:	7ff00913          	li	s2,2047
    589e:	4b8d                	li	s7,3
    58a0:	b5bd                	j	570e <__muldf3+0x54>
    58a2:	4991                	li	s3,4
    58a4:	4481                	li	s1,0
    58a6:	4901                	li	s2,0
    58a8:	4b85                	li	s7,1
    58aa:	b595                	j	570e <__muldf3+0x54>
    58ac:	0039e993          	ori	s3,s3,3
    58b0:	87d2                	mv	a5,s4
    58b2:	488d                	li	a7,3
    58b4:	bd69                	j	574e <__muldf3+0x94>
    58b6:	4789                	li	a5,2
    58b8:	8556                	mv	a0,s5
    58ba:	f0fb97e3          	bne	s7,a5,57c8 <__muldf3+0x10e>
    58be:	872a                	mv	a4,a0
    58c0:	7ff00793          	li	a5,2047
    58c4:	4401                	li	s0,0
    58c6:	4481                	li	s1,0
    58c8:	b5f1                	j	5794 <__muldf3+0xda>
    58ca:	6ec1                	lui	t4,0x10
    58cc:	fffe8613          	addi	a2,t4,-1 # ffff <_data_lma+0x202b>
    58d0:	0104d693          	srli	a3,s1,0x10
    58d4:	0105de13          	srli	t3,a1,0x10
    58d8:	8cf1                	and	s1,s1,a2
    58da:	8df1                	and	a1,a1,a2
    58dc:	02958633          	mul	a2,a1,s1
    58e0:	02b68333          	mul	t1,a3,a1
    58e4:	01065893          	srli	a7,a2,0x10
    58e8:	029e0533          	mul	a0,t3,s1
    58ec:	951a                	add	a0,a0,t1
    58ee:	98aa                	add	a7,a7,a0
    58f0:	03c682b3          	mul	t0,a3,t3
    58f4:	0068f363          	bgeu	a7,t1,58fa <__muldf3+0x240>
    58f8:	92f6                	add	t0,t0,t4
    58fa:	6fc1                	lui	t6,0x10
    58fc:	ffff8313          	addi	t1,t6,-1 # ffff <_data_lma+0x202b>
    5900:	0067f533          	and	a0,a5,t1
    5904:	0107d393          	srli	t2,a5,0x10
    5908:	0068f7b3          	and	a5,a7,t1
    590c:	07c2                	slli	a5,a5,0x10
    590e:	00667333          	and	t1,a2,t1
    5912:	933e                	add	t1,t1,a5
    5914:	02950633          	mul	a2,a0,s1
    5918:	0108d893          	srli	a7,a7,0x10
    591c:	02a687b3          	mul	a5,a3,a0
    5920:	01065f13          	srli	t5,a2,0x10
    5924:	029384b3          	mul	s1,t2,s1
    5928:	94be                	add	s1,s1,a5
    592a:	94fa                	add	s1,s1,t5
    592c:	02768eb3          	mul	t4,a3,t2
    5930:	00f4f363          	bgeu	s1,a5,5936 <__muldf3+0x27c>
    5934:	9efe                	add	t4,t4,t6
    5936:	6a41                	lui	s4,0x10
    5938:	fffa0793          	addi	a5,s4,-1 # ffff <_data_lma+0x202b>
    593c:	01045f93          	srli	t6,s0,0x10
    5940:	00f476b3          	and	a3,s0,a5
    5944:	00f4f9b3          	and	s3,s1,a5
    5948:	8e7d                	and	a2,a2,a5
    594a:	80c1                	srli	s1,s1,0x10
    594c:	02d58433          	mul	s0,a1,a3
    5950:	09c2                	slli	s3,s3,0x10
    5952:	01d48f33          	add	t5,s1,t4
    5956:	99b2                	add	s3,s3,a2
    5958:	98ce                	add	a7,a7,s3
    595a:	02de07b3          	mul	a5,t3,a3
    595e:	01045e93          	srli	t4,s0,0x10
    5962:	02bf85b3          	mul	a1,t6,a1
    5966:	97ae                	add	a5,a5,a1
    5968:	9ebe                	add	t4,t4,a5
    596a:	03fe0e33          	mul	t3,t3,t6
    596e:	00bef363          	bgeu	t4,a1,5974 <__muldf3+0x2ba>
    5972:	9e52                	add	t3,t3,s4
    5974:	67c1                	lui	a5,0x10
    5976:	fff78593          	addi	a1,a5,-1 # ffff <_data_lma+0x202b>
    597a:	00bef633          	and	a2,t4,a1
    597e:	8c6d                	and	s0,s0,a1
    5980:	0642                	slli	a2,a2,0x10
    5982:	9622                	add	a2,a2,s0
    5984:	010ede93          	srli	t4,t4,0x10
    5988:	02d505b3          	mul	a1,a0,a3
    598c:	9e76                	add	t3,t3,t4
    598e:	02af8533          	mul	a0,t6,a0
    5992:	0105d413          	srli	s0,a1,0x10
    5996:	02d386b3          	mul	a3,t2,a3
    599a:	96aa                	add	a3,a3,a0
    599c:	96a2                	add	a3,a3,s0
    599e:	03f38fb3          	mul	t6,t2,t6
    59a2:	00a6f363          	bgeu	a3,a0,59a8 <__muldf3+0x2ee>
    59a6:	9fbe                	add	t6,t6,a5
    59a8:	6541                	lui	a0,0x10
    59aa:	157d                	addi	a0,a0,-1
    59ac:	00a6f7b3          	and	a5,a3,a0
    59b0:	07c2                	slli	a5,a5,0x10
    59b2:	8d6d                	and	a0,a0,a1
    59b4:	97aa                	add	a5,a5,a0
    59b6:	005885b3          	add	a1,a7,t0
    59ba:	0135b9b3          	sltu	s3,a1,s3
    59be:	97fa                	add	a5,a5,t5
    59c0:	95b2                	add	a1,a1,a2
    59c2:	01378433          	add	s0,a5,s3
    59c6:	00c5b633          	sltu	a2,a1,a2
    59ca:	01c40eb3          	add	t4,s0,t3
    59ce:	00ce8533          	add	a0,t4,a2
    59d2:	01343433          	sltu	s0,s0,s3
    59d6:	01e7b7b3          	sltu	a5,a5,t5
    59da:	8fc1                	or	a5,a5,s0
    59dc:	01cebe33          	sltu	t3,t4,t3
    59e0:	0106d413          	srli	s0,a3,0x10
    59e4:	00c53633          	sltu	a2,a0,a2
    59e8:	943e                	add	s0,s0,a5
    59ea:	00ce6633          	or	a2,t3,a2
    59ee:	00959493          	slli	s1,a1,0x9
    59f2:	9432                	add	s0,s0,a2
    59f4:	947e                	add	s0,s0,t6
    59f6:	0064e4b3          	or	s1,s1,t1
    59fa:	0426                	slli	s0,s0,0x9
    59fc:	01755693          	srli	a3,a0,0x17
    5a00:	009034b3          	snez	s1,s1
    5a04:	81dd                	srli	a1,a1,0x17
    5a06:	00951793          	slli	a5,a0,0x9
    5a0a:	8ccd                	or	s1,s1,a1
    5a0c:	8c55                	or	s0,s0,a3
    5a0e:	8cdd                	or	s1,s1,a5
    5a10:	00741793          	slli	a5,s0,0x7
    5a14:	0007db63          	bgez	a5,5a2a <__muldf3+0x370>
    5a18:	0014d793          	srli	a5,s1,0x1
    5a1c:	8885                	andi	s1,s1,1
    5a1e:	01f41693          	slli	a3,s0,0x1f
    5a22:	8cdd                	or	s1,s1,a5
    5a24:	8cd5                	or	s1,s1,a3
    5a26:	8005                	srli	s0,s0,0x1
    5a28:	8942                	mv	s2,a6
    5a2a:	3ff90793          	addi	a5,s2,1023
    5a2e:	08f05963          	blez	a5,5ac0 <__muldf3+0x406>
    5a32:	0074f693          	andi	a3,s1,7
    5a36:	ce81                	beqz	a3,5a4e <__muldf3+0x394>
    5a38:	00f4f693          	andi	a3,s1,15
    5a3c:	4611                	li	a2,4
    5a3e:	00c68863          	beq	a3,a2,5a4e <__muldf3+0x394>
    5a42:	00448693          	addi	a3,s1,4
    5a46:	0096b4b3          	sltu	s1,a3,s1
    5a4a:	9426                	add	s0,s0,s1
    5a4c:	84b6                	mv	s1,a3
    5a4e:	00741693          	slli	a3,s0,0x7
    5a52:	0006d863          	bgez	a3,5a62 <__muldf3+0x3a8>
    5a56:	ff0007b7          	lui	a5,0xff000
    5a5a:	17fd                	addi	a5,a5,-1
    5a5c:	8c7d                	and	s0,s0,a5
    5a5e:	40090793          	addi	a5,s2,1024
    5a62:	7fe00693          	li	a3,2046
    5a66:	0ef6cf63          	blt	a3,a5,5b64 <__muldf3+0x4aa>
    5a6a:	0034d693          	srli	a3,s1,0x3
    5a6e:	01d41493          	slli	s1,s0,0x1d
    5a72:	0426                	slli	s0,s0,0x9
    5a74:	8cd5                	or	s1,s1,a3
    5a76:	8031                	srli	s0,s0,0xc
    5a78:	7ff7f793          	andi	a5,a5,2047
    5a7c:	bb21                	j	5794 <__muldf3+0xda>
    5a7e:	8532                	mv	a0,a2
    5a80:	c432                	sw	a2,8(sp)
    5a82:	2e5010ef          	jal	ra,7566 <__clzsi2>
    5a86:	01550693          	addi	a3,a0,21 # 10015 <_data_lma+0x2041>
    5a8a:	47f1                	li	a5,28
    5a8c:	02050713          	addi	a4,a0,32
    5a90:	4622                	lw	a2,8(sp)
    5a92:	dcd7d1e3          	bge	a5,a3,5854 <__muldf3+0x19a>
    5a96:	1561                	addi	a0,a0,-8
    5a98:	00a617b3          	sll	a5,a2,a0
    5a9c:	4581                	li	a1,0
    5a9e:	b3f9                	j	586c <__muldf3+0x1b2>
    5aa0:	2c7010ef          	jal	ra,7566 <__clzsi2>
    5aa4:	01550713          	addi	a4,a0,21
    5aa8:	45f1                	li	a1,28
    5aaa:	02050793          	addi	a5,a0,32
    5aae:	4622                	lw	a2,8(sp)
    5ab0:	46b2                	lw	a3,12(sp)
    5ab2:	d4e5d5e3          	bge	a1,a4,57fc <__muldf3+0x142>
    5ab6:	1561                	addi	a0,a0,-8
    5ab8:	00aa1433          	sll	s0,s4,a0
    5abc:	4481                	li	s1,0
    5abe:	bb99                	j	5814 <__muldf3+0x15a>
    5ac0:	4685                	li	a3,1
    5ac2:	8e9d                	sub	a3,a3,a5
    5ac4:	e7b1                	bnez	a5,5b10 <__muldf3+0x456>
    5ac6:	41e90913          	addi	s2,s2,1054
    5aca:	012497b3          	sll	a5,s1,s2
    5ace:	00d4d4b3          	srl	s1,s1,a3
    5ad2:	01241933          	sll	s2,s0,s2
    5ad6:	00f037b3          	snez	a5,a5
    5ada:	009964b3          	or	s1,s2,s1
    5ade:	8cdd                	or	s1,s1,a5
    5ae0:	0074f793          	andi	a5,s1,7
    5ae4:	00d456b3          	srl	a3,s0,a3
    5ae8:	cf81                	beqz	a5,5b00 <__muldf3+0x446>
    5aea:	00f4f793          	andi	a5,s1,15
    5aee:	4611                	li	a2,4
    5af0:	00c78863          	beq	a5,a2,5b00 <__muldf3+0x446>
    5af4:	00448793          	addi	a5,s1,4
    5af8:	0097b4b3          	sltu	s1,a5,s1
    5afc:	96a6                	add	a3,a3,s1
    5afe:	84be                	mv	s1,a5
    5b00:	00869793          	slli	a5,a3,0x8
    5b04:	0407d863          	bgez	a5,5b54 <__muldf3+0x49a>
    5b08:	4785                	li	a5,1
    5b0a:	4401                	li	s0,0
    5b0c:	4481                	li	s1,0
    5b0e:	b159                	j	5794 <__muldf3+0xda>
    5b10:	03800613          	li	a2,56
    5b14:	ccd641e3          	blt	a2,a3,57d6 <__muldf3+0x11c>
    5b18:	467d                	li	a2,31
    5b1a:	fad656e3          	bge	a2,a3,5ac6 <__muldf3+0x40c>
    5b1e:	5605                	li	a2,-31
    5b20:	40f607b3          	sub	a5,a2,a5
    5b24:	02000593          	li	a1,32
    5b28:	00f45633          	srl	a2,s0,a5
    5b2c:	00b68763          	beq	a3,a1,5b3a <__muldf3+0x480>
    5b30:	43e90913          	addi	s2,s2,1086
    5b34:	012417b3          	sll	a5,s0,s2
    5b38:	8cdd                	or	s1,s1,a5
    5b3a:	009034b3          	snez	s1,s1
    5b3e:	8cd1                	or	s1,s1,a2
    5b40:	0074f693          	andi	a3,s1,7
    5b44:	4401                	li	s0,0
    5b46:	ca99                	beqz	a3,5b5c <__muldf3+0x4a2>
    5b48:	00f4f793          	andi	a5,s1,15
    5b4c:	4611                	li	a2,4
    5b4e:	4681                	li	a3,0
    5b50:	fac792e3          	bne	a5,a2,5af4 <__muldf3+0x43a>
    5b54:	00969413          	slli	s0,a3,0x9
    5b58:	8031                	srli	s0,s0,0xc
    5b5a:	06f6                	slli	a3,a3,0x1d
    5b5c:	808d                	srli	s1,s1,0x3
    5b5e:	8cd5                	or	s1,s1,a3
    5b60:	4781                	li	a5,0
    5b62:	b90d                	j	5794 <__muldf3+0xda>
    5b64:	7ff00793          	li	a5,2047
    5b68:	4401                	li	s0,0
    5b6a:	4481                	li	s1,0
    5b6c:	b125                	j	5794 <__muldf3+0xda>
    5b6e:	8942                	mv	s2,a6
    5b70:	bd6d                	j	5a2a <__muldf3+0x370>

00005b72 <__subdf3>:
    5b72:	00100737          	lui	a4,0x100
    5b76:	177d                	addi	a4,a4,-1
    5b78:	1101                	addi	sp,sp,-32
    5b7a:	00b77333          	and	t1,a4,a1
    5b7e:	0146d893          	srli	a7,a3,0x14
    5b82:	8f75                	and	a4,a4,a3
    5b84:	01d65e93          	srli	t4,a2,0x1d
    5b88:	cc22                	sw	s0,24(sp)
    5b8a:	ca26                	sw	s1,20(sp)
    5b8c:	030e                	slli	t1,t1,0x3
    5b8e:	0145d493          	srli	s1,a1,0x14
    5b92:	01d55793          	srli	a5,a0,0x1d
    5b96:	070e                	slli	a4,a4,0x3
    5b98:	ce06                	sw	ra,28(sp)
    5b9a:	c84a                	sw	s2,16(sp)
    5b9c:	c64e                	sw	s3,12(sp)
    5b9e:	7ff8f893          	andi	a7,a7,2047
    5ba2:	7ff00e13          	li	t3,2047
    5ba6:	00eee733          	or	a4,t4,a4
    5baa:	7ff4f493          	andi	s1,s1,2047
    5bae:	01f5d413          	srli	s0,a1,0x1f
    5bb2:	0067e333          	or	t1,a5,t1
    5bb6:	00351f13          	slli	t5,a0,0x3
    5bba:	82fd                	srli	a3,a3,0x1f
    5bbc:	00361e93          	slli	t4,a2,0x3
    5bc0:	19c88063          	beq	a7,t3,5d40 <__subdf3+0x1ce>
    5bc4:	0016c693          	xori	a3,a3,1
    5bc8:	411485b3          	sub	a1,s1,a7
    5bcc:	12d40563          	beq	s0,a3,5cf6 <__subdf3+0x184>
    5bd0:	18b05163          	blez	a1,5d52 <__subdf3+0x1e0>
    5bd4:	1a088b63          	beqz	a7,5d8a <__subdf3+0x218>
    5bd8:	008007b7          	lui	a5,0x800
    5bdc:	8f5d                	or	a4,a4,a5
    5bde:	59c48163          	beq	s1,t3,6160 <__subdf3+0x5ee>
    5be2:	03800793          	li	a5,56
    5be6:	34b7c463          	blt	a5,a1,5f2e <__subdf3+0x3bc>
    5bea:	47fd                	li	a5,31
    5bec:	48b7c563          	blt	a5,a1,6076 <__subdf3+0x504>
    5bf0:	02000793          	li	a5,32
    5bf4:	8f8d                	sub	a5,a5,a1
    5bf6:	00bed9b3          	srl	s3,t4,a1
    5bfa:	00f71833          	sll	a6,a4,a5
    5bfe:	00fe9eb3          	sll	t4,t4,a5
    5c02:	01386833          	or	a6,a6,s3
    5c06:	00b75733          	srl	a4,a4,a1
    5c0a:	01d039b3          	snez	s3,t4
    5c0e:	01386833          	or	a6,a6,s3
    5c12:	40e30333          	sub	t1,t1,a4
    5c16:	410f09b3          	sub	s3,t5,a6
    5c1a:	013f37b3          	sltu	a5,t5,s3
    5c1e:	40f30633          	sub	a2,t1,a5
    5c22:	00861793          	slli	a5,a2,0x8
    5c26:	2407d363          	bgez	a5,5e6c <__subdf3+0x2fa>
    5c2a:	00800937          	lui	s2,0x800
    5c2e:	197d                	addi	s2,s2,-1
    5c30:	01267933          	and	s2,a2,s2
    5c34:	2c090f63          	beqz	s2,5f12 <__subdf3+0x3a0>
    5c38:	854a                	mv	a0,s2
    5c3a:	12d010ef          	jal	ra,7566 <__clzsi2>
    5c3e:	ff850713          	addi	a4,a0,-8
    5c42:	02000793          	li	a5,32
    5c46:	8f99                	sub	a5,a5,a4
    5c48:	00f9d7b3          	srl	a5,s3,a5
    5c4c:	00e91633          	sll	a2,s2,a4
    5c50:	8fd1                	or	a5,a5,a2
    5c52:	00e999b3          	sll	s3,s3,a4
    5c56:	2a974463          	blt	a4,s1,5efe <__subdf3+0x38c>
    5c5a:	8f05                	sub	a4,a4,s1
    5c5c:	00170613          	addi	a2,a4,1 # 100001 <_data_lma+0xf202d>
    5c60:	46fd                	li	a3,31
    5c62:	3ac6c563          	blt	a3,a2,600c <__subdf3+0x49a>
    5c66:	02000713          	li	a4,32
    5c6a:	8f11                	sub	a4,a4,a2
    5c6c:	00c9d6b3          	srl	a3,s3,a2
    5c70:	00e99833          	sll	a6,s3,a4
    5c74:	00e79733          	sll	a4,a5,a4
    5c78:	8f55                	or	a4,a4,a3
    5c7a:	01003833          	snez	a6,a6
    5c7e:	010769b3          	or	s3,a4,a6
    5c82:	00c7d633          	srl	a2,a5,a2
    5c86:	4481                	li	s1,0
    5c88:	0079f793          	andi	a5,s3,7
    5c8c:	cf81                	beqz	a5,5ca4 <__subdf3+0x132>
    5c8e:	00f9f693          	andi	a3,s3,15
    5c92:	4791                	li	a5,4
    5c94:	00f68863          	beq	a3,a5,5ca4 <__subdf3+0x132>
    5c98:	00498693          	addi	a3,s3,4
    5c9c:	0136b833          	sltu	a6,a3,s3
    5ca0:	9642                	add	a2,a2,a6
    5ca2:	89b6                	mv	s3,a3
    5ca4:	00861793          	slli	a5,a2,0x8
    5ca8:	1c07d663          	bgez	a5,5e74 <__subdf3+0x302>
    5cac:	00148713          	addi	a4,s1,1
    5cb0:	7ff00793          	li	a5,2047
    5cb4:	8805                	andi	s0,s0,1
    5cb6:	20f70663          	beq	a4,a5,5ec2 <__subdf3+0x350>
    5cba:	ff8007b7          	lui	a5,0xff800
    5cbe:	17fd                	addi	a5,a5,-1
    5cc0:	8ff1                	and	a5,a5,a2
    5cc2:	01d79813          	slli	a6,a5,0x1d
    5cc6:	0039d993          	srli	s3,s3,0x3
    5cca:	07a6                	slli	a5,a5,0x9
    5ccc:	01386833          	or	a6,a6,s3
    5cd0:	83b1                	srli	a5,a5,0xc
    5cd2:	7ff77713          	andi	a4,a4,2047
    5cd6:	00c79693          	slli	a3,a5,0xc
    5cda:	0752                	slli	a4,a4,0x14
    5cdc:	82b1                	srli	a3,a3,0xc
    5cde:	047e                	slli	s0,s0,0x1f
    5ce0:	8ed9                	or	a3,a3,a4
    5ce2:	8ec1                	or	a3,a3,s0
    5ce4:	40f2                	lw	ra,28(sp)
    5ce6:	4462                	lw	s0,24(sp)
    5ce8:	44d2                	lw	s1,20(sp)
    5cea:	4942                	lw	s2,16(sp)
    5cec:	49b2                	lw	s3,12(sp)
    5cee:	8542                	mv	a0,a6
    5cf0:	85b6                	mv	a1,a3
    5cf2:	6105                	addi	sp,sp,32
    5cf4:	8082                	ret
    5cf6:	0ab05663          	blez	a1,5da2 <__subdf3+0x230>
    5cfa:	12088a63          	beqz	a7,5e2e <__subdf3+0x2bc>
    5cfe:	008007b7          	lui	a5,0x800
    5d02:	8f5d                	or	a4,a4,a5
    5d04:	2dc48763          	beq	s1,t3,5fd2 <__subdf3+0x460>
    5d08:	03800793          	li	a5,56
    5d0c:	18b7c763          	blt	a5,a1,5e9a <__subdf3+0x328>
    5d10:	47fd                	li	a5,31
    5d12:	3cb7d263          	bge	a5,a1,60d6 <__subdf3+0x564>
    5d16:	fe058813          	addi	a6,a1,-32 # ffe0 <_data_lma+0x200c>
    5d1a:	02000793          	li	a5,32
    5d1e:	010759b3          	srl	s3,a4,a6
    5d22:	00f58a63          	beq	a1,a5,5d36 <__subdf3+0x1c4>
    5d26:	04000793          	li	a5,64
    5d2a:	40b785b3          	sub	a1,a5,a1
    5d2e:	00b71733          	sll	a4,a4,a1
    5d32:	00eeeeb3          	or	t4,t4,a4
    5d36:	01d03833          	snez	a6,t4
    5d3a:	01386833          	or	a6,a6,s3
    5d3e:	a295                	j	5ea2 <__subdf3+0x330>
    5d40:	01d767b3          	or	a5,a4,t4
    5d44:	80148593          	addi	a1,s1,-2047
    5d48:	e399                	bnez	a5,5d4e <__subdf3+0x1dc>
    5d4a:	0016c693          	xori	a3,a3,1
    5d4e:	04d40a63          	beq	s0,a3,5da2 <__subdf3+0x230>
    5d52:	e1d1                	bnez	a1,5dd6 <__subdf3+0x264>
    5d54:	00148793          	addi	a5,s1,1
    5d58:	7fe7f793          	andi	a5,a5,2046
    5d5c:	1e079963          	bnez	a5,5f4e <__subdf3+0x3dc>
    5d60:	01e367b3          	or	a5,t1,t5
    5d64:	01d76833          	or	a6,a4,t4
    5d68:	16049263          	bnez	s1,5ecc <__subdf3+0x35a>
    5d6c:	3c078263          	beqz	a5,6130 <__subdf3+0x5be>
    5d70:	42081663          	bnez	a6,619c <__subdf3+0x62a>
    5d74:	00351813          	slli	a6,a0,0x3
    5d78:	01d31693          	slli	a3,t1,0x1d
    5d7c:	00385813          	srli	a6,a6,0x3
    5d80:	0106e833          	or	a6,a3,a6
    5d84:	00335793          	srli	a5,t1,0x3
    5d88:	a219                	j	5e8e <__subdf3+0x31c>
    5d8a:	01d767b3          	or	a5,a4,t4
    5d8e:	1a078563          	beqz	a5,5f38 <__subdf3+0x3c6>
    5d92:	fff58793          	addi	a5,a1,-1
    5d96:	3a078b63          	beqz	a5,614c <__subdf3+0x5da>
    5d9a:	23c58c63          	beq	a1,t3,5fd2 <__subdf3+0x460>
    5d9e:	85be                	mv	a1,a5
    5da0:	b589                	j	5be2 <__subdf3+0x70>
    5da2:	1c059963          	bnez	a1,5f74 <__subdf3+0x402>
    5da6:	00148693          	addi	a3,s1,1
    5daa:	7fe6f793          	andi	a5,a3,2046
    5dae:	efc1                	bnez	a5,5e46 <__subdf3+0x2d4>
    5db0:	01e367b3          	or	a5,t1,t5
    5db4:	36049063          	bnez	s1,6114 <__subdf3+0x5a2>
    5db8:	44078d63          	beqz	a5,6212 <__subdf3+0x6a0>
    5dbc:	01d767b3          	or	a5,a4,t4
    5dc0:	46079463          	bnez	a5,6228 <__subdf3+0x6b6>
    5dc4:	050e                	slli	a0,a0,0x3
    5dc6:	01d31813          	slli	a6,t1,0x1d
    5dca:	810d                	srli	a0,a0,0x3
    5dcc:	00a86833          	or	a6,a6,a0
    5dd0:	00335793          	srli	a5,t1,0x3
    5dd4:	a86d                	j	5e8e <__subdf3+0x31c>
    5dd6:	409885b3          	sub	a1,a7,s1
    5dda:	20049763          	bnez	s1,5fe8 <__subdf3+0x476>
    5dde:	01e367b3          	or	a5,t1,t5
    5de2:	30078d63          	beqz	a5,60fc <__subdf3+0x58a>
    5de6:	fff58793          	addi	a5,a1,-1
    5dea:	40078963          	beqz	a5,61fc <__subdf3+0x68a>
    5dee:	7ff00513          	li	a0,2047
    5df2:	20a58363          	beq	a1,a0,5ff8 <__subdf3+0x486>
    5df6:	85be                	mv	a1,a5
    5df8:	03800793          	li	a5,56
    5dfc:	2ab7c263          	blt	a5,a1,60a0 <__subdf3+0x52e>
    5e00:	47fd                	li	a5,31
    5e02:	3cb7c863          	blt	a5,a1,61d2 <__subdf3+0x660>
    5e06:	02000793          	li	a5,32
    5e0a:	8f8d                	sub	a5,a5,a1
    5e0c:	00f31833          	sll	a6,t1,a5
    5e10:	00bf5633          	srl	a2,t5,a1
    5e14:	00ff17b3          	sll	a5,t5,a5
    5e18:	00c86833          	or	a6,a6,a2
    5e1c:	00f039b3          	snez	s3,a5
    5e20:	00b35333          	srl	t1,t1,a1
    5e24:	01386833          	or	a6,a6,s3
    5e28:	40670733          	sub	a4,a4,t1
    5e2c:	acb5                	j	60a8 <__subdf3+0x536>
    5e2e:	01d767b3          	or	a5,a4,t4
    5e32:	10078363          	beqz	a5,5f38 <__subdf3+0x3c6>
    5e36:	fff58793          	addi	a5,a1,-1
    5e3a:	1e078f63          	beqz	a5,6038 <__subdf3+0x4c6>
    5e3e:	2fc58063          	beq	a1,t3,611e <__subdf3+0x5ac>
    5e42:	85be                	mv	a1,a5
    5e44:	b5d1                	j	5d08 <__subdf3+0x196>
    5e46:	7ff00793          	li	a5,2047
    5e4a:	06f68b63          	beq	a3,a5,5ec0 <__subdf3+0x34e>
    5e4e:	9efa                	add	t4,t4,t5
    5e50:	01eeb633          	sltu	a2,t4,t5
    5e54:	00e307b3          	add	a5,t1,a4
    5e58:	97b2                	add	a5,a5,a2
    5e5a:	01f79813          	slli	a6,a5,0x1f
    5e5e:	001ede93          	srli	t4,t4,0x1
    5e62:	01d869b3          	or	s3,a6,t4
    5e66:	0017d613          	srli	a2,a5,0x1
    5e6a:	84b6                	mv	s1,a3
    5e6c:	0079f793          	andi	a5,s3,7
    5e70:	e0079fe3          	bnez	a5,5c8e <__subdf3+0x11c>
    5e74:	01d61793          	slli	a5,a2,0x1d
    5e78:	0039d813          	srli	a6,s3,0x3
    5e7c:	00f86833          	or	a6,a6,a5
    5e80:	85a6                	mv	a1,s1
    5e82:	00365793          	srli	a5,a2,0x3
    5e86:	7ff00713          	li	a4,2047
    5e8a:	06e58063          	beq	a1,a4,5eea <__subdf3+0x378>
    5e8e:	07b2                	slli	a5,a5,0xc
    5e90:	83b1                	srli	a5,a5,0xc
    5e92:	7ff5f713          	andi	a4,a1,2047
    5e96:	8805                	andi	s0,s0,1
    5e98:	bd3d                	j	5cd6 <__subdf3+0x164>
    5e9a:	01d76733          	or	a4,a4,t4
    5e9e:	00e03833          	snez	a6,a4
    5ea2:	01e809b3          	add	s3,a6,t5
    5ea6:	01e9b7b3          	sltu	a5,s3,t5
    5eaa:	00678633          	add	a2,a5,t1
    5eae:	00861793          	slli	a5,a2,0x8
    5eb2:	fa07dde3          	bgez	a5,5e6c <__subdf3+0x2fa>
    5eb6:	0485                	addi	s1,s1,1
    5eb8:	7ff00793          	li	a5,2047
    5ebc:	18f49c63          	bne	s1,a5,6054 <__subdf3+0x4e2>
    5ec0:	8805                	andi	s0,s0,1
    5ec2:	7ff00713          	li	a4,2047
    5ec6:	4781                	li	a5,0
    5ec8:	4801                	li	a6,0
    5eca:	b531                	j	5cd6 <__subdf3+0x164>
    5ecc:	10079163          	bnez	a5,5fce <__subdf3+0x45c>
    5ed0:	3c080163          	beqz	a6,6292 <__subdf3+0x720>
    5ed4:	00361813          	slli	a6,a2,0x3
    5ed8:	01d71793          	slli	a5,a4,0x1d
    5edc:	00385813          	srli	a6,a6,0x3
    5ee0:	00f86833          	or	a6,a6,a5
    5ee4:	8436                	mv	s0,a3
    5ee6:	00375793          	srli	a5,a4,0x3
    5eea:	00f867b3          	or	a5,a6,a5
    5eee:	dbe9                	beqz	a5,5ec0 <__subdf3+0x34e>
    5ef0:	4401                	li	s0,0
    5ef2:	7ff00713          	li	a4,2047
    5ef6:	000807b7          	lui	a5,0x80
    5efa:	4801                	li	a6,0
    5efc:	bbe9                	j	5cd6 <__subdf3+0x164>
    5efe:	ff800637          	lui	a2,0xff800
    5f02:	167d                	addi	a2,a2,-1
    5f04:	8e7d                	and	a2,a2,a5
    5f06:	0079f793          	andi	a5,s3,7
    5f0a:	8c99                	sub	s1,s1,a4
    5f0c:	d80791e3          	bnez	a5,5c8e <__subdf3+0x11c>
    5f10:	b795                	j	5e74 <__subdf3+0x302>
    5f12:	854e                	mv	a0,s3
    5f14:	652010ef          	jal	ra,7566 <__clzsi2>
    5f18:	01850713          	addi	a4,a0,24
    5f1c:	47fd                	li	a5,31
    5f1e:	d2e7d2e3          	bge	a5,a4,5c42 <__subdf3+0xd0>
    5f22:	ff850613          	addi	a2,a0,-8
    5f26:	00c997b3          	sll	a5,s3,a2
    5f2a:	4981                	li	s3,0
    5f2c:	b32d                	j	5c56 <__subdf3+0xe4>
    5f2e:	01d76833          	or	a6,a4,t4
    5f32:	01003833          	snez	a6,a6
    5f36:	b1c5                	j	5c16 <__subdf3+0xa4>
    5f38:	00351813          	slli	a6,a0,0x3
    5f3c:	01d31793          	slli	a5,t1,0x1d
    5f40:	00385813          	srli	a6,a6,0x3
    5f44:	00f86833          	or	a6,a6,a5
    5f48:	00335793          	srli	a5,t1,0x3
    5f4c:	bf2d                	j	5e86 <__subdf3+0x314>
    5f4e:	41df09b3          	sub	s3,t5,t4
    5f52:	40e30933          	sub	s2,t1,a4
    5f56:	013f3633          	sltu	a2,t5,s3
    5f5a:	40c90933          	sub	s2,s2,a2
    5f5e:	00891793          	slli	a5,s2,0x8
    5f62:	2007ca63          	bltz	a5,6176 <__subdf3+0x604>
    5f66:	0129e833          	or	a6,s3,s2
    5f6a:	cc0815e3          	bnez	a6,5c34 <__subdf3+0xc2>
    5f6e:	4781                	li	a5,0
    5f70:	4401                	li	s0,0
    5f72:	bf31                	j	5e8e <__subdf3+0x31c>
    5f74:	409885b3          	sub	a1,a7,s1
    5f78:	14048163          	beqz	s1,60ba <__subdf3+0x548>
    5f7c:	008006b7          	lui	a3,0x800
    5f80:	7ff00793          	li	a5,2047
    5f84:	00d36333          	or	t1,t1,a3
    5f88:	20f88163          	beq	a7,a5,618a <__subdf3+0x618>
    5f8c:	03800793          	li	a5,56
    5f90:	22b7cc63          	blt	a5,a1,61c8 <__subdf3+0x656>
    5f94:	47fd                	li	a5,31
    5f96:	2cb7c963          	blt	a5,a1,6268 <__subdf3+0x6f6>
    5f9a:	02000793          	li	a5,32
    5f9e:	8f8d                	sub	a5,a5,a1
    5fa0:	00f31833          	sll	a6,t1,a5
    5fa4:	00bf56b3          	srl	a3,t5,a1
    5fa8:	00ff17b3          	sll	a5,t5,a5
    5fac:	00d86833          	or	a6,a6,a3
    5fb0:	00f039b3          	snez	s3,a5
    5fb4:	00b35333          	srl	t1,t1,a1
    5fb8:	01386833          	or	a6,a6,s3
    5fbc:	971a                	add	a4,a4,t1
    5fbe:	01d809b3          	add	s3,a6,t4
    5fc2:	01d9b7b3          	sltu	a5,s3,t4
    5fc6:	00e78633          	add	a2,a5,a4
    5fca:	84c6                	mv	s1,a7
    5fcc:	b5cd                	j	5eae <__subdf3+0x33c>
    5fce:	f20811e3          	bnez	a6,5ef0 <__subdf3+0x37e>
    5fd2:	00351813          	slli	a6,a0,0x3
    5fd6:	01d31793          	slli	a5,t1,0x1d
    5fda:	00385813          	srli	a6,a6,0x3
    5fde:	00f86833          	or	a6,a6,a5
    5fe2:	00335793          	srli	a5,t1,0x3
    5fe6:	b711                	j	5eea <__subdf3+0x378>
    5fe8:	00800537          	lui	a0,0x800
    5fec:	7ff00793          	li	a5,2047
    5ff0:	00a36333          	or	t1,t1,a0
    5ff4:	e0f892e3          	bne	a7,a5,5df8 <__subdf3+0x286>
    5ff8:	060e                	slli	a2,a2,0x3
    5ffa:	01d71813          	slli	a6,a4,0x1d
    5ffe:	820d                	srli	a2,a2,0x3
    6000:	00c86833          	or	a6,a6,a2
    6004:	00375793          	srli	a5,a4,0x3
    6008:	8436                	mv	s0,a3
    600a:	b5c5                	j	5eea <__subdf3+0x378>
    600c:	1705                	addi	a4,a4,-31
    600e:	02000693          	li	a3,32
    6012:	00e7d733          	srl	a4,a5,a4
    6016:	00d60a63          	beq	a2,a3,602a <__subdf3+0x4b8>
    601a:	04000693          	li	a3,64
    601e:	40c68633          	sub	a2,a3,a2
    6022:	00c79633          	sll	a2,a5,a2
    6026:	00c9e9b3          	or	s3,s3,a2
    602a:	01303833          	snez	a6,s3
    602e:	00e869b3          	or	s3,a6,a4
    6032:	4601                	li	a2,0
    6034:	4481                	li	s1,0
    6036:	bd1d                	j	5e6c <__subdf3+0x2fa>
    6038:	01df09b3          	add	s3,t5,t4
    603c:	00e307b3          	add	a5,t1,a4
    6040:	01e9bf33          	sltu	t5,s3,t5
    6044:	01e78633          	add	a2,a5,t5
    6048:	00861793          	slli	a5,a2,0x8
    604c:	4485                	li	s1,1
    604e:	e007dfe3          	bgez	a5,5e6c <__subdf3+0x2fa>
    6052:	4489                	li	s1,2
    6054:	ff8007b7          	lui	a5,0xff800
    6058:	17fd                	addi	a5,a5,-1
    605a:	8ff1                	and	a5,a5,a2
    605c:	0019d713          	srli	a4,s3,0x1
    6060:	0019f813          	andi	a6,s3,1
    6064:	01076833          	or	a6,a4,a6
    6068:	01f79993          	slli	s3,a5,0x1f
    606c:	0109e9b3          	or	s3,s3,a6
    6070:	0017d613          	srli	a2,a5,0x1
    6074:	b911                	j	5c88 <__subdf3+0x116>
    6076:	fe058813          	addi	a6,a1,-32
    607a:	02000793          	li	a5,32
    607e:	010759b3          	srl	s3,a4,a6
    6082:	00f58a63          	beq	a1,a5,6096 <__subdf3+0x524>
    6086:	04000793          	li	a5,64
    608a:	40b785b3          	sub	a1,a5,a1
    608e:	00b71733          	sll	a4,a4,a1
    6092:	00eeeeb3          	or	t4,t4,a4
    6096:	01d03833          	snez	a6,t4
    609a:	01386833          	or	a6,a6,s3
    609e:	bea5                	j	5c16 <__subdf3+0xa4>
    60a0:	01e36333          	or	t1,t1,t5
    60a4:	00603833          	snez	a6,t1
    60a8:	410e89b3          	sub	s3,t4,a6
    60ac:	013eb7b3          	sltu	a5,t4,s3
    60b0:	40f70633          	sub	a2,a4,a5
    60b4:	84c6                	mv	s1,a7
    60b6:	8436                	mv	s0,a3
    60b8:	b6ad                	j	5c22 <__subdf3+0xb0>
    60ba:	01e367b3          	or	a5,t1,t5
    60be:	18078763          	beqz	a5,624c <__subdf3+0x6da>
    60c2:	fff58793          	addi	a5,a1,-1
    60c6:	1c078c63          	beqz	a5,629e <__subdf3+0x72c>
    60ca:	7ff00693          	li	a3,2047
    60ce:	0ad58e63          	beq	a1,a3,618a <__subdf3+0x618>
    60d2:	85be                	mv	a1,a5
    60d4:	bd65                	j	5f8c <__subdf3+0x41a>
    60d6:	02000793          	li	a5,32
    60da:	8f8d                	sub	a5,a5,a1
    60dc:	00bed9b3          	srl	s3,t4,a1
    60e0:	00f71833          	sll	a6,a4,a5
    60e4:	00fe9eb3          	sll	t4,t4,a5
    60e8:	01386833          	or	a6,a6,s3
    60ec:	00b75733          	srl	a4,a4,a1
    60f0:	01d039b3          	snez	s3,t4
    60f4:	01386833          	or	a6,a6,s3
    60f8:	933a                	add	t1,t1,a4
    60fa:	b365                	j	5ea2 <__subdf3+0x330>
    60fc:	00361813          	slli	a6,a2,0x3
    6100:	01d71793          	slli	a5,a4,0x1d
    6104:	00385813          	srli	a6,a6,0x3
    6108:	0107e833          	or	a6,a5,a6
    610c:	8436                	mv	s0,a3
    610e:	00375793          	srli	a5,a4,0x3
    6112:	bb95                	j	5e86 <__subdf3+0x314>
    6114:	cbbd                	beqz	a5,618a <__subdf3+0x618>
    6116:	01d76733          	or	a4,a4,t4
    611a:	dc071be3          	bnez	a4,5ef0 <__subdf3+0x37e>
    611e:	050e                	slli	a0,a0,0x3
    6120:	01d31813          	slli	a6,t1,0x1d
    6124:	810d                	srli	a0,a0,0x3
    6126:	00a86833          	or	a6,a6,a0
    612a:	00335793          	srli	a5,t1,0x3
    612e:	bb75                	j	5eea <__subdf3+0x378>
    6130:	e2080fe3          	beqz	a6,5f6e <__subdf3+0x3fc>
    6134:	00361813          	slli	a6,a2,0x3
    6138:	01d71793          	slli	a5,a4,0x1d
    613c:	00385813          	srli	a6,a6,0x3
    6140:	00f86833          	or	a6,a6,a5
    6144:	8436                	mv	s0,a3
    6146:	00375793          	srli	a5,a4,0x3
    614a:	b391                	j	5e8e <__subdf3+0x31c>
    614c:	41df09b3          	sub	s3,t5,t4
    6150:	40e307b3          	sub	a5,t1,a4
    6154:	013f3f33          	sltu	t5,t5,s3
    6158:	41e78633          	sub	a2,a5,t5
    615c:	4485                	li	s1,1
    615e:	b4d1                	j	5c22 <__subdf3+0xb0>
    6160:	00351813          	slli	a6,a0,0x3
    6164:	01d31693          	slli	a3,t1,0x1d
    6168:	00385813          	srli	a6,a6,0x3
    616c:	0106e833          	or	a6,a3,a6
    6170:	00335793          	srli	a5,t1,0x3
    6174:	bb9d                	j	5eea <__subdf3+0x378>
    6176:	41ee89b3          	sub	s3,t4,t5
    617a:	40670633          	sub	a2,a4,t1
    617e:	013eb933          	sltu	s2,t4,s3
    6182:	41260933          	sub	s2,a2,s2
    6186:	8436                	mv	s0,a3
    6188:	b475                	j	5c34 <__subdf3+0xc2>
    618a:	060e                	slli	a2,a2,0x3
    618c:	01d71813          	slli	a6,a4,0x1d
    6190:	820d                	srli	a2,a2,0x3
    6192:	00c86833          	or	a6,a6,a2
    6196:	00375793          	srli	a5,a4,0x3
    619a:	bb81                	j	5eea <__subdf3+0x378>
    619c:	41df09b3          	sub	s3,t5,t4
    61a0:	40e307b3          	sub	a5,t1,a4
    61a4:	013f3633          	sltu	a2,t5,s3
    61a8:	40c78633          	sub	a2,a5,a2
    61ac:	00861793          	slli	a5,a2,0x8
    61b0:	0a07d763          	bgez	a5,625e <__subdf3+0x6ec>
    61b4:	41ee89b3          	sub	s3,t4,t5
    61b8:	406707b3          	sub	a5,a4,t1
    61bc:	013ebeb3          	sltu	t4,t4,s3
    61c0:	41d78633          	sub	a2,a5,t4
    61c4:	8436                	mv	s0,a3
    61c6:	b4c9                	j	5c88 <__subdf3+0x116>
    61c8:	01e36333          	or	t1,t1,t5
    61cc:	00603833          	snez	a6,t1
    61d0:	b3fd                	j	5fbe <__subdf3+0x44c>
    61d2:	fe058813          	addi	a6,a1,-32
    61d6:	02000793          	li	a5,32
    61da:	010359b3          	srl	s3,t1,a6
    61de:	00f58a63          	beq	a1,a5,61f2 <__subdf3+0x680>
    61e2:	04000793          	li	a5,64
    61e6:	40b785b3          	sub	a1,a5,a1
    61ea:	00b31333          	sll	t1,t1,a1
    61ee:	006f6f33          	or	t5,t5,t1
    61f2:	01e03833          	snez	a6,t5
    61f6:	01386833          	or	a6,a6,s3
    61fa:	b57d                	j	60a8 <__subdf3+0x536>
    61fc:	41ee89b3          	sub	s3,t4,t5
    6200:	406707b3          	sub	a5,a4,t1
    6204:	013ebeb3          	sltu	t4,t4,s3
    6208:	41d78633          	sub	a2,a5,t4
    620c:	8436                	mv	s0,a3
    620e:	4485                	li	s1,1
    6210:	bc09                	j	5c22 <__subdf3+0xb0>
    6212:	00361813          	slli	a6,a2,0x3
    6216:	01d71793          	slli	a5,a4,0x1d
    621a:	00385813          	srli	a6,a6,0x3
    621e:	00f86833          	or	a6,a6,a5
    6222:	00375793          	srli	a5,a4,0x3
    6226:	b1a5                	j	5e8e <__subdf3+0x31c>
    6228:	01df09b3          	add	s3,t5,t4
    622c:	00e307b3          	add	a5,t1,a4
    6230:	01e9bf33          	sltu	t5,s3,t5
    6234:	01e78633          	add	a2,a5,t5
    6238:	00861793          	slli	a5,a2,0x8
    623c:	c207d8e3          	bgez	a5,5e6c <__subdf3+0x2fa>
    6240:	ff8007b7          	lui	a5,0xff800
    6244:	17fd                	addi	a5,a5,-1
    6246:	8e7d                	and	a2,a2,a5
    6248:	4485                	li	s1,1
    624a:	b10d                	j	5e6c <__subdf3+0x2fa>
    624c:	060e                	slli	a2,a2,0x3
    624e:	01d71813          	slli	a6,a4,0x1d
    6252:	820d                	srli	a2,a2,0x3
    6254:	00c86833          	or	a6,a6,a2
    6258:	00375793          	srli	a5,a4,0x3
    625c:	b12d                	j	5e86 <__subdf3+0x314>
    625e:	00c9e833          	or	a6,s3,a2
    6262:	d00806e3          	beqz	a6,5f6e <__subdf3+0x3fc>
    6266:	b119                	j	5e6c <__subdf3+0x2fa>
    6268:	fe058813          	addi	a6,a1,-32
    626c:	02000793          	li	a5,32
    6270:	010359b3          	srl	s3,t1,a6
    6274:	00f58a63          	beq	a1,a5,6288 <__subdf3+0x716>
    6278:	04000793          	li	a5,64
    627c:	40b785b3          	sub	a1,a5,a1
    6280:	00b31333          	sll	t1,t1,a1
    6284:	006f6f33          	or	t5,t5,t1
    6288:	01e03833          	snez	a6,t5
    628c:	01386833          	or	a6,a6,s3
    6290:	b33d                	j	5fbe <__subdf3+0x44c>
    6292:	4401                	li	s0,0
    6294:	7ff00713          	li	a4,2047
    6298:	000807b7          	lui	a5,0x80
    629c:	bc2d                	j	5cd6 <__subdf3+0x164>
    629e:	01df09b3          	add	s3,t5,t4
    62a2:	00e307b3          	add	a5,t1,a4
    62a6:	01d9beb3          	sltu	t4,s3,t4
    62aa:	01d78633          	add	a2,a5,t4
    62ae:	bb69                	j	6048 <__subdf3+0x4d6>

000062b0 <__unorddf2>:
    62b0:	0145d713          	srli	a4,a1,0x14
    62b4:	001007b7          	lui	a5,0x100
    62b8:	17fd                	addi	a5,a5,-1
    62ba:	fff74713          	not	a4,a4
    62be:	0146d813          	srli	a6,a3,0x14
    62c2:	8dfd                	and	a1,a1,a5
    62c4:	8ff5                	and	a5,a5,a3
    62c6:	01571693          	slli	a3,a4,0x15
    62ca:	7ff87813          	andi	a6,a6,2047
    62ce:	ca99                	beqz	a3,62e4 <__unorddf2+0x34>
    62d0:	7ff00713          	li	a4,2047
    62d4:	4501                	li	a0,0
    62d6:	00e80363          	beq	a6,a4,62dc <__unorddf2+0x2c>
    62da:	8082                	ret
    62dc:	8fd1                	or	a5,a5,a2
    62de:	00f03533          	snez	a0,a5
    62e2:	8082                	ret
    62e4:	8dc9                	or	a1,a1,a0
    62e6:	4505                	li	a0,1
    62e8:	d5e5                	beqz	a1,62d0 <__unorddf2+0x20>
    62ea:	8082                	ret

000062ec <__floatsidf>:
    62ec:	1141                	addi	sp,sp,-16
    62ee:	c606                	sw	ra,12(sp)
    62f0:	c422                	sw	s0,8(sp)
    62f2:	c226                	sw	s1,4(sp)
    62f4:	cd0d                	beqz	a0,632e <__floatsidf+0x42>
    62f6:	41f55793          	srai	a5,a0,0x1f
    62fa:	00a7c4b3          	xor	s1,a5,a0
    62fe:	8c9d                	sub	s1,s1,a5
    6300:	842a                	mv	s0,a0
    6302:	8526                	mv	a0,s1
    6304:	262010ef          	jal	ra,7566 <__clzsi2>
    6308:	41e00693          	li	a3,1054
    630c:	8e89                	sub	a3,a3,a0
    630e:	47a9                	li	a5,10
    6310:	807d                	srli	s0,s0,0x1f
    6312:	7ff6f693          	andi	a3,a3,2047
    6316:	02a7cd63          	blt	a5,a0,6350 <__floatsidf+0x64>
    631a:	472d                	li	a4,11
    631c:	8f09                	sub	a4,a4,a0
    631e:	00e4d7b3          	srl	a5,s1,a4
    6322:	0555                	addi	a0,a0,21
    6324:	07b2                	slli	a5,a5,0xc
    6326:	00a494b3          	sll	s1,s1,a0
    632a:	83b1                	srli	a5,a5,0xc
    632c:	a029                	j	6336 <__floatsidf+0x4a>
    632e:	4401                	li	s0,0
    6330:	4681                	li	a3,0
    6332:	4781                	li	a5,0
    6334:	4481                	li	s1,0
    6336:	07b2                	slli	a5,a5,0xc
    6338:	06d2                	slli	a3,a3,0x14
    633a:	83b1                	srli	a5,a5,0xc
    633c:	047e                	slli	s0,s0,0x1f
    633e:	8fd5                	or	a5,a5,a3
    6340:	8fc1                	or	a5,a5,s0
    6342:	40b2                	lw	ra,12(sp)
    6344:	4422                	lw	s0,8(sp)
    6346:	8526                	mv	a0,s1
    6348:	85be                	mv	a1,a5
    634a:	4492                	lw	s1,4(sp)
    634c:	0141                	addi	sp,sp,16
    634e:	8082                	ret
    6350:	1555                	addi	a0,a0,-11
    6352:	00a497b3          	sll	a5,s1,a0
    6356:	07b2                	slli	a5,a5,0xc
    6358:	83b1                	srli	a5,a5,0xc
    635a:	4481                	li	s1,0
    635c:	bfe9                	j	6336 <__floatsidf+0x4a>

0000635e <__addsf3>:
    635e:	1141                	addi	sp,sp,-16
    6360:	00800737          	lui	a4,0x800
    6364:	177d                	addi	a4,a4,-1
    6366:	0175d813          	srli	a6,a1,0x17
    636a:	c226                	sw	s1,4(sp)
    636c:	01755493          	srli	s1,a0,0x17
    6370:	00a77333          	and	t1,a4,a0
    6374:	0ff4f493          	andi	s1,s1,255
    6378:	00b776b3          	and	a3,a4,a1
    637c:	c04a                	sw	s2,0(sp)
    637e:	0ff87813          	andi	a6,a6,255
    6382:	01f55913          	srli	s2,a0,0x1f
    6386:	c606                	sw	ra,12(sp)
    6388:	c422                	sw	s0,8(sp)
    638a:	81fd                	srli	a1,a1,0x1f
    638c:	879a                	mv	a5,t1
    638e:	8526                	mv	a0,s1
    6390:	864a                	mv	a2,s2
    6392:	00331e13          	slli	t3,t1,0x3
    6396:	00369e93          	slli	t4,a3,0x3
    639a:	410488b3          	sub	a7,s1,a6
    639e:	0eb90a63          	beq	s2,a1,6492 <__addsf3+0x134>
    63a2:	0d105063          	blez	a7,6462 <__addsf3+0x104>
    63a6:	14080463          	beqz	a6,64ee <__addsf3+0x190>
    63aa:	0ff00793          	li	a5,255
    63ae:	14f48b63          	beq	s1,a5,6504 <__addsf3+0x1a6>
    63b2:	040007b7          	lui	a5,0x4000
    63b6:	00feeeb3          	or	t4,t4,a5
    63ba:	47ed                	li	a5,27
    63bc:	2917c163          	blt	a5,a7,663e <__addsf3+0x2e0>
    63c0:	02000793          	li	a5,32
    63c4:	411787b3          	sub	a5,a5,a7
    63c8:	00fe97b3          	sll	a5,t4,a5
    63cc:	011ed8b3          	srl	a7,t4,a7
    63d0:	00f037b3          	snez	a5,a5
    63d4:	00f8e7b3          	or	a5,a7,a5
    63d8:	40fe07b3          	sub	a5,t3,a5
    63dc:	00579713          	slli	a4,a5,0x5
    63e0:	18075e63          	bgez	a4,657c <__addsf3+0x21e>
    63e4:	04000437          	lui	s0,0x4000
    63e8:	147d                	addi	s0,s0,-1
    63ea:	8c7d                	and	s0,s0,a5
    63ec:	8522                	mv	a0,s0
    63ee:	178010ef          	jal	ra,7566 <__clzsi2>
    63f2:	156d                	addi	a0,a0,-5
    63f4:	00a417b3          	sll	a5,s0,a0
    63f8:	1a954863          	blt	a0,s1,65a8 <__addsf3+0x24a>
    63fc:	8d05                	sub	a0,a0,s1
    63fe:	00150413          	addi	s0,a0,1 # 800001 <_data_lma+0x7f202d>
    6402:	02000713          	li	a4,32
    6406:	8f01                	sub	a4,a4,s0
    6408:	00e79733          	sll	a4,a5,a4
    640c:	00e03733          	snez	a4,a4
    6410:	0087d7b3          	srl	a5,a5,s0
    6414:	8fd9                	or	a5,a5,a4
    6416:	4481                	li	s1,0
    6418:	0077f713          	andi	a4,a5,7
    641c:	c719                	beqz	a4,642a <__addsf3+0xcc>
    641e:	00f7f713          	andi	a4,a5,15
    6422:	4691                	li	a3,4
    6424:	00d70363          	beq	a4,a3,642a <__addsf3+0xcc>
    6428:	0791                	addi	a5,a5,4
    642a:	00579713          	slli	a4,a5,0x5
    642e:	14075b63          	bgez	a4,6584 <__addsf3+0x226>
    6432:	0485                	addi	s1,s1,1
    6434:	0ff00713          	li	a4,255
    6438:	864a                	mv	a2,s2
    643a:	16e48363          	beq	s1,a4,65a0 <__addsf3+0x242>
    643e:	079a                	slli	a5,a5,0x6
    6440:	83a5                	srli	a5,a5,0x9
    6442:	0ff4f513          	andi	a0,s1,255
    6446:	40b2                	lw	ra,12(sp)
    6448:	4422                	lw	s0,8(sp)
    644a:	07a6                	slli	a5,a5,0x9
    644c:	01751493          	slli	s1,a0,0x17
    6450:	0097d513          	srli	a0,a5,0x9
    6454:	8d45                	or	a0,a0,s1
    6456:	067e                	slli	a2,a2,0x1f
    6458:	4492                	lw	s1,4(sp)
    645a:	4902                	lw	s2,0(sp)
    645c:	8d51                	or	a0,a0,a2
    645e:	0141                	addi	sp,sp,16
    6460:	8082                	ret
    6462:	0a089963          	bnez	a7,6514 <__addsf3+0x1b6>
    6466:	00148713          	addi	a4,s1,1
    646a:	0fe77713          	andi	a4,a4,254
    646e:	14071763          	bnez	a4,65bc <__addsf3+0x25e>
    6472:	22049063          	bnez	s1,6692 <__addsf3+0x334>
    6476:	1e0e0d63          	beqz	t3,6670 <__addsf3+0x312>
    647a:	fc0e86e3          	beqz	t4,6446 <__addsf3+0xe8>
    647e:	41de07b3          	sub	a5,t3,t4
    6482:	00579713          	slli	a4,a5,0x5
    6486:	22075063          	bgez	a4,66a6 <__addsf3+0x348>
    648a:	41ce87b3          	sub	a5,t4,t3
    648e:	892e                	mv	s2,a1
    6490:	b761                	j	6418 <__addsf3+0xba>
    6492:	0b105c63          	blez	a7,654a <__addsf3+0x1ec>
    6496:	08080e63          	beqz	a6,6532 <__addsf3+0x1d4>
    649a:	0ff00793          	li	a5,255
    649e:	06f48363          	beq	s1,a5,6504 <__addsf3+0x1a6>
    64a2:	040007b7          	lui	a5,0x4000
    64a6:	00feeeb3          	or	t4,t4,a5
    64aa:	47ed                	li	a5,27
    64ac:	1f17c963          	blt	a5,a7,669e <__addsf3+0x340>
    64b0:	02000793          	li	a5,32
    64b4:	411787b3          	sub	a5,a5,a7
    64b8:	00fe97b3          	sll	a5,t4,a5
    64bc:	011ed8b3          	srl	a7,t4,a7
    64c0:	00f037b3          	snez	a5,a5
    64c4:	00f8e7b3          	or	a5,a7,a5
    64c8:	97f2                	add	a5,a5,t3
    64ca:	00579713          	slli	a4,a5,0x5
    64ce:	0a075763          	bgez	a4,657c <__addsf3+0x21e>
    64d2:	0485                	addi	s1,s1,1
    64d4:	0ff00713          	li	a4,255
    64d8:	0ce48463          	beq	s1,a4,65a0 <__addsf3+0x242>
    64dc:	7e0006b7          	lui	a3,0x7e000
    64e0:	0017d713          	srli	a4,a5,0x1
    64e4:	16fd                	addi	a3,a3,-1
    64e6:	8b85                	andi	a5,a5,1
    64e8:	8f75                	and	a4,a4,a3
    64ea:	8fd9                	or	a5,a5,a4
    64ec:	b735                	j	6418 <__addsf3+0xba>
    64ee:	080e8d63          	beqz	t4,6588 <__addsf3+0x22a>
    64f2:	18fd                	addi	a7,a7,-1
    64f4:	41de07b3          	sub	a5,t3,t4
    64f8:	ee0882e3          	beqz	a7,63dc <__addsf3+0x7e>
    64fc:	0ff00793          	li	a5,255
    6500:	eaf49de3          	bne	s1,a5,63ba <__addsf3+0x5c>
    6504:	08030d63          	beqz	t1,659e <__addsf3+0x240>
    6508:	4601                	li	a2,0
    650a:	0ff00513          	li	a0,255
    650e:	004007b7          	lui	a5,0x400
    6512:	bf15                	j	6446 <__addsf3+0xe8>
    6514:	40980733          	sub	a4,a6,s1
    6518:	e8ed                	bnez	s1,660a <__addsf3+0x2ac>
    651a:	140e0263          	beqz	t3,665e <__addsf3+0x300>
    651e:	177d                	addi	a4,a4,-1
    6520:	18070863          	beqz	a4,66b0 <__addsf3+0x352>
    6524:	0ff00793          	li	a5,255
    6528:	0ef81963          	bne	a6,a5,661a <__addsf3+0x2bc>
    652c:	892e                	mv	s2,a1
    652e:	8336                	mv	t1,a3
    6530:	bfd1                	j	6504 <__addsf3+0x1a6>
    6532:	040e8b63          	beqz	t4,6588 <__addsf3+0x22a>
    6536:	18fd                	addi	a7,a7,-1
    6538:	01de07b3          	add	a5,t3,t4
    653c:	f80887e3          	beqz	a7,64ca <__addsf3+0x16c>
    6540:	0ff00793          	li	a5,255
    6544:	f6f493e3          	bne	s1,a5,64aa <__addsf3+0x14c>
    6548:	bf75                	j	6504 <__addsf3+0x1a6>
    654a:	08089563          	bnez	a7,65d4 <__addsf3+0x276>
    654e:	0485                	addi	s1,s1,1
    6550:	0fe4f713          	andi	a4,s1,254
    6554:	12071363          	bnez	a4,667a <__addsf3+0x31c>
    6558:	10051763          	bnez	a0,6666 <__addsf3+0x308>
    655c:	140e0f63          	beqz	t3,66ba <__addsf3+0x35c>
    6560:	ee0e83e3          	beqz	t4,6446 <__addsf3+0xe8>
    6564:	01de07b3          	add	a5,t3,t4
    6568:	00579713          	slli	a4,a5,0x5
    656c:	4481                	li	s1,0
    656e:	00075763          	bgez	a4,657c <__addsf3+0x21e>
    6572:	fc000737          	lui	a4,0xfc000
    6576:	177d                	addi	a4,a4,-1
    6578:	8ff9                	and	a5,a5,a4
    657a:	4485                	li	s1,1
    657c:	0077f713          	andi	a4,a5,7
    6580:	e8071fe3          	bnez	a4,641e <__addsf3+0xc0>
    6584:	0037d313          	srli	t1,a5,0x3
    6588:	0ff00793          	li	a5,255
    658c:	f6f48ce3          	beq	s1,a5,6504 <__addsf3+0x1a6>
    6590:	00931793          	slli	a5,t1,0x9
    6594:	83a5                	srli	a5,a5,0x9
    6596:	0ff4f513          	andi	a0,s1,255
    659a:	864a                	mv	a2,s2
    659c:	b56d                	j	6446 <__addsf3+0xe8>
    659e:	864a                	mv	a2,s2
    65a0:	0ff00513          	li	a0,255
    65a4:	4781                	li	a5,0
    65a6:	b545                	j	6446 <__addsf3+0xe8>
    65a8:	fc000737          	lui	a4,0xfc000
    65ac:	177d                	addi	a4,a4,-1
    65ae:	8ff9                	and	a5,a5,a4
    65b0:	0077f713          	andi	a4,a5,7
    65b4:	8c89                	sub	s1,s1,a0
    65b6:	e60714e3          	bnez	a4,641e <__addsf3+0xc0>
    65ba:	b7e9                	j	6584 <__addsf3+0x226>
    65bc:	41de0433          	sub	s0,t3,t4
    65c0:	00541793          	slli	a5,s0,0x5
    65c4:	0c07c363          	bltz	a5,668a <__addsf3+0x32c>
    65c8:	e20412e3          	bnez	s0,63ec <__addsf3+0x8e>
    65cc:	4601                	li	a2,0
    65ce:	4501                	li	a0,0
    65d0:	4781                	li	a5,0
    65d2:	bd95                	j	6446 <__addsf3+0xe8>
    65d4:	40980733          	sub	a4,a6,s1
    65d8:	c4ad                	beqz	s1,6642 <__addsf3+0x2e4>
    65da:	0ff00793          	li	a5,255
    65de:	f4f808e3          	beq	a6,a5,652e <__addsf3+0x1d0>
    65e2:	040007b7          	lui	a5,0x4000
    65e6:	00fe6e33          	or	t3,t3,a5
    65ea:	47ed                	li	a5,27
    65ec:	0ce7cc63          	blt	a5,a4,66c4 <__addsf3+0x366>
    65f0:	02000793          	li	a5,32
    65f4:	8f99                	sub	a5,a5,a4
    65f6:	00fe17b3          	sll	a5,t3,a5
    65fa:	00ee5733          	srl	a4,t3,a4
    65fe:	00f037b3          	snez	a5,a5
    6602:	8fd9                	or	a5,a5,a4
    6604:	97f6                	add	a5,a5,t4
    6606:	84c2                	mv	s1,a6
    6608:	b5c9                	j	64ca <__addsf3+0x16c>
    660a:	0ff00793          	li	a5,255
    660e:	f0f80fe3          	beq	a6,a5,652c <__addsf3+0x1ce>
    6612:	040007b7          	lui	a5,0x4000
    6616:	00fe6e33          	or	t3,t3,a5
    661a:	47ed                	li	a5,27
    661c:	08e7c363          	blt	a5,a4,66a2 <__addsf3+0x344>
    6620:	02000693          	li	a3,32
    6624:	8e99                	sub	a3,a3,a4
    6626:	00de16b3          	sll	a3,t3,a3
    662a:	00ee57b3          	srl	a5,t3,a4
    662e:	00d03733          	snez	a4,a3
    6632:	8fd9                	or	a5,a5,a4
    6634:	40fe87b3          	sub	a5,t4,a5
    6638:	84c2                	mv	s1,a6
    663a:	892e                	mv	s2,a1
    663c:	b345                	j	63dc <__addsf3+0x7e>
    663e:	4785                	li	a5,1
    6640:	bb61                	j	63d8 <__addsf3+0x7a>
    6642:	060e0e63          	beqz	t3,66be <__addsf3+0x360>
    6646:	177d                	addi	a4,a4,-1
    6648:	01de07b3          	add	a5,t3,t4
    664c:	84c2                	mv	s1,a6
    664e:	e6070ee3          	beqz	a4,64ca <__addsf3+0x16c>
    6652:	0ff00793          	li	a5,255
    6656:	f8f81ae3          	bne	a6,a5,65ea <__addsf3+0x28c>
    665a:	8336                	mv	t1,a3
    665c:	b565                	j	6504 <__addsf3+0x1a6>
    665e:	8336                	mv	t1,a3
    6660:	84c2                	mv	s1,a6
    6662:	892e                	mv	s2,a1
    6664:	b715                	j	6588 <__addsf3+0x22a>
    6666:	ec0e04e3          	beqz	t3,652e <__addsf3+0x1d0>
    666a:	e80e8de3          	beqz	t4,6504 <__addsf3+0x1a6>
    666e:	bd69                	j	6508 <__addsf3+0x1aa>
    6670:	020e8d63          	beqz	t4,66aa <__addsf3+0x34c>
    6674:	862e                	mv	a2,a1
    6676:	87b6                	mv	a5,a3
    6678:	b3f9                	j	6446 <__addsf3+0xe8>
    667a:	0ff00793          	li	a5,255
    667e:	f2f481e3          	beq	s1,a5,65a0 <__addsf3+0x242>
    6682:	01de07b3          	add	a5,t3,t4
    6686:	8385                	srli	a5,a5,0x1
    6688:	bdd5                	j	657c <__addsf3+0x21e>
    668a:	41ce8433          	sub	s0,t4,t3
    668e:	892e                	mv	s2,a1
    6690:	bbb1                	j	63ec <__addsf3+0x8e>
    6692:	fc0e1ce3          	bnez	t3,666a <__addsf3+0x30c>
    6696:	e60e89e3          	beqz	t4,6508 <__addsf3+0x1aa>
    669a:	892e                	mv	s2,a1
    669c:	bd49                	j	652e <__addsf3+0x1d0>
    669e:	4785                	li	a5,1
    66a0:	b525                	j	64c8 <__addsf3+0x16a>
    66a2:	4785                	li	a5,1
    66a4:	bf41                	j	6634 <__addsf3+0x2d6>
    66a6:	ec079be3          	bnez	a5,657c <__addsf3+0x21e>
    66aa:	4601                	li	a2,0
    66ac:	4781                	li	a5,0
    66ae:	bb61                	j	6446 <__addsf3+0xe8>
    66b0:	41ce87b3          	sub	a5,t4,t3
    66b4:	84c2                	mv	s1,a6
    66b6:	892e                	mv	s2,a1
    66b8:	b315                	j	63dc <__addsf3+0x7e>
    66ba:	87b6                	mv	a5,a3
    66bc:	b369                	j	6446 <__addsf3+0xe8>
    66be:	8336                	mv	t1,a3
    66c0:	84c2                	mv	s1,a6
    66c2:	b5d9                	j	6588 <__addsf3+0x22a>
    66c4:	4785                	li	a5,1
    66c6:	bf3d                	j	6604 <__addsf3+0x2a6>

000066c8 <__divsf3>:
    66c8:	7139                	addi	sp,sp,-64
    66ca:	01755793          	srli	a5,a0,0x17
    66ce:	d84a                	sw	s2,48(sp)
    66d0:	d256                	sw	s5,36(sp)
    66d2:	ce5e                	sw	s7,28(sp)
    66d4:	00951a93          	slli	s5,a0,0x9
    66d8:	01f55913          	srli	s2,a0,0x1f
    66dc:	de06                	sw	ra,60(sp)
    66de:	dc22                	sw	s0,56(sp)
    66e0:	da26                	sw	s1,52(sp)
    66e2:	d64e                	sw	s3,44(sp)
    66e4:	d452                	sw	s4,40(sp)
    66e6:	d05a                	sw	s6,32(sp)
    66e8:	0ff7f793          	andi	a5,a5,255
    66ec:	009ada93          	srli	s5,s5,0x9
    66f0:	8bca                	mv	s7,s2
    66f2:	12078263          	beqz	a5,6816 <__divsf3+0x14e>
    66f6:	0ff00713          	li	a4,255
    66fa:	12e78463          	beq	a5,a4,6822 <__divsf3+0x15a>
    66fe:	0a8e                	slli	s5,s5,0x3
    6700:	04000737          	lui	a4,0x4000
    6704:	00eaeab3          	or	s5,s5,a4
    6708:	f8178a13          	addi	s4,a5,-127 # 3ffff81 <_data_lma+0x3ff1fad>
    670c:	4401                	li	s0,0
    670e:	4b01                	li	s6,0
    6710:	0175d793          	srli	a5,a1,0x17
    6714:	00959493          	slli	s1,a1,0x9
    6718:	0ff7f793          	andi	a5,a5,255
    671c:	80a5                	srli	s1,s1,0x9
    671e:	01f5d993          	srli	s3,a1,0x1f
    6722:	c7fd                	beqz	a5,6810 <__divsf3+0x148>
    6724:	0ff00713          	li	a4,255
    6728:	02e78763          	beq	a5,a4,6756 <__divsf3+0x8e>
    672c:	048e                	slli	s1,s1,0x3
    672e:	f8178793          	addi	a5,a5,-127
    6732:	04000737          	lui	a4,0x4000
    6736:	8cd9                	or	s1,s1,a4
    6738:	40fa0a33          	sub	s4,s4,a5
    673c:	4681                	li	a3,0
    673e:	8c55                	or	s0,s0,a3
    6740:	00007717          	auipc	a4,0x7
    6744:	32870713          	addi	a4,a4,808 # da68 <atanlo+0xa8>
    6748:	040a                	slli	s0,s0,0x2
    674a:	943a                	add	s0,s0,a4
    674c:	401c                	lw	a5,0(s0)
    674e:	01394933          	xor	s2,s2,s3
    6752:	97ba                	add	a5,a5,a4
    6754:	8782                	jr	a5
    6756:	f01a0a13          	addi	s4,s4,-255
    675a:	e8f9                	bnez	s1,6830 <__divsf3+0x168>
    675c:	4689                	li	a3,2
    675e:	8c55                	or	s0,s0,a3
    6760:	00007717          	auipc	a4,0x7
    6764:	34870713          	addi	a4,a4,840 # daa8 <atanlo+0xe8>
    6768:	040a                	slli	s0,s0,0x2
    676a:	943a                	add	s0,s0,a4
    676c:	401c                	lw	a5,0(s0)
    676e:	01394933          	xor	s2,s2,s3
    6772:	97ba                	add	a5,a5,a4
    6774:	8782                	jr	a5
    6776:	4901                	li	s2,0
    6778:	0ff00713          	li	a4,255
    677c:	004007b7          	lui	a5,0x400
    6780:	00979513          	slli	a0,a5,0x9
    6784:	50f2                	lw	ra,60(sp)
    6786:	5462                	lw	s0,56(sp)
    6788:	01771793          	slli	a5,a4,0x17
    678c:	8125                	srli	a0,a0,0x9
    678e:	097e                	slli	s2,s2,0x1f
    6790:	8d5d                	or	a0,a0,a5
    6792:	01256533          	or	a0,a0,s2
    6796:	54d2                	lw	s1,52(sp)
    6798:	5942                	lw	s2,48(sp)
    679a:	59b2                	lw	s3,44(sp)
    679c:	5a22                	lw	s4,40(sp)
    679e:	5a92                	lw	s5,36(sp)
    67a0:	5b02                	lw	s6,32(sp)
    67a2:	4bf2                	lw	s7,28(sp)
    67a4:	6121                	addi	sp,sp,64
    67a6:	8082                	ret
    67a8:	0ff00713          	li	a4,255
    67ac:	4781                	li	a5,0
    67ae:	bfc9                	j	6780 <__divsf3+0xb8>
    67b0:	8aa6                	mv	s5,s1
    67b2:	8bce                	mv	s7,s3
    67b4:	8b36                	mv	s6,a3
    67b6:	4789                	li	a5,2
    67b8:	1afb0b63          	beq	s6,a5,696e <__divsf3+0x2a6>
    67bc:	478d                	li	a5,3
    67be:	fafb0ce3          	beq	s6,a5,6776 <__divsf3+0xae>
    67c2:	4785                	li	a5,1
    67c4:	0afb0a63          	beq	s6,a5,6878 <__divsf3+0x1b0>
    67c8:	07fa0713          	addi	a4,s4,127
    67cc:	001bf913          	andi	s2,s7,1
    67d0:	12e05763          	blez	a4,68fe <__divsf3+0x236>
    67d4:	007af793          	andi	a5,s5,7
    67d8:	c799                	beqz	a5,67e6 <__divsf3+0x11e>
    67da:	00faf793          	andi	a5,s5,15
    67de:	4691                	li	a3,4
    67e0:	00d78363          	beq	a5,a3,67e6 <__divsf3+0x11e>
    67e4:	0a91                	addi	s5,s5,4
    67e6:	004a9793          	slli	a5,s5,0x4
    67ea:	0007d963          	bgez	a5,67fc <__divsf3+0x134>
    67ee:	f80007b7          	lui	a5,0xf8000
    67f2:	17fd                	addi	a5,a5,-1
    67f4:	00fafab3          	and	s5,s5,a5
    67f8:	080a0713          	addi	a4,s4,128
    67fc:	0fe00793          	li	a5,254
    6800:	fae7c4e3          	blt	a5,a4,67a8 <__divsf3+0xe0>
    6804:	006a9793          	slli	a5,s5,0x6
    6808:	83a5                	srli	a5,a5,0x9
    680a:	0ff77713          	andi	a4,a4,255
    680e:	bf8d                	j	6780 <__divsf3+0xb8>
    6810:	e4b9                	bnez	s1,685e <__divsf3+0x196>
    6812:	4685                	li	a3,1
    6814:	b7a9                	j	675e <__divsf3+0x96>
    6816:	020a9463          	bnez	s5,683e <__divsf3+0x176>
    681a:	4411                	li	s0,4
    681c:	4a01                	li	s4,0
    681e:	4b05                	li	s6,1
    6820:	bdc5                	j	6710 <__divsf3+0x48>
    6822:	000a9963          	bnez	s5,6834 <__divsf3+0x16c>
    6826:	4421                	li	s0,8
    6828:	0ff00a13          	li	s4,255
    682c:	4b09                	li	s6,2
    682e:	b5cd                	j	6710 <__divsf3+0x48>
    6830:	468d                	li	a3,3
    6832:	b731                	j	673e <__divsf3+0x76>
    6834:	4431                	li	s0,12
    6836:	0ff00a13          	li	s4,255
    683a:	4b0d                	li	s6,3
    683c:	bdd1                	j	6710 <__divsf3+0x48>
    683e:	8556                	mv	a0,s5
    6840:	c62e                	sw	a1,12(sp)
    6842:	525000ef          	jal	ra,7566 <__clzsi2>
    6846:	ffb50793          	addi	a5,a0,-5
    684a:	00fa9ab3          	sll	s5,s5,a5
    684e:	f8a00793          	li	a5,-118
    6852:	40a78a33          	sub	s4,a5,a0
    6856:	4401                	li	s0,0
    6858:	4b01                	li	s6,0
    685a:	45b2                	lw	a1,12(sp)
    685c:	bd55                	j	6710 <__divsf3+0x48>
    685e:	8526                	mv	a0,s1
    6860:	507000ef          	jal	ra,7566 <__clzsi2>
    6864:	ffb50713          	addi	a4,a0,-5
    6868:	00aa07b3          	add	a5,s4,a0
    686c:	00e494b3          	sll	s1,s1,a4
    6870:	07678a13          	addi	s4,a5,118 # f8000076 <_eusrstack+0xd7ff8076>
    6874:	4681                	li	a3,0
    6876:	b5e1                	j	673e <__divsf3+0x76>
    6878:	001bf913          	andi	s2,s7,1
    687c:	4701                	li	a4,0
    687e:	4781                	li	a5,0
    6880:	b701                	j	6780 <__divsf3+0xb8>
    6882:	6641                	lui	a2,0x10
    6884:	00549513          	slli	a0,s1,0x5
    6888:	167d                	addi	a2,a2,-1
    688a:	01055793          	srli	a5,a0,0x10
    688e:	8e69                	and	a2,a2,a0
    6890:	0a9afa63          	bgeu	s5,s1,6944 <__divsf3+0x27c>
    6894:	02fad5b3          	divu	a1,s5,a5
    6898:	1a7d                	addi	s4,s4,-1
    689a:	86d6                	mv	a3,s5
    689c:	4701                	li	a4,0
    689e:	02c58833          	mul	a6,a1,a2
    68a2:	02f6f6b3          	remu	a3,a3,a5
    68a6:	06c2                	slli	a3,a3,0x10
    68a8:	8f55                	or	a4,a4,a3
    68aa:	01077b63          	bgeu	a4,a6,68c0 <__divsf3+0x1f8>
    68ae:	972a                	add	a4,a4,a0
    68b0:	fff58693          	addi	a3,a1,-1
    68b4:	0aa76863          	bltu	a4,a0,6964 <__divsf3+0x29c>
    68b8:	0b077663          	bgeu	a4,a6,6964 <__divsf3+0x29c>
    68bc:	15f9                	addi	a1,a1,-2
    68be:	972a                	add	a4,a4,a0
    68c0:	41070733          	sub	a4,a4,a6
    68c4:	02f756b3          	divu	a3,a4,a5
    68c8:	02f77733          	remu	a4,a4,a5
    68cc:	02c68ab3          	mul	s5,a3,a2
    68d0:	01071793          	slli	a5,a4,0x10
    68d4:	0157fb63          	bgeu	a5,s5,68ea <__divsf3+0x222>
    68d8:	97aa                	add	a5,a5,a0
    68da:	fff68713          	addi	a4,a3,-1 # 7dffffff <_eusrstack+0x5dff7fff>
    68de:	08a7e163          	bltu	a5,a0,6960 <__divsf3+0x298>
    68e2:	0757ff63          	bgeu	a5,s5,6960 <__divsf3+0x298>
    68e6:	16f9                	addi	a3,a3,-2
    68e8:	97aa                	add	a5,a5,a0
    68ea:	05c2                	slli	a1,a1,0x10
    68ec:	41578ab3          	sub	s5,a5,s5
    68f0:	8dd5                	or	a1,a1,a3
    68f2:	01503ab3          	snez	s5,s5
    68f6:	0155eab3          	or	s5,a1,s5
    68fa:	8bca                	mv	s7,s2
    68fc:	b5f1                	j	67c8 <__divsf3+0x100>
    68fe:	4685                	li	a3,1
    6900:	8e99                	sub	a3,a3,a4
    6902:	c711                	beqz	a4,690e <__divsf3+0x246>
    6904:	466d                	li	a2,27
    6906:	4701                	li	a4,0
    6908:	4781                	li	a5,0
    690a:	e6d64be3          	blt	a2,a3,6780 <__divsf3+0xb8>
    690e:	09ea0a13          	addi	s4,s4,158
    6912:	014a9a33          	sll	s4,s5,s4
    6916:	00dad7b3          	srl	a5,s5,a3
    691a:	01403ab3          	snez	s5,s4
    691e:	0157e7b3          	or	a5,a5,s5
    6922:	0077f713          	andi	a4,a5,7
    6926:	c719                	beqz	a4,6934 <__divsf3+0x26c>
    6928:	00f7f713          	andi	a4,a5,15
    692c:	4691                	li	a3,4
    692e:	00d70363          	beq	a4,a3,6934 <__divsf3+0x26c>
    6932:	0791                	addi	a5,a5,4
    6934:	00579713          	slli	a4,a5,0x5
    6938:	02074863          	bltz	a4,6968 <__divsf3+0x2a0>
    693c:	079a                	slli	a5,a5,0x6
    693e:	83a5                	srli	a5,a5,0x9
    6940:	4701                	li	a4,0
    6942:	bd3d                	j	6780 <__divsf3+0xb8>
    6944:	001ad693          	srli	a3,s5,0x1
    6948:	02f6d5b3          	divu	a1,a3,a5
    694c:	01fa9713          	slli	a4,s5,0x1f
    6950:	8341                	srli	a4,a4,0x10
    6952:	02c58833          	mul	a6,a1,a2
    6956:	b7b1                	j	68a2 <__divsf3+0x1da>
    6958:	8bce                	mv	s7,s3
    695a:	8b36                	mv	s6,a3
    695c:	4a81                	li	s5,0
    695e:	bda1                	j	67b6 <__divsf3+0xee>
    6960:	86ba                	mv	a3,a4
    6962:	b761                	j	68ea <__divsf3+0x222>
    6964:	85b6                	mv	a1,a3
    6966:	bfa9                	j	68c0 <__divsf3+0x1f8>
    6968:	4705                	li	a4,1
    696a:	4781                	li	a5,0
    696c:	bd11                	j	6780 <__divsf3+0xb8>
    696e:	001bf913          	andi	s2,s7,1
    6972:	0ff00713          	li	a4,255
    6976:	4781                	li	a5,0
    6978:	b521                	j	6780 <__divsf3+0xb8>

0000697a <__eqsf2>:
    697a:	01755693          	srli	a3,a0,0x17
    697e:	008007b7          	lui	a5,0x800
    6982:	17fd                	addi	a5,a5,-1
    6984:	0175d613          	srli	a2,a1,0x17
    6988:	0ff6f693          	andi	a3,a3,255
    698c:	0ff00813          	li	a6,255
    6990:	00a7f8b3          	and	a7,a5,a0
    6994:	01f55713          	srli	a4,a0,0x1f
    6998:	8fed                	and	a5,a5,a1
    699a:	0ff67613          	andi	a2,a2,255
    699e:	81fd                	srli	a1,a1,0x1f
    69a0:	03068463          	beq	a3,a6,69c8 <__eqsf2+0x4e>
    69a4:	0ff00513          	li	a0,255
    69a8:	02a60463          	beq	a2,a0,69d0 <__eqsf2+0x56>
    69ac:	4505                	li	a0,1
    69ae:	00c68363          	beq	a3,a2,69b4 <__eqsf2+0x3a>
    69b2:	8082                	ret
    69b4:	fef89fe3          	bne	a7,a5,69b2 <__eqsf2+0x38>
    69b8:	4501                	li	a0,0
    69ba:	feb70ce3          	beq	a4,a1,69b2 <__eqsf2+0x38>
    69be:	4505                	li	a0,1
    69c0:	faed                	bnez	a3,69b2 <__eqsf2+0x38>
    69c2:	01103533          	snez	a0,a7
    69c6:	8082                	ret
    69c8:	4505                	li	a0,1
    69ca:	fc088de3          	beqz	a7,69a4 <__eqsf2+0x2a>
    69ce:	8082                	ret
    69d0:	4505                	li	a0,1
    69d2:	dfe9                	beqz	a5,69ac <__eqsf2+0x32>
    69d4:	8082                	ret

000069d6 <__gesf2>:
    69d6:	01755693          	srli	a3,a0,0x17
    69da:	008007b7          	lui	a5,0x800
    69de:	17fd                	addi	a5,a5,-1
    69e0:	0175d613          	srli	a2,a1,0x17
    69e4:	0ff6f693          	andi	a3,a3,255
    69e8:	0ff00813          	li	a6,255
    69ec:	00a7f8b3          	and	a7,a5,a0
    69f0:	01f55713          	srli	a4,a0,0x1f
    69f4:	8fed                	and	a5,a5,a1
    69f6:	0ff67613          	andi	a2,a2,255
    69fa:	81fd                	srli	a1,a1,0x1f
    69fc:	03068163          	beq	a3,a6,6a1e <__gesf2+0x48>
    6a00:	01060c63          	beq	a2,a6,6a18 <__gesf2+0x42>
    6a04:	e28d                	bnez	a3,6a26 <__gesf2+0x50>
    6a06:	e211                	bnez	a2,6a0a <__gesf2+0x34>
    6a08:	c3b1                	beqz	a5,6a4c <__gesf2+0x76>
    6a0a:	02088e63          	beqz	a7,6a46 <__gesf2+0x70>
    6a0e:	04b70563          	beq	a4,a1,6a58 <__gesf2+0x82>
    6a12:	4505                	li	a0,1
    6a14:	e71d                	bnez	a4,6a42 <__gesf2+0x6c>
    6a16:	8082                	ret
    6a18:	d7f5                	beqz	a5,6a04 <__gesf2+0x2e>
    6a1a:	5579                	li	a0,-2
    6a1c:	8082                	ret
    6a1e:	fe089ee3          	bnez	a7,6a1a <__gesf2+0x44>
    6a22:	02d60963          	beq	a2,a3,6a54 <__gesf2+0x7e>
    6a26:	e211                	bnez	a2,6a2a <__gesf2+0x54>
    6a28:	d7ed                	beqz	a5,6a12 <__gesf2+0x3c>
    6a2a:	feb714e3          	bne	a4,a1,6a12 <__gesf2+0x3c>
    6a2e:	fed642e3          	blt	a2,a3,6a12 <__gesf2+0x3c>
    6a32:	00c6c763          	blt	a3,a2,6a40 <__gesf2+0x6a>
    6a36:	fd17eee3          	bltu	a5,a7,6a12 <__gesf2+0x3c>
    6a3a:	4501                	li	a0,0
    6a3c:	fcf8fde3          	bgeu	a7,a5,6a16 <__gesf2+0x40>
    6a40:	e701                	bnez	a4,6a48 <__gesf2+0x72>
    6a42:	557d                	li	a0,-1
    6a44:	8082                	ret
    6a46:	ddf5                	beqz	a1,6a42 <__gesf2+0x6c>
    6a48:	4505                	li	a0,1
    6a4a:	8082                	ret
    6a4c:	4501                	li	a0,0
    6a4e:	fc0892e3          	bnez	a7,6a12 <__gesf2+0x3c>
    6a52:	8082                	ret
    6a54:	dbf9                	beqz	a5,6a2a <__gesf2+0x54>
    6a56:	b7d1                	j	6a1a <__gesf2+0x44>
    6a58:	4681                	li	a3,0
    6a5a:	bfe1                	j	6a32 <__gesf2+0x5c>

00006a5c <__lesf2>:
    6a5c:	01755693          	srli	a3,a0,0x17
    6a60:	008007b7          	lui	a5,0x800
    6a64:	17fd                	addi	a5,a5,-1
    6a66:	0175d613          	srli	a2,a1,0x17
    6a6a:	0ff6f693          	andi	a3,a3,255
    6a6e:	0ff00813          	li	a6,255
    6a72:	00a7f8b3          	and	a7,a5,a0
    6a76:	01f55713          	srli	a4,a0,0x1f
    6a7a:	8fed                	and	a5,a5,a1
    6a7c:	0ff67613          	andi	a2,a2,255
    6a80:	81fd                	srli	a1,a1,0x1f
    6a82:	03068763          	beq	a3,a6,6ab0 <__lesf2+0x54>
    6a86:	01060963          	beq	a2,a6,6a98 <__lesf2+0x3c>
    6a8a:	ea85                	bnez	a3,6aba <__lesf2+0x5e>
    6a8c:	ea11                	bnez	a2,6aa0 <__lesf2+0x44>
    6a8e:	eb89                	bnez	a5,6aa0 <__lesf2+0x44>
    6a90:	4501                	li	a0,0
    6a92:	00089b63          	bnez	a7,6aa8 <__lesf2+0x4c>
    6a96:	8082                	ret
    6a98:	4509                	li	a0,2
    6a9a:	fff5                	bnez	a5,6a96 <__lesf2+0x3a>
    6a9c:	dae5                	beqz	a3,6a8c <__lesf2+0x30>
    6a9e:	a831                	j	6aba <__lesf2+0x5e>
    6aa0:	02088c63          	beqz	a7,6ad8 <__lesf2+0x7c>
    6aa4:	04b70063          	beq	a4,a1,6ae4 <__lesf2+0x88>
    6aa8:	4505                	li	a0,1
    6aaa:	d775                	beqz	a4,6a96 <__lesf2+0x3a>
    6aac:	557d                	li	a0,-1
    6aae:	8082                	ret
    6ab0:	4509                	li	a0,2
    6ab2:	02089863          	bnez	a7,6ae2 <__lesf2+0x86>
    6ab6:	02d60463          	beq	a2,a3,6ade <__lesf2+0x82>
    6aba:	e211                	bnez	a2,6abe <__lesf2+0x62>
    6abc:	d7f5                	beqz	a5,6aa8 <__lesf2+0x4c>
    6abe:	feb715e3          	bne	a4,a1,6aa8 <__lesf2+0x4c>
    6ac2:	fed643e3          	blt	a2,a3,6aa8 <__lesf2+0x4c>
    6ac6:	00c6c763          	blt	a3,a2,6ad4 <__lesf2+0x78>
    6aca:	fd17efe3          	bltu	a5,a7,6aa8 <__lesf2+0x4c>
    6ace:	4501                	li	a0,0
    6ad0:	fcf8f3e3          	bgeu	a7,a5,6a96 <__lesf2+0x3a>
    6ad4:	e319                	bnez	a4,6ada <__lesf2+0x7e>
    6ad6:	bfd9                	j	6aac <__lesf2+0x50>
    6ad8:	d9f1                	beqz	a1,6aac <__lesf2+0x50>
    6ada:	4505                	li	a0,1
    6adc:	8082                	ret
    6ade:	d3e5                	beqz	a5,6abe <__lesf2+0x62>
    6ae0:	8082                	ret
    6ae2:	8082                	ret
    6ae4:	4681                	li	a3,0
    6ae6:	b7c5                	j	6ac6 <__lesf2+0x6a>

00006ae8 <__mulsf3>:
    6ae8:	7179                	addi	sp,sp,-48
    6aea:	d422                	sw	s0,40(sp)
    6aec:	01755413          	srli	s0,a0,0x17
    6af0:	ce4e                	sw	s3,28(sp)
    6af2:	cc52                	sw	s4,24(sp)
    6af4:	00951993          	slli	s3,a0,0x9
    6af8:	d606                	sw	ra,44(sp)
    6afa:	d226                	sw	s1,36(sp)
    6afc:	d04a                	sw	s2,32(sp)
    6afe:	ca56                	sw	s5,20(sp)
    6b00:	c85a                	sw	s6,16(sp)
    6b02:	0ff47413          	andi	s0,s0,255
    6b06:	0099d993          	srli	s3,s3,0x9
    6b0a:	01f55a13          	srli	s4,a0,0x1f
    6b0e:	c469                	beqz	s0,6bd8 <__mulsf3+0xf0>
    6b10:	0ff00793          	li	a5,255
    6b14:	0ef40863          	beq	s0,a5,6c04 <__mulsf3+0x11c>
    6b18:	00399793          	slli	a5,s3,0x3
    6b1c:	04000737          	lui	a4,0x4000
    6b20:	00e7e9b3          	or	s3,a5,a4
    6b24:	f8140413          	addi	s0,s0,-127 # 3ffff81 <_data_lma+0x3ff1fad>
    6b28:	4481                	li	s1,0
    6b2a:	4b01                	li	s6,0
    6b2c:	0175d713          	srli	a4,a1,0x17
    6b30:	00959a93          	slli	s5,a1,0x9
    6b34:	0ff77713          	andi	a4,a4,255
    6b38:	009ada93          	srli	s5,s5,0x9
    6b3c:	01f5d913          	srli	s2,a1,0x1f
    6b40:	cf45                	beqz	a4,6bf8 <__mulsf3+0x110>
    6b42:	0ff00793          	li	a5,255
    6b46:	02f70c63          	beq	a4,a5,6b7e <__mulsf3+0x96>
    6b4a:	0a8e                	slli	s5,s5,0x3
    6b4c:	f8170713          	addi	a4,a4,-127 # 3ffff81 <_data_lma+0x3ff1fad>
    6b50:	040007b7          	lui	a5,0x4000
    6b54:	00faeab3          	or	s5,s5,a5
    6b58:	943a                	add	s0,s0,a4
    6b5a:	4601                	li	a2,0
    6b5c:	012a4533          	xor	a0,s4,s2
    6b60:	47bd                	li	a5,15
    6b62:	86aa                	mv	a3,a0
    6b64:	00140593          	addi	a1,s0,1
    6b68:	1097e263          	bltu	a5,s1,6c6c <__mulsf3+0x184>
    6b6c:	00007717          	auipc	a4,0x7
    6b70:	f7c70713          	addi	a4,a4,-132 # dae8 <atanlo+0x128>
    6b74:	048a                	slli	s1,s1,0x2
    6b76:	94ba                	add	s1,s1,a4
    6b78:	409c                	lw	a5,0(s1)
    6b7a:	97ba                	add	a5,a5,a4
    6b7c:	8782                	jr	a5
    6b7e:	0ff40413          	addi	s0,s0,255
    6b82:	0c0a9863          	bnez	s5,6c52 <__mulsf3+0x16a>
    6b86:	0024e493          	ori	s1,s1,2
    6b8a:	4609                	li	a2,2
    6b8c:	bfc1                	j	6b5c <__mulsf3+0x74>
    6b8e:	4501                	li	a0,0
    6b90:	0ff00713          	li	a4,255
    6b94:	004007b7          	lui	a5,0x400
    6b98:	50b2                	lw	ra,44(sp)
    6b9a:	5422                	lw	s0,40(sp)
    6b9c:	07a6                	slli	a5,a5,0x9
    6b9e:	075e                	slli	a4,a4,0x17
    6ba0:	83a5                	srli	a5,a5,0x9
    6ba2:	057e                	slli	a0,a0,0x1f
    6ba4:	8fd9                	or	a5,a5,a4
    6ba6:	5492                	lw	s1,36(sp)
    6ba8:	5902                	lw	s2,32(sp)
    6baa:	49f2                	lw	s3,28(sp)
    6bac:	4a62                	lw	s4,24(sp)
    6bae:	4ad2                	lw	s5,20(sp)
    6bb0:	4b42                	lw	s6,16(sp)
    6bb2:	8d5d                	or	a0,a0,a5
    6bb4:	6145                	addi	sp,sp,48
    6bb6:	8082                	ret
    6bb8:	86ca                	mv	a3,s2
    6bba:	89d6                	mv	s3,s5
    6bbc:	8b32                	mv	s6,a2
    6bbe:	4789                	li	a5,2
    6bc0:	0afb0163          	beq	s6,a5,6c62 <__mulsf3+0x17a>
    6bc4:	478d                	li	a5,3
    6bc6:	fcfb04e3          	beq	s6,a5,6b8e <__mulsf3+0xa6>
    6bca:	4785                	li	a5,1
    6bcc:	8536                	mv	a0,a3
    6bce:	1afb1263          	bne	s6,a5,6d72 <__mulsf3+0x28a>
    6bd2:	4701                	li	a4,0
    6bd4:	4781                	li	a5,0
    6bd6:	b7c9                	j	6b98 <__mulsf3+0xb0>
    6bd8:	04099e63          	bnez	s3,6c34 <__mulsf3+0x14c>
    6bdc:	0175d713          	srli	a4,a1,0x17
    6be0:	00959a93          	slli	s5,a1,0x9
    6be4:	0ff77713          	andi	a4,a4,255
    6be8:	4491                	li	s1,4
    6bea:	4401                	li	s0,0
    6bec:	4b05                	li	s6,1
    6bee:	009ada93          	srli	s5,s5,0x9
    6bf2:	01f5d913          	srli	s2,a1,0x1f
    6bf6:	f731                	bnez	a4,6b42 <__mulsf3+0x5a>
    6bf8:	000a9d63          	bnez	s5,6c12 <__mulsf3+0x12a>
    6bfc:	0014e493          	ori	s1,s1,1
    6c00:	4605                	li	a2,1
    6c02:	bfa9                	j	6b5c <__mulsf3+0x74>
    6c04:	02099363          	bnez	s3,6c2a <__mulsf3+0x142>
    6c08:	44a1                	li	s1,8
    6c0a:	0ff00413          	li	s0,255
    6c0e:	4b09                	li	s6,2
    6c10:	bf31                	j	6b2c <__mulsf3+0x44>
    6c12:	8556                	mv	a0,s5
    6c14:	153000ef          	jal	ra,7566 <__clzsi2>
    6c18:	ffb50793          	addi	a5,a0,-5
    6c1c:	8c09                	sub	s0,s0,a0
    6c1e:	00fa9ab3          	sll	s5,s5,a5
    6c22:	f8a40413          	addi	s0,s0,-118
    6c26:	4601                	li	a2,0
    6c28:	bf15                	j	6b5c <__mulsf3+0x74>
    6c2a:	44b1                	li	s1,12
    6c2c:	0ff00413          	li	s0,255
    6c30:	4b0d                	li	s6,3
    6c32:	bded                	j	6b2c <__mulsf3+0x44>
    6c34:	854e                	mv	a0,s3
    6c36:	c62e                	sw	a1,12(sp)
    6c38:	12f000ef          	jal	ra,7566 <__clzsi2>
    6c3c:	ffb50793          	addi	a5,a0,-5
    6c40:	f8a00413          	li	s0,-118
    6c44:	00f999b3          	sll	s3,s3,a5
    6c48:	8c09                	sub	s0,s0,a0
    6c4a:	4481                	li	s1,0
    6c4c:	4b01                	li	s6,0
    6c4e:	45b2                	lw	a1,12(sp)
    6c50:	bdf1                	j	6b2c <__mulsf3+0x44>
    6c52:	0034e493          	ori	s1,s1,3
    6c56:	460d                	li	a2,3
    6c58:	b711                	j	6b5c <__mulsf3+0x74>
    6c5a:	4789                	li	a5,2
    6c5c:	86d2                	mv	a3,s4
    6c5e:	f6fb13e3          	bne	s6,a5,6bc4 <__mulsf3+0xdc>
    6c62:	8536                	mv	a0,a3
    6c64:	0ff00713          	li	a4,255
    6c68:	4781                	li	a5,0
    6c6a:	b73d                	j	6b98 <__mulsf3+0xb0>
    6c6c:	6341                	lui	t1,0x10
    6c6e:	fff30693          	addi	a3,t1,-1 # ffff <_data_lma+0x202b>
    6c72:	0109d613          	srli	a2,s3,0x10
    6c76:	010ad893          	srli	a7,s5,0x10
    6c7a:	00d9f7b3          	and	a5,s3,a3
    6c7e:	00dafab3          	and	s5,s5,a3
    6c82:	03578833          	mul	a6,a5,s5
    6c86:	02f889b3          	mul	s3,a7,a5
    6c8a:	01085713          	srli	a4,a6,0x10
    6c8e:	03560ab3          	mul	s5,a2,s5
    6c92:	99d6                	add	s3,s3,s5
    6c94:	974e                	add	a4,a4,s3
    6c96:	03160633          	mul	a2,a2,a7
    6c9a:	01577363          	bgeu	a4,s5,6ca0 <__mulsf3+0x1b8>
    6c9e:	961a                	add	a2,a2,t1
    6ca0:	67c1                	lui	a5,0x10
    6ca2:	17fd                	addi	a5,a5,-1
    6ca4:	00f776b3          	and	a3,a4,a5
    6ca8:	00f87833          	and	a6,a6,a5
    6cac:	06c2                	slli	a3,a3,0x10
    6cae:	96c2                	add	a3,a3,a6
    6cb0:	00669993          	slli	s3,a3,0x6
    6cb4:	01075793          	srli	a5,a4,0x10
    6cb8:	013039b3          	snez	s3,s3
    6cbc:	82e9                	srli	a3,a3,0x1a
    6cbe:	97b2                	add	a5,a5,a2
    6cc0:	079a                	slli	a5,a5,0x6
    6cc2:	00d9e6b3          	or	a3,s3,a3
    6cc6:	00d7e9b3          	or	s3,a5,a3
    6cca:	00499793          	slli	a5,s3,0x4
    6cce:	0007d963          	bgez	a5,6ce0 <__mulsf3+0x1f8>
    6cd2:	0019d713          	srli	a4,s3,0x1
    6cd6:	0019f793          	andi	a5,s3,1
    6cda:	00f769b3          	or	s3,a4,a5
    6cde:	842e                	mv	s0,a1
    6ce0:	07f40713          	addi	a4,s0,127
    6ce4:	04e05063          	blez	a4,6d24 <__mulsf3+0x23c>
    6ce8:	0079f793          	andi	a5,s3,7
    6cec:	c799                	beqz	a5,6cfa <__mulsf3+0x212>
    6cee:	00f9f793          	andi	a5,s3,15
    6cf2:	4691                	li	a3,4
    6cf4:	00d78363          	beq	a5,a3,6cfa <__mulsf3+0x212>
    6cf8:	0991                	addi	s3,s3,4
    6cfa:	00499793          	slli	a5,s3,0x4
    6cfe:	0007d963          	bgez	a5,6d10 <__mulsf3+0x228>
    6d02:	f80007b7          	lui	a5,0xf8000
    6d06:	17fd                	addi	a5,a5,-1
    6d08:	00f9f9b3          	and	s3,s3,a5
    6d0c:	08040713          	addi	a4,s0,128
    6d10:	0fe00793          	li	a5,254
    6d14:	04e7cb63          	blt	a5,a4,6d6a <__mulsf3+0x282>
    6d18:	00699793          	slli	a5,s3,0x6
    6d1c:	83a5                	srli	a5,a5,0x9
    6d1e:	0ff77713          	andi	a4,a4,255
    6d22:	bd9d                	j	6b98 <__mulsf3+0xb0>
    6d24:	4785                	li	a5,1
    6d26:	40e786b3          	sub	a3,a5,a4
    6d2a:	c711                	beqz	a4,6d36 <__mulsf3+0x24e>
    6d2c:	466d                	li	a2,27
    6d2e:	4701                	li	a4,0
    6d30:	4781                	li	a5,0
    6d32:	e6d643e3          	blt	a2,a3,6b98 <__mulsf3+0xb0>
    6d36:	09e40713          	addi	a4,s0,158
    6d3a:	00e99733          	sll	a4,s3,a4
    6d3e:	00e03733          	snez	a4,a4
    6d42:	00d9d7b3          	srl	a5,s3,a3
    6d46:	8fd9                	or	a5,a5,a4
    6d48:	0077f713          	andi	a4,a5,7
    6d4c:	c719                	beqz	a4,6d5a <__mulsf3+0x272>
    6d4e:	00f7f713          	andi	a4,a5,15
    6d52:	4691                	li	a3,4
    6d54:	00d70363          	beq	a4,a3,6d5a <__mulsf3+0x272>
    6d58:	0791                	addi	a5,a5,4
    6d5a:	00579713          	slli	a4,a5,0x5
    6d5e:	00074c63          	bltz	a4,6d76 <__mulsf3+0x28e>
    6d62:	079a                	slli	a5,a5,0x6
    6d64:	83a5                	srli	a5,a5,0x9
    6d66:	4701                	li	a4,0
    6d68:	bd05                	j	6b98 <__mulsf3+0xb0>
    6d6a:	0ff00713          	li	a4,255
    6d6e:	4781                	li	a5,0
    6d70:	b525                	j	6b98 <__mulsf3+0xb0>
    6d72:	842e                	mv	s0,a1
    6d74:	b7b5                	j	6ce0 <__mulsf3+0x1f8>
    6d76:	4705                	li	a4,1
    6d78:	4781                	li	a5,0
    6d7a:	bd39                	j	6b98 <__mulsf3+0xb0>

00006d7c <__subsf3>:
    6d7c:	00800737          	lui	a4,0x800
    6d80:	1141                	addi	sp,sp,-16
    6d82:	177d                	addi	a4,a4,-1
    6d84:	01755693          	srli	a3,a0,0x17
    6d88:	0175d813          	srli	a6,a1,0x17
    6d8c:	00a777b3          	and	a5,a4,a0
    6d90:	0ff6f693          	andi	a3,a3,255
    6d94:	01f55e93          	srli	t4,a0,0x1f
    6d98:	00b77633          	and	a2,a4,a1
    6d9c:	c226                	sw	s1,4(sp)
    6d9e:	c04a                	sw	s2,0(sp)
    6da0:	0ff87813          	andi	a6,a6,255
    6da4:	c606                	sw	ra,12(sp)
    6da6:	c422                	sw	s0,8(sp)
    6da8:	0ff00313          	li	t1,255
    6dac:	8e3e                	mv	t3,a5
    6dae:	8936                	mv	s2,a3
    6db0:	84f6                	mv	s1,t4
    6db2:	00379f13          	slli	t5,a5,0x3
    6db6:	81fd                	srli	a1,a1,0x1f
    6db8:	00361513          	slli	a0,a2,0x3
    6dbc:	410688b3          	sub	a7,a3,a6
    6dc0:	10680263          	beq	a6,t1,6ec4 <__subsf3+0x148>
    6dc4:	0015c593          	xori	a1,a1,1
    6dc8:	10be8c63          	beq	t4,a1,6ee0 <__subsf3+0x164>
    6dcc:	0d105463          	blez	a7,6e94 <__subsf3+0x118>
    6dd0:	10081063          	bnez	a6,6ed0 <__subsf3+0x154>
    6dd4:	1e050463          	beqz	a0,6fbc <__subsf3+0x240>
    6dd8:	18fd                	addi	a7,a7,-1
    6dda:	40af07b3          	sub	a5,t5,a0
    6dde:	02088663          	beqz	a7,6e0a <__subsf3+0x8e>
    6de2:	0ff00793          	li	a5,255
    6de6:	16f68863          	beq	a3,a5,6f56 <__subsf3+0x1da>
    6dea:	47ed                	li	a5,27
    6dec:	2917c763          	blt	a5,a7,707a <__subsf3+0x2fe>
    6df0:	02000713          	li	a4,32
    6df4:	41170733          	sub	a4,a4,a7
    6df8:	00e51733          	sll	a4,a0,a4
    6dfc:	011557b3          	srl	a5,a0,a7
    6e00:	00e03733          	snez	a4,a4
    6e04:	8fd9                	or	a5,a5,a4
    6e06:	40ff07b3          	sub	a5,t5,a5
    6e0a:	00579713          	slli	a4,a5,0x5
    6e0e:	1a075163          	bgez	a4,6fb0 <__subsf3+0x234>
    6e12:	04000437          	lui	s0,0x4000
    6e16:	147d                	addi	s0,s0,-1
    6e18:	8c7d                	and	s0,s0,a5
    6e1a:	8522                	mv	a0,s0
    6e1c:	27a9                	jal	7566 <__clzsi2>
    6e1e:	156d                	addi	a0,a0,-5
    6e20:	00a417b3          	sll	a5,s0,a0
    6e24:	1b254e63          	blt	a0,s2,6fe0 <__subsf3+0x264>
    6e28:	41250533          	sub	a0,a0,s2
    6e2c:	00150413          	addi	s0,a0,1
    6e30:	02000713          	li	a4,32
    6e34:	8f01                	sub	a4,a4,s0
    6e36:	00e79733          	sll	a4,a5,a4
    6e3a:	00e03733          	snez	a4,a4
    6e3e:	0087d7b3          	srl	a5,a5,s0
    6e42:	8fd9                	or	a5,a5,a4
    6e44:	4901                	li	s2,0
    6e46:	0077f713          	andi	a4,a5,7
    6e4a:	c719                	beqz	a4,6e58 <__subsf3+0xdc>
    6e4c:	00f7f713          	andi	a4,a5,15
    6e50:	4691                	li	a3,4
    6e52:	00d70363          	beq	a4,a3,6e58 <__subsf3+0xdc>
    6e56:	0791                	addi	a5,a5,4
    6e58:	00579713          	slli	a4,a5,0x5
    6e5c:	14075e63          	bgez	a4,6fb8 <__subsf3+0x23c>
    6e60:	00190693          	addi	a3,s2,1 # 800001 <_data_lma+0x7f202d>
    6e64:	0ff00713          	li	a4,255
    6e68:	0014fe93          	andi	t4,s1,1
    6e6c:	16e68663          	beq	a3,a4,6fd8 <__subsf3+0x25c>
    6e70:	079a                	slli	a5,a5,0x6
    6e72:	83a5                	srli	a5,a5,0x9
    6e74:	0ff6f693          	andi	a3,a3,255
    6e78:	07a6                	slli	a5,a5,0x9
    6e7a:	40b2                	lw	ra,12(sp)
    6e7c:	4422                	lw	s0,8(sp)
    6e7e:	0097d513          	srli	a0,a5,0x9
    6e82:	06de                	slli	a3,a3,0x17
    6e84:	01fe9793          	slli	a5,t4,0x1f
    6e88:	8d55                	or	a0,a0,a3
    6e8a:	4492                	lw	s1,4(sp)
    6e8c:	4902                	lw	s2,0(sp)
    6e8e:	8d5d                	or	a0,a0,a5
    6e90:	0141                	addi	sp,sp,16
    6e92:	8082                	ret
    6e94:	0a089263          	bnez	a7,6f38 <__subsf3+0x1bc>
    6e98:	00168713          	addi	a4,a3,1
    6e9c:	0fe77713          	andi	a4,a4,254
    6ea0:	14071b63          	bnez	a4,6ff6 <__subsf3+0x27a>
    6ea4:	22069463          	bnez	a3,70cc <__subsf3+0x350>
    6ea8:	200f0263          	beqz	t5,70ac <__subsf3+0x330>
    6eac:	d571                	beqz	a0,6e78 <__subsf3+0xfc>
    6eae:	40af07b3          	sub	a5,t5,a0
    6eb2:	00579713          	slli	a4,a5,0x5
    6eb6:	22075563          	bgez	a4,70e0 <__subsf3+0x364>
    6eba:	41e507b3          	sub	a5,a0,t5
    6ebe:	4901                	li	s2,0
    6ec0:	84ae                	mv	s1,a1
    6ec2:	b751                	j	6e46 <__subsf3+0xca>
    6ec4:	f00500e3          	beqz	a0,6dc4 <__subsf3+0x48>
    6ec8:	0abe8a63          	beq	t4,a1,6f7c <__subsf3+0x200>
    6ecc:	fd1054e3          	blez	a7,6e94 <__subsf3+0x118>
    6ed0:	0ff00793          	li	a5,255
    6ed4:	08f68163          	beq	a3,a5,6f56 <__subsf3+0x1da>
    6ed8:	040007b7          	lui	a5,0x4000
    6edc:	8d5d                	or	a0,a0,a5
    6ede:	b731                	j	6dea <__subsf3+0x6e>
    6ee0:	09105e63          	blez	a7,6f7c <__subsf3+0x200>
    6ee4:	08080163          	beqz	a6,6f66 <__subsf3+0x1ea>
    6ee8:	0ff00793          	li	a5,255
    6eec:	06f68563          	beq	a3,a5,6f56 <__subsf3+0x1da>
    6ef0:	040007b7          	lui	a5,0x4000
    6ef4:	8d5d                	or	a0,a0,a5
    6ef6:	47ed                	li	a5,27
    6ef8:	1f17c063          	blt	a5,a7,70d8 <__subsf3+0x35c>
    6efc:	02000713          	li	a4,32
    6f00:	41170733          	sub	a4,a4,a7
    6f04:	00e51733          	sll	a4,a0,a4
    6f08:	011557b3          	srl	a5,a0,a7
    6f0c:	00e03733          	snez	a4,a4
    6f10:	8fd9                	or	a5,a5,a4
    6f12:	97fa                	add	a5,a5,t5
    6f14:	00579713          	slli	a4,a5,0x5
    6f18:	08075c63          	bgez	a4,6fb0 <__subsf3+0x234>
    6f1c:	0905                	addi	s2,s2,1
    6f1e:	0ff00713          	li	a4,255
    6f22:	0ae90b63          	beq	s2,a4,6fd8 <__subsf3+0x25c>
    6f26:	7e0006b7          	lui	a3,0x7e000
    6f2a:	0017d713          	srli	a4,a5,0x1
    6f2e:	16fd                	addi	a3,a3,-1
    6f30:	8b85                	andi	a5,a5,1
    6f32:	8f75                	and	a4,a4,a3
    6f34:	8fd9                	or	a5,a5,a4
    6f36:	bf01                	j	6e46 <__subsf3+0xca>
    6f38:	40d80733          	sub	a4,a6,a3
    6f3c:	10069563          	bnez	a3,7046 <__subsf3+0x2ca>
    6f40:	140f0d63          	beqz	t5,709a <__subsf3+0x31e>
    6f44:	177d                	addi	a4,a4,-1
    6f46:	1a070363          	beqz	a4,70ec <__subsf3+0x370>
    6f4a:	0ff00793          	li	a5,255
    6f4e:	10f81463          	bne	a6,a5,7056 <__subsf3+0x2da>
    6f52:	84ae                	mv	s1,a1
    6f54:	8e32                	mv	t3,a2
    6f56:	060e0f63          	beqz	t3,6fd4 <__subsf3+0x258>
    6f5a:	4e81                	li	t4,0
    6f5c:	0ff00693          	li	a3,255
    6f60:	004007b7          	lui	a5,0x400
    6f64:	bf11                	j	6e78 <__subsf3+0xfc>
    6f66:	c939                	beqz	a0,6fbc <__subsf3+0x240>
    6f68:	18fd                	addi	a7,a7,-1
    6f6a:	00af07b3          	add	a5,t5,a0
    6f6e:	fa0883e3          	beqz	a7,6f14 <__subsf3+0x198>
    6f72:	0ff00793          	li	a5,255
    6f76:	f8f690e3          	bne	a3,a5,6ef6 <__subsf3+0x17a>
    6f7a:	bff1                	j	6f56 <__subsf3+0x1da>
    6f7c:	08089963          	bnez	a7,700e <__subsf3+0x292>
    6f80:	00168913          	addi	s2,a3,1 # 7e000001 <_eusrstack+0x5dff8001>
    6f84:	0fe97713          	andi	a4,s2,254
    6f88:	12071663          	bnez	a4,70b4 <__subsf3+0x338>
    6f8c:	10069b63          	bnez	a3,70a2 <__subsf3+0x326>
    6f90:	160f0363          	beqz	t5,70f6 <__subsf3+0x37a>
    6f94:	ee0502e3          	beqz	a0,6e78 <__subsf3+0xfc>
    6f98:	00af07b3          	add	a5,t5,a0
    6f9c:	00579713          	slli	a4,a5,0x5
    6fa0:	4901                	li	s2,0
    6fa2:	00075763          	bgez	a4,6fb0 <__subsf3+0x234>
    6fa6:	fc000737          	lui	a4,0xfc000
    6faa:	177d                	addi	a4,a4,-1
    6fac:	8ff9                	and	a5,a5,a4
    6fae:	4905                	li	s2,1
    6fb0:	0077f713          	andi	a4,a5,7
    6fb4:	e8071ce3          	bnez	a4,6e4c <__subsf3+0xd0>
    6fb8:	0037de13          	srli	t3,a5,0x3
    6fbc:	0ff00793          	li	a5,255
    6fc0:	f8f90be3          	beq	s2,a5,6f56 <__subsf3+0x1da>
    6fc4:	009e1793          	slli	a5,t3,0x9
    6fc8:	83a5                	srli	a5,a5,0x9
    6fca:	0ff97693          	andi	a3,s2,255
    6fce:	0014fe93          	andi	t4,s1,1
    6fd2:	b55d                	j	6e78 <__subsf3+0xfc>
    6fd4:	0014fe93          	andi	t4,s1,1
    6fd8:	0ff00693          	li	a3,255
    6fdc:	4781                	li	a5,0
    6fde:	bd69                	j	6e78 <__subsf3+0xfc>
    6fe0:	fc000737          	lui	a4,0xfc000
    6fe4:	177d                	addi	a4,a4,-1
    6fe6:	8ff9                	and	a5,a5,a4
    6fe8:	0077f713          	andi	a4,a5,7
    6fec:	40a90933          	sub	s2,s2,a0
    6ff0:	e4071ee3          	bnez	a4,6e4c <__subsf3+0xd0>
    6ff4:	b7d1                	j	6fb8 <__subsf3+0x23c>
    6ff6:	40af0433          	sub	s0,t5,a0
    6ffa:	00541793          	slli	a5,s0,0x5
    6ffe:	0c07c363          	bltz	a5,70c4 <__subsf3+0x348>
    7002:	e0041ce3          	bnez	s0,6e1a <__subsf3+0x9e>
    7006:	4e81                	li	t4,0
    7008:	4681                	li	a3,0
    700a:	4781                	li	a5,0
    700c:	b5b5                	j	6e78 <__subsf3+0xfc>
    700e:	40d80733          	sub	a4,a6,a3
    7012:	c6b5                	beqz	a3,707e <__subsf3+0x302>
    7014:	0ff00793          	li	a5,255
    7018:	f2f80ee3          	beq	a6,a5,6f54 <__subsf3+0x1d8>
    701c:	040007b7          	lui	a5,0x4000
    7020:	00ff6f33          	or	t5,t5,a5
    7024:	47ed                	li	a5,27
    7026:	0ce7cd63          	blt	a5,a4,7100 <__subsf3+0x384>
    702a:	02000793          	li	a5,32
    702e:	8f99                	sub	a5,a5,a4
    7030:	00ff17b3          	sll	a5,t5,a5
    7034:	00ef5733          	srl	a4,t5,a4
    7038:	00f037b3          	snez	a5,a5
    703c:	8f5d                	or	a4,a4,a5
    703e:	00a707b3          	add	a5,a4,a0
    7042:	8942                	mv	s2,a6
    7044:	bdc1                	j	6f14 <__subsf3+0x198>
    7046:	0ff00793          	li	a5,255
    704a:	f0f804e3          	beq	a6,a5,6f52 <__subsf3+0x1d6>
    704e:	040007b7          	lui	a5,0x4000
    7052:	00ff6f33          	or	t5,t5,a5
    7056:	47ed                	li	a5,27
    7058:	08e7c263          	blt	a5,a4,70dc <__subsf3+0x360>
    705c:	02000793          	li	a5,32
    7060:	8f99                	sub	a5,a5,a4
    7062:	00ff17b3          	sll	a5,t5,a5
    7066:	00ef5733          	srl	a4,t5,a4
    706a:	00f037b3          	snez	a5,a5
    706e:	8fd9                	or	a5,a5,a4
    7070:	40f507b3          	sub	a5,a0,a5
    7074:	8942                	mv	s2,a6
    7076:	84ae                	mv	s1,a1
    7078:	bb49                	j	6e0a <__subsf3+0x8e>
    707a:	4785                	li	a5,1
    707c:	b369                	j	6e06 <__subsf3+0x8a>
    707e:	060f0e63          	beqz	t5,70fa <__subsf3+0x37e>
    7082:	177d                	addi	a4,a4,-1
    7084:	00af07b3          	add	a5,t5,a0
    7088:	8942                	mv	s2,a6
    708a:	e80705e3          	beqz	a4,6f14 <__subsf3+0x198>
    708e:	0ff00793          	li	a5,255
    7092:	f8f819e3          	bne	a6,a5,7024 <__subsf3+0x2a8>
    7096:	8e32                	mv	t3,a2
    7098:	bd7d                	j	6f56 <__subsf3+0x1da>
    709a:	8e32                	mv	t3,a2
    709c:	8942                	mv	s2,a6
    709e:	84ae                	mv	s1,a1
    70a0:	bf31                	j	6fbc <__subsf3+0x240>
    70a2:	ea0f09e3          	beqz	t5,6f54 <__subsf3+0x1d8>
    70a6:	ea0508e3          	beqz	a0,6f56 <__subsf3+0x1da>
    70aa:	bd45                	j	6f5a <__subsf3+0x1de>
    70ac:	cd0d                	beqz	a0,70e6 <__subsf3+0x36a>
    70ae:	8eae                	mv	t4,a1
    70b0:	87b2                	mv	a5,a2
    70b2:	b3d9                	j	6e78 <__subsf3+0xfc>
    70b4:	0ff00793          	li	a5,255
    70b8:	f2f900e3          	beq	s2,a5,6fd8 <__subsf3+0x25c>
    70bc:	00af07b3          	add	a5,t5,a0
    70c0:	8385                	srli	a5,a5,0x1
    70c2:	b5fd                	j	6fb0 <__subsf3+0x234>
    70c4:	41e50433          	sub	s0,a0,t5
    70c8:	84ae                	mv	s1,a1
    70ca:	bb81                	j	6e1a <__subsf3+0x9e>
    70cc:	fc0f1de3          	bnez	t5,70a6 <__subsf3+0x32a>
    70d0:	e80505e3          	beqz	a0,6f5a <__subsf3+0x1de>
    70d4:	84ae                	mv	s1,a1
    70d6:	bdbd                	j	6f54 <__subsf3+0x1d8>
    70d8:	4785                	li	a5,1
    70da:	bd25                	j	6f12 <__subsf3+0x196>
    70dc:	4785                	li	a5,1
    70de:	bf49                	j	7070 <__subsf3+0x2f4>
    70e0:	4901                	li	s2,0
    70e2:	ec0797e3          	bnez	a5,6fb0 <__subsf3+0x234>
    70e6:	4e81                	li	t4,0
    70e8:	4781                	li	a5,0
    70ea:	b379                	j	6e78 <__subsf3+0xfc>
    70ec:	41e507b3          	sub	a5,a0,t5
    70f0:	8942                	mv	s2,a6
    70f2:	84ae                	mv	s1,a1
    70f4:	bb19                	j	6e0a <__subsf3+0x8e>
    70f6:	87b2                	mv	a5,a2
    70f8:	b341                	j	6e78 <__subsf3+0xfc>
    70fa:	8e32                	mv	t3,a2
    70fc:	8942                	mv	s2,a6
    70fe:	bd7d                	j	6fbc <__subsf3+0x240>
    7100:	4705                	li	a4,1
    7102:	bf35                	j	703e <__subsf3+0x2c2>

00007104 <__fixsfsi>:
    7104:	00800637          	lui	a2,0x800
    7108:	01755713          	srli	a4,a0,0x17
    710c:	fff60793          	addi	a5,a2,-1 # 7fffff <_data_lma+0x7f202b>
    7110:	0ff77713          	andi	a4,a4,255
    7114:	07e00593          	li	a1,126
    7118:	00a7f6b3          	and	a3,a5,a0
    711c:	01f55793          	srli	a5,a0,0x1f
    7120:	00e5fc63          	bgeu	a1,a4,7138 <__fixsfsi+0x34>
    7124:	09d00593          	li	a1,157
    7128:	00e5fa63          	bgeu	a1,a4,713c <__fixsfsi+0x38>
    712c:	80000537          	lui	a0,0x80000
    7130:	fff54513          	not	a0,a0
    7134:	953e                	add	a0,a0,a5
    7136:	8082                	ret
    7138:	4501                	li	a0,0
    713a:	8082                	ret
    713c:	09500593          	li	a1,149
    7140:	8ed1                	or	a3,a3,a2
    7142:	00e5cd63          	blt	a1,a4,715c <__fixsfsi+0x58>
    7146:	09600613          	li	a2,150
    714a:	40e60733          	sub	a4,a2,a4
    714e:	00e6d733          	srl	a4,a3,a4
    7152:	40e00533          	neg	a0,a4
    7156:	f3f5                	bnez	a5,713a <__fixsfsi+0x36>
    7158:	853a                	mv	a0,a4
    715a:	8082                	ret
    715c:	f6a70713          	addi	a4,a4,-150 # fbffff6a <_eusrstack+0xdbff7f6a>
    7160:	00e69733          	sll	a4,a3,a4
    7164:	b7fd                	j	7152 <__fixsfsi+0x4e>

00007166 <__fixunssfsi>:
    7166:	01755713          	srli	a4,a0,0x17
    716a:	00800637          	lui	a2,0x800
    716e:	fff60793          	addi	a5,a2,-1 # 7fffff <_data_lma+0x7f202b>
    7172:	0ff77713          	andi	a4,a4,255
    7176:	07e00593          	li	a1,126
    717a:	00a7f6b3          	and	a3,a5,a0
    717e:	01f55793          	srli	a5,a0,0x1f
    7182:	4501                	li	a0,0
    7184:	00e5f463          	bgeu	a1,a4,718c <__fixunssfsi+0x26>
    7188:	c399                	beqz	a5,718e <__fixunssfsi+0x28>
    718a:	8082                	ret
    718c:	8082                	ret
    718e:	09e00793          	li	a5,158
    7192:	557d                	li	a0,-1
    7194:	fee7ebe3          	bltu	a5,a4,718a <__fixunssfsi+0x24>
    7198:	09500593          	li	a1,149
    719c:	00c6e7b3          	or	a5,a3,a2
    71a0:	00e5d763          	bge	a1,a4,71ae <__fixunssfsi+0x48>
    71a4:	f6a70713          	addi	a4,a4,-150
    71a8:	00e79533          	sll	a0,a5,a4
    71ac:	8082                	ret
    71ae:	09600513          	li	a0,150
    71b2:	40e50733          	sub	a4,a0,a4
    71b6:	00e7d533          	srl	a0,a5,a4
    71ba:	8082                	ret

000071bc <__floatsisf>:
    71bc:	1141                	addi	sp,sp,-16
    71be:	c606                	sw	ra,12(sp)
    71c0:	c422                	sw	s0,8(sp)
    71c2:	c226                	sw	s1,4(sp)
    71c4:	cd0d                	beqz	a0,71fe <__floatsisf+0x42>
    71c6:	41f55793          	srai	a5,a0,0x1f
    71ca:	00a7c433          	xor	s0,a5,a0
    71ce:	8c1d                	sub	s0,s0,a5
    71d0:	84aa                	mv	s1,a0
    71d2:	8522                	mv	a0,s0
    71d4:	2e49                	jal	7566 <__clzsi2>
    71d6:	09e00793          	li	a5,158
    71da:	40a78733          	sub	a4,a5,a0
    71de:	09600793          	li	a5,150
    71e2:	80fd                	srli	s1,s1,0x1f
    71e4:	02e7cc63          	blt	a5,a4,721c <__floatsisf+0x60>
    71e8:	46a1                	li	a3,8
    71ea:	0ff77793          	andi	a5,a4,255
    71ee:	00a6d563          	bge	a3,a0,71f8 <__floatsisf+0x3c>
    71f2:	1561                	addi	a0,a0,-8
    71f4:	00a41433          	sll	s0,s0,a0
    71f8:	0426                	slli	s0,s0,0x9
    71fa:	8025                	srli	s0,s0,0x9
    71fc:	a021                	j	7204 <__floatsisf+0x48>
    71fe:	4481                	li	s1,0
    7200:	4781                	li	a5,0
    7202:	4401                	li	s0,0
    7204:	0426                	slli	s0,s0,0x9
    7206:	00945513          	srli	a0,s0,0x9
    720a:	40b2                	lw	ra,12(sp)
    720c:	4422                	lw	s0,8(sp)
    720e:	07de                	slli	a5,a5,0x17
    7210:	04fe                	slli	s1,s1,0x1f
    7212:	8d5d                	or	a0,a0,a5
    7214:	8d45                	or	a0,a0,s1
    7216:	4492                	lw	s1,4(sp)
    7218:	0141                	addi	sp,sp,16
    721a:	8082                	ret
    721c:	09900793          	li	a5,153
    7220:	00e7dd63          	bge	a5,a4,723a <__floatsisf+0x7e>
    7224:	01b50793          	addi	a5,a0,27 # 8000001b <_eusrstack+0x5fff801b>
    7228:	4695                	li	a3,5
    722a:	00f417b3          	sll	a5,s0,a5
    722e:	8e89                	sub	a3,a3,a0
    7230:	00d45433          	srl	s0,s0,a3
    7234:	00f037b3          	snez	a5,a5
    7238:	8c5d                	or	s0,s0,a5
    723a:	4795                	li	a5,5
    723c:	00a7d663          	bge	a5,a0,7248 <__floatsisf+0x8c>
    7240:	ffb50793          	addi	a5,a0,-5
    7244:	00f41433          	sll	s0,s0,a5
    7248:	fc0006b7          	lui	a3,0xfc000
    724c:	16fd                	addi	a3,a3,-1
    724e:	00747793          	andi	a5,s0,7
    7252:	00d47633          	and	a2,s0,a3
    7256:	c385                	beqz	a5,7276 <__floatsisf+0xba>
    7258:	00f47793          	andi	a5,s0,15
    725c:	4591                	li	a1,4
    725e:	00b78c63          	beq	a5,a1,7276 <__floatsisf+0xba>
    7262:	0611                	addi	a2,a2,4
    7264:	00561793          	slli	a5,a2,0x5
    7268:	0007d763          	bgez	a5,7276 <__floatsisf+0xba>
    726c:	09f00793          	li	a5,159
    7270:	8e75                	and	a2,a2,a3
    7272:	40a78733          	sub	a4,a5,a0
    7276:	00661413          	slli	s0,a2,0x6
    727a:	8025                	srli	s0,s0,0x9
    727c:	0ff77793          	andi	a5,a4,255
    7280:	b751                	j	7204 <__floatsisf+0x48>

00007282 <__floatunsisf>:
    7282:	1141                	addi	sp,sp,-16
    7284:	c606                	sw	ra,12(sp)
    7286:	c422                	sw	s0,8(sp)
    7288:	cd15                	beqz	a0,72c4 <__floatunsisf+0x42>
    728a:	842a                	mv	s0,a0
    728c:	2ce9                	jal	7566 <__clzsi2>
    728e:	09e00793          	li	a5,158
    7292:	40a78733          	sub	a4,a5,a0
    7296:	09600793          	li	a5,150
    729a:	04e7c063          	blt	a5,a4,72da <__floatunsisf+0x58>
    729e:	46a1                	li	a3,8
    72a0:	0ff77793          	andi	a5,a4,255
    72a4:	00a6d563          	bge	a3,a0,72ae <__floatunsisf+0x2c>
    72a8:	1561                	addi	a0,a0,-8
    72aa:	00a41433          	sll	s0,s0,a0
    72ae:	0426                	slli	s0,s0,0x9
    72b0:	8025                	srli	s0,s0,0x9
    72b2:	0426                	slli	s0,s0,0x9
    72b4:	00945513          	srli	a0,s0,0x9
    72b8:	40b2                	lw	ra,12(sp)
    72ba:	4422                	lw	s0,8(sp)
    72bc:	07de                	slli	a5,a5,0x17
    72be:	8d5d                	or	a0,a0,a5
    72c0:	0141                	addi	sp,sp,16
    72c2:	8082                	ret
    72c4:	4401                	li	s0,0
    72c6:	0426                	slli	s0,s0,0x9
    72c8:	00945513          	srli	a0,s0,0x9
    72cc:	40b2                	lw	ra,12(sp)
    72ce:	4422                	lw	s0,8(sp)
    72d0:	4781                	li	a5,0
    72d2:	07de                	slli	a5,a5,0x17
    72d4:	8d5d                	or	a0,a0,a5
    72d6:	0141                	addi	sp,sp,16
    72d8:	8082                	ret
    72da:	09900793          	li	a5,153
    72de:	00e7dd63          	bge	a5,a4,72f8 <__floatunsisf+0x76>
    72e2:	01b50793          	addi	a5,a0,27
    72e6:	4695                	li	a3,5
    72e8:	00f417b3          	sll	a5,s0,a5
    72ec:	8e89                	sub	a3,a3,a0
    72ee:	00f037b3          	snez	a5,a5
    72f2:	00d45433          	srl	s0,s0,a3
    72f6:	8c5d                	or	s0,s0,a5
    72f8:	4795                	li	a5,5
    72fa:	00a7d663          	bge	a5,a0,7306 <__floatunsisf+0x84>
    72fe:	ffb50793          	addi	a5,a0,-5
    7302:	00f41433          	sll	s0,s0,a5
    7306:	fc0006b7          	lui	a3,0xfc000
    730a:	16fd                	addi	a3,a3,-1
    730c:	00747793          	andi	a5,s0,7
    7310:	00d47633          	and	a2,s0,a3
    7314:	c385                	beqz	a5,7334 <__floatunsisf+0xb2>
    7316:	00f47793          	andi	a5,s0,15
    731a:	4591                	li	a1,4
    731c:	00b78c63          	beq	a5,a1,7334 <__floatunsisf+0xb2>
    7320:	0611                	addi	a2,a2,4
    7322:	00561793          	slli	a5,a2,0x5
    7326:	0007d763          	bgez	a5,7334 <__floatunsisf+0xb2>
    732a:	09f00793          	li	a5,159
    732e:	8e75                	and	a2,a2,a3
    7330:	40a78733          	sub	a4,a5,a0
    7334:	00661413          	slli	s0,a2,0x6
    7338:	8025                	srli	s0,s0,0x9
    733a:	0426                	slli	s0,s0,0x9
    733c:	00945513          	srli	a0,s0,0x9
    7340:	40b2                	lw	ra,12(sp)
    7342:	4422                	lw	s0,8(sp)
    7344:	0ff77793          	andi	a5,a4,255
    7348:	07de                	slli	a5,a5,0x17
    734a:	8d5d                	or	a0,a0,a5
    734c:	0141                	addi	sp,sp,16
    734e:	8082                	ret

00007350 <__extendsfdf2>:
    7350:	01755713          	srli	a4,a0,0x17
    7354:	0ff77713          	andi	a4,a4,255
    7358:	1141                	addi	sp,sp,-16
    735a:	00170793          	addi	a5,a4,1
    735e:	c422                	sw	s0,8(sp)
    7360:	c226                	sw	s1,4(sp)
    7362:	00951413          	slli	s0,a0,0x9
    7366:	c606                	sw	ra,12(sp)
    7368:	0fe7f793          	andi	a5,a5,254
    736c:	8025                	srli	s0,s0,0x9
    736e:	01f55493          	srli	s1,a0,0x1f
    7372:	c785                	beqz	a5,739a <__extendsfdf2+0x4a>
    7374:	00345793          	srli	a5,s0,0x3
    7378:	38070713          	addi	a4,a4,896
    737c:	0476                	slli	s0,s0,0x1d
    737e:	07b2                	slli	a5,a5,0xc
    7380:	0752                	slli	a4,a4,0x14
    7382:	83b1                	srli	a5,a5,0xc
    7384:	01f49513          	slli	a0,s1,0x1f
    7388:	8fd9                	or	a5,a5,a4
    738a:	8fc9                	or	a5,a5,a0
    738c:	40b2                	lw	ra,12(sp)
    738e:	8522                	mv	a0,s0
    7390:	4422                	lw	s0,8(sp)
    7392:	4492                	lw	s1,4(sp)
    7394:	85be                	mv	a1,a5
    7396:	0141                	addi	sp,sp,16
    7398:	8082                	ret
    739a:	eb05                	bnez	a4,73ca <__extendsfdf2+0x7a>
    739c:	c439                	beqz	s0,73ea <__extendsfdf2+0x9a>
    739e:	8522                	mv	a0,s0
    73a0:	22d9                	jal	7566 <__clzsi2>
    73a2:	47a9                	li	a5,10
    73a4:	04a7c663          	blt	a5,a0,73f0 <__extendsfdf2+0xa0>
    73a8:	472d                	li	a4,11
    73aa:	8f09                	sub	a4,a4,a0
    73ac:	01550793          	addi	a5,a0,21
    73b0:	00e45733          	srl	a4,s0,a4
    73b4:	00f41433          	sll	s0,s0,a5
    73b8:	00c71793          	slli	a5,a4,0xc
    73bc:	38900713          	li	a4,905
    73c0:	8f09                	sub	a4,a4,a0
    73c2:	83b1                	srli	a5,a5,0xc
    73c4:	7ff77713          	andi	a4,a4,2047
    73c8:	bf5d                	j	737e <__extendsfdf2+0x2e>
    73ca:	cc01                	beqz	s0,73e2 <__extendsfdf2+0x92>
    73cc:	00345713          	srli	a4,s0,0x3
    73d0:	000807b7          	lui	a5,0x80
    73d4:	8fd9                	or	a5,a5,a4
    73d6:	07b2                	slli	a5,a5,0xc
    73d8:	0476                	slli	s0,s0,0x1d
    73da:	83b1                	srli	a5,a5,0xc
    73dc:	7ff00713          	li	a4,2047
    73e0:	bf79                	j	737e <__extendsfdf2+0x2e>
    73e2:	7ff00713          	li	a4,2047
    73e6:	4781                	li	a5,0
    73e8:	bf59                	j	737e <__extendsfdf2+0x2e>
    73ea:	4701                	li	a4,0
    73ec:	4781                	li	a5,0
    73ee:	bf41                	j	737e <__extendsfdf2+0x2e>
    73f0:	ff550713          	addi	a4,a0,-11
    73f4:	00e41733          	sll	a4,s0,a4
    73f8:	4401                	li	s0,0
    73fa:	bf7d                	j	73b8 <__extendsfdf2+0x68>

000073fc <__truncdfsf2>:
    73fc:	0145d693          	srli	a3,a1,0x14
    7400:	00c59793          	slli	a5,a1,0xc
    7404:	7ff6f693          	andi	a3,a3,2047
    7408:	83b1                	srli	a5,a5,0xc
    740a:	00168613          	addi	a2,a3,1 # fc000001 <_eusrstack+0xdbff8001>
    740e:	078e                	slli	a5,a5,0x3
    7410:	01d55713          	srli	a4,a0,0x1d
    7414:	7fe67613          	andi	a2,a2,2046
    7418:	81fd                	srli	a1,a1,0x1f
    741a:	8f5d                	or	a4,a4,a5
    741c:	00351893          	slli	a7,a0,0x3
    7420:	ce35                	beqz	a2,749c <__truncdfsf2+0xa0>
    7422:	c8068813          	addi	a6,a3,-896
    7426:	0fe00793          	li	a5,254
    742a:	0107dd63          	bge	a5,a6,7444 <__truncdfsf2+0x48>
    742e:	4781                	li	a5,0
    7430:	00979513          	slli	a0,a5,0x9
    7434:	0ff00693          	li	a3,255
    7438:	06de                	slli	a3,a3,0x17
    743a:	8125                	srli	a0,a0,0x9
    743c:	05fe                	slli	a1,a1,0x1f
    743e:	8d55                	or	a0,a0,a3
    7440:	8d4d                	or	a0,a0,a1
    7442:	8082                	ret
    7444:	0b005563          	blez	a6,74ee <__truncdfsf2+0xf2>
    7448:	00651793          	slli	a5,a0,0x6
    744c:	070e                	slli	a4,a4,0x3
    744e:	00f037b3          	snez	a5,a5
    7452:	8fd9                	or	a5,a5,a4
    7454:	01d8d893          	srli	a7,a7,0x1d
    7458:	0117e7b3          	or	a5,a5,a7
    745c:	0077f713          	andi	a4,a5,7
    7460:	10070163          	beqz	a4,7562 <__truncdfsf2+0x166>
    7464:	00f7f713          	andi	a4,a5,15
    7468:	4691                	li	a3,4
    746a:	00d70363          	beq	a4,a3,7470 <__truncdfsf2+0x74>
    746e:	0791                	addi	a5,a5,4
    7470:	04000737          	lui	a4,0x4000
    7474:	8f7d                	and	a4,a4,a5
    7476:	c775                	beqz	a4,7562 <__truncdfsf2+0x166>
    7478:	00180713          	addi	a4,a6,1
    747c:	0ff00613          	li	a2,255
    7480:	0ff77693          	andi	a3,a4,255
    7484:	fac705e3          	beq	a4,a2,742e <__truncdfsf2+0x32>
    7488:	079a                	slli	a5,a5,0x6
    748a:	83a5                	srli	a5,a5,0x9
    748c:	00979513          	slli	a0,a5,0x9
    7490:	06de                	slli	a3,a3,0x17
    7492:	8125                	srli	a0,a0,0x9
    7494:	05fe                	slli	a1,a1,0x1f
    7496:	8d55                	or	a0,a0,a3
    7498:	8d4d                	or	a0,a0,a1
    749a:	8082                	ret
    749c:	011767b3          	or	a5,a4,a7
    74a0:	ee99                	bnez	a3,74be <__truncdfsf2+0xc2>
    74a2:	cf85                	beqz	a5,74da <__truncdfsf2+0xde>
    74a4:	4795                	li	a5,5
    74a6:	079a                	slli	a5,a5,0x6
    74a8:	83a5                	srli	a5,a5,0x9
    74aa:	00979513          	slli	a0,a5,0x9
    74ae:	0ff6f693          	andi	a3,a3,255
    74b2:	06de                	slli	a3,a3,0x17
    74b4:	8125                	srli	a0,a0,0x9
    74b6:	05fe                	slli	a1,a1,0x1f
    74b8:	8d55                	or	a0,a0,a3
    74ba:	8d4d                	or	a0,a0,a1
    74bc:	8082                	ret
    74be:	dba5                	beqz	a5,742e <__truncdfsf2+0x32>
    74c0:	004007b7          	lui	a5,0x400
    74c4:	00979513          	slli	a0,a5,0x9
    74c8:	0ff00693          	li	a3,255
    74cc:	06de                	slli	a3,a3,0x17
    74ce:	4581                	li	a1,0
    74d0:	8125                	srli	a0,a0,0x9
    74d2:	05fe                	slli	a1,a1,0x1f
    74d4:	8d55                	or	a0,a0,a3
    74d6:	8d4d                	or	a0,a0,a1
    74d8:	8082                	ret
    74da:	4781                	li	a5,0
    74dc:	00979513          	slli	a0,a5,0x9
    74e0:	4681                	li	a3,0
    74e2:	06de                	slli	a3,a3,0x17
    74e4:	8125                	srli	a0,a0,0x9
    74e6:	05fe                	slli	a1,a1,0x1f
    74e8:	8d55                	or	a0,a0,a3
    74ea:	8d4d                	or	a0,a0,a1
    74ec:	8082                	ret
    74ee:	57a5                	li	a5,-23
    74f0:	04f84863          	blt	a6,a5,7540 <__truncdfsf2+0x144>
    74f4:	47f9                	li	a5,30
    74f6:	00800637          	lui	a2,0x800
    74fa:	410787b3          	sub	a5,a5,a6
    74fe:	457d                	li	a0,31
    7500:	8e59                	or	a2,a2,a4
    7502:	04f55163          	bge	a0,a5,7544 <__truncdfsf2+0x148>
    7506:	5779                	li	a4,-2
    7508:	41070733          	sub	a4,a4,a6
    750c:	02000513          	li	a0,32
    7510:	00e65733          	srl	a4,a2,a4
    7514:	00a78863          	beq	a5,a0,7524 <__truncdfsf2+0x128>
    7518:	ca268693          	addi	a3,a3,-862
    751c:	00d616b3          	sll	a3,a2,a3
    7520:	00d8e8b3          	or	a7,a7,a3
    7524:	011037b3          	snez	a5,a7
    7528:	8fd9                	or	a5,a5,a4
    752a:	0077f713          	andi	a4,a5,7
    752e:	4801                	li	a6,0
    7530:	fb15                	bnez	a4,7464 <__truncdfsf2+0x68>
    7532:	00579713          	slli	a4,a5,0x5
    7536:	4685                	li	a3,1
    7538:	f40748e3          	bltz	a4,7488 <__truncdfsf2+0x8c>
    753c:	4681                	li	a3,0
    753e:	b7a5                	j	74a6 <__truncdfsf2+0xaa>
    7540:	4681                	li	a3,0
    7542:	b78d                	j	74a4 <__truncdfsf2+0xa8>
    7544:	c8268693          	addi	a3,a3,-894
    7548:	00d89733          	sll	a4,a7,a3
    754c:	00e03733          	snez	a4,a4
    7550:	00d616b3          	sll	a3,a2,a3
    7554:	00f8d8b3          	srl	a7,a7,a5
    7558:	00d767b3          	or	a5,a4,a3
    755c:	00f8e7b3          	or	a5,a7,a5
    7560:	b7e9                	j	752a <__truncdfsf2+0x12e>
    7562:	86c2                	mv	a3,a6
    7564:	b789                	j	74a6 <__truncdfsf2+0xaa>

00007566 <__clzsi2>:
    7566:	67c1                	lui	a5,0x10
    7568:	02f57c63          	bgeu	a0,a5,75a0 <__clzsi2+0x3a>
    756c:	0ff00793          	li	a5,255
    7570:	02000713          	li	a4,32
    7574:	00a7eb63          	bltu	a5,a0,758a <__clzsi2+0x24>
    7578:	00006797          	auipc	a5,0x6
    757c:	5b078793          	addi	a5,a5,1456 # db28 <__clz_tab>
    7580:	97aa                	add	a5,a5,a0
    7582:	2388                	lbu	a0,0(a5)
    7584:	40a70533          	sub	a0,a4,a0
    7588:	8082                	ret
    758a:	8121                	srli	a0,a0,0x8
    758c:	00006797          	auipc	a5,0x6
    7590:	59c78793          	addi	a5,a5,1436 # db28 <__clz_tab>
    7594:	97aa                	add	a5,a5,a0
    7596:	2388                	lbu	a0,0(a5)
    7598:	4761                	li	a4,24
    759a:	40a70533          	sub	a0,a4,a0
    759e:	8082                	ret
    75a0:	010007b7          	lui	a5,0x1000
    75a4:	00f56d63          	bltu	a0,a5,75be <__clzsi2+0x58>
    75a8:	8161                	srli	a0,a0,0x18
    75aa:	00006797          	auipc	a5,0x6
    75ae:	57e78793          	addi	a5,a5,1406 # db28 <__clz_tab>
    75b2:	97aa                	add	a5,a5,a0
    75b4:	2388                	lbu	a0,0(a5)
    75b6:	4721                	li	a4,8
    75b8:	40a70533          	sub	a0,a4,a0
    75bc:	8082                	ret
    75be:	8141                	srli	a0,a0,0x10
    75c0:	00006797          	auipc	a5,0x6
    75c4:	56878793          	addi	a5,a5,1384 # db28 <__clz_tab>
    75c8:	97aa                	add	a5,a5,a0
    75ca:	2388                	lbu	a0,0(a5)
    75cc:	4741                	li	a4,16
    75ce:	40a70533          	sub	a0,a4,a0
    75d2:	8082                	ret

000075d4 <__errno>:
    75d4:	81018793          	addi	a5,gp,-2032 # 20000238 <_impure_ptr>
    75d8:	4388                	lw	a0,0(a5)
    75da:	8082                	ret

000075dc <memcmp>:
    75dc:	4701                	li	a4,0
    75de:	00e61463          	bne	a2,a4,75e6 <memcmp+0xa>
    75e2:	4501                	li	a0,0
    75e4:	8082                	ret
    75e6:	00e507b3          	add	a5,a0,a4
    75ea:	0705                	addi	a4,a4,1
    75ec:	00e586b3          	add	a3,a1,a4
    75f0:	239c                	lbu	a5,0(a5)
    75f2:	fff6c683          	lbu	a3,-1(a3)
    75f6:	fed784e3          	beq	a5,a3,75de <memcmp+0x2>
    75fa:	40d78533          	sub	a0,a5,a3
    75fe:	8082                	ret

00007600 <memcpy>:
    7600:	00a5c7b3          	xor	a5,a1,a0
    7604:	8b8d                	andi	a5,a5,3
    7606:	00c50733          	add	a4,a0,a2
    760a:	e781                	bnez	a5,7612 <memcpy+0x12>
    760c:	478d                	li	a5,3
    760e:	00c7ed63          	bltu	a5,a2,7628 <memcpy+0x28>
    7612:	87aa                	mv	a5,a0
    7614:	08e57e63          	bgeu	a0,a4,76b0 <memcpy+0xb0>
    7618:	2194                	lbu	a3,0(a1)
    761a:	0785                	addi	a5,a5,1
    761c:	0585                	addi	a1,a1,1
    761e:	fed78fa3          	sb	a3,-1(a5)
    7622:	fee7ebe3          	bltu	a5,a4,7618 <memcpy+0x18>
    7626:	8082                	ret
    7628:	00357693          	andi	a3,a0,3
    762c:	87aa                	mv	a5,a0
    762e:	ca89                	beqz	a3,7640 <memcpy+0x40>
    7630:	2194                	lbu	a3,0(a1)
    7632:	0785                	addi	a5,a5,1
    7634:	0585                	addi	a1,a1,1
    7636:	fed78fa3          	sb	a3,-1(a5)
    763a:	0037f693          	andi	a3,a5,3
    763e:	bfc5                	j	762e <memcpy+0x2e>
    7640:	ffc77693          	andi	a3,a4,-4
    7644:	fe068613          	addi	a2,a3,-32
    7648:	06c7f063          	bgeu	a5,a2,76a8 <memcpy+0xa8>
    764c:	0005a383          	lw	t2,0(a1)
    7650:	0045a283          	lw	t0,4(a1)
    7654:	0085af83          	lw	t6,8(a1)
    7658:	00c5af03          	lw	t5,12(a1)
    765c:	0105ae83          	lw	t4,16(a1)
    7660:	0145ae03          	lw	t3,20(a1)
    7664:	0185a303          	lw	t1,24(a1)
    7668:	01c5a883          	lw	a7,28(a1)
    766c:	02458593          	addi	a1,a1,36
    7670:	0077a023          	sw	t2,0(a5)
    7674:	ffc5a803          	lw	a6,-4(a1)
    7678:	0057a223          	sw	t0,4(a5)
    767c:	01f7a423          	sw	t6,8(a5)
    7680:	01e7a623          	sw	t5,12(a5)
    7684:	01d7a823          	sw	t4,16(a5)
    7688:	01c7aa23          	sw	t3,20(a5)
    768c:	0067ac23          	sw	t1,24(a5)
    7690:	0117ae23          	sw	a7,28(a5)
    7694:	02478793          	addi	a5,a5,36
    7698:	ff07ae23          	sw	a6,-4(a5)
    769c:	b775                	j	7648 <memcpy+0x48>
    769e:	4190                	lw	a2,0(a1)
    76a0:	0791                	addi	a5,a5,4
    76a2:	0591                	addi	a1,a1,4
    76a4:	fec7ae23          	sw	a2,-4(a5)
    76a8:	fed7ebe3          	bltu	a5,a3,769e <memcpy+0x9e>
    76ac:	f6e7e6e3          	bltu	a5,a4,7618 <memcpy+0x18>
    76b0:	8082                	ret

000076b2 <__cvt>:
    76b2:	7179                	addi	sp,sp,-48
    76b4:	d422                	sw	s0,40(sp)
    76b6:	d04a                	sw	s2,32(sp)
    76b8:	cc52                	sw	s4,24(sp)
    76ba:	ca56                	sw	s5,20(sp)
    76bc:	c85a                	sw	s6,16(sp)
    76be:	d606                	sw	ra,44(sp)
    76c0:	d226                	sw	s1,36(sp)
    76c2:	ce4e                	sw	s3,28(sp)
    76c4:	8a3a                	mv	s4,a4
    76c6:	8aae                	mv	s5,a1
    76c8:	8432                	mv	s0,a2
    76ca:	8936                	mv	s2,a3
    76cc:	8b42                	mv	s6,a6
    76ce:	4701                	li	a4,0
    76d0:	00065863          	bgez	a2,76e0 <__cvt+0x2e>
    76d4:	80000737          	lui	a4,0x80000
    76d8:	00c74433          	xor	s0,a4,a2
    76dc:	02d00713          	li	a4,45
    76e0:	a398                	sb	a4,0(a5)
    76e2:	fdf8f493          	andi	s1,a7,-33
    76e6:	04600793          	li	a5,70
    76ea:	468d                	li	a3,3
    76ec:	00f48863          	beq	s1,a5,76fc <__cvt+0x4a>
    76f0:	04500793          	li	a5,69
    76f4:	4689                	li	a3,2
    76f6:	00f49363          	bne	s1,a5,76fc <__cvt+0x4a>
    76fa:	0905                	addi	s2,s2,1
    76fc:	87da                	mv	a5,s6
    76fe:	00c10893          	addi	a7,sp,12
    7702:	00810813          	addi	a6,sp,8
    7706:	874a                	mv	a4,s2
    7708:	85d6                	mv	a1,s5
    770a:	8622                	mv	a2,s0
    770c:	0a2020ef          	jal	ra,97ae <_dtoa_r>
    7710:	04700793          	li	a5,71
    7714:	89aa                	mv	s3,a0
    7716:	00f49663          	bne	s1,a5,7722 <__cvt+0x70>
    771a:	001a7a13          	andi	s4,s4,1
    771e:	040a0a63          	beqz	s4,7772 <__cvt+0xc0>
    7722:	04600793          	li	a5,70
    7726:	01298a33          	add	s4,s3,s2
    772a:	02f49763          	bne	s1,a5,7758 <__cvt+0xa6>
    772e:	0009c703          	lbu	a4,0(s3)
    7732:	03000793          	li	a5,48
    7736:	00f71e63          	bne	a4,a5,7752 <__cvt+0xa0>
    773a:	4601                	li	a2,0
    773c:	4681                	li	a3,0
    773e:	8556                	mv	a0,s5
    7740:	85a2                	mv	a1,s0
    7742:	527040ef          	jal	ra,c468 <__eqdf2>
    7746:	c511                	beqz	a0,7752 <__cvt+0xa0>
    7748:	4785                	li	a5,1
    774a:	41278933          	sub	s2,a5,s2
    774e:	012b2023          	sw	s2,0(s6)
    7752:	000b2783          	lw	a5,0(s6)
    7756:	9a3e                	add	s4,s4,a5
    7758:	4601                	li	a2,0
    775a:	4681                	li	a3,0
    775c:	8556                	mv	a0,s5
    775e:	85a2                	mv	a1,s0
    7760:	509040ef          	jal	ra,c468 <__eqdf2>
    7764:	e111                	bnez	a0,7768 <__cvt+0xb6>
    7766:	c652                	sw	s4,12(sp)
    7768:	03000713          	li	a4,48
    776c:	47b2                	lw	a5,12(sp)
    776e:	0347e263          	bltu	a5,s4,7792 <__cvt+0xe0>
    7772:	47b2                	lw	a5,12(sp)
    7774:	5742                	lw	a4,48(sp)
    7776:	50b2                	lw	ra,44(sp)
    7778:	5422                	lw	s0,40(sp)
    777a:	413787b3          	sub	a5,a5,s3
    777e:	c31c                	sw	a5,0(a4)
    7780:	854e                	mv	a0,s3
    7782:	5492                	lw	s1,36(sp)
    7784:	5902                	lw	s2,32(sp)
    7786:	49f2                	lw	s3,28(sp)
    7788:	4a62                	lw	s4,24(sp)
    778a:	4ad2                	lw	s5,20(sp)
    778c:	4b42                	lw	s6,16(sp)
    778e:	6145                	addi	sp,sp,48
    7790:	8082                	ret
    7792:	00178693          	addi	a3,a5,1
    7796:	c636                	sw	a3,12(sp)
    7798:	a398                	sb	a4,0(a5)
    779a:	bfc9                	j	776c <__cvt+0xba>

0000779c <__exponent>:
    779c:	a110                	sb	a2,0(a0)
    779e:	00250713          	addi	a4,a0,2
    77a2:	02b00793          	li	a5,43
    77a6:	0005d663          	bgez	a1,77b2 <__exponent+0x16>
    77aa:	40b005b3          	neg	a1,a1
    77ae:	02d00793          	li	a5,45
    77b2:	b11c                	sb	a5,1(a0)
    77b4:	47a5                	li	a5,9
    77b6:	04b7da63          	bge	a5,a1,780a <__exponent+0x6e>
    77ba:	1141                	addi	sp,sp,-16
    77bc:	00f10793          	addi	a5,sp,15
    77c0:	88be                	mv	a7,a5
    77c2:	4829                	li	a6,10
    77c4:	06300313          	li	t1,99
    77c8:	0305e6b3          	rem	a3,a1,a6
    77cc:	fff78613          	addi	a2,a5,-1
    77d0:	03068693          	addi	a3,a3,48
    77d4:	fed78fa3          	sb	a3,-1(a5)
    77d8:	0305c6b3          	div	a3,a1,a6
    77dc:	00b34d63          	blt	t1,a1,77f6 <__exponent+0x5a>
    77e0:	03068693          	addi	a3,a3,48
    77e4:	17f9                	addi	a5,a5,-2
    77e6:	fed60fa3          	sb	a3,-1(a2) # 7fffff <_data_lma+0x7f202b>
    77ea:	0117e963          	bltu	a5,a7,77fc <__exponent+0x60>
    77ee:	40a70533          	sub	a0,a4,a0
    77f2:	0141                	addi	sp,sp,16
    77f4:	8082                	ret
    77f6:	87b2                	mv	a5,a2
    77f8:	85b6                	mv	a1,a3
    77fa:	b7f9                	j	77c8 <__exponent+0x2c>
    77fc:	0785                	addi	a5,a5,1
    77fe:	fff7c683          	lbu	a3,-1(a5)
    7802:	0705                	addi	a4,a4,1
    7804:	fed70fa3          	sb	a3,-1(a4) # 7fffffff <_eusrstack+0x5fff7fff>
    7808:	b7cd                	j	77ea <__exponent+0x4e>
    780a:	03000793          	li	a5,48
    780e:	00450713          	addi	a4,a0,4
    7812:	03058593          	addi	a1,a1,48
    7816:	a13c                	sb	a5,2(a0)
    7818:	b12c                	sb	a1,3(a0)
    781a:	40a70533          	sub	a0,a4,a0
    781e:	8082                	ret

00007820 <_printf_float>:
    7820:	7119                	addi	sp,sp,-128
    7822:	ce3a                	sw	a4,28(sp)
    7824:	de86                	sw	ra,124(sp)
    7826:	dca2                	sw	s0,120(sp)
    7828:	daa6                	sw	s1,116(sp)
    782a:	842e                	mv	s0,a1
    782c:	d8ca                	sw	s2,112(sp)
    782e:	d6ce                	sw	s3,108(sp)
    7830:	d4d2                	sw	s4,104(sp)
    7832:	89b6                	mv	s3,a3
    7834:	d0da                	sw	s6,96(sp)
    7836:	cede                	sw	s7,92(sp)
    7838:	cce2                	sw	s8,88(sp)
    783a:	8932                	mv	s2,a2
    783c:	d2d6                	sw	s5,100(sp)
    783e:	cae6                	sw	s9,84(sp)
    7840:	c8ea                	sw	s10,80(sp)
    7842:	c6ee                	sw	s11,76(sp)
    7844:	84aa                	mv	s1,a0
    7846:	68a030ef          	jal	ra,aed0 <_localeconv_r>
    784a:	00052b83          	lw	s7,0(a0)
    784e:	855e                	mv	a0,s7
    7850:	62f000ef          	jal	ra,867e <strlen>
    7854:	00042b03          	lw	s6,0(s0) # 4000000 <_data_lma+0x3ff202c>
    7858:	4772                	lw	a4,28(sp)
    785a:	dc02                	sw	zero,56(sp)
    785c:	100b7693          	andi	a3,s6,256
    7860:	8c2a                	mv	s8,a0
    7862:	01844a03          	lbu	s4,24(s0)
    7866:	431c                	lw	a5,0(a4)
    7868:	caf1                	beqz	a3,793c <_printf_float+0x11c>
    786a:	00478693          	addi	a3,a5,4
    786e:	c314                	sw	a3,0(a4)
    7870:	439c                	lw	a5,0(a5)
    7872:	1008                	addi	a0,sp,32
    7874:	4398                	lw	a4,0(a5)
    7876:	d03a                	sw	a4,32(sp)
    7878:	43d8                	lw	a4,4(a5)
    787a:	d23a                	sw	a4,36(sp)
    787c:	4798                	lw	a4,8(a5)
    787e:	d43a                	sw	a4,40(sp)
    7880:	47dc                	lw	a5,12(a5)
    7882:	d63e                	sw	a5,44(sp)
    7884:	7d1040ef          	jal	ra,c854 <__trunctfdf2>
    7888:	c428                	sw	a0,72(s0)
    788a:	c46c                	sw	a1,76(s0)
    788c:	04c42c83          	lw	s9,76(s0)
    7890:	00006717          	auipc	a4,0x6
    7894:	39870713          	addi	a4,a4,920 # dc28 <__clz_tab+0x100>
    7898:	04842a83          	lw	s5,72(s0)
    789c:	00072d03          	lw	s10,0(a4)
    78a0:	00472d83          	lw	s11,4(a4)
    78a4:	001c9793          	slli	a5,s9,0x1
    78a8:	8385                	srli	a5,a5,0x1
    78aa:	866a                	mv	a2,s10
    78ac:	86ee                	mv	a3,s11
    78ae:	8556                	mv	a0,s5
    78b0:	85be                	mv	a1,a5
    78b2:	ce3e                	sw	a5,28(sp)
    78b4:	9fdfe0ef          	jal	ra,62b0 <__unorddf2>
    78b8:	ed41                	bnez	a0,7950 <_printf_float+0x130>
    78ba:	47f2                	lw	a5,28(sp)
    78bc:	866a                	mv	a2,s10
    78be:	86ee                	mv	a3,s11
    78c0:	8556                	mv	a0,s5
    78c2:	85be                	mv	a1,a5
    78c4:	40f040ef          	jal	ra,c4d2 <__ledf2>
    78c8:	08a05463          	blez	a0,7950 <_printf_float+0x130>
    78cc:	4601                	li	a2,0
    78ce:	4681                	li	a3,0
    78d0:	8556                	mv	a0,s5
    78d2:	85e6                	mv	a1,s9
    78d4:	3ff040ef          	jal	ra,c4d2 <__ledf2>
    78d8:	00055663          	bgez	a0,78e4 <_printf_float+0xc4>
    78dc:	02d00793          	li	a5,45
    78e0:	04f401a3          	sb	a5,67(s0)
    78e4:	04700793          	li	a5,71
    78e8:	00006a97          	auipc	s5,0x6
    78ec:	348a8a93          	addi	s5,s5,840 # dc30 <__clz_tab+0x108>
    78f0:	0147f663          	bgeu	a5,s4,78fc <_printf_float+0xdc>
    78f4:	00006a97          	auipc	s5,0x6
    78f8:	340a8a93          	addi	s5,s5,832 # dc34 <__clz_tab+0x10c>
    78fc:	ffbb7b13          	andi	s6,s6,-5
    7900:	478d                	li	a5,3
    7902:	01642023          	sw	s6,0(s0)
    7906:	c81c                	sw	a5,16(s0)
    7908:	4b01                	li	s6,0
    790a:	874e                	mv	a4,s3
    790c:	86ca                	mv	a3,s2
    790e:	1870                	addi	a2,sp,60
    7910:	85a2                	mv	a1,s0
    7912:	8526                	mv	a0,s1
    7914:	2ec1                	jal	7ce4 <_printf_common>
    7916:	5cfd                	li	s9,-1
    7918:	15951e63          	bne	a0,s9,7a74 <_printf_float+0x254>
    791c:	557d                	li	a0,-1
    791e:	50f6                	lw	ra,124(sp)
    7920:	5466                	lw	s0,120(sp)
    7922:	54d6                	lw	s1,116(sp)
    7924:	5946                	lw	s2,112(sp)
    7926:	59b6                	lw	s3,108(sp)
    7928:	5a26                	lw	s4,104(sp)
    792a:	5a96                	lw	s5,100(sp)
    792c:	5b06                	lw	s6,96(sp)
    792e:	4bf6                	lw	s7,92(sp)
    7930:	4c66                	lw	s8,88(sp)
    7932:	4cd6                	lw	s9,84(sp)
    7934:	4d46                	lw	s10,80(sp)
    7936:	4db6                	lw	s11,76(sp)
    7938:	6109                	addi	sp,sp,128
    793a:	8082                	ret
    793c:	079d                	addi	a5,a5,7
    793e:	9be1                	andi	a5,a5,-8
    7940:	00878693          	addi	a3,a5,8
    7944:	c314                	sw	a3,0(a4)
    7946:	4398                	lw	a4,0(a5)
    7948:	43dc                	lw	a5,4(a5)
    794a:	c438                	sw	a4,72(s0)
    794c:	c47c                	sw	a5,76(s0)
    794e:	bf3d                	j	788c <_printf_float+0x6c>
    7950:	8656                	mv	a2,s5
    7952:	86e6                	mv	a3,s9
    7954:	8556                	mv	a0,s5
    7956:	85e6                	mv	a1,s9
    7958:	959fe0ef          	jal	ra,62b0 <__unorddf2>
    795c:	cd11                	beqz	a0,7978 <_printf_float+0x158>
    795e:	04700793          	li	a5,71
    7962:	00006a97          	auipc	s5,0x6
    7966:	2d6a8a93          	addi	s5,s5,726 # dc38 <__clz_tab+0x110>
    796a:	f947f9e3          	bgeu	a5,s4,78fc <_printf_float+0xdc>
    796e:	00006a97          	auipc	s5,0x6
    7972:	2cea8a93          	addi	s5,s5,718 # dc3c <__clz_tab+0x114>
    7976:	b759                	j	78fc <_printf_float+0xdc>
    7978:	405c                	lw	a5,4(s0)
    797a:	577d                	li	a4,-1
    797c:	0dfa7d13          	andi	s10,s4,223
    7980:	08e79563          	bne	a5,a4,7a0a <_printf_float+0x1ea>
    7984:	4799                	li	a5,6
    7986:	c05c                	sw	a5,4(s0)
    7988:	4054                	lw	a3,4(s0)
    798a:	400b6713          	ori	a4,s6,1024
    798e:	183c                	addi	a5,sp,56
    7990:	85d6                	mv	a1,s5
    7992:	c03e                	sw	a5,0(sp)
    7994:	c018                	sw	a4,0(s0)
    7996:	03310793          	addi	a5,sp,51
    799a:	c202                	sw	zero,4(sp)
    799c:	88d2                	mv	a7,s4
    799e:	03410813          	addi	a6,sp,52
    79a2:	8666                	mv	a2,s9
    79a4:	8526                	mv	a0,s1
    79a6:	d0dff0ef          	jal	ra,76b2 <__cvt>
    79aa:	04700793          	li	a5,71
    79ae:	8aaa                	mv	s5,a0
    79b0:	55d2                	lw	a1,52(sp)
    79b2:	00fd1b63          	bne	s10,a5,79c8 <_printf_float+0x1a8>
    79b6:	57f5                	li	a5,-3
    79b8:	00f5c563          	blt	a1,a5,79c2 <_printf_float+0x1a2>
    79bc:	405c                	lw	a5,4(s0)
    79be:	08b7d863          	bge	a5,a1,7a4e <_printf_float+0x22e>
    79c2:	1a79                	addi	s4,s4,-2
    79c4:	0ffa7a13          	andi	s4,s4,255
    79c8:	06500793          	li	a5,101
    79cc:	0547e663          	bltu	a5,s4,7a18 <_printf_float+0x1f8>
    79d0:	15fd                	addi	a1,a1,-1
    79d2:	8652                	mv	a2,s4
    79d4:	05040513          	addi	a0,s0,80
    79d8:	da2e                	sw	a1,52(sp)
    79da:	dc3ff0ef          	jal	ra,779c <__exponent>
    79de:	5762                	lw	a4,56(sp)
    79e0:	4685                	li	a3,1
    79e2:	8b2a                	mv	s6,a0
    79e4:	00a707b3          	add	a5,a4,a0
    79e8:	c81c                	sw	a5,16(s0)
    79ea:	00e6c563          	blt	a3,a4,79f4 <_printf_float+0x1d4>
    79ee:	4018                	lw	a4,0(s0)
    79f0:	8b05                	andi	a4,a4,1
    79f2:	c319                	beqz	a4,79f8 <_printf_float+0x1d8>
    79f4:	0785                	addi	a5,a5,1
    79f6:	c81c                	sw	a5,16(s0)
    79f8:	03314783          	lbu	a5,51(sp)
    79fc:	f00787e3          	beqz	a5,790a <_printf_float+0xea>
    7a00:	02d00793          	li	a5,45
    7a04:	04f401a3          	sb	a5,67(s0)
    7a08:	b709                	j	790a <_printf_float+0xea>
    7a0a:	04700713          	li	a4,71
    7a0e:	f6ed1de3          	bne	s10,a4,7988 <_printf_float+0x168>
    7a12:	fbbd                	bnez	a5,7988 <_printf_float+0x168>
    7a14:	4785                	li	a5,1
    7a16:	bf85                	j	7986 <_printf_float+0x166>
    7a18:	06600793          	li	a5,102
    7a1c:	02fa1b63          	bne	s4,a5,7a52 <_printf_float+0x232>
    7a20:	405c                	lw	a5,4(s0)
    7a22:	00b05b63          	blez	a1,7a38 <_printf_float+0x218>
    7a26:	c80c                	sw	a1,16(s0)
    7a28:	e781                	bnez	a5,7a30 <_printf_float+0x210>
    7a2a:	4018                	lw	a4,0(s0)
    7a2c:	8b05                	andi	a4,a4,1
    7a2e:	cf09                	beqz	a4,7a48 <_printf_float+0x228>
    7a30:	0785                	addi	a5,a5,1
    7a32:	97ae                	add	a5,a5,a1
    7a34:	c81c                	sw	a5,16(s0)
    7a36:	a809                	j	7a48 <_printf_float+0x228>
    7a38:	e789                	bnez	a5,7a42 <_printf_float+0x222>
    7a3a:	4018                	lw	a4,0(s0)
    7a3c:	4685                	li	a3,1
    7a3e:	8b05                	andi	a4,a4,1
    7a40:	c319                	beqz	a4,7a46 <_printf_float+0x226>
    7a42:	00278693          	addi	a3,a5,2
    7a46:	c814                	sw	a3,16(s0)
    7a48:	cc2c                	sw	a1,88(s0)
    7a4a:	4b01                	li	s6,0
    7a4c:	b775                	j	79f8 <_printf_float+0x1d8>
    7a4e:	06700a13          	li	s4,103
    7a52:	57e2                	lw	a5,56(sp)
    7a54:	00f5c963          	blt	a1,a5,7a66 <_printf_float+0x246>
    7a58:	401c                	lw	a5,0(s0)
    7a5a:	c80c                	sw	a1,16(s0)
    7a5c:	8b85                	andi	a5,a5,1
    7a5e:	d7ed                	beqz	a5,7a48 <_printf_float+0x228>
    7a60:	00158793          	addi	a5,a1,1
    7a64:	bfc1                	j	7a34 <_printf_float+0x214>
    7a66:	4705                	li	a4,1
    7a68:	00b04463          	bgtz	a1,7a70 <_printf_float+0x250>
    7a6c:	4709                	li	a4,2
    7a6e:	8f0d                	sub	a4,a4,a1
    7a70:	97ba                	add	a5,a5,a4
    7a72:	b7c9                	j	7a34 <_printf_float+0x214>
    7a74:	401c                	lw	a5,0(s0)
    7a76:	4007f713          	andi	a4,a5,1024
    7a7a:	e315                	bnez	a4,7a9e <_printf_float+0x27e>
    7a7c:	4814                	lw	a3,16(s0)
    7a7e:	8656                	mv	a2,s5
    7a80:	85ca                	mv	a1,s2
    7a82:	8526                	mv	a0,s1
    7a84:	9982                	jalr	s3
    7a86:	e9950be3          	beq	a0,s9,791c <_printf_float+0xfc>
    7a8a:	401c                	lw	a5,0(s0)
    7a8c:	8b89                	andi	a5,a5,2
    7a8e:	24079663          	bnez	a5,7cda <_printf_float+0x4ba>
    7a92:	57f2                	lw	a5,60(sp)
    7a94:	4448                	lw	a0,12(s0)
    7a96:	e8f554e3          	bge	a0,a5,791e <_printf_float+0xfe>
    7a9a:	853e                	mv	a0,a5
    7a9c:	b549                	j	791e <_printf_float+0xfe>
    7a9e:	06500713          	li	a4,101
    7aa2:	19477b63          	bgeu	a4,s4,7c38 <_printf_float+0x418>
    7aa6:	4428                	lw	a0,72(s0)
    7aa8:	446c                	lw	a1,76(s0)
    7aaa:	4601                	li	a2,0
    7aac:	4681                	li	a3,0
    7aae:	1bb040ef          	jal	ra,c468 <__eqdf2>
    7ab2:	e939                	bnez	a0,7b08 <_printf_float+0x2e8>
    7ab4:	4685                	li	a3,1
    7ab6:	00006617          	auipc	a2,0x6
    7aba:	18a60613          	addi	a2,a2,394 # dc40 <__clz_tab+0x118>
    7abe:	85ca                	mv	a1,s2
    7ac0:	8526                	mv	a0,s1
    7ac2:	9982                	jalr	s3
    7ac4:	e5950ce3          	beq	a0,s9,791c <_printf_float+0xfc>
    7ac8:	5752                	lw	a4,52(sp)
    7aca:	57e2                	lw	a5,56(sp)
    7acc:	00f74563          	blt	a4,a5,7ad6 <_printf_float+0x2b6>
    7ad0:	401c                	lw	a5,0(s0)
    7ad2:	8b85                	andi	a5,a5,1
    7ad4:	dbdd                	beqz	a5,7a8a <_printf_float+0x26a>
    7ad6:	86e2                	mv	a3,s8
    7ad8:	865e                	mv	a2,s7
    7ada:	85ca                	mv	a1,s2
    7adc:	8526                	mv	a0,s1
    7ade:	9982                	jalr	s3
    7ae0:	57fd                	li	a5,-1
    7ae2:	e2f50de3          	beq	a0,a5,791c <_printf_float+0xfc>
    7ae6:	4a01                	li	s4,0
    7ae8:	01a40a93          	addi	s5,s0,26
    7aec:	5b7d                	li	s6,-1
    7aee:	57e2                	lw	a5,56(sp)
    7af0:	17fd                	addi	a5,a5,-1
    7af2:	f8fa5ce3          	bge	s4,a5,7a8a <_printf_float+0x26a>
    7af6:	4685                	li	a3,1
    7af8:	8656                	mv	a2,s5
    7afa:	85ca                	mv	a1,s2
    7afc:	8526                	mv	a0,s1
    7afe:	9982                	jalr	s3
    7b00:	e1650ee3          	beq	a0,s6,791c <_printf_float+0xfc>
    7b04:	0a05                	addi	s4,s4,1
    7b06:	b7e5                	j	7aee <_printf_float+0x2ce>
    7b08:	57d2                	lw	a5,52(sp)
    7b0a:	06f04663          	bgtz	a5,7b76 <_printf_float+0x356>
    7b0e:	4685                	li	a3,1
    7b10:	00006617          	auipc	a2,0x6
    7b14:	13060613          	addi	a2,a2,304 # dc40 <__clz_tab+0x118>
    7b18:	85ca                	mv	a1,s2
    7b1a:	8526                	mv	a0,s1
    7b1c:	9982                	jalr	s3
    7b1e:	df950fe3          	beq	a0,s9,791c <_printf_float+0xfc>
    7b22:	57d2                	lw	a5,52(sp)
    7b24:	5762                	lw	a4,56(sp)
    7b26:	8fd9                	or	a5,a5,a4
    7b28:	e781                	bnez	a5,7b30 <_printf_float+0x310>
    7b2a:	401c                	lw	a5,0(s0)
    7b2c:	8b85                	andi	a5,a5,1
    7b2e:	dfb1                	beqz	a5,7a8a <_printf_float+0x26a>
    7b30:	86e2                	mv	a3,s8
    7b32:	865e                	mv	a2,s7
    7b34:	85ca                	mv	a1,s2
    7b36:	8526                	mv	a0,s1
    7b38:	9982                	jalr	s3
    7b3a:	57fd                	li	a5,-1
    7b3c:	def500e3          	beq	a0,a5,791c <_printf_float+0xfc>
    7b40:	4a01                	li	s4,0
    7b42:	01a40b13          	addi	s6,s0,26
    7b46:	5bfd                	li	s7,-1
    7b48:	57d2                	lw	a5,52(sp)
    7b4a:	40f007b3          	neg	a5,a5
    7b4e:	00fa4b63          	blt	s4,a5,7b64 <_printf_float+0x344>
    7b52:	56e2                	lw	a3,56(sp)
    7b54:	8656                	mv	a2,s5
    7b56:	85ca                	mv	a1,s2
    7b58:	8526                	mv	a0,s1
    7b5a:	9982                	jalr	s3
    7b5c:	57fd                	li	a5,-1
    7b5e:	f2f516e3          	bne	a0,a5,7a8a <_printf_float+0x26a>
    7b62:	bb6d                	j	791c <_printf_float+0xfc>
    7b64:	4685                	li	a3,1
    7b66:	865a                	mv	a2,s6
    7b68:	85ca                	mv	a1,s2
    7b6a:	8526                	mv	a0,s1
    7b6c:	9982                	jalr	s3
    7b6e:	db7507e3          	beq	a0,s7,791c <_printf_float+0xfc>
    7b72:	0a05                	addi	s4,s4,1
    7b74:	bfd1                	j	7b48 <_printf_float+0x328>
    7b76:	4c3c                	lw	a5,88(s0)
    7b78:	5a62                	lw	s4,56(sp)
    7b7a:	0147d363          	bge	a5,s4,7b80 <_printf_float+0x360>
    7b7e:	8a3e                	mv	s4,a5
    7b80:	01405a63          	blez	s4,7b94 <_printf_float+0x374>
    7b84:	86d2                	mv	a3,s4
    7b86:	8656                	mv	a2,s5
    7b88:	85ca                	mv	a1,s2
    7b8a:	8526                	mv	a0,s1
    7b8c:	9982                	jalr	s3
    7b8e:	57fd                	li	a5,-1
    7b90:	d8f506e3          	beq	a0,a5,791c <_printf_float+0xfc>
    7b94:	4c81                	li	s9,0
    7b96:	01a40d13          	addi	s10,s0,26
    7b9a:	5dfd                	li	s11,-1
    7b9c:	a809                	j	7bae <_printf_float+0x38e>
    7b9e:	4685                	li	a3,1
    7ba0:	866a                	mv	a2,s10
    7ba2:	85ca                	mv	a1,s2
    7ba4:	8526                	mv	a0,s1
    7ba6:	9982                	jalr	s3
    7ba8:	d7b50ae3          	beq	a0,s11,791c <_printf_float+0xfc>
    7bac:	0c85                	addi	s9,s9,1
    7bae:	05842b03          	lw	s6,88(s0)
    7bb2:	87d2                	mv	a5,s4
    7bb4:	000a5363          	bgez	s4,7bba <_printf_float+0x39a>
    7bb8:	4781                	li	a5,0
    7bba:	40fb07b3          	sub	a5,s6,a5
    7bbe:	fefcc0e3          	blt	s9,a5,7b9e <_printf_float+0x37e>
    7bc2:	5752                	lw	a4,52(sp)
    7bc4:	57e2                	lw	a5,56(sp)
    7bc6:	02f74d63          	blt	a4,a5,7c00 <_printf_float+0x3e0>
    7bca:	401c                	lw	a5,0(s0)
    7bcc:	8b85                	andi	a5,a5,1
    7bce:	eb8d                	bnez	a5,7c00 <_printf_float+0x3e0>
    7bd0:	57e2                	lw	a5,56(sp)
    7bd2:	5752                	lw	a4,52(sp)
    7bd4:	40e78a33          	sub	s4,a5,a4
    7bd8:	00eb4463          	blt	s6,a4,7be0 <_printf_float+0x3c0>
    7bdc:	41678a33          	sub	s4,a5,s6
    7be0:	01405b63          	blez	s4,7bf6 <_printf_float+0x3d6>
    7be4:	86d2                	mv	a3,s4
    7be6:	016a8633          	add	a2,s5,s6
    7bea:	85ca                	mv	a1,s2
    7bec:	8526                	mv	a0,s1
    7bee:	9982                	jalr	s3
    7bf0:	57fd                	li	a5,-1
    7bf2:	d2f505e3          	beq	a0,a5,791c <_printf_float+0xfc>
    7bf6:	4a81                	li	s5,0
    7bf8:	01a40b13          	addi	s6,s0,26
    7bfc:	5bfd                	li	s7,-1
    7bfe:	a015                	j	7c22 <_printf_float+0x402>
    7c00:	86e2                	mv	a3,s8
    7c02:	865e                	mv	a2,s7
    7c04:	85ca                	mv	a1,s2
    7c06:	8526                	mv	a0,s1
    7c08:	9982                	jalr	s3
    7c0a:	57fd                	li	a5,-1
    7c0c:	fcf512e3          	bne	a0,a5,7bd0 <_printf_float+0x3b0>
    7c10:	b331                	j	791c <_printf_float+0xfc>
    7c12:	4685                	li	a3,1
    7c14:	865a                	mv	a2,s6
    7c16:	85ca                	mv	a1,s2
    7c18:	8526                	mv	a0,s1
    7c1a:	9982                	jalr	s3
    7c1c:	d17500e3          	beq	a0,s7,791c <_printf_float+0xfc>
    7c20:	0a85                	addi	s5,s5,1
    7c22:	5752                	lw	a4,52(sp)
    7c24:	57e2                	lw	a5,56(sp)
    7c26:	8f99                	sub	a5,a5,a4
    7c28:	8752                	mv	a4,s4
    7c2a:	000a5363          	bgez	s4,7c30 <_printf_float+0x410>
    7c2e:	4701                	li	a4,0
    7c30:	8f99                	sub	a5,a5,a4
    7c32:	fefac0e3          	blt	s5,a5,7c12 <_printf_float+0x3f2>
    7c36:	bd91                	j	7a8a <_printf_float+0x26a>
    7c38:	56e2                	lw	a3,56(sp)
    7c3a:	4705                	li	a4,1
    7c3c:	00d74463          	blt	a4,a3,7c44 <_printf_float+0x424>
    7c40:	8b85                	andi	a5,a5,1
    7c42:	c7b5                	beqz	a5,7cae <_printf_float+0x48e>
    7c44:	4685                	li	a3,1
    7c46:	8656                	mv	a2,s5
    7c48:	85ca                	mv	a1,s2
    7c4a:	8526                	mv	a0,s1
    7c4c:	9982                	jalr	s3
    7c4e:	5a7d                	li	s4,-1
    7c50:	cd4506e3          	beq	a0,s4,791c <_printf_float+0xfc>
    7c54:	86e2                	mv	a3,s8
    7c56:	865e                	mv	a2,s7
    7c58:	85ca                	mv	a1,s2
    7c5a:	8526                	mv	a0,s1
    7c5c:	9982                	jalr	s3
    7c5e:	cb450fe3          	beq	a0,s4,791c <_printf_float+0xfc>
    7c62:	4428                	lw	a0,72(s0)
    7c64:	446c                	lw	a1,76(s0)
    7c66:	4601                	li	a2,0
    7c68:	4681                	li	a3,0
    7c6a:	7fe040ef          	jal	ra,c468 <__eqdf2>
    7c6e:	c91d                	beqz	a0,7ca4 <_printf_float+0x484>
    7c70:	56e2                	lw	a3,56(sp)
    7c72:	001a8613          	addi	a2,s5,1
    7c76:	85ca                	mv	a1,s2
    7c78:	16fd                	addi	a3,a3,-1
    7c7a:	8526                	mv	a0,s1
    7c7c:	9982                	jalr	s3
    7c7e:	c9450fe3          	beq	a0,s4,791c <_printf_float+0xfc>
    7c82:	86da                	mv	a3,s6
    7c84:	05040613          	addi	a2,s0,80
    7c88:	b5f9                	j	7b56 <_printf_float+0x336>
    7c8a:	4685                	li	a3,1
    7c8c:	8656                	mv	a2,s5
    7c8e:	85ca                	mv	a1,s2
    7c90:	8526                	mv	a0,s1
    7c92:	9982                	jalr	s3
    7c94:	c97504e3          	beq	a0,s7,791c <_printf_float+0xfc>
    7c98:	0a05                	addi	s4,s4,1
    7c9a:	57e2                	lw	a5,56(sp)
    7c9c:	17fd                	addi	a5,a5,-1
    7c9e:	fefa46e3          	blt	s4,a5,7c8a <_printf_float+0x46a>
    7ca2:	b7c5                	j	7c82 <_printf_float+0x462>
    7ca4:	4a01                	li	s4,0
    7ca6:	01a40a93          	addi	s5,s0,26
    7caa:	5bfd                	li	s7,-1
    7cac:	b7fd                	j	7c9a <_printf_float+0x47a>
    7cae:	4685                	li	a3,1
    7cb0:	8656                	mv	a2,s5
    7cb2:	85ca                	mv	a1,s2
    7cb4:	8526                	mv	a0,s1
    7cb6:	9982                	jalr	s3
    7cb8:	fd9515e3          	bne	a0,s9,7c82 <_printf_float+0x462>
    7cbc:	b185                	j	791c <_printf_float+0xfc>
    7cbe:	4685                	li	a3,1
    7cc0:	8656                	mv	a2,s5
    7cc2:	85ca                	mv	a1,s2
    7cc4:	8526                	mv	a0,s1
    7cc6:	9982                	jalr	s3
    7cc8:	c5650ae3          	beq	a0,s6,791c <_printf_float+0xfc>
    7ccc:	0a05                	addi	s4,s4,1
    7cce:	445c                	lw	a5,12(s0)
    7cd0:	5772                	lw	a4,60(sp)
    7cd2:	8f99                	sub	a5,a5,a4
    7cd4:	fefa45e3          	blt	s4,a5,7cbe <_printf_float+0x49e>
    7cd8:	bb6d                	j	7a92 <_printf_float+0x272>
    7cda:	4a01                	li	s4,0
    7cdc:	01940a93          	addi	s5,s0,25
    7ce0:	5b7d                	li	s6,-1
    7ce2:	b7f5                	j	7cce <_printf_float+0x4ae>

00007ce4 <_printf_common>:
    7ce4:	7179                	addi	sp,sp,-48
    7ce6:	ca56                	sw	s5,20(sp)
    7ce8:	499c                	lw	a5,16(a1)
    7cea:	8aba                	mv	s5,a4
    7cec:	4598                	lw	a4,8(a1)
    7cee:	d422                	sw	s0,40(sp)
    7cf0:	d226                	sw	s1,36(sp)
    7cf2:	ce4e                	sw	s3,28(sp)
    7cf4:	cc52                	sw	s4,24(sp)
    7cf6:	d606                	sw	ra,44(sp)
    7cf8:	d04a                	sw	s2,32(sp)
    7cfa:	c85a                	sw	s6,16(sp)
    7cfc:	c65e                	sw	s7,12(sp)
    7cfe:	89aa                	mv	s3,a0
    7d00:	842e                	mv	s0,a1
    7d02:	84b2                	mv	s1,a2
    7d04:	8a36                	mv	s4,a3
    7d06:	00e7d363          	bge	a5,a4,7d0c <_printf_common+0x28>
    7d0a:	87ba                	mv	a5,a4
    7d0c:	c09c                	sw	a5,0(s1)
    7d0e:	04344703          	lbu	a4,67(s0)
    7d12:	c319                	beqz	a4,7d18 <_printf_common+0x34>
    7d14:	0785                	addi	a5,a5,1
    7d16:	c09c                	sw	a5,0(s1)
    7d18:	401c                	lw	a5,0(s0)
    7d1a:	0207f793          	andi	a5,a5,32
    7d1e:	c781                	beqz	a5,7d26 <_printf_common+0x42>
    7d20:	409c                	lw	a5,0(s1)
    7d22:	0789                	addi	a5,a5,2
    7d24:	c09c                	sw	a5,0(s1)
    7d26:	00042903          	lw	s2,0(s0)
    7d2a:	00697913          	andi	s2,s2,6
    7d2e:	00091a63          	bnez	s2,7d42 <_printf_common+0x5e>
    7d32:	01940b13          	addi	s6,s0,25
    7d36:	5bfd                	li	s7,-1
    7d38:	445c                	lw	a5,12(s0)
    7d3a:	4098                	lw	a4,0(s1)
    7d3c:	8f99                	sub	a5,a5,a4
    7d3e:	04f94c63          	blt	s2,a5,7d96 <_printf_common+0xb2>
    7d42:	401c                	lw	a5,0(s0)
    7d44:	04344683          	lbu	a3,67(s0)
    7d48:	0207f793          	andi	a5,a5,32
    7d4c:	00d036b3          	snez	a3,a3
    7d50:	eba5                	bnez	a5,7dc0 <_printf_common+0xdc>
    7d52:	04340613          	addi	a2,s0,67
    7d56:	85d2                	mv	a1,s4
    7d58:	854e                	mv	a0,s3
    7d5a:	9a82                	jalr	s5
    7d5c:	57fd                	li	a5,-1
    7d5e:	04f50363          	beq	a0,a5,7da4 <_printf_common+0xc0>
    7d62:	401c                	lw	a5,0(s0)
    7d64:	4611                	li	a2,4
    7d66:	4098                	lw	a4,0(s1)
    7d68:	8b99                	andi	a5,a5,6
    7d6a:	4454                	lw	a3,12(s0)
    7d6c:	4481                	li	s1,0
    7d6e:	00c79763          	bne	a5,a2,7d7c <_printf_common+0x98>
    7d72:	40e684b3          	sub	s1,a3,a4
    7d76:	0004d363          	bgez	s1,7d7c <_printf_common+0x98>
    7d7a:	4481                	li	s1,0
    7d7c:	441c                	lw	a5,8(s0)
    7d7e:	4818                	lw	a4,16(s0)
    7d80:	00f75463          	bge	a4,a5,7d88 <_printf_common+0xa4>
    7d84:	8f99                	sub	a5,a5,a4
    7d86:	94be                	add	s1,s1,a5
    7d88:	4901                	li	s2,0
    7d8a:	0469                	addi	s0,s0,26
    7d8c:	5b7d                	li	s6,-1
    7d8e:	05249863          	bne	s1,s2,7dde <_printf_common+0xfa>
    7d92:	4501                	li	a0,0
    7d94:	a809                	j	7da6 <_printf_common+0xc2>
    7d96:	4685                	li	a3,1
    7d98:	865a                	mv	a2,s6
    7d9a:	85d2                	mv	a1,s4
    7d9c:	854e                	mv	a0,s3
    7d9e:	9a82                	jalr	s5
    7da0:	01751e63          	bne	a0,s7,7dbc <_printf_common+0xd8>
    7da4:	557d                	li	a0,-1
    7da6:	50b2                	lw	ra,44(sp)
    7da8:	5422                	lw	s0,40(sp)
    7daa:	5492                	lw	s1,36(sp)
    7dac:	5902                	lw	s2,32(sp)
    7dae:	49f2                	lw	s3,28(sp)
    7db0:	4a62                	lw	s4,24(sp)
    7db2:	4ad2                	lw	s5,20(sp)
    7db4:	4b42                	lw	s6,16(sp)
    7db6:	4bb2                	lw	s7,12(sp)
    7db8:	6145                	addi	sp,sp,48
    7dba:	8082                	ret
    7dbc:	0905                	addi	s2,s2,1
    7dbe:	bfad                	j	7d38 <_printf_common+0x54>
    7dc0:	00d40733          	add	a4,s0,a3
    7dc4:	03000613          	li	a2,48
    7dc8:	04c701a3          	sb	a2,67(a4)
    7dcc:	04544703          	lbu	a4,69(s0)
    7dd0:	00168793          	addi	a5,a3,1
    7dd4:	97a2                	add	a5,a5,s0
    7dd6:	0689                	addi	a3,a3,2
    7dd8:	04e781a3          	sb	a4,67(a5)
    7ddc:	bf9d                	j	7d52 <_printf_common+0x6e>
    7dde:	4685                	li	a3,1
    7de0:	8622                	mv	a2,s0
    7de2:	85d2                	mv	a1,s4
    7de4:	854e                	mv	a0,s3
    7de6:	9a82                	jalr	s5
    7de8:	fb650ee3          	beq	a0,s6,7da4 <_printf_common+0xc0>
    7dec:	0905                	addi	s2,s2,1
    7dee:	b745                	j	7d8e <_printf_common+0xaa>

00007df0 <_printf_i>:
    7df0:	7179                	addi	sp,sp,-48
    7df2:	d422                	sw	s0,40(sp)
    7df4:	d226                	sw	s1,36(sp)
    7df6:	d04a                	sw	s2,32(sp)
    7df8:	ce4e                	sw	s3,28(sp)
    7dfa:	d606                	sw	ra,44(sp)
    7dfc:	cc52                	sw	s4,24(sp)
    7dfe:	ca56                	sw	s5,20(sp)
    7e00:	c85a                	sw	s6,16(sp)
    7e02:	89b6                	mv	s3,a3
    7e04:	2d94                	lbu	a3,24(a1)
    7e06:	06900793          	li	a5,105
    7e0a:	8932                	mv	s2,a2
    7e0c:	84aa                	mv	s1,a0
    7e0e:	842e                	mv	s0,a1
    7e10:	04358613          	addi	a2,a1,67
    7e14:	02f68d63          	beq	a3,a5,7e4e <_printf_i+0x5e>
    7e18:	06d7e263          	bltu	a5,a3,7e7c <_printf_i+0x8c>
    7e1c:	05800793          	li	a5,88
    7e20:	18f68763          	beq	a3,a5,7fae <_printf_i+0x1be>
    7e24:	00d7ed63          	bltu	a5,a3,7e3e <_printf_i+0x4e>
    7e28:	20068f63          	beqz	a3,8046 <_printf_i+0x256>
    7e2c:	04300793          	li	a5,67
    7e30:	0af68f63          	beq	a3,a5,7eee <_printf_i+0xfe>
    7e34:	04240a93          	addi	s5,s0,66
    7e38:	04d40123          	sb	a3,66(s0)
    7e3c:	a0d1                	j	7f00 <_printf_i+0x110>
    7e3e:	06300793          	li	a5,99
    7e42:	0af68663          	beq	a3,a5,7eee <_printf_i+0xfe>
    7e46:	06400793          	li	a5,100
    7e4a:	fef695e3          	bne	a3,a5,7e34 <_printf_i+0x44>
    7e4e:	401c                	lw	a5,0(s0)
    7e50:	4308                	lw	a0,0(a4)
    7e52:	0807f693          	andi	a3,a5,128
    7e56:	00450593          	addi	a1,a0,4
    7e5a:	c6cd                	beqz	a3,7f04 <_printf_i+0x114>
    7e5c:	411c                	lw	a5,0(a0)
    7e5e:	c30c                	sw	a1,0(a4)
    7e60:	0007d863          	bgez	a5,7e70 <_printf_i+0x80>
    7e64:	02d00713          	li	a4,45
    7e68:	40f007b3          	neg	a5,a5
    7e6c:	04e401a3          	sb	a4,67(s0)
    7e70:	00006697          	auipc	a3,0x6
    7e74:	dd468693          	addi	a3,a3,-556 # dc44 <__clz_tab+0x11c>
    7e78:	4729                	li	a4,10
    7e7a:	a86d                	j	7f34 <_printf_i+0x144>
    7e7c:	07000793          	li	a5,112
    7e80:	16f68363          	beq	a3,a5,7fe6 <_printf_i+0x1f6>
    7e84:	02d7e563          	bltu	a5,a3,7eae <_printf_i+0xbe>
    7e88:	06e00793          	li	a5,110
    7e8c:	18f68a63          	beq	a3,a5,8020 <_printf_i+0x230>
    7e90:	06f00793          	li	a5,111
    7e94:	faf690e3          	bne	a3,a5,7e34 <_printf_i+0x44>
    7e98:	400c                	lw	a1,0(s0)
    7e9a:	431c                	lw	a5,0(a4)
    7e9c:	0805f813          	andi	a6,a1,128
    7ea0:	00478513          	addi	a0,a5,4
    7ea4:	06080863          	beqz	a6,7f14 <_printf_i+0x124>
    7ea8:	c308                	sw	a0,0(a4)
    7eaa:	439c                	lw	a5,0(a5)
    7eac:	a88d                	j	7f1e <_printf_i+0x12e>
    7eae:	07500793          	li	a5,117
    7eb2:	fef683e3          	beq	a3,a5,7e98 <_printf_i+0xa8>
    7eb6:	07800793          	li	a5,120
    7eba:	12f68a63          	beq	a3,a5,7fee <_printf_i+0x1fe>
    7ebe:	07300793          	li	a5,115
    7ec2:	f6f699e3          	bne	a3,a5,7e34 <_printf_i+0x44>
    7ec6:	431c                	lw	a5,0(a4)
    7ec8:	41d0                	lw	a2,4(a1)
    7eca:	4581                	li	a1,0
    7ecc:	00478693          	addi	a3,a5,4
    7ed0:	c314                	sw	a3,0(a4)
    7ed2:	0007aa83          	lw	s5,0(a5)
    7ed6:	8556                	mv	a0,s5
    7ed8:	13a030ef          	jal	ra,b012 <memchr>
    7edc:	c501                	beqz	a0,7ee4 <_printf_i+0xf4>
    7ede:	41550533          	sub	a0,a0,s5
    7ee2:	c048                	sw	a0,4(s0)
    7ee4:	405c                	lw	a5,4(s0)
    7ee6:	c81c                	sw	a5,16(s0)
    7ee8:	040401a3          	sb	zero,67(s0)
    7eec:	a861                	j	7f84 <_printf_i+0x194>
    7eee:	431c                	lw	a5,0(a4)
    7ef0:	04240a93          	addi	s5,s0,66
    7ef4:	00478693          	addi	a3,a5,4
    7ef8:	439c                	lw	a5,0(a5)
    7efa:	c314                	sw	a3,0(a4)
    7efc:	04f40123          	sb	a5,66(s0)
    7f00:	4785                	li	a5,1
    7f02:	b7d5                	j	7ee6 <_printf_i+0xf6>
    7f04:	0407f693          	andi	a3,a5,64
    7f08:	411c                	lw	a5,0(a0)
    7f0a:	c30c                	sw	a1,0(a4)
    7f0c:	dab1                	beqz	a3,7e60 <_printf_i+0x70>
    7f0e:	07c2                	slli	a5,a5,0x10
    7f10:	87c1                	srai	a5,a5,0x10
    7f12:	b7b9                	j	7e60 <_printf_i+0x70>
    7f14:	0405f593          	andi	a1,a1,64
    7f18:	c308                	sw	a0,0(a4)
    7f1a:	d9c1                	beqz	a1,7eaa <_printf_i+0xba>
    7f1c:	239e                	lhu	a5,0(a5)
    7f1e:	06f00713          	li	a4,111
    7f22:	0ee68763          	beq	a3,a4,8010 <_printf_i+0x220>
    7f26:	00006697          	auipc	a3,0x6
    7f2a:	d1e68693          	addi	a3,a3,-738 # dc44 <__clz_tab+0x11c>
    7f2e:	4729                	li	a4,10
    7f30:	040401a3          	sb	zero,67(s0)
    7f34:	404c                	lw	a1,4(s0)
    7f36:	c40c                	sw	a1,8(s0)
    7f38:	0005c563          	bltz	a1,7f42 <_printf_i+0x152>
    7f3c:	4008                	lw	a0,0(s0)
    7f3e:	996d                	andi	a0,a0,-5
    7f40:	c008                	sw	a0,0(s0)
    7f42:	e399                	bnez	a5,7f48 <_printf_i+0x158>
    7f44:	8ab2                	mv	s5,a2
    7f46:	cd89                	beqz	a1,7f60 <_printf_i+0x170>
    7f48:	8ab2                	mv	s5,a2
    7f4a:	02e7f5b3          	remu	a1,a5,a4
    7f4e:	1afd                	addi	s5,s5,-1
    7f50:	95b6                	add	a1,a1,a3
    7f52:	218c                	lbu	a1,0(a1)
    7f54:	00ba8023          	sb	a1,0(s5)
    7f58:	02e7d5b3          	divu	a1,a5,a4
    7f5c:	0ce7f063          	bgeu	a5,a4,801c <_printf_i+0x22c>
    7f60:	47a1                	li	a5,8
    7f62:	00f71e63          	bne	a4,a5,7f7e <_printf_i+0x18e>
    7f66:	401c                	lw	a5,0(s0)
    7f68:	8b85                	andi	a5,a5,1
    7f6a:	cb91                	beqz	a5,7f7e <_printf_i+0x18e>
    7f6c:	4058                	lw	a4,4(s0)
    7f6e:	481c                	lw	a5,16(s0)
    7f70:	00e7c763          	blt	a5,a4,7f7e <_printf_i+0x18e>
    7f74:	03000793          	li	a5,48
    7f78:	fefa8fa3          	sb	a5,-1(s5)
    7f7c:	1afd                	addi	s5,s5,-1
    7f7e:	41560633          	sub	a2,a2,s5
    7f82:	c810                	sw	a2,16(s0)
    7f84:	874e                	mv	a4,s3
    7f86:	86ca                	mv	a3,s2
    7f88:	0070                	addi	a2,sp,12
    7f8a:	85a2                	mv	a1,s0
    7f8c:	8526                	mv	a0,s1
    7f8e:	d57ff0ef          	jal	ra,7ce4 <_printf_common>
    7f92:	5a7d                	li	s4,-1
    7f94:	0b451d63          	bne	a0,s4,804e <_printf_i+0x25e>
    7f98:	557d                	li	a0,-1
    7f9a:	50b2                	lw	ra,44(sp)
    7f9c:	5422                	lw	s0,40(sp)
    7f9e:	5492                	lw	s1,36(sp)
    7fa0:	5902                	lw	s2,32(sp)
    7fa2:	49f2                	lw	s3,28(sp)
    7fa4:	4a62                	lw	s4,24(sp)
    7fa6:	4ad2                	lw	s5,20(sp)
    7fa8:	4b42                	lw	s6,16(sp)
    7faa:	6145                	addi	sp,sp,48
    7fac:	8082                	ret
    7fae:	04d582a3          	sb	a3,69(a1)
    7fb2:	00006697          	auipc	a3,0x6
    7fb6:	c9268693          	addi	a3,a3,-878 # dc44 <__clz_tab+0x11c>
    7fba:	400c                	lw	a1,0(s0)
    7fbc:	4308                	lw	a0,0(a4)
    7fbe:	0805f813          	andi	a6,a1,128
    7fc2:	411c                	lw	a5,0(a0)
    7fc4:	0511                	addi	a0,a0,4
    7fc6:	02080d63          	beqz	a6,8000 <_printf_i+0x210>
    7fca:	c308                	sw	a0,0(a4)
    7fcc:	0015f713          	andi	a4,a1,1
    7fd0:	c701                	beqz	a4,7fd8 <_printf_i+0x1e8>
    7fd2:	0205e593          	ori	a1,a1,32
    7fd6:	c00c                	sw	a1,0(s0)
    7fd8:	4741                	li	a4,16
    7fda:	fbb9                	bnez	a5,7f30 <_printf_i+0x140>
    7fdc:	400c                	lw	a1,0(s0)
    7fde:	fdf5f593          	andi	a1,a1,-33
    7fe2:	c00c                	sw	a1,0(s0)
    7fe4:	b7b1                	j	7f30 <_printf_i+0x140>
    7fe6:	419c                	lw	a5,0(a1)
    7fe8:	0207e793          	ori	a5,a5,32
    7fec:	c19c                	sw	a5,0(a1)
    7fee:	07800793          	li	a5,120
    7ff2:	04f402a3          	sb	a5,69(s0)
    7ff6:	00006697          	auipc	a3,0x6
    7ffa:	c6268693          	addi	a3,a3,-926 # dc58 <__clz_tab+0x130>
    7ffe:	bf75                	j	7fba <_printf_i+0x1ca>
    8000:	0405f813          	andi	a6,a1,64
    8004:	c308                	sw	a0,0(a4)
    8006:	fc0803e3          	beqz	a6,7fcc <_printf_i+0x1dc>
    800a:	07c2                	slli	a5,a5,0x10
    800c:	83c1                	srli	a5,a5,0x10
    800e:	bf7d                	j	7fcc <_printf_i+0x1dc>
    8010:	00006697          	auipc	a3,0x6
    8014:	c3468693          	addi	a3,a3,-972 # dc44 <__clz_tab+0x11c>
    8018:	4721                	li	a4,8
    801a:	bf19                	j	7f30 <_printf_i+0x140>
    801c:	87ae                	mv	a5,a1
    801e:	b735                	j	7f4a <_printf_i+0x15a>
    8020:	4194                	lw	a3,0(a1)
    8022:	431c                	lw	a5,0(a4)
    8024:	49cc                	lw	a1,20(a1)
    8026:	0806f813          	andi	a6,a3,128
    802a:	00478513          	addi	a0,a5,4
    802e:	00080663          	beqz	a6,803a <_printf_i+0x24a>
    8032:	c308                	sw	a0,0(a4)
    8034:	439c                	lw	a5,0(a5)
    8036:	c38c                	sw	a1,0(a5)
    8038:	a039                	j	8046 <_printf_i+0x256>
    803a:	c308                	sw	a0,0(a4)
    803c:	0406f693          	andi	a3,a3,64
    8040:	439c                	lw	a5,0(a5)
    8042:	daf5                	beqz	a3,8036 <_printf_i+0x246>
    8044:	a38e                	sh	a1,0(a5)
    8046:	00042823          	sw	zero,16(s0)
    804a:	8ab2                	mv	s5,a2
    804c:	bf25                	j	7f84 <_printf_i+0x194>
    804e:	4814                	lw	a3,16(s0)
    8050:	8656                	mv	a2,s5
    8052:	85ca                	mv	a1,s2
    8054:	8526                	mv	a0,s1
    8056:	9982                	jalr	s3
    8058:	f54500e3          	beq	a0,s4,7f98 <_printf_i+0x1a8>
    805c:	401c                	lw	a5,0(s0)
    805e:	8b89                	andi	a5,a5,2
    8060:	e78d                	bnez	a5,808a <_printf_i+0x29a>
    8062:	47b2                	lw	a5,12(sp)
    8064:	4448                	lw	a0,12(s0)
    8066:	f2f55ae3          	bge	a0,a5,7f9a <_printf_i+0x1aa>
    806a:	853e                	mv	a0,a5
    806c:	b73d                	j	7f9a <_printf_i+0x1aa>
    806e:	4685                	li	a3,1
    8070:	8656                	mv	a2,s5
    8072:	85ca                	mv	a1,s2
    8074:	8526                	mv	a0,s1
    8076:	9982                	jalr	s3
    8078:	f36500e3          	beq	a0,s6,7f98 <_printf_i+0x1a8>
    807c:	0a05                	addi	s4,s4,1
    807e:	445c                	lw	a5,12(s0)
    8080:	4732                	lw	a4,12(sp)
    8082:	8f99                	sub	a5,a5,a4
    8084:	fefa45e3          	blt	s4,a5,806e <_printf_i+0x27e>
    8088:	bfe9                	j	8062 <_printf_i+0x272>
    808a:	4a01                	li	s4,0
    808c:	01940a93          	addi	s5,s0,25
    8090:	5b7d                	li	s6,-1
    8092:	b7f5                	j	807e <_printf_i+0x28e>

00008094 <_scanf_float>:
    8094:	459c                	lw	a5,8(a1)
    8096:	711d                	addi	sp,sp,-96
    8098:	cca2                	sw	s0,88(sp)
    809a:	c6ce                	sw	s3,76(sp)
    809c:	c0da                	sw	s6,64(sp)
    809e:	da66                	sw	s9,52(sp)
    80a0:	ce86                	sw	ra,92(sp)
    80a2:	8cb2                	mv	s9,a2
    80a4:	caa6                	sw	s1,84(sp)
    80a6:	c8ca                	sw	s2,80(sp)
    80a8:	c4d2                	sw	s4,72(sp)
    80aa:	c2d6                	sw	s5,68(sp)
    80ac:	de5e                	sw	s7,60(sp)
    80ae:	dc62                	sw	s8,56(sp)
    80b0:	d86a                	sw	s10,48(sp)
    80b2:	d66e                	sw	s11,44(sp)
    80b4:	fff78613          	addi	a2,a5,-1
    80b8:	15c00713          	li	a4,348
    80bc:	8b36                	mv	s6,a3
    80be:	89aa                	mv	s3,a0
    80c0:	842e                	mv	s0,a1
    80c2:	4681                	li	a3,0
    80c4:	00c77763          	bgeu	a4,a2,80d2 <_scanf_float+0x3e>
    80c8:	ea378693          	addi	a3,a5,-349
    80cc:	15d00793          	li	a5,349
    80d0:	c59c                	sw	a5,8(a1)
    80d2:	401c                	lw	a5,0(s0)
    80d4:	01c40a93          	addi	s5,s0,28
    80d8:	84d6                	mv	s1,s5
    80da:	7807e793          	ori	a5,a5,1920
    80de:	c01c                	sw	a5,0(s0)
    80e0:	4901                	li	s2,0
    80e2:	4d81                	li	s11,0
    80e4:	4c01                	li	s8,0
    80e6:	4a01                	li	s4,0
    80e8:	4d01                	li	s10,0
    80ea:	4b81                	li	s7,0
    80ec:	04900613          	li	a2,73
    80f0:	70000813          	li	a6,1792
    80f4:	4885                	li	a7,1
    80f6:	40000e93          	li	t4,1024
    80fa:	4309                	li	t1,2
    80fc:	06500e13          	li	t3,101
    8100:	4f1d                	li	t5,7
    8102:	4418                	lw	a4,8(s0)
    8104:	cb15                	beqz	a4,8138 <_scanf_float+0xa4>
    8106:	000ca783          	lw	a5,0(s9)
    810a:	239c                	lbu	a5,0(a5)
    810c:	12c78b63          	beq	a5,a2,8242 <_scanf_float+0x1ae>
    8110:	0cf66863          	bltu	a2,a5,81e0 <_scanf_float+0x14c>
    8114:	03900593          	li	a1,57
    8118:	0af5e463          	bltu	a1,a5,81c0 <_scanf_float+0x12c>
    811c:	03100593          	li	a1,49
    8120:	14b7fb63          	bgeu	a5,a1,8276 <_scanf_float+0x1e2>
    8124:	02d00593          	li	a1,45
    8128:	16b78263          	beq	a5,a1,828c <_scanf_float+0x1f8>
    812c:	04f5e363          	bltu	a1,a5,8172 <_scanf_float+0xde>
    8130:	02b00713          	li	a4,43
    8134:	14e78c63          	beq	a5,a4,828c <_scanf_float+0x1f8>
    8138:	000d0663          	beqz	s10,8144 <_scanf_float+0xb0>
    813c:	401c                	lw	a5,0(s0)
    813e:	eff7f793          	andi	a5,a5,-257
    8142:	c01c                	sw	a5,0(s0)
    8144:	1dfd                	addi	s11,s11,-1
    8146:	4785                	li	a5,1
    8148:	21b7e963          	bltu	a5,s11,835a <_scanf_float+0x2c6>
    814c:	1e9aec63          	bltu	s5,s1,8344 <_scanf_float+0x2b0>
    8150:	4905                	li	s2,1
    8152:	40f6                	lw	ra,92(sp)
    8154:	4466                	lw	s0,88(sp)
    8156:	854a                	mv	a0,s2
    8158:	44d6                	lw	s1,84(sp)
    815a:	4946                	lw	s2,80(sp)
    815c:	49b6                	lw	s3,76(sp)
    815e:	4a26                	lw	s4,72(sp)
    8160:	4a96                	lw	s5,68(sp)
    8162:	4b06                	lw	s6,64(sp)
    8164:	5bf2                	lw	s7,60(sp)
    8166:	5c62                	lw	s8,56(sp)
    8168:	5cd2                	lw	s9,52(sp)
    816a:	5d42                	lw	s10,48(sp)
    816c:	5db2                	lw	s11,44(sp)
    816e:	6125                	addi	sp,sp,96
    8170:	8082                	ret
    8172:	02e00593          	li	a1,46
    8176:	14b78e63          	beq	a5,a1,82d2 <_scanf_float+0x23e>
    817a:	03000593          	li	a1,48
    817e:	fab79de3          	bne	a5,a1,8138 <_scanf_float+0xa4>
    8182:	400c                	lw	a1,0(s0)
    8184:	1005f513          	andi	a0,a1,256
    8188:	c57d                	beqz	a0,8276 <_scanf_float+0x1e2>
    818a:	f7f5f593          	andi	a1,a1,-129
    818e:	c00c                	sw	a1,0(s0)
    8190:	0d05                	addi	s10,s10,1
    8192:	c681                	beqz	a3,819a <_scanf_float+0x106>
    8194:	0705                	addi	a4,a4,1
    8196:	16fd                	addi	a3,a3,-1
    8198:	c418                	sw	a4,8(s0)
    819a:	441c                	lw	a5,8(s0)
    819c:	17fd                	addi	a5,a5,-1
    819e:	c41c                	sw	a5,8(s0)
    81a0:	481c                	lw	a5,16(s0)
    81a2:	0785                	addi	a5,a5,1
    81a4:	c81c                	sw	a5,16(s0)
    81a6:	004ca783          	lw	a5,4(s9)
    81aa:	17fd                	addi	a5,a5,-1
    81ac:	00fca223          	sw	a5,4(s9)
    81b0:	16f05563          	blez	a5,831a <_scanf_float+0x286>
    81b4:	000ca783          	lw	a5,0(s9)
    81b8:	0785                	addi	a5,a5,1
    81ba:	00fca023          	sw	a5,0(s9)
    81be:	b791                	j	8102 <_scanf_float+0x6e>
    81c0:	04500713          	li	a4,69
    81c4:	12e78163          	beq	a5,a4,82e6 <_scanf_float+0x252>
    81c8:	04600713          	li	a4,70
    81cc:	0ee78a63          	beq	a5,a4,82c0 <_scanf_float+0x22c>
    81d0:	04100713          	li	a4,65
    81d4:	f6e792e3          	bne	a5,a4,8138 <_scanf_float+0xa4>
    81d8:	f71d90e3          	bne	s11,a7,8138 <_scanf_float+0xa4>
    81dc:	4d89                	li	s11,2
    81de:	a065                	j	8286 <_scanf_float+0x1f2>
    81e0:	11c78363          	beq	a5,t3,82e6 <_scanf_float+0x252>
    81e4:	04fe6163          	bltu	t3,a5,8226 <_scanf_float+0x192>
    81e8:	05400713          	li	a4,84
    81ec:	0ce78e63          	beq	a5,a4,82c8 <_scanf_float+0x234>
    81f0:	02f76463          	bltu	a4,a5,8218 <_scanf_float+0x184>
    81f4:	04e00713          	li	a4,78
    81f8:	f4e790e3          	bne	a5,a4,8138 <_scanf_float+0xa4>
    81fc:	0a0d9063          	bnez	s11,829c <_scanf_float+0x208>
    8200:	0a0d1063          	bnez	s10,82a0 <_scanf_float+0x20c>
    8204:	4018                	lw	a4,0(s0)
    8206:	70077593          	andi	a1,a4,1792
    820a:	09059b63          	bne	a1,a6,82a0 <_scanf_float+0x20c>
    820e:	87f77713          	andi	a4,a4,-1921
    8212:	c018                	sw	a4,0(s0)
    8214:	4d85                	li	s11,1
    8216:	a885                	j	8286 <_scanf_float+0x1f2>
    8218:	05900713          	li	a4,89
    821c:	04e78963          	beq	a5,a4,826e <_scanf_float+0x1da>
    8220:	06100713          	li	a4,97
    8224:	bf45                	j	81d4 <_scanf_float+0x140>
    8226:	06e00713          	li	a4,110
    822a:	fce789e3          	beq	a5,a4,81fc <_scanf_float+0x168>
    822e:	02f76863          	bltu	a4,a5,825e <_scanf_float+0x1ca>
    8232:	06600713          	li	a4,102
    8236:	08e78563          	beq	a5,a4,82c0 <_scanf_float+0x22c>
    823a:	06900713          	li	a4,105
    823e:	eee79de3          	bne	a5,a4,8138 <_scanf_float+0xa4>
    8242:	06091863          	bnez	s2,82b2 <_scanf_float+0x21e>
    8246:	ee0d1be3          	bnez	s10,813c <_scanf_float+0xa8>
    824a:	4018                	lw	a4,0(s0)
    824c:	70077593          	andi	a1,a4,1792
    8250:	ef059ae3          	bne	a1,a6,8144 <_scanf_float+0xb0>
    8254:	87f77713          	andi	a4,a4,-1921
    8258:	c018                	sw	a4,0(s0)
    825a:	4905                	li	s2,1
    825c:	a02d                	j	8286 <_scanf_float+0x1f2>
    825e:	07400713          	li	a4,116
    8262:	06e78363          	beq	a5,a4,82c8 <_scanf_float+0x234>
    8266:	07900713          	li	a4,121
    826a:	ece797e3          	bne	a5,a4,8138 <_scanf_float+0xa4>
    826e:	ede915e3          	bne	s2,t5,8138 <_scanf_float+0xa4>
    8272:	4921                	li	s2,8
    8274:	a809                	j	8286 <_scanf_float+0x1f2>
    8276:	012d8733          	add	a4,s11,s2
    827a:	ea071fe3          	bnez	a4,8138 <_scanf_float+0xa4>
    827e:	4018                	lw	a4,0(s0)
    8280:	e7f77713          	andi	a4,a4,-385
    8284:	c018                	sw	a4,0(s0)
    8286:	a09c                	sb	a5,0(s1)
    8288:	0485                	addi	s1,s1,1
    828a:	bf01                	j	819a <_scanf_float+0x106>
    828c:	4018                	lw	a4,0(s0)
    828e:	08077593          	andi	a1,a4,128
    8292:	ea0583e3          	beqz	a1,8138 <_scanf_float+0xa4>
    8296:	f7f77713          	andi	a4,a4,-129
    829a:	b7ed                	j	8284 <_scanf_float+0x1f0>
    829c:	066d8d63          	beq	s11,t1,8316 <_scanf_float+0x282>
    82a0:	01190563          	beq	s2,a7,82aa <_scanf_float+0x216>
    82a4:	4711                	li	a4,4
    82a6:	e8e919e3          	bne	s2,a4,8138 <_scanf_float+0xa4>
    82aa:	0905                	addi	s2,s2,1
    82ac:	0ff97913          	andi	s2,s2,255
    82b0:	bfd9                	j	8286 <_scanf_float+0x1f2>
    82b2:	ffd90713          	addi	a4,s2,-3
    82b6:	0fd77713          	andi	a4,a4,253
    82ba:	e6071fe3          	bnez	a4,8138 <_scanf_float+0xa4>
    82be:	b7f5                	j	82aa <_scanf_float+0x216>
    82c0:	e6691ce3          	bne	s2,t1,8138 <_scanf_float+0xa4>
    82c4:	490d                	li	s2,3
    82c6:	b7c1                	j	8286 <_scanf_float+0x1f2>
    82c8:	4719                	li	a4,6
    82ca:	e6e917e3          	bne	s2,a4,8138 <_scanf_float+0xa4>
    82ce:	491d                	li	s2,7
    82d0:	bf5d                	j	8286 <_scanf_float+0x1f2>
    82d2:	4018                	lw	a4,0(s0)
    82d4:	20077593          	andi	a1,a4,512
    82d8:	e60580e3          	beqz	a1,8138 <_scanf_float+0xa4>
    82dc:	d7f77713          	andi	a4,a4,-641
    82e0:	c018                	sw	a4,0(s0)
    82e2:	8bea                	mv	s7,s10
    82e4:	b74d                	j	8286 <_scanf_float+0x1f2>
    82e6:	4018                	lw	a4,0(s0)
    82e8:	50077593          	andi	a1,a4,1280
    82ec:	01d58863          	beq	a1,t4,82fc <_scanf_float+0x268>
    82f0:	40077593          	andi	a1,a4,1024
    82f4:	e40582e3          	beqz	a1,8138 <_scanf_float+0xa4>
    82f8:	e40d06e3          	beqz	s10,8144 <_scanf_float+0xb0>
    82fc:	20077593          	andi	a1,a4,512
    8300:	e581                	bnez	a1,8308 <_scanf_float+0x274>
    8302:	417d0a33          	sub	s4,s10,s7
    8306:	8c26                	mv	s8,s1
    8308:	87f77713          	andi	a4,a4,-1921
    830c:	18076713          	ori	a4,a4,384
    8310:	c018                	sw	a4,0(s0)
    8312:	4d01                	li	s10,0
    8314:	bf8d                	j	8286 <_scanf_float+0x1f2>
    8316:	4d8d                	li	s11,3
    8318:	b7bd                	j	8286 <_scanf_float+0x1f2>
    831a:	18042783          	lw	a5,384(s0)
    831e:	85e6                	mv	a1,s9
    8320:	854e                	mv	a0,s3
    8322:	c636                	sw	a3,12(sp)
    8324:	9782                	jalr	a5
    8326:	46b2                	lw	a3,12(sp)
    8328:	04900613          	li	a2,73
    832c:	70000813          	li	a6,1792
    8330:	4885                	li	a7,1
    8332:	40000e93          	li	t4,1024
    8336:	4309                	li	t1,2
    8338:	06500e13          	li	t3,101
    833c:	4f1d                	li	t5,7
    833e:	dc0502e3          	beqz	a0,8102 <_scanf_float+0x6e>
    8342:	bbdd                	j	8138 <_scanf_float+0xa4>
    8344:	14fd                	addi	s1,s1,-1
    8346:	17c42783          	lw	a5,380(s0)
    834a:	208c                	lbu	a1,0(s1)
    834c:	8666                	mv	a2,s9
    834e:	854e                	mv	a0,s3
    8350:	9782                	jalr	a5
    8352:	481c                	lw	a5,16(s0)
    8354:	17fd                	addi	a5,a5,-1
    8356:	c81c                	sw	a5,16(s0)
    8358:	bbd5                	j	814c <_scanf_float+0xb8>
    835a:	fff90793          	addi	a5,s2,-1
    835e:	4719                	li	a4,6
    8360:	02f76663          	bltu	a4,a5,838c <_scanf_float+0x2f8>
    8364:	4789                	li	a5,2
    8366:	8da6                	mv	s11,s1
    8368:	0727ff63          	bgeu	a5,s2,83e6 <_scanf_float+0x352>
    836c:	40990733          	sub	a4,s2,s1
    8370:	0ff77713          	andi	a4,a4,255
    8374:	468d                	li	a3,3
    8376:	00ed87b3          	add	a5,s11,a4
    837a:	0ff7f793          	andi	a5,a5,255
    837e:	02f6eb63          	bltu	a3,a5,83b4 <_scanf_float+0x320>
    8382:	1975                	addi	s2,s2,-3
    8384:	0ff97913          	andi	s2,s2,255
    8388:	412484b3          	sub	s1,s1,s2
    838c:	401c                	lw	a5,0(s0)
    838e:	1007f713          	andi	a4,a5,256
    8392:	cf51                	beqz	a4,842e <_scanf_float+0x39a>
    8394:	4007f793          	andi	a5,a5,1024
    8398:	cbb1                	beqz	a5,83ec <_scanf_float+0x358>
    839a:	da9afbe3          	bgeu	s5,s1,8150 <_scanf_float+0xbc>
    839e:	14fd                	addi	s1,s1,-1
    83a0:	17c42783          	lw	a5,380(s0)
    83a4:	208c                	lbu	a1,0(s1)
    83a6:	8666                	mv	a2,s9
    83a8:	854e                	mv	a0,s3
    83aa:	9782                	jalr	a5
    83ac:	481c                	lw	a5,16(s0)
    83ae:	17fd                	addi	a5,a5,-1
    83b0:	c81c                	sw	a5,16(s0)
    83b2:	b7e5                	j	839a <_scanf_float+0x306>
    83b4:	1dfd                	addi	s11,s11,-1
    83b6:	17c42783          	lw	a5,380(s0)
    83ba:	000dc583          	lbu	a1,0(s11)
    83be:	8666                	mv	a2,s9
    83c0:	854e                	mv	a0,s3
    83c2:	c63a                	sw	a4,12(sp)
    83c4:	9782                	jalr	a5
    83c6:	481c                	lw	a5,16(s0)
    83c8:	468d                	li	a3,3
    83ca:	4732                	lw	a4,12(sp)
    83cc:	17fd                	addi	a5,a5,-1
    83ce:	c81c                	sw	a5,16(s0)
    83d0:	b75d                	j	8376 <_scanf_float+0x2e2>
    83d2:	14fd                	addi	s1,s1,-1
    83d4:	17c42783          	lw	a5,380(s0)
    83d8:	208c                	lbu	a1,0(s1)
    83da:	8666                	mv	a2,s9
    83dc:	854e                	mv	a0,s3
    83de:	9782                	jalr	a5
    83e0:	481c                	lw	a5,16(s0)
    83e2:	17fd                	addi	a5,a5,-1
    83e4:	c81c                	sw	a5,16(s0)
    83e6:	fe9ae6e3          	bltu	s5,s1,83d2 <_scanf_float+0x33e>
    83ea:	b39d                	j	8150 <_scanf_float+0xbc>
    83ec:	481c                	lw	a5,16(s0)
    83ee:	fff4c583          	lbu	a1,-1(s1)
    83f2:	fff48913          	addi	s2,s1,-1
    83f6:	17fd                	addi	a5,a5,-1
    83f8:	c81c                	sw	a5,16(s0)
    83fa:	06500793          	li	a5,101
    83fe:	02f58263          	beq	a1,a5,8422 <_scanf_float+0x38e>
    8402:	04500793          	li	a5,69
    8406:	00f58e63          	beq	a1,a5,8422 <_scanf_float+0x38e>
    840a:	17c42783          	lw	a5,380(s0)
    840e:	8666                	mv	a2,s9
    8410:	854e                	mv	a0,s3
    8412:	9782                	jalr	a5
    8414:	481c                	lw	a5,16(s0)
    8416:	ffe4c583          	lbu	a1,-2(s1)
    841a:	ffe48913          	addi	s2,s1,-2
    841e:	17fd                	addi	a5,a5,-1
    8420:	c81c                	sw	a5,16(s0)
    8422:	17c42783          	lw	a5,380(s0)
    8426:	8666                	mv	a2,s9
    8428:	854e                	mv	a0,s3
    842a:	9782                	jalr	a5
    842c:	84ca                	mv	s1,s2
    842e:	00042903          	lw	s2,0(s0)
    8432:	01097913          	andi	s2,s2,16
    8436:	0c091363          	bnez	s2,84fc <_scanf_float+0x468>
    843a:	00048023          	sb	zero,0(s1)
    843e:	401c                	lw	a5,0(s0)
    8440:	40000713          	li	a4,1024
    8444:	6007f793          	andi	a5,a5,1536
    8448:	02e79e63          	bne	a5,a4,8484 <_scanf_float+0x3f0>
    844c:	41ab8633          	sub	a2,s7,s10
    8450:	05ab9663          	bne	s7,s10,849c <_scanf_float+0x408>
    8454:	85d6                	mv	a1,s5
    8456:	4601                	li	a2,0
    8458:	854e                	mv	a0,s3
    845a:	6f1000ef          	jal	ra,934a <_strtod_r>
    845e:	4018                	lw	a4,0(s0)
    8460:	8a2a                	mv	s4,a0
    8462:	8aae                	mv	s5,a1
    8464:	00277693          	andi	a3,a4,2
    8468:	000b2783          	lw	a5,0(s6)
    846c:	c6a9                	beqz	a3,84b6 <_scanf_float+0x422>
    846e:	00478713          	addi	a4,a5,4
    8472:	00eb2023          	sw	a4,0(s6)
    8476:	439c                	lw	a5,0(a5)
    8478:	c388                	sw	a0,0(a5)
    847a:	c3cc                	sw	a1,4(a5)
    847c:	445c                	lw	a5,12(s0)
    847e:	0785                	addi	a5,a5,1
    8480:	c45c                	sw	a5,12(s0)
    8482:	b9c1                	j	8152 <_scanf_float+0xbe>
    8484:	fc0a08e3          	beqz	s4,8454 <_scanf_float+0x3c0>
    8488:	4601                	li	a2,0
    848a:	46a9                	li	a3,10
    848c:	001c0593          	addi	a1,s8,1
    8490:	854e                	mv	a0,s3
    8492:	008010ef          	jal	ra,949a <_strtol_r>
    8496:	41450633          	sub	a2,a0,s4
    849a:	84e2                	mv	s1,s8
    849c:	16f40793          	addi	a5,s0,367
    84a0:	00f4e463          	bltu	s1,a5,84a8 <_scanf_float+0x414>
    84a4:	16e40493          	addi	s1,s0,366
    84a8:	00005597          	auipc	a1,0x5
    84ac:	7c458593          	addi	a1,a1,1988 # dc6c <__clz_tab+0x144>
    84b0:	8526                	mv	a0,s1
    84b2:	2259                	jal	8638 <siprintf>
    84b4:	b745                	j	8454 <_scanf_float+0x3c0>
    84b6:	00478693          	addi	a3,a5,4
    84ba:	00db2023          	sw	a3,0(s6)
    84be:	8b11                	andi	a4,a4,4
    84c0:	4384                	lw	s1,0(a5)
    84c2:	cf19                	beqz	a4,84e0 <_scanf_float+0x44c>
    84c4:	85aa                	mv	a1,a0
    84c6:	8656                	mv	a2,s5
    84c8:	0808                	addi	a0,sp,16
    84ca:	1ea040ef          	jal	ra,c6b4 <__extenddftf2>
    84ce:	46d2                	lw	a3,20(sp)
    84d0:	4762                	lw	a4,24(sp)
    84d2:	47f2                	lw	a5,28(sp)
    84d4:	4642                	lw	a2,16(sp)
    84d6:	c0d4                	sw	a3,4(s1)
    84d8:	c498                	sw	a4,8(s1)
    84da:	c090                	sw	a2,0(s1)
    84dc:	c4dc                	sw	a5,12(s1)
    84de:	bf79                	j	847c <_scanf_float+0x3e8>
    84e0:	862a                	mv	a2,a0
    84e2:	86ae                	mv	a3,a1
    84e4:	dcdfd0ef          	jal	ra,62b0 <__unorddf2>
    84e8:	c509                	beqz	a0,84f2 <_scanf_float+0x45e>
    84ea:	4501                	li	a0,0
    84ec:	2281                	jal	862c <nanf>
    84ee:	c088                	sw	a0,0(s1)
    84f0:	b771                	j	847c <_scanf_float+0x3e8>
    84f2:	8552                	mv	a0,s4
    84f4:	85d6                	mv	a1,s5
    84f6:	f07fe0ef          	jal	ra,73fc <__truncdfsf2>
    84fa:	bfd5                	j	84ee <_scanf_float+0x45a>
    84fc:	4901                	li	s2,0
    84fe:	b991                	j	8152 <_scanf_float+0xbe>

00008500 <iprintf>:
    8500:	7139                	addi	sp,sp,-64
    8502:	da3e                	sw	a5,52(sp)
    8504:	d22e                	sw	a1,36(sp)
    8506:	d432                	sw	a2,40(sp)
    8508:	d636                	sw	a3,44(sp)
    850a:	d83a                	sw	a4,48(sp)
    850c:	dc42                	sw	a6,56(sp)
    850e:	de46                	sw	a7,60(sp)
    8510:	81018793          	addi	a5,gp,-2032 # 20000238 <_impure_ptr>
    8514:	cc22                	sw	s0,24(sp)
    8516:	4380                	lw	s0,0(a5)
    8518:	ca26                	sw	s1,20(sp)
    851a:	ce06                	sw	ra,28(sp)
    851c:	84aa                	mv	s1,a0
    851e:	c411                	beqz	s0,852a <iprintf+0x2a>
    8520:	4c1c                	lw	a5,24(s0)
    8522:	e781                	bnez	a5,852a <iprintf+0x2a>
    8524:	8522                	mv	a0,s0
    8526:	0ee020ef          	jal	ra,a614 <__sinit>
    852a:	440c                	lw	a1,8(s0)
    852c:	1054                	addi	a3,sp,36
    852e:	8626                	mv	a2,s1
    8530:	8522                	mv	a0,s0
    8532:	c636                	sw	a3,12(sp)
    8534:	1d9030ef          	jal	ra,bf0c <_vfiprintf_r>
    8538:	40f2                	lw	ra,28(sp)
    853a:	4462                	lw	s0,24(sp)
    853c:	44d2                	lw	s1,20(sp)
    853e:	6121                	addi	sp,sp,64
    8540:	8082                	ret

00008542 <_puts_r>:
    8542:	1101                	addi	sp,sp,-32
    8544:	ca26                	sw	s1,20(sp)
    8546:	c84a                	sw	s2,16(sp)
    8548:	ce06                	sw	ra,28(sp)
    854a:	cc22                	sw	s0,24(sp)
    854c:	c64e                	sw	s3,12(sp)
    854e:	c452                	sw	s4,8(sp)
    8550:	84aa                	mv	s1,a0
    8552:	892e                	mv	s2,a1
    8554:	c509                	beqz	a0,855e <_puts_r+0x1c>
    8556:	4d1c                	lw	a5,24(a0)
    8558:	e399                	bnez	a5,855e <_puts_r+0x1c>
    855a:	0ba020ef          	jal	ra,a614 <__sinit>
    855e:	4c9c                	lw	a5,24(s1)
    8560:	4480                	lw	s0,8(s1)
    8562:	e781                	bnez	a5,856a <_puts_r+0x28>
    8564:	8526                	mv	a0,s1
    8566:	0ae020ef          	jal	ra,a614 <__sinit>
    856a:	00006797          	auipc	a5,0x6
    856e:	80678793          	addi	a5,a5,-2042 # dd70 <__sf_fake_stdin>
    8572:	02f41c63          	bne	s0,a5,85aa <_puts_r+0x68>
    8576:	40c0                	lw	s0,4(s1)
    8578:	245e                	lhu	a5,12(s0)
    857a:	8ba1                	andi	a5,a5,8
    857c:	c7b9                	beqz	a5,85ca <_puts_r+0x88>
    857e:	481c                	lw	a5,16(s0)
    8580:	c7a9                	beqz	a5,85ca <_puts_r+0x88>
    8582:	59fd                	li	s3,-1
    8584:	4a29                	li	s4,10
    8586:	441c                	lw	a5,8(s0)
    8588:	00094583          	lbu	a1,0(s2)
    858c:	17fd                	addi	a5,a5,-1
    858e:	eda1                	bnez	a1,85e6 <_puts_r+0xa4>
    8590:	c41c                	sw	a5,8(s0)
    8592:	0807d063          	bgez	a5,8612 <_puts_r+0xd0>
    8596:	8622                	mv	a2,s0
    8598:	45a9                	li	a1,10
    859a:	8526                	mv	a0,s1
    859c:	715000ef          	jal	ra,94b0 <__swbuf_r>
    85a0:	57fd                	li	a5,-1
    85a2:	02f50963          	beq	a0,a5,85d4 <_puts_r+0x92>
    85a6:	4529                	li	a0,10
    85a8:	a03d                	j	85d6 <_puts_r+0x94>
    85aa:	00005797          	auipc	a5,0x5
    85ae:	7e678793          	addi	a5,a5,2022 # dd90 <__sf_fake_stdout>
    85b2:	00f41463          	bne	s0,a5,85ba <_puts_r+0x78>
    85b6:	4480                	lw	s0,8(s1)
    85b8:	b7c1                	j	8578 <_puts_r+0x36>
    85ba:	00005797          	auipc	a5,0x5
    85be:	79678793          	addi	a5,a5,1942 # dd50 <__sf_fake_stderr>
    85c2:	faf41be3          	bne	s0,a5,8578 <_puts_r+0x36>
    85c6:	44c0                	lw	s0,12(s1)
    85c8:	bf45                	j	8578 <_puts_r+0x36>
    85ca:	85a2                	mv	a1,s0
    85cc:	8526                	mv	a0,s1
    85ce:	7a5000ef          	jal	ra,9572 <__swsetup_r>
    85d2:	d945                	beqz	a0,8582 <_puts_r+0x40>
    85d4:	557d                	li	a0,-1
    85d6:	40f2                	lw	ra,28(sp)
    85d8:	4462                	lw	s0,24(sp)
    85da:	44d2                	lw	s1,20(sp)
    85dc:	4942                	lw	s2,16(sp)
    85de:	49b2                	lw	s3,12(sp)
    85e0:	4a22                	lw	s4,8(sp)
    85e2:	6105                	addi	sp,sp,32
    85e4:	8082                	ret
    85e6:	c41c                	sw	a5,8(s0)
    85e8:	0905                	addi	s2,s2,1
    85ea:	0007d763          	bgez	a5,85f8 <_puts_r+0xb6>
    85ee:	4c18                	lw	a4,24(s0)
    85f0:	00e7ca63          	blt	a5,a4,8604 <_puts_r+0xc2>
    85f4:	01458863          	beq	a1,s4,8604 <_puts_r+0xc2>
    85f8:	401c                	lw	a5,0(s0)
    85fa:	00178713          	addi	a4,a5,1
    85fe:	c018                	sw	a4,0(s0)
    8600:	a38c                	sb	a1,0(a5)
    8602:	b751                	j	8586 <_puts_r+0x44>
    8604:	8622                	mv	a2,s0
    8606:	8526                	mv	a0,s1
    8608:	6a9000ef          	jal	ra,94b0 <__swbuf_r>
    860c:	f7351de3          	bne	a0,s3,8586 <_puts_r+0x44>
    8610:	b7d1                	j	85d4 <_puts_r+0x92>
    8612:	401c                	lw	a5,0(s0)
    8614:	00178713          	addi	a4,a5,1
    8618:	c018                	sw	a4,0(s0)
    861a:	4729                	li	a4,10
    861c:	a398                	sb	a4,0(a5)
    861e:	b761                	j	85a6 <_puts_r+0x64>

00008620 <puts>:
    8620:	81018793          	addi	a5,gp,-2032 # 20000238 <_impure_ptr>
    8624:	85aa                	mv	a1,a0
    8626:	4388                	lw	a0,0(a5)
    8628:	f1bff06f          	j	8542 <_puts_r>

0000862c <nanf>:
    862c:	00005797          	auipc	a5,0x5
    8630:	64878793          	addi	a5,a5,1608 # dc74 <__clz_tab+0x14c>
    8634:	4388                	lw	a0,0(a5)
    8636:	8082                	ret

00008638 <siprintf>:
    8638:	7135                	addi	sp,sp,-160
    863a:	cb3e                	sw	a5,148(sp)
    863c:	800007b7          	lui	a5,0x80000
    8640:	fff7c793          	not	a5,a5
    8644:	ce3e                	sw	a5,28(sp)
    8646:	c83e                	sw	a5,16(sp)
    8648:	77c1                	lui	a5,0xffff0
    864a:	20878793          	addi	a5,a5,520 # ffff0208 <_eusrstack+0xdffe8208>
    864e:	c532                	sw	a2,136(sp)
    8650:	c736                	sw	a3,140(sp)
    8652:	c93a                	sw	a4,144(sp)
    8654:	cd42                	sw	a6,152(sp)
    8656:	cf46                	sw	a7,156(sp)
    8658:	ca3e                	sw	a5,20(sp)
    865a:	81018793          	addi	a5,gp,-2032 # 20000238 <_impure_ptr>
    865e:	c42a                	sw	a0,8(sp)
    8660:	cc2a                	sw	a0,24(sp)
    8662:	4388                	lw	a0,0(a5)
    8664:	0134                	addi	a3,sp,136
    8666:	862e                	mv	a2,a1
    8668:	002c                	addi	a1,sp,8
    866a:	de86                	sw	ra,124(sp)
    866c:	c236                	sw	a3,4(sp)
    866e:	5cc030ef          	jal	ra,bc3a <_svfiprintf_r>
    8672:	47a2                	lw	a5,8(sp)
    8674:	00078023          	sb	zero,0(a5)
    8678:	50f6                	lw	ra,124(sp)
    867a:	610d                	addi	sp,sp,160
    867c:	8082                	ret

0000867e <strlen>:
    867e:	87aa                	mv	a5,a0
    8680:	0785                	addi	a5,a5,1
    8682:	fff7c703          	lbu	a4,-1(a5)
    8686:	ff6d                	bnez	a4,8680 <strlen+0x2>
    8688:	40a78533          	sub	a0,a5,a0
    868c:	157d                	addi	a0,a0,-1
    868e:	8082                	ret

00008690 <sulp>:
    8690:	1101                	addi	sp,sp,-32
    8692:	cc22                	sw	s0,24(sp)
    8694:	872a                	mv	a4,a0
    8696:	842e                	mv	s0,a1
    8698:	853a                	mv	a0,a4
    869a:	85a2                	mv	a1,s0
    869c:	c632                	sw	a2,12(sp)
    869e:	ce06                	sw	ra,28(sp)
    86a0:	056030ef          	jal	ra,b6f6 <__ulp>
    86a4:	4632                	lw	a2,12(sp)
    86a6:	882a                	mv	a6,a0
    86a8:	88ae                	mv	a7,a1
    86aa:	c605                	beqz	a2,86d2 <sulp+0x42>
    86ac:	8051                	srli	s0,s0,0x14
    86ae:	7ff47413          	andi	s0,s0,2047
    86b2:	06b00793          	li	a5,107
    86b6:	8f81                	sub	a5,a5,s0
    86b8:	00f05d63          	blez	a5,86d2 <sulp+0x42>
    86bc:	07d2                	slli	a5,a5,0x14
    86be:	3ff00737          	lui	a4,0x3ff00
    86c2:	4801                	li	a6,0
    86c4:	973e                	add	a4,a4,a5
    86c6:	8642                	mv	a2,a6
    86c8:	86ba                	mv	a3,a4
    86ca:	ff1fc0ef          	jal	ra,56ba <__muldf3>
    86ce:	882a                	mv	a6,a0
    86d0:	88ae                	mv	a7,a1
    86d2:	40f2                	lw	ra,28(sp)
    86d4:	4462                	lw	s0,24(sp)
    86d6:	8542                	mv	a0,a6
    86d8:	85c6                	mv	a1,a7
    86da:	6105                	addi	sp,sp,32
    86dc:	8082                	ret

000086de <_strtod_l>:
    86de:	7135                	addi	sp,sp,-160
    86e0:	c94a                	sw	s2,144(sp)
    86e2:	892a                	mv	s2,a0
    86e4:	8536                	mv	a0,a3
    86e6:	d432                	sw	a2,40(sp)
    86e8:	c636                	sw	a3,12(sp)
    86ea:	cf06                	sw	ra,156(sp)
    86ec:	cd22                	sw	s0,152(sp)
    86ee:	cb26                	sw	s1,148(sp)
    86f0:	c74e                	sw	s3,140(sp)
    86f2:	d8ea                	sw	s10,112(sp)
    86f4:	d6ee                	sw	s11,108(sp)
    86f6:	8d2e                	mv	s10,a1
    86f8:	c552                	sw	s4,136(sp)
    86fa:	c356                	sw	s5,132(sp)
    86fc:	c15a                	sw	s6,128(sp)
    86fe:	dede                	sw	s7,124(sp)
    8700:	dce2                	sw	s8,120(sp)
    8702:	dae6                	sw	s9,116(sp)
    8704:	c882                	sw	zero,80(sp)
    8706:	7c4020ef          	jal	ra,aeca <__localeconv_l>
    870a:	8daa                	mv	s11,a0
    870c:	4108                	lw	a0,0(a0)
    870e:	4481                	li	s1,0
    8710:	4401                	li	s0,0
    8712:	f6dff0ef          	jal	ra,867e <strlen>
    8716:	46b2                	lw	a3,12(sp)
    8718:	89aa                	mv	s3,a0
    871a:	c6ea                	sw	s10,76(sp)
    871c:	4635                	li	a2,13
    871e:	02b00593          	li	a1,43
    8722:	02d00513          	li	a0,45
    8726:	02000813          	li	a6,32
    872a:	48a5                	li	a7,9
    872c:	47b6                	lw	a5,76(sp)
    872e:	2398                	lbu	a4,0(a5)
    8730:	08e66b63          	bltu	a2,a4,87c6 <_strtod_l+0xe8>
    8734:	09177f63          	bgeu	a4,a7,87d2 <_strtod_l+0xf4>
    8738:	c755                	beqz	a4,87e4 <_strtod_l+0x106>
    873a:	c802                	sw	zero,16(sp)
    873c:	4a36                	lw	s4,76(sp)
    873e:	03000793          	li	a5,48
    8742:	4a81                	li	s5,0
    8744:	000a4703          	lbu	a4,0(s4)
    8748:	12f71b63          	bne	a4,a5,887e <_strtod_l+0x1a0>
    874c:	001a4783          	lbu	a5,1(s4)
    8750:	05800713          	li	a4,88
    8754:	00e78863          	beq	a5,a4,8764 <_strtod_l+0x86>
    8758:	07800613          	li	a2,120
    875c:	03000713          	li	a4,48
    8760:	10c79663          	bne	a5,a2,886c <_strtod_l+0x18e>
    8764:	47c2                	lw	a5,16(sp)
    8766:	8836                	mv	a6,a3
    8768:	0898                	addi	a4,sp,80
    876a:	08d4                	addi	a3,sp,84
    876c:	00005617          	auipc	a2,0x5
    8770:	55460613          	addi	a2,a2,1364 # dcc0 <fpi.3395>
    8774:	00ec                	addi	a1,sp,76
    8776:	854a                	mv	a0,s2
    8778:	0c8020ef          	jal	ra,a840 <__gethex>
    877c:	00757993          	andi	s3,a0,7
    8780:	8aaa                	mv	s5,a0
    8782:	00098863          	beqz	s3,8792 <_strtod_l+0xb4>
    8786:	4799                	li	a5,6
    8788:	06f99763          	bne	s3,a5,87f6 <_strtod_l+0x118>
    878c:	0a05                	addi	s4,s4,1
    878e:	c6d2                	sw	s4,76(sp)
    8790:	c802                	sw	zero,16(sp)
    8792:	57a2                	lw	a5,40(sp)
    8794:	c781                	beqz	a5,879c <_strtod_l+0xbe>
    8796:	47b6                	lw	a5,76(sp)
    8798:	5722                	lw	a4,40(sp)
    879a:	c31c                	sw	a5,0(a4)
    879c:	47c2                	lw	a5,16(sp)
    879e:	c7b9                	beqz	a5,87ec <_strtod_l+0x10e>
    87a0:	800005b7          	lui	a1,0x80000
    87a4:	8da1                	xor	a1,a1,s0
    87a6:	40fa                	lw	ra,156(sp)
    87a8:	446a                	lw	s0,152(sp)
    87aa:	8526                	mv	a0,s1
    87ac:	494a                	lw	s2,144(sp)
    87ae:	44da                	lw	s1,148(sp)
    87b0:	49ba                	lw	s3,140(sp)
    87b2:	4a2a                	lw	s4,136(sp)
    87b4:	4a9a                	lw	s5,132(sp)
    87b6:	4b0a                	lw	s6,128(sp)
    87b8:	5bf6                	lw	s7,124(sp)
    87ba:	5c66                	lw	s8,120(sp)
    87bc:	5cd6                	lw	s9,116(sp)
    87be:	5d46                	lw	s10,112(sp)
    87c0:	5db6                	lw	s11,108(sp)
    87c2:	610d                	addi	sp,sp,160
    87c4:	8082                	ret
    87c6:	00b70963          	beq	a4,a1,87d8 <_strtod_l+0xfa>
    87ca:	02a70363          	beq	a4,a0,87f0 <_strtod_l+0x112>
    87ce:	f70716e3          	bne	a4,a6,873a <_strtod_l+0x5c>
    87d2:	0785                	addi	a5,a5,1
    87d4:	c6be                	sw	a5,76(sp)
    87d6:	bf99                	j	872c <_strtod_l+0x4e>
    87d8:	c802                	sw	zero,16(sp)
    87da:	00178713          	addi	a4,a5,1
    87de:	c6ba                	sw	a4,76(sp)
    87e0:	339c                	lbu	a5,1(a5)
    87e2:	ffa9                	bnez	a5,873c <_strtod_l+0x5e>
    87e4:	57a2                	lw	a5,40(sp)
    87e6:	c6ea                	sw	s10,76(sp)
    87e8:	c802                	sw	zero,16(sp)
    87ea:	f7d5                	bnez	a5,8796 <_strtod_l+0xb8>
    87ec:	85a2                	mv	a1,s0
    87ee:	bf65                	j	87a6 <_strtod_l+0xc8>
    87f0:	4705                	li	a4,1
    87f2:	c83a                	sw	a4,16(sp)
    87f4:	b7dd                	j	87da <_strtod_l+0xfc>
    87f6:	4646                	lw	a2,80(sp)
    87f8:	ca11                	beqz	a2,880c <_strtod_l+0x12e>
    87fa:	03500593          	li	a1,53
    87fe:	08a8                	addi	a0,sp,88
    8800:	138030ef          	jal	ra,b938 <__copybits>
    8804:	45c6                	lw	a1,80(sp)
    8806:	854a                	mv	a0,s2
    8808:	0af020ef          	jal	ra,b0b6 <_Bfree>
    880c:	19fd                	addi	s3,s3,-1
    880e:	4791                	li	a5,4
    8810:	0137ee63          	bltu	a5,s3,882c <_strtod_l+0x14e>
    8814:	00005717          	auipc	a4,0x5
    8818:	46470713          	addi	a4,a4,1124 # dc78 <__clz_tab+0x150>
    881c:	098a                	slli	s3,s3,0x2
    881e:	99ba                	add	s3,s3,a4
    8820:	0009a783          	lw	a5,0(s3)
    8824:	97ba                	add	a5,a5,a4
    8826:	8782                	jr	a5
    8828:	44e6                	lw	s1,88(sp)
    882a:	4476                	lw	s0,92(sp)
    882c:	008afa93          	andi	s5,s5,8
    8830:	f60a81e3          	beqz	s5,8792 <_strtod_l+0xb4>
    8834:	800007b7          	lui	a5,0x80000
    8838:	8c5d                	or	s0,s0,a5
    883a:	bfa1                	j	8792 <_strtod_l+0xb4>
    883c:	45f6                	lw	a1,92(sp)
    883e:	fff00437          	lui	s0,0xfff00
    8842:	147d                	addi	s0,s0,-1
    8844:	0085f7b3          	and	a5,a1,s0
    8848:	4456                	lw	s0,84(sp)
    884a:	44e6                	lw	s1,88(sp)
    884c:	43340413          	addi	s0,s0,1075 # fff00433 <_eusrstack+0xdfef8433>
    8850:	01441593          	slli	a1,s0,0x14
    8854:	00b7e433          	or	s0,a5,a1
    8858:	bfd1                	j	882c <_strtod_l+0x14e>
    885a:	7ff00437          	lui	s0,0x7ff00
    885e:	b7f9                	j	882c <_strtod_l+0x14e>
    8860:	800005b7          	lui	a1,0x80000
    8864:	fff5c413          	not	s0,a1
    8868:	54fd                	li	s1,-1
    886a:	b7c9                	j	882c <_strtod_l+0x14e>
    886c:	47b6                	lw	a5,76(sp)
    886e:	00178693          	addi	a3,a5,1 # 80000001 <_eusrstack+0x5fff8001>
    8872:	c6b6                	sw	a3,76(sp)
    8874:	339c                	lbu	a5,1(a5)
    8876:	fee78be3          	beq	a5,a4,886c <_strtod_l+0x18e>
    887a:	df81                	beqz	a5,8792 <_strtod_l+0xb4>
    887c:	4a85                	li	s5,1
    887e:	4cb6                	lw	s9,76(sp)
    8880:	4a01                	li	s4,0
    8882:	4b81                	li	s7,0
    8884:	4c01                	li	s8,0
    8886:	46a5                	li	a3,9
    8888:	45a1                	li	a1,8
    888a:	47a9                	li	a5,10
    888c:	4536                	lw	a0,76(sp)
    888e:	00054b03          	lbu	s6,0(a0)
    8892:	fd0b0713          	addi	a4,s6,-48
    8896:	0ff77613          	andi	a2,a4,255
    889a:	04c6fd63          	bgeu	a3,a2,88f4 <_strtod_l+0x216>
    889e:	000da583          	lw	a1,0(s11)
    88a2:	864e                	mv	a2,s3
    88a4:	1c9030ef          	jal	ra,c26c <strncmp>
    88a8:	c13d                	beqz	a0,890e <_strtod_l+0x230>
    88aa:	87da                	mv	a5,s6
    88ac:	8de2                	mv	s11,s8
    88ae:	4681                	li	a3,0
    88b0:	4b01                	li	s6,0
    88b2:	4501                	li	a0,0
    88b4:	06500713          	li	a4,101
    88b8:	00e78763          	beq	a5,a4,88c6 <_strtod_l+0x1e8>
    88bc:	04500713          	li	a4,69
    88c0:	4981                	li	s3,0
    88c2:	16e79563          	bne	a5,a4,8a2c <_strtod_l+0x34e>
    88c6:	000d9663          	bnez	s11,88d2 <_strtod_l+0x1f4>
    88ca:	0156e7b3          	or	a5,a3,s5
    88ce:	db99                	beqz	a5,87e4 <_strtod_l+0x106>
    88d0:	4d81                	li	s11,0
    88d2:	4d36                	lw	s10,76(sp)
    88d4:	02b00713          	li	a4,43
    88d8:	001d0793          	addi	a5,s10,1
    88dc:	c6be                	sw	a5,76(sp)
    88de:	001d4783          	lbu	a5,1(s10)
    88e2:	0ce78f63          	beq	a5,a4,89c0 <_strtod_l+0x2e2>
    88e6:	02d00713          	li	a4,45
    88ea:	4801                	li	a6,0
    88ec:	0ee79063          	bne	a5,a4,89cc <_strtod_l+0x2ee>
    88f0:	4805                	li	a6,1
    88f2:	a8c1                	j	89c2 <_strtod_l+0x2e4>
    88f4:	0185c963          	blt	a1,s8,8906 <_strtod_l+0x228>
    88f8:	02fb8bb3          	mul	s7,s7,a5
    88fc:	9bba                	add	s7,s7,a4
    88fe:	0505                	addi	a0,a0,1
    8900:	0c05                	addi	s8,s8,1
    8902:	c6aa                	sw	a0,76(sp)
    8904:	b761                	j	888c <_strtod_l+0x1ae>
    8906:	02fa0a33          	mul	s4,s4,a5
    890a:	9a3a                	add	s4,s4,a4
    890c:	bfcd                	j	88fe <_strtod_l+0x220>
    890e:	4536                	lw	a0,76(sp)
    8910:	4681                	li	a3,0
    8912:	954e                	add	a0,a0,s3
    8914:	c6aa                	sw	a0,76(sp)
    8916:	211c                	lbu	a5,0(a0)
    8918:	060c0b63          	beqz	s8,898e <_strtod_l+0x2b0>
    891c:	4b01                	li	s6,0
    891e:	8de2                	mv	s11,s8
    8920:	fd078713          	addi	a4,a5,-48
    8924:	4625                	li	a2,9
    8926:	02e67563          	bgeu	a2,a4,8950 <_strtod_l+0x272>
    892a:	4505                	li	a0,1
    892c:	b761                	j	88b4 <_strtod_l+0x1d6>
    892e:	47b6                	lw	a5,76(sp)
    8930:	0685                	addi	a3,a3,1
    8932:	00178613          	addi	a2,a5,1
    8936:	c6b2                	sw	a2,76(sp)
    8938:	339c                	lbu	a5,1(a5)
    893a:	fee78ae3          	beq	a5,a4,892e <_strtod_l+0x250>
    893e:	fcf78713          	addi	a4,a5,-49
    8942:	4621                	li	a2,8
    8944:	1ee666e3          	bltu	a2,a4,9330 <_strtod_l+0xc52>
    8948:	4cb6                	lw	s9,76(sp)
    894a:	8b36                	mv	s6,a3
    894c:	4d81                	li	s11,0
    894e:	4681                	li	a3,0
    8950:	fd078793          	addi	a5,a5,-48
    8954:	00168713          	addi	a4,a3,1
    8958:	c785                	beqz	a5,8980 <_strtod_l+0x2a2>
    895a:	9b3a                	add	s6,s6,a4
    895c:	01b68533          	add	a0,a3,s11
    8960:	876e                	mv	a4,s11
    8962:	4821                	li	a6,8
    8964:	48c1                	li	a7,16
    8966:	4629                	li	a2,10
    8968:	02a71663          	bne	a4,a0,8994 <_strtod_l+0x2b6>
    896c:	0d85                	addi	s11,s11,1
    896e:	9db6                	add	s11,s11,a3
    8970:	46a1                	li	a3,8
    8972:	02e6ce63          	blt	a3,a4,89ae <_strtod_l+0x2d0>
    8976:	4729                	li	a4,10
    8978:	02eb8bb3          	mul	s7,s7,a4
    897c:	4701                	li	a4,0
    897e:	9bbe                	add	s7,s7,a5
    8980:	47b6                	lw	a5,76(sp)
    8982:	00178693          	addi	a3,a5,1
    8986:	c6b6                	sw	a3,76(sp)
    8988:	339c                	lbu	a5,1(a5)
    898a:	86ba                	mv	a3,a4
    898c:	bf51                	j	8920 <_strtod_l+0x242>
    898e:	03000713          	li	a4,48
    8992:	b765                	j	893a <_strtod_l+0x25c>
    8994:	00170593          	addi	a1,a4,1
    8998:	00e84663          	blt	a6,a4,89a4 <_strtod_l+0x2c6>
    899c:	02cb8bb3          	mul	s7,s7,a2
    89a0:	872e                	mv	a4,a1
    89a2:	b7d9                	j	8968 <_strtod_l+0x28a>
    89a4:	feb8cee3          	blt	a7,a1,89a0 <_strtod_l+0x2c2>
    89a8:	02ca0a33          	mul	s4,s4,a2
    89ac:	bfd5                	j	89a0 <_strtod_l+0x2c2>
    89ae:	46c1                	li	a3,16
    89b0:	4701                	li	a4,0
    89b2:	fdb6c7e3          	blt	a3,s11,8980 <_strtod_l+0x2a2>
    89b6:	46a9                	li	a3,10
    89b8:	02da0a33          	mul	s4,s4,a3
    89bc:	9a3e                	add	s4,s4,a5
    89be:	b7c9                	j	8980 <_strtod_l+0x2a2>
    89c0:	4801                	li	a6,0
    89c2:	002d0793          	addi	a5,s10,2
    89c6:	c6be                	sw	a5,76(sp)
    89c8:	002d4783          	lbu	a5,2(s10)
    89cc:	fd078713          	addi	a4,a5,-48
    89d0:	4625                	li	a2,9
    89d2:	0ce66563          	bltu	a2,a4,8a9c <_strtod_l+0x3be>
    89d6:	03000713          	li	a4,48
    89da:	0ae78563          	beq	a5,a4,8a84 <_strtod_l+0x3a6>
    89de:	fcf78713          	addi	a4,a5,-49
    89e2:	4621                	li	a2,8
    89e4:	4981                	li	s3,0
    89e6:	04e66363          	bltu	a2,a4,8a2c <_strtod_l+0x34e>
    89ea:	48b6                	lw	a7,76(sp)
    89ec:	fd078713          	addi	a4,a5,-48
    89f0:	4325                	li	t1,9
    89f2:	4e29                	li	t3,10
    89f4:	47b6                	lw	a5,76(sp)
    89f6:	00178613          	addi	a2,a5,1
    89fa:	c6b2                	sw	a2,76(sp)
    89fc:	339c                	lbu	a5,1(a5)
    89fe:	fd078593          	addi	a1,a5,-48
    8a02:	0ff5f593          	andi	a1,a1,255
    8a06:	08b37563          	bgeu	t1,a1,8a90 <_strtod_l+0x3b2>
    8a0a:	6995                	lui	s3,0x5
    8a0c:	41160633          	sub	a2,a2,a7
    8a10:	e1f98993          	addi	s3,s3,-481 # 4e1f <__adddf3+0x4f7>
    8a14:	48a1                	li	a7,8
    8a16:	85ce                	mv	a1,s3
    8a18:	00c8c663          	blt	a7,a2,8a24 <_strtod_l+0x346>
    8a1c:	89ba                	mv	s3,a4
    8a1e:	00e5d363          	bge	a1,a4,8a24 <_strtod_l+0x346>
    8a22:	89ae                	mv	s3,a1
    8a24:	00080463          	beqz	a6,8a2c <_strtod_l+0x34e>
    8a28:	413009b3          	neg	s3,s3
    8a2c:	0c0d9663          	bnez	s11,8af8 <_strtod_l+0x41a>
    8a30:	00dae6b3          	or	a3,s5,a3
    8a34:	d4069fe3          	bnez	a3,8792 <_strtod_l+0xb4>
    8a38:	da0516e3          	bnez	a0,87e4 <_strtod_l+0x106>
    8a3c:	04e00713          	li	a4,78
    8a40:	06e78963          	beq	a5,a4,8ab2 <_strtod_l+0x3d4>
    8a44:	04f74f63          	blt	a4,a5,8aa2 <_strtod_l+0x3c4>
    8a48:	04900713          	li	a4,73
    8a4c:	d8e79ce3          	bne	a5,a4,87e4 <_strtod_l+0x106>
    8a50:	00005597          	auipc	a1,0x5
    8a54:	26058593          	addi	a1,a1,608 # dcb0 <__clz_tab+0x188>
    8a58:	00e8                	addi	a0,sp,76
    8a5a:	2de020ef          	jal	ra,ad38 <__match>
    8a5e:	d80503e3          	beqz	a0,87e4 <_strtod_l+0x106>
    8a62:	47b6                	lw	a5,76(sp)
    8a64:	00005597          	auipc	a1,0x5
    8a68:	25058593          	addi	a1,a1,592 # dcb4 <__clz_tab+0x18c>
    8a6c:	00e8                	addi	a0,sp,76
    8a6e:	17fd                	addi	a5,a5,-1
    8a70:	c6be                	sw	a5,76(sp)
    8a72:	2c6020ef          	jal	ra,ad38 <__match>
    8a76:	e501                	bnez	a0,8a7e <_strtod_l+0x3a0>
    8a78:	47b6                	lw	a5,76(sp)
    8a7a:	0785                	addi	a5,a5,1
    8a7c:	c6be                	sw	a5,76(sp)
    8a7e:	7ff00437          	lui	s0,0x7ff00
    8a82:	bb01                	j	8792 <_strtod_l+0xb4>
    8a84:	47b6                	lw	a5,76(sp)
    8a86:	00178613          	addi	a2,a5,1
    8a8a:	c6b2                	sw	a2,76(sp)
    8a8c:	339c                	lbu	a5,1(a5)
    8a8e:	b7b1                	j	89da <_strtod_l+0x2fc>
    8a90:	03c70733          	mul	a4,a4,t3
    8a94:	97ba                	add	a5,a5,a4
    8a96:	fd078713          	addi	a4,a5,-48
    8a9a:	bfa9                	j	89f4 <_strtod_l+0x316>
    8a9c:	c6ea                	sw	s10,76(sp)
    8a9e:	4981                	li	s3,0
    8aa0:	b771                	j	8a2c <_strtod_l+0x34e>
    8aa2:	06900713          	li	a4,105
    8aa6:	fae785e3          	beq	a5,a4,8a50 <_strtod_l+0x372>
    8aaa:	06e00713          	li	a4,110
    8aae:	d2e79be3          	bne	a5,a4,87e4 <_strtod_l+0x106>
    8ab2:	00005597          	auipc	a1,0x5
    8ab6:	20a58593          	addi	a1,a1,522 # dcbc <__clz_tab+0x194>
    8aba:	00e8                	addi	a0,sp,76
    8abc:	27c020ef          	jal	ra,ad38 <__match>
    8ac0:	d20502e3          	beqz	a0,87e4 <_strtod_l+0x106>
    8ac4:	47b6                	lw	a5,76(sp)
    8ac6:	2398                	lbu	a4,0(a5)
    8ac8:	02800793          	li	a5,40
    8acc:	02f71363          	bne	a4,a5,8af2 <_strtod_l+0x414>
    8ad0:	08b0                	addi	a2,sp,88
    8ad2:	00005597          	auipc	a1,0x5
    8ad6:	20258593          	addi	a1,a1,514 # dcd4 <fpinan.3431>
    8ada:	00e8                	addi	a0,sp,76
    8adc:	28a020ef          	jal	ra,ad66 <__hexnan>
    8ae0:	4795                	li	a5,5
    8ae2:	00f51863          	bne	a0,a5,8af2 <_strtod_l+0x414>
    8ae6:	45f6                	lw	a1,92(sp)
    8ae8:	7ff00437          	lui	s0,0x7ff00
    8aec:	44e6                	lw	s1,88(sp)
    8aee:	8c4d                	or	s0,s0,a1
    8af0:	b14d                	j	8792 <_strtod_l+0xb4>
    8af2:	fff80437          	lui	s0,0xfff80
    8af6:	b971                	j	8792 <_strtod_l+0xb4>
    8af8:	41698ab3          	sub	s5,s3,s6
    8afc:	000c1363          	bnez	s8,8b02 <_strtod_l+0x424>
    8b00:	8c6e                	mv	s8,s11
    8b02:	47c1                	li	a5,16
    8b04:	8d6e                	mv	s10,s11
    8b06:	01b7d363          	bge	a5,s11,8b0c <_strtod_l+0x42e>
    8b0a:	4d41                	li	s10,16
    8b0c:	855e                	mv	a0,s7
    8b0e:	33f030ef          	jal	ra,c64c <__floatunsidf>
    8b12:	47a5                	li	a5,9
    8b14:	84aa                	mv	s1,a0
    8b16:	842e                	mv	s0,a1
    8b18:	03b7dc63          	bge	a5,s11,8b50 <_strtod_l+0x472>
    8b1c:	ff7d0793          	addi	a5,s10,-9
    8b20:	00379713          	slli	a4,a5,0x3
    8b24:	00005797          	auipc	a5,0x5
    8b28:	2c478793          	addi	a5,a5,708 # dde8 <__mprec_tens>
    8b2c:	97ba                	add	a5,a5,a4
    8b2e:	4390                	lw	a2,0(a5)
    8b30:	43d4                	lw	a3,4(a5)
    8b32:	b89fc0ef          	jal	ra,56ba <__muldf3>
    8b36:	842a                	mv	s0,a0
    8b38:	8552                	mv	a0,s4
    8b3a:	84ae                	mv	s1,a1
    8b3c:	311030ef          	jal	ra,c64c <__floatunsidf>
    8b40:	862a                	mv	a2,a0
    8b42:	86ae                	mv	a3,a1
    8b44:	8522                	mv	a0,s0
    8b46:	85a6                	mv	a1,s1
    8b48:	de1fb0ef          	jal	ra,4928 <__adddf3>
    8b4c:	84aa                	mv	s1,a0
    8b4e:	842e                	mv	s0,a1
    8b50:	47bd                	li	a5,15
    8b52:	09b7cd63          	blt	a5,s11,8bec <_strtod_l+0x50e>
    8b56:	c20a8ee3          	beqz	s5,8792 <_strtod_l+0xb4>
    8b5a:	07505463          	blez	s5,8bc2 <_strtod_l+0x4e4>
    8b5e:	4759                	li	a4,22
    8b60:	03574363          	blt	a4,s5,8b86 <_strtod_l+0x4a8>
    8b64:	0a8e                	slli	s5,s5,0x3
    8b66:	00005797          	auipc	a5,0x5
    8b6a:	28278793          	addi	a5,a5,642 # dde8 <__mprec_tens>
    8b6e:	9abe                	add	s5,s5,a5
    8b70:	000aa503          	lw	a0,0(s5)
    8b74:	004aa583          	lw	a1,4(s5)
    8b78:	8626                	mv	a2,s1
    8b7a:	86a2                	mv	a3,s0
    8b7c:	b3ffc0ef          	jal	ra,56ba <__muldf3>
    8b80:	84aa                	mv	s1,a0
    8b82:	842e                	mv	s0,a1
    8b84:	b139                	j	8792 <_strtod_l+0xb4>
    8b86:	02500713          	li	a4,37
    8b8a:	41b70733          	sub	a4,a4,s11
    8b8e:	05574f63          	blt	a4,s5,8bec <_strtod_l+0x50e>
    8b92:	41b78db3          	sub	s11,a5,s11
    8b96:	00005917          	auipc	s2,0x5
    8b9a:	25290913          	addi	s2,s2,594 # dde8 <__mprec_tens>
    8b9e:	003d9793          	slli	a5,s11,0x3
    8ba2:	97ca                	add	a5,a5,s2
    8ba4:	4388                	lw	a0,0(a5)
    8ba6:	43cc                	lw	a1,4(a5)
    8ba8:	41ba8db3          	sub	s11,s5,s11
    8bac:	8626                	mv	a2,s1
    8bae:	86a2                	mv	a3,s0
    8bb0:	0d8e                	slli	s11,s11,0x3
    8bb2:	b09fc0ef          	jal	ra,56ba <__muldf3>
    8bb6:	9dca                	add	s11,s11,s2
    8bb8:	000da603          	lw	a2,0(s11)
    8bbc:	004da683          	lw	a3,4(s11)
    8bc0:	bf75                	j	8b7c <_strtod_l+0x49e>
    8bc2:	57a9                	li	a5,-22
    8bc4:	02fac463          	blt	s5,a5,8bec <_strtod_l+0x50e>
    8bc8:	413b09b3          	sub	s3,s6,s3
    8bcc:	00399b13          	slli	s6,s3,0x3
    8bd0:	00005997          	auipc	s3,0x5
    8bd4:	21898993          	addi	s3,s3,536 # dde8 <__mprec_tens>
    8bd8:	99da                	add	s3,s3,s6
    8bda:	0009a603          	lw	a2,0(s3)
    8bde:	0049a683          	lw	a3,4(s3)
    8be2:	8526                	mv	a0,s1
    8be4:	85a2                	mv	a1,s0
    8be6:	c72fc0ef          	jal	ra,5058 <__divdf3>
    8bea:	bf59                	j	8b80 <_strtod_l+0x4a2>
    8bec:	41ad8d33          	sub	s10,s11,s10
    8bf0:	9d56                	add	s10,s10,s5
    8bf2:	11a05763          	blez	s10,8d00 <_strtod_l+0x622>
    8bf6:	00fd7793          	andi	a5,s10,15
    8bfa:	cf99                	beqz	a5,8c18 <_strtod_l+0x53a>
    8bfc:	00005717          	auipc	a4,0x5
    8c00:	1ec70713          	addi	a4,a4,492 # dde8 <__mprec_tens>
    8c04:	078e                	slli	a5,a5,0x3
    8c06:	97ba                	add	a5,a5,a4
    8c08:	4388                	lw	a0,0(a5)
    8c0a:	43cc                	lw	a1,4(a5)
    8c0c:	8626                	mv	a2,s1
    8c0e:	86a2                	mv	a3,s0
    8c10:	aabfc0ef          	jal	ra,56ba <__muldf3>
    8c14:	84aa                	mv	s1,a0
    8c16:	842e                	mv	s0,a1
    8c18:	ff0d7d13          	andi	s10,s10,-16
    8c1c:	0a0d0863          	beqz	s10,8ccc <_strtod_l+0x5ee>
    8c20:	13400793          	li	a5,308
    8c24:	05a7d563          	bge	a5,s10,8c6e <_strtod_l+0x590>
    8c28:	4b01                	li	s6,0
    8c2a:	4981                	li	s3,0
    8c2c:	c602                	sw	zero,12(sp)
    8c2e:	4b81                	li	s7,0
    8c30:	02200793          	li	a5,34
    8c34:	00f92023          	sw	a5,0(s2)
    8c38:	7ff00437          	lui	s0,0x7ff00
    8c3c:	4481                	li	s1,0
    8c3e:	47b2                	lw	a5,12(sp)
    8c40:	b40789e3          	beqz	a5,8792 <_strtod_l+0xb4>
    8c44:	45c6                	lw	a1,80(sp)
    8c46:	854a                	mv	a0,s2
    8c48:	46e020ef          	jal	ra,b0b6 <_Bfree>
    8c4c:	85de                	mv	a1,s7
    8c4e:	854a                	mv	a0,s2
    8c50:	466020ef          	jal	ra,b0b6 <_Bfree>
    8c54:	85ce                	mv	a1,s3
    8c56:	854a                	mv	a0,s2
    8c58:	45e020ef          	jal	ra,b0b6 <_Bfree>
    8c5c:	45b2                	lw	a1,12(sp)
    8c5e:	854a                	mv	a0,s2
    8c60:	456020ef          	jal	ra,b0b6 <_Bfree>
    8c64:	85da                	mv	a1,s6
    8c66:	854a                	mv	a0,s2
    8c68:	44e020ef          	jal	ra,b0b6 <_Bfree>
    8c6c:	b61d                	j	8792 <_strtod_l+0xb4>
    8c6e:	404d5d13          	srai	s10,s10,0x4
    8c72:	8526                	mv	a0,s1
    8c74:	85a2                	mv	a1,s0
    8c76:	4781                	li	a5,0
    8c78:	4a01                	li	s4,0
    8c7a:	4805                	li	a6,1
    8c7c:	00005897          	auipc	a7,0x5
    8c80:	14488893          	addi	a7,a7,324 # ddc0 <__mprec_bigtens>
    8c84:	05a84663          	blt	a6,s10,8cd0 <_strtod_l+0x5f2>
    8c88:	c399                	beqz	a5,8c8e <_strtod_l+0x5b0>
    8c8a:	84aa                	mv	s1,a0
    8c8c:	842e                	mv	s0,a1
    8c8e:	00005717          	auipc	a4,0x5
    8c92:	13270713          	addi	a4,a4,306 # ddc0 <__mprec_bigtens>
    8c96:	003a1793          	slli	a5,s4,0x3
    8c9a:	97ba                	add	a5,a5,a4
    8c9c:	4388                	lw	a0,0(a5)
    8c9e:	43cc                	lw	a1,4(a5)
    8ca0:	fcb00737          	lui	a4,0xfcb00
    8ca4:	9722                	add	a4,a4,s0
    8ca6:	8626                	mv	a2,s1
    8ca8:	86ba                	mv	a3,a4
    8caa:	a11fc0ef          	jal	ra,56ba <__muldf3>
    8cae:	7ff00437          	lui	s0,0x7ff00
    8cb2:	00b477b3          	and	a5,s0,a1
    8cb6:	7ca00737          	lui	a4,0x7ca00
    8cba:	84aa                	mv	s1,a0
    8cbc:	f6f766e3          	bltu	a4,a5,8c28 <_strtod_l+0x54a>
    8cc0:	7c900737          	lui	a4,0x7c900
    8cc4:	02f77a63          	bgeu	a4,a5,8cf8 <_strtod_l+0x61a>
    8cc8:	147d                	addi	s0,s0,-1
    8cca:	54fd                	li	s1,-1
    8ccc:	4a01                	li	s4,0
    8cce:	a8dd                	j	8dc4 <_strtod_l+0x6e6>
    8cd0:	001d7713          	andi	a4,s10,1
    8cd4:	cf11                	beqz	a4,8cf0 <_strtod_l+0x612>
    8cd6:	003a1713          	slli	a4,s4,0x3
    8cda:	9746                	add	a4,a4,a7
    8cdc:	4310                	lw	a2,0(a4)
    8cde:	4354                	lw	a3,4(a4)
    8ce0:	9dbfc0ef          	jal	ra,56ba <__muldf3>
    8ce4:	4785                	li	a5,1
    8ce6:	4805                	li	a6,1
    8ce8:	00005897          	auipc	a7,0x5
    8cec:	0d888893          	addi	a7,a7,216 # ddc0 <__mprec_bigtens>
    8cf0:	0a05                	addi	s4,s4,1
    8cf2:	401d5d13          	srai	s10,s10,0x1
    8cf6:	b779                	j	8c84 <_strtod_l+0x5a6>
    8cf8:	03500437          	lui	s0,0x3500
    8cfc:	942e                	add	s0,s0,a1
    8cfe:	b7f9                	j	8ccc <_strtod_l+0x5ee>
    8d00:	fc0d06e3          	beqz	s10,8ccc <_strtod_l+0x5ee>
    8d04:	41a00d33          	neg	s10,s10
    8d08:	00fd7793          	andi	a5,s10,15
    8d0c:	cf99                	beqz	a5,8d2a <_strtod_l+0x64c>
    8d0e:	00005717          	auipc	a4,0x5
    8d12:	0da70713          	addi	a4,a4,218 # dde8 <__mprec_tens>
    8d16:	078e                	slli	a5,a5,0x3
    8d18:	97ba                	add	a5,a5,a4
    8d1a:	4390                	lw	a2,0(a5)
    8d1c:	43d4                	lw	a3,4(a5)
    8d1e:	8526                	mv	a0,s1
    8d20:	85a2                	mv	a1,s0
    8d22:	b36fc0ef          	jal	ra,5058 <__divdf3>
    8d26:	84aa                	mv	s1,a0
    8d28:	842e                	mv	s0,a1
    8d2a:	404d5d13          	srai	s10,s10,0x4
    8d2e:	f80d0fe3          	beqz	s10,8ccc <_strtod_l+0x5ee>
    8d32:	47fd                	li	a5,31
    8d34:	01a7dd63          	bge	a5,s10,8d4e <_strtod_l+0x670>
    8d38:	4b01                	li	s6,0
    8d3a:	4981                	li	s3,0
    8d3c:	c602                	sw	zero,12(sp)
    8d3e:	4b81                	li	s7,0
    8d40:	02200793          	li	a5,34
    8d44:	4481                	li	s1,0
    8d46:	4401                	li	s0,0
    8d48:	00f92023          	sw	a5,0(s2)
    8d4c:	bdcd                	j	8c3e <_strtod_l+0x560>
    8d4e:	010d7a13          	andi	s4,s10,16
    8d52:	000a0463          	beqz	s4,8d5a <_strtod_l+0x67c>
    8d56:	06a00a13          	li	s4,106
    8d5a:	8526                	mv	a0,s1
    8d5c:	85a2                	mv	a1,s0
    8d5e:	00005797          	auipc	a5,0x5
    8d62:	f8a78793          	addi	a5,a5,-118 # dce8 <tinytens>
    8d66:	4701                	li	a4,0
    8d68:	001d7693          	andi	a3,s10,1
    8d6c:	ca81                	beqz	a3,8d7c <_strtod_l+0x69e>
    8d6e:	4390                	lw	a2,0(a5)
    8d70:	43d4                	lw	a3,4(a5)
    8d72:	c63e                	sw	a5,12(sp)
    8d74:	947fc0ef          	jal	ra,56ba <__muldf3>
    8d78:	47b2                	lw	a5,12(sp)
    8d7a:	4705                	li	a4,1
    8d7c:	401d5d13          	srai	s10,s10,0x1
    8d80:	07a1                	addi	a5,a5,8
    8d82:	fe0d13e3          	bnez	s10,8d68 <_strtod_l+0x68a>
    8d86:	c319                	beqz	a4,8d8c <_strtod_l+0x6ae>
    8d88:	84aa                	mv	s1,a0
    8d8a:	842e                	mv	s0,a1
    8d8c:	020a0563          	beqz	s4,8db6 <_strtod_l+0x6d8>
    8d90:	01445793          	srli	a5,s0,0x14
    8d94:	7ff7f713          	andi	a4,a5,2047
    8d98:	06b00793          	li	a5,107
    8d9c:	8f99                	sub	a5,a5,a4
    8d9e:	00f05c63          	blez	a5,8db6 <_strtod_l+0x6d8>
    8da2:	477d                	li	a4,31
    8da4:	22f75463          	bge	a4,a5,8fcc <_strtod_l+0x8ee>
    8da8:	03400713          	li	a4,52
    8dac:	4481                	li	s1,0
    8dae:	20f75963          	bge	a4,a5,8fc0 <_strtod_l+0x8e2>
    8db2:	03700437          	lui	s0,0x3700
    8db6:	4601                	li	a2,0
    8db8:	4681                	li	a3,0
    8dba:	8526                	mv	a0,s1
    8dbc:	85a2                	mv	a1,s0
    8dbe:	6aa030ef          	jal	ra,c468 <__eqdf2>
    8dc2:	d93d                	beqz	a0,8d38 <_strtod_l+0x65a>
    8dc4:	875e                	mv	a4,s7
    8dc6:	86ee                	mv	a3,s11
    8dc8:	8662                	mv	a2,s8
    8dca:	85e6                	mv	a1,s9
    8dcc:	854a                	mv	a0,s2
    8dce:	3c4020ef          	jal	ra,b192 <__s2b>
    8dd2:	c62a                	sw	a0,12(sp)
    8dd4:	e4050ae3          	beqz	a0,8c28 <_strtod_l+0x54a>
    8dd8:	41fad793          	srai	a5,s5,0x1f
    8ddc:	413b09b3          	sub	s3,s6,s3
    8de0:	00f9f7b3          	and	a5,s3,a5
    8de4:	d03e                	sw	a5,32(sp)
    8de6:	ce56                	sw	s5,28(sp)
    8de8:	000ad363          	bgez	s5,8dee <_strtod_l+0x710>
    8dec:	ce02                	sw	zero,28(sp)
    8dee:	47b2                	lw	a5,12(sp)
    8df0:	4b01                	li	s6,0
    8df2:	4981                	li	s3,0
    8df4:	07b1                	addi	a5,a5,12
    8df6:	d83e                	sw	a5,48(sp)
    8df8:	001007b7          	lui	a5,0x100
    8dfc:	17fd                	addi	a5,a5,-1
    8dfe:	d63e                	sw	a5,44(sp)
    8e00:	47b2                	lw	a5,12(sp)
    8e02:	854a                	mv	a0,s2
    8e04:	43cc                	lw	a1,4(a5)
    8e06:	224020ef          	jal	ra,b02a <_Balloc>
    8e0a:	8baa                	mv	s7,a0
    8e0c:	e20502e3          	beqz	a0,8c30 <_strtod_l+0x552>
    8e10:	47b2                	lw	a5,12(sp)
    8e12:	55c2                	lw	a1,48(sp)
    8e14:	0531                	addi	a0,a0,12
    8e16:	4b90                	lw	a2,16(a5)
    8e18:	0609                	addi	a2,a2,2
    8e1a:	060a                	slli	a2,a2,0x2
    8e1c:	fe4fe0ef          	jal	ra,7600 <memcpy>
    8e20:	08b8                	addi	a4,sp,88
    8e22:	08d4                	addi	a3,sp,84
    8e24:	8622                	mv	a2,s0
    8e26:	85a6                	mv	a1,s1
    8e28:	854a                	mv	a0,s2
    8e2a:	ca26                	sw	s1,20(sp)
    8e2c:	cc22                	sw	s0,24(sp)
    8e2e:	1c3020ef          	jal	ra,b7f0 <__d2b>
    8e32:	c8aa                	sw	a0,80(sp)
    8e34:	de050ee3          	beqz	a0,8c30 <_strtod_l+0x552>
    8e38:	4585                	li	a1,1
    8e3a:	854a                	mv	a0,s2
    8e3c:	4aa020ef          	jal	ra,b2e6 <__i2b>
    8e40:	89aa                	mv	s3,a0
    8e42:	de0507e3          	beqz	a0,8c30 <_strtod_l+0x552>
    8e46:	47d6                	lw	a5,84(sp)
    8e48:	1807c763          	bltz	a5,8fd6 <_strtod_l+0x8f8>
    8e4c:	5702                	lw	a4,32(sp)
    8e4e:	4c72                	lw	s8,28(sp)
    8e50:	00e78d33          	add	s10,a5,a4
    8e54:	4766                	lw	a4,88(sp)
    8e56:	414787b3          	sub	a5,a5,s4
    8e5a:	03600693          	li	a3,54
    8e5e:	97ba                	add	a5,a5,a4
    8e60:	17fd                	addi	a5,a5,-1
    8e62:	c0200d93          	li	s11,-1022
    8e66:	8e99                	sub	a3,a3,a4
    8e68:	19b7d663          	bge	a5,s11,8ff4 <_strtod_l+0x916>
    8e6c:	40fd8733          	sub	a4,s11,a5
    8e70:	467d                	li	a2,31
    8e72:	8e99                	sub	a3,a3,a4
    8e74:	16e64663          	blt	a2,a4,8fe0 <_strtod_l+0x902>
    8e78:	4d85                	li	s11,1
    8e7a:	00ed97b3          	sll	a5,s11,a4
    8e7e:	d23e                	sw	a5,36(sp)
    8e80:	4c81                	li	s9,0
    8e82:	9c36                	add	s8,s8,a3
    8e84:	00dd0db3          	add	s11,s10,a3
    8e88:	9c52                	add	s8,s8,s4
    8e8a:	87ea                	mv	a5,s10
    8e8c:	01add363          	bge	s11,s10,8e92 <_strtod_l+0x7b4>
    8e90:	87ee                	mv	a5,s11
    8e92:	00fc5363          	bge	s8,a5,8e98 <_strtod_l+0x7ba>
    8e96:	87e2                	mv	a5,s8
    8e98:	00f05863          	blez	a5,8ea8 <_strtod_l+0x7ca>
    8e9c:	40fd8db3          	sub	s11,s11,a5
    8ea0:	40fc0c33          	sub	s8,s8,a5
    8ea4:	40fd0d33          	sub	s10,s10,a5
    8ea8:	5782                	lw	a5,32(sp)
    8eaa:	02f05863          	blez	a5,8eda <_strtod_l+0x7fc>
    8eae:	85ce                	mv	a1,s3
    8eb0:	863e                	mv	a2,a5
    8eb2:	854a                	mv	a0,s2
    8eb4:	592020ef          	jal	ra,b446 <__pow5mult>
    8eb8:	89aa                	mv	s3,a0
    8eba:	d6050be3          	beqz	a0,8c30 <_strtod_l+0x552>
    8ebe:	4646                	lw	a2,80(sp)
    8ec0:	85aa                	mv	a1,a0
    8ec2:	854a                	mv	a0,s2
    8ec4:	43e020ef          	jal	ra,b302 <__multiply>
    8ec8:	da2a                	sw	a0,52(sp)
    8eca:	d60503e3          	beqz	a0,8c30 <_strtod_l+0x552>
    8ece:	45c6                	lw	a1,80(sp)
    8ed0:	854a                	mv	a0,s2
    8ed2:	1e4020ef          	jal	ra,b0b6 <_Bfree>
    8ed6:	57d2                	lw	a5,52(sp)
    8ed8:	c8be                	sw	a5,80(sp)
    8eda:	11b04f63          	bgtz	s11,8ff8 <_strtod_l+0x91a>
    8ede:	01505a63          	blez	s5,8ef2 <_strtod_l+0x814>
    8ee2:	4672                	lw	a2,28(sp)
    8ee4:	85de                	mv	a1,s7
    8ee6:	854a                	mv	a0,s2
    8ee8:	55e020ef          	jal	ra,b446 <__pow5mult>
    8eec:	8baa                	mv	s7,a0
    8eee:	d40501e3          	beqz	a0,8c30 <_strtod_l+0x552>
    8ef2:	01805a63          	blez	s8,8f06 <_strtod_l+0x828>
    8ef6:	85de                	mv	a1,s7
    8ef8:	8662                	mv	a2,s8
    8efa:	854a                	mv	a0,s2
    8efc:	608020ef          	jal	ra,b504 <__lshift>
    8f00:	8baa                	mv	s7,a0
    8f02:	d20507e3          	beqz	a0,8c30 <_strtod_l+0x552>
    8f06:	01a05a63          	blez	s10,8f1a <_strtod_l+0x83c>
    8f0a:	85ce                	mv	a1,s3
    8f0c:	866a                	mv	a2,s10
    8f0e:	854a                	mv	a0,s2
    8f10:	5f4020ef          	jal	ra,b504 <__lshift>
    8f14:	89aa                	mv	s3,a0
    8f16:	d0050de3          	beqz	a0,8c30 <_strtod_l+0x552>
    8f1a:	45c6                	lw	a1,80(sp)
    8f1c:	865e                	mv	a2,s7
    8f1e:	854a                	mv	a0,s2
    8f20:	6e4020ef          	jal	ra,b604 <__mdiff>
    8f24:	8b2a                	mv	s6,a0
    8f26:	d00505e3          	beqz	a0,8c30 <_strtod_l+0x552>
    8f2a:	00c52c03          	lw	s8,12(a0)
    8f2e:	85ce                	mv	a1,s3
    8f30:	00052623          	sw	zero,12(a0)
    8f34:	69e020ef          	jal	ra,b5d2 <__mcmp>
    8f38:	0c055963          	bgez	a0,900a <_strtod_l+0x92c>
    8f3c:	009c6c33          	or	s8,s8,s1
    8f40:	120c1163          	bnez	s8,9062 <_strtod_l+0x984>
    8f44:	00c41793          	slli	a5,s0,0xc
    8f48:	10079d63          	bnez	a5,9062 <_strtod_l+0x984>
    8f4c:	7ff007b7          	lui	a5,0x7ff00
    8f50:	8fe1                	and	a5,a5,s0
    8f52:	06b00737          	lui	a4,0x6b00
    8f56:	10f77663          	bgeu	a4,a5,9062 <_strtod_l+0x984>
    8f5a:	014b2783          	lw	a5,20(s6)
    8f5e:	e791                	bnez	a5,8f6a <_strtod_l+0x88c>
    8f60:	010b2703          	lw	a4,16(s6)
    8f64:	4785                	li	a5,1
    8f66:	0ee7de63          	bge	a5,a4,9062 <_strtod_l+0x984>
    8f6a:	85da                	mv	a1,s6
    8f6c:	4605                	li	a2,1
    8f6e:	854a                	mv	a0,s2
    8f70:	594020ef          	jal	ra,b504 <__lshift>
    8f74:	85ce                	mv	a1,s3
    8f76:	8b2a                	mv	s6,a0
    8f78:	65a020ef          	jal	ra,b5d2 <__mcmp>
    8f7c:	0ea05363          	blez	a0,9062 <_strtod_l+0x984>
    8f80:	100a0c63          	beqz	s4,9098 <_strtod_l+0x9ba>
    8f84:	7ff007b7          	lui	a5,0x7ff00
    8f88:	8fe1                	and	a5,a5,s0
    8f8a:	06b00737          	lui	a4,0x6b00
    8f8e:	10f74563          	blt	a4,a5,9098 <_strtod_l+0x9ba>
    8f92:	03700737          	lui	a4,0x3700
    8f96:	daf755e3          	bge	a4,a5,8d40 <_strtod_l+0x662>
    8f9a:	4701                	li	a4,0
    8f9c:	395007b7          	lui	a5,0x39500
    8fa0:	8526                	mv	a0,s1
    8fa2:	85a2                	mv	a1,s0
    8fa4:	863a                	mv	a2,a4
    8fa6:	86be                	mv	a3,a5
    8fa8:	f12fc0ef          	jal	ra,56ba <__muldf3>
    8fac:	842e                	mv	s0,a1
    8fae:	8dc9                	or	a1,a1,a0
    8fb0:	84aa                	mv	s1,a0
    8fb2:	c80599e3          	bnez	a1,8c44 <_strtod_l+0x566>
    8fb6:	02200793          	li	a5,34
    8fba:	00f92023          	sw	a5,0(s2)
    8fbe:	b159                	j	8c44 <_strtod_l+0x566>
    8fc0:	1781                	addi	a5,a5,-32
    8fc2:	577d                	li	a4,-1
    8fc4:	00f717b3          	sll	a5,a4,a5
    8fc8:	8c7d                	and	s0,s0,a5
    8fca:	b3f5                	j	8db6 <_strtod_l+0x6d8>
    8fcc:	577d                	li	a4,-1
    8fce:	00f717b3          	sll	a5,a4,a5
    8fd2:	8cfd                	and	s1,s1,a5
    8fd4:	b3cd                	j	8db6 <_strtod_l+0x6d8>
    8fd6:	4772                	lw	a4,28(sp)
    8fd8:	5d02                	lw	s10,32(sp)
    8fda:	40f70c33          	sub	s8,a4,a5
    8fde:	bd9d                	j	8e54 <_strtod_l+0x776>
    8fe0:	be200c93          	li	s9,-1054
    8fe4:	40fc87b3          	sub	a5,s9,a5
    8fe8:	4c85                	li	s9,1
    8fea:	00fc9cb3          	sll	s9,s9,a5
    8fee:	4785                	li	a5,1
    8ff0:	d23e                	sw	a5,36(sp)
    8ff2:	bd41                	j	8e82 <_strtod_l+0x7a4>
    8ff4:	4c81                	li	s9,0
    8ff6:	bfe5                	j	8fee <_strtod_l+0x910>
    8ff8:	45c6                	lw	a1,80(sp)
    8ffa:	866e                	mv	a2,s11
    8ffc:	854a                	mv	a0,s2
    8ffe:	506020ef          	jal	ra,b504 <__lshift>
    9002:	c8aa                	sw	a0,80(sp)
    9004:	ec051de3          	bnez	a0,8ede <_strtod_l+0x800>
    9008:	b125                	j	8c30 <_strtod_l+0x552>
    900a:	e969                	bnez	a0,90dc <_strtod_l+0x9fe>
    900c:	00100737          	lui	a4,0x100
    9010:	177d                	addi	a4,a4,-1
    9012:	00e477b3          	and	a5,s0,a4
    9016:	040c0963          	beqz	s8,9068 <_strtod_l+0x98a>
    901a:	04e79963          	bne	a5,a4,906c <_strtod_l+0x98e>
    901e:	577d                	li	a4,-1
    9020:	020a0063          	beqz	s4,9040 <_strtod_l+0x962>
    9024:	7ff007b7          	lui	a5,0x7ff00
    9028:	8fe1                	and	a5,a5,s0
    902a:	06a006b7          	lui	a3,0x6a00
    902e:	00f6e963          	bltu	a3,a5,9040 <_strtod_l+0x962>
    9032:	83d1                	srli	a5,a5,0x14
    9034:	06b00693          	li	a3,107
    9038:	40f687b3          	sub	a5,a3,a5
    903c:	00f71733          	sll	a4,a4,a5
    9040:	02e49663          	bne	s1,a4,906c <_strtod_l+0x98e>
    9044:	7ff007b7          	lui	a5,0x7ff00
    9048:	17fd                	addi	a5,a5,-1
    904a:	00f41563          	bne	s0,a5,9054 <_strtod_l+0x976>
    904e:	57fd                	li	a5,-1
    9050:	bef480e3          	beq	s1,a5,8c30 <_strtod_l+0x552>
    9054:	7ff005b7          	lui	a1,0x7ff00
    9058:	8de1                	and	a1,a1,s0
    905a:	00100437          	lui	s0,0x100
    905e:	942e                	add	s0,s0,a1
    9060:	4481                	li	s1,0
    9062:	f20a1ce3          	bnez	s4,8f9a <_strtod_l+0x8bc>
    9066:	bef9                	j	8c44 <_strtod_l+0x566>
    9068:	8fc5                	or	a5,a5,s1
    906a:	db99                	beqz	a5,8f80 <_strtod_l+0x8a2>
    906c:	040c8263          	beqz	s9,90b0 <_strtod_l+0x9d2>
    9070:	008cfcb3          	and	s9,s9,s0
    9074:	fe0c87e3          	beqz	s9,9062 <_strtod_l+0x984>
    9078:	8652                	mv	a2,s4
    907a:	8526                	mv	a0,s1
    907c:	85a2                	mv	a1,s0
    907e:	020c0f63          	beqz	s8,90bc <_strtod_l+0x9de>
    9082:	e0eff0ef          	jal	ra,8690 <sulp>
    9086:	862a                	mv	a2,a0
    9088:	86ae                	mv	a3,a1
    908a:	4552                	lw	a0,20(sp)
    908c:	45e2                	lw	a1,24(sp)
    908e:	89bfb0ef          	jal	ra,4928 <__adddf3>
    9092:	84aa                	mv	s1,a0
    9094:	842e                	mv	s0,a1
    9096:	b7f1                	j	9062 <_strtod_l+0x984>
    9098:	7ff005b7          	lui	a1,0x7ff00
    909c:	8de1                	and	a1,a1,s0
    909e:	fff00437          	lui	s0,0xfff00
    90a2:	95a2                	add	a1,a1,s0
    90a4:	00100437          	lui	s0,0x100
    90a8:	147d                	addi	s0,s0,-1
    90aa:	8c4d                	or	s0,s0,a1
    90ac:	54fd                	li	s1,-1
    90ae:	bf55                	j	9062 <_strtod_l+0x984>
    90b0:	5792                	lw	a5,36(sp)
    90b2:	0097fdb3          	and	s11,a5,s1
    90b6:	fa0d86e3          	beqz	s11,9062 <_strtod_l+0x984>
    90ba:	bf7d                	j	9078 <_strtod_l+0x99a>
    90bc:	dd4ff0ef          	jal	ra,8690 <sulp>
    90c0:	862a                	mv	a2,a0
    90c2:	86ae                	mv	a3,a1
    90c4:	4552                	lw	a0,20(sp)
    90c6:	45e2                	lw	a1,24(sp)
    90c8:	aabfc0ef          	jal	ra,5b72 <__subdf3>
    90cc:	4601                	li	a2,0
    90ce:	4681                	li	a3,0
    90d0:	84aa                	mv	s1,a0
    90d2:	842e                	mv	s0,a1
    90d4:	394030ef          	jal	ra,c468 <__eqdf2>
    90d8:	f549                	bnez	a0,9062 <_strtod_l+0x984>
    90da:	b19d                	j	8d40 <_strtod_l+0x662>
    90dc:	85ce                	mv	a1,s3
    90de:	855a                	mv	a0,s6
    90e0:	7e4020ef          	jal	ra,b8c4 <__ratio>
    90e4:	00005797          	auipc	a5,0x5
    90e8:	84c78793          	addi	a5,a5,-1972 # d930 <test+0xf8>
    90ec:	4390                	lw	a2,0(a5)
    90ee:	43d4                	lw	a3,4(a5)
    90f0:	8d2a                	mv	s10,a0
    90f2:	8dae                	mv	s11,a1
    90f4:	3de030ef          	jal	ra,c4d2 <__ledf2>
    90f8:	10a04263          	bgtz	a0,91fc <_strtod_l+0xb1e>
    90fc:	0a0c0163          	beqz	s8,919e <_strtod_l+0xac0>
    9100:	4d81                	li	s11,0
    9102:	3ff00d37          	lui	s10,0x3ff00
    9106:	4701                	li	a4,0
    9108:	3ff007b7          	lui	a5,0x3ff00
    910c:	7ff006b7          	lui	a3,0x7ff00
    9110:	00d47cb3          	and	s9,s0,a3
    9114:	7fe006b7          	lui	a3,0x7fe00
    9118:	16dc9f63          	bne	s9,a3,9296 <_strtod_l+0xbb8>
    911c:	d26a                	sw	s10,36(sp)
    911e:	fcb00d37          	lui	s10,0xfcb00
    9122:	9d22                	add	s10,s10,s0
    9124:	8526                	mv	a0,s1
    9126:	85ea                	mv	a1,s10
    9128:	de3e                	sw	a5,60(sp)
    912a:	dc3a                	sw	a4,56(sp)
    912c:	da6e                	sw	s11,52(sp)
    912e:	5c8020ef          	jal	ra,b6f6 <__ulp>
    9132:	58d2                	lw	a7,52(sp)
    9134:	5812                	lw	a6,36(sp)
    9136:	862a                	mv	a2,a0
    9138:	86ae                	mv	a3,a1
    913a:	8546                	mv	a0,a7
    913c:	85c2                	mv	a1,a6
    913e:	d7cfc0ef          	jal	ra,56ba <__muldf3>
    9142:	8626                	mv	a2,s1
    9144:	86ea                	mv	a3,s10
    9146:	fe2fb0ef          	jal	ra,4928 <__adddf3>
    914a:	84aa                	mv	s1,a0
    914c:	7ff00537          	lui	a0,0x7ff00
    9150:	00b57633          	and	a2,a0,a1
    9154:	7ca006b7          	lui	a3,0x7ca00
    9158:	5762                	lw	a4,56(sp)
    915a:	57f2                	lw	a5,60(sp)
    915c:	0cd66563          	bltu	a2,a3,9226 <_strtod_l+0xb48>
    9160:	4762                	lw	a4,24(sp)
    9162:	fff50793          	addi	a5,a0,-1 # 7fefffff <_eusrstack+0x5fef7fff>
    9166:	00e79663          	bne	a5,a4,9172 <_strtod_l+0xa94>
    916a:	4752                	lw	a4,20(sp)
    916c:	57fd                	li	a5,-1
    916e:	ace781e3          	beq	a5,a4,8c30 <_strtod_l+0x552>
    9172:	7ff007b7          	lui	a5,0x7ff00
    9176:	fff78413          	addi	s0,a5,-1 # 7fefffff <_eusrstack+0x5fef7fff>
    917a:	54fd                	li	s1,-1
    917c:	45c6                	lw	a1,80(sp)
    917e:	854a                	mv	a0,s2
    9180:	737010ef          	jal	ra,b0b6 <_Bfree>
    9184:	85de                	mv	a1,s7
    9186:	854a                	mv	a0,s2
    9188:	72f010ef          	jal	ra,b0b6 <_Bfree>
    918c:	85ce                	mv	a1,s3
    918e:	854a                	mv	a0,s2
    9190:	727010ef          	jal	ra,b0b6 <_Bfree>
    9194:	85da                	mv	a1,s6
    9196:	854a                	mv	a0,s2
    9198:	71f010ef          	jal	ra,b0b6 <_Bfree>
    919c:	b195                	j	8e00 <_strtod_l+0x722>
    919e:	e0b1                	bnez	s1,91e2 <_strtod_l+0xb04>
    91a0:	57b2                	lw	a5,44(sp)
    91a2:	8fe1                	and	a5,a5,s0
    91a4:	e7a1                	bnez	a5,91ec <_strtod_l+0xb0e>
    91a6:	00004797          	auipc	a5,0x4
    91aa:	6c278793          	addi	a5,a5,1730 # d868 <test+0x30>
    91ae:	4390                	lw	a2,0(a5)
    91b0:	43d4                	lw	a3,4(a5)
    91b2:	856a                	mv	a0,s10
    91b4:	85ee                	mv	a1,s11
    91b6:	31c030ef          	jal	ra,c4d2 <__ledf2>
    91ba:	02054d63          	bltz	a0,91f4 <_strtod_l+0xb16>
    91be:	00004797          	auipc	a5,0x4
    91c2:	72278793          	addi	a5,a5,1826 # d8e0 <test+0xa8>
    91c6:	4390                	lw	a2,0(a5)
    91c8:	43d4                	lw	a3,4(a5)
    91ca:	856a                	mv	a0,s10
    91cc:	85ee                	mv	a1,s11
    91ce:	cecfc0ef          	jal	ra,56ba <__muldf3>
    91d2:	872a                	mv	a4,a0
    91d4:	87ae                	mv	a5,a1
    91d6:	80000d37          	lui	s10,0x80000
    91da:	8dba                	mv	s11,a4
    91dc:	00fd4d33          	xor	s10,s10,a5
    91e0:	b735                	j	910c <_strtod_l+0xa2e>
    91e2:	4785                	li	a5,1
    91e4:	00f49463          	bne	s1,a5,91ec <_strtod_l+0xb0e>
    91e8:	b4040ce3          	beqz	s0,8d40 <_strtod_l+0x662>
    91ec:	4d81                	li	s11,0
    91ee:	bff00d37          	lui	s10,0xbff00
    91f2:	bf11                	j	9106 <_strtod_l+0xa28>
    91f4:	4701                	li	a4,0
    91f6:	3fe007b7          	lui	a5,0x3fe00
    91fa:	bff1                	j	91d6 <_strtod_l+0xaf8>
    91fc:	00004797          	auipc	a5,0x4
    9200:	6e478793          	addi	a5,a5,1764 # d8e0 <test+0xa8>
    9204:	4390                	lw	a2,0(a5)
    9206:	43d4                	lw	a3,4(a5)
    9208:	856a                	mv	a0,s10
    920a:	85ee                	mv	a1,s11
    920c:	caefc0ef          	jal	ra,56ba <__muldf3>
    9210:	872a                	mv	a4,a0
    9212:	87ae                	mv	a5,a1
    9214:	8d2e                	mv	s10,a1
    9216:	000c1663          	bnez	s8,9222 <_strtod_l+0xb44>
    921a:	80000d37          	lui	s10,0x80000
    921e:	00bd4d33          	xor	s10,s10,a1
    9222:	8daa                	mv	s11,a0
    9224:	b5e5                	j	910c <_strtod_l+0xa2e>
    9226:	03500437          	lui	s0,0x3500
    922a:	942e                	add	s0,s0,a1
    922c:	f40a18e3          	bnez	s4,917c <_strtod_l+0xa9e>
    9230:	7ff006b7          	lui	a3,0x7ff00
    9234:	8ee1                	and	a3,a3,s0
    9236:	f4dc93e3          	bne	s9,a3,917c <_strtod_l+0xa9e>
    923a:	85be                	mv	a1,a5
    923c:	853a                	mv	a0,a4
    923e:	8d3a                	mv	s10,a4
    9240:	8cbe                	mv	s9,a5
    9242:	346030ef          	jal	ra,c588 <__fixdfsi>
    9246:	8a6fd0ef          	jal	ra,62ec <__floatsidf>
    924a:	862a                	mv	a2,a0
    924c:	86ae                	mv	a3,a1
    924e:	856a                	mv	a0,s10
    9250:	85e6                	mv	a1,s9
    9252:	921fc0ef          	jal	ra,5b72 <__subdf3>
    9256:	57b2                	lw	a5,44(sp)
    9258:	8d2a                	mv	s10,a0
    925a:	8dae                	mv	s11,a1
    925c:	8fe1                	and	a5,a5,s0
    925e:	8fc5                	or	a5,a5,s1
    9260:	0187ec33          	or	s8,a5,s8
    9264:	0a0c0b63          	beqz	s8,931a <_strtod_l+0xc3c>
    9268:	00005797          	auipc	a5,0x5
    926c:	a3078793          	addi	a5,a5,-1488 # dc98 <__clz_tab+0x170>
    9270:	4390                	lw	a2,0(a5)
    9272:	43d4                	lw	a3,4(a5)
    9274:	25e030ef          	jal	ra,c4d2 <__ledf2>
    9278:	9c0546e3          	bltz	a0,8c44 <_strtod_l+0x566>
    927c:	00005797          	auipc	a5,0x5
    9280:	a2478793          	addi	a5,a5,-1500 # dca0 <__clz_tab+0x178>
    9284:	4390                	lw	a2,0(a5)
    9286:	43d4                	lw	a3,4(a5)
    9288:	856a                	mv	a0,s10
    928a:	85ee                	mv	a1,s11
    928c:	b80fc0ef          	jal	ra,560c <__gedf2>
    9290:	eea056e3          	blez	a0,917c <_strtod_l+0xa9e>
    9294:	ba45                	j	8c44 <_strtod_l+0x566>
    9296:	040a0d63          	beqz	s4,92f0 <_strtod_l+0xc12>
    929a:	06a006b7          	lui	a3,0x6a00
    929e:	0596e963          	bltu	a3,s9,92f0 <_strtod_l+0xc12>
    92a2:	00005697          	auipc	a3,0x5
    92a6:	9ee68693          	addi	a3,a3,-1554 # dc90 <__clz_tab+0x168>
    92aa:	4290                	lw	a2,0(a3)
    92ac:	42d4                	lw	a3,4(a3)
    92ae:	853a                	mv	a0,a4
    92b0:	85be                	mv	a1,a5
    92b2:	da3a                	sw	a4,52(sp)
    92b4:	d23e                	sw	a5,36(sp)
    92b6:	21c030ef          	jal	ra,c4d2 <__ledf2>
    92ba:	5792                	lw	a5,36(sp)
    92bc:	5752                	lw	a4,52(sp)
    92be:	02a04463          	bgtz	a0,92e6 <_strtod_l+0xc08>
    92c2:	853a                	mv	a0,a4
    92c4:	85be                	mv	a1,a5
    92c6:	32a030ef          	jal	ra,c5f0 <__fixunsdfsi>
    92ca:	e111                	bnez	a0,92ce <_strtod_l+0xbf0>
    92cc:	4505                	li	a0,1
    92ce:	37e030ef          	jal	ra,c64c <__floatunsidf>
    92d2:	872a                	mv	a4,a0
    92d4:	87ae                	mv	a5,a1
    92d6:	8d2e                	mv	s10,a1
    92d8:	000c1663          	bnez	s8,92e4 <_strtod_l+0xc06>
    92dc:	80000d37          	lui	s10,0x80000
    92e0:	00bd4d33          	xor	s10,s10,a1
    92e4:	8daa                	mv	s11,a0
    92e6:	06b005b7          	lui	a1,0x6b00
    92ea:	9d2e                	add	s10,s10,a1
    92ec:	419d0d33          	sub	s10,s10,s9
    92f0:	4552                	lw	a0,20(sp)
    92f2:	45e2                	lw	a1,24(sp)
    92f4:	da3e                	sw	a5,52(sp)
    92f6:	d23a                	sw	a4,36(sp)
    92f8:	3fe020ef          	jal	ra,b6f6 <__ulp>
    92fc:	862a                	mv	a2,a0
    92fe:	86ae                	mv	a3,a1
    9300:	856e                	mv	a0,s11
    9302:	85ea                	mv	a1,s10
    9304:	bb6fc0ef          	jal	ra,56ba <__muldf3>
    9308:	4652                	lw	a2,20(sp)
    930a:	46e2                	lw	a3,24(sp)
    930c:	e1cfb0ef          	jal	ra,4928 <__adddf3>
    9310:	84aa                	mv	s1,a0
    9312:	842e                	mv	s0,a1
    9314:	57d2                	lw	a5,52(sp)
    9316:	5712                	lw	a4,36(sp)
    9318:	bf11                	j	922c <_strtod_l+0xb4e>
    931a:	00005797          	auipc	a5,0x5
    931e:	98e78793          	addi	a5,a5,-1650 # dca8 <__clz_tab+0x180>
    9322:	4390                	lw	a2,0(a5)
    9324:	43d4                	lw	a3,4(a5)
    9326:	1ac030ef          	jal	ra,c4d2 <__ledf2>
    932a:	e40559e3          	bgez	a0,917c <_strtod_l+0xa9e>
    932e:	ba19                	j	8c44 <_strtod_l+0x566>
    9330:	06500713          	li	a4,101
    9334:	00e78763          	beq	a5,a4,9342 <_strtod_l+0xc64>
    9338:	04500713          	li	a4,69
    933c:	4505                	li	a0,1
    933e:	eee79963          	bne	a5,a4,8a30 <_strtod_l+0x352>
    9342:	4b01                	li	s6,0
    9344:	4505                	li	a0,1
    9346:	d84ff06f          	j	88ca <_strtod_l+0x1ec>

0000934a <_strtod_r>:
    934a:	81018793          	addi	a5,gp,-2032 # 20000238 <_impure_ptr>
    934e:	439c                	lw	a5,0(a5)
    9350:	5394                	lw	a3,32(a5)
    9352:	e689                	bnez	a3,935c <_strtod_r+0x12>
    9354:	1fff7697          	auipc	a3,0x1fff7
    9358:	d6468693          	addi	a3,a3,-668 # 200000b8 <__global_locale>
    935c:	b82ff06f          	j	86de <_strtod_l>

00009360 <_strtol_l.isra.0>:
    9360:	7179                	addi	sp,sp,-48
    9362:	d04a                	sw	s2,32(sp)
    9364:	ce4e                	sw	s3,28(sp)
    9366:	d606                	sw	ra,44(sp)
    9368:	d422                	sw	s0,40(sp)
    936a:	d226                	sw	s1,36(sp)
    936c:	89aa                	mv	s3,a0
    936e:	892e                	mv	s2,a1
    9370:	00190493          	addi	s1,s2,1
    9374:	fff4c403          	lbu	s0,-1(s1)
    9378:	853a                	mv	a0,a4
    937a:	c636                	sw	a3,12(sp)
    937c:	c432                	sw	a2,8(sp)
    937e:	c22e                	sw	a1,4(sp)
    9380:	c03a                	sw	a4,0(sp)
    9382:	343010ef          	jal	ra,aec4 <__locale_ctype_ptr_l>
    9386:	9522                	add	a0,a0,s0
    9388:	311c                	lbu	a5,1(a0)
    938a:	4702                	lw	a4,0(sp)
    938c:	4592                	lw	a1,4(sp)
    938e:	8ba1                	andi	a5,a5,8
    9390:	4622                	lw	a2,8(sp)
    9392:	46b2                	lw	a3,12(sp)
    9394:	e3d1                	bnez	a5,9418 <_strtol_l.isra.0+0xb8>
    9396:	02d00793          	li	a5,45
    939a:	08f41163          	bne	s0,a5,941c <_strtol_l.isra.0+0xbc>
    939e:	209c                	lbu	a5,0(s1)
    93a0:	4305                	li	t1,1
    93a2:	00290493          	addi	s1,s2,2
    93a6:	c6e5                	beqz	a3,948e <_strtol_l.isra.0+0x12e>
    93a8:	4741                	li	a4,16
    93aa:	02e69063          	bne	a3,a4,93ca <_strtol_l.isra.0+0x6a>
    93ae:	03000713          	li	a4,48
    93b2:	00e79c63          	bne	a5,a4,93ca <_strtol_l.isra.0+0x6a>
    93b6:	209c                	lbu	a5,0(s1)
    93b8:	05800713          	li	a4,88
    93bc:	0df7f793          	andi	a5,a5,223
    93c0:	0ce79263          	bne	a5,a4,9484 <_strtol_l.isra.0+0x124>
    93c4:	309c                	lbu	a5,1(s1)
    93c6:	46c1                	li	a3,16
    93c8:	0489                	addi	s1,s1,2
    93ca:	800008b7          	lui	a7,0x80000
    93ce:	00031463          	bnez	t1,93d6 <_strtol_l.isra.0+0x76>
    93d2:	fff8c893          	not	a7,a7
    93d6:	02d8ff33          	remu	t5,a7,a3
    93da:	4801                	li	a6,0
    93dc:	4501                	li	a0,0
    93de:	4fa5                	li	t6,9
    93e0:	4ee5                	li	t4,25
    93e2:	52fd                	li	t0,-1
    93e4:	02d8de33          	divu	t3,a7,a3
    93e8:	fd078713          	addi	a4,a5,-48
    93ec:	04efe363          	bltu	t6,a4,9432 <_strtol_l.isra.0+0xd2>
    93f0:	87ba                	mv	a5,a4
    93f2:	04d7de63          	bge	a5,a3,944e <_strtol_l.isra.0+0xee>
    93f6:	00580d63          	beq	a6,t0,9410 <_strtol_l.isra.0+0xb0>
    93fa:	587d                	li	a6,-1
    93fc:	00ae6a63          	bltu	t3,a0,9410 <_strtol_l.isra.0+0xb0>
    9400:	00ae1463          	bne	t3,a0,9408 <_strtol_l.isra.0+0xa8>
    9404:	00ff4663          	blt	t5,a5,9410 <_strtol_l.isra.0+0xb0>
    9408:	4805                	li	a6,1
    940a:	02a68533          	mul	a0,a3,a0
    940e:	953e                	add	a0,a0,a5
    9410:	0485                	addi	s1,s1,1
    9412:	fff4c783          	lbu	a5,-1(s1)
    9416:	bfc9                	j	93e8 <_strtol_l.isra.0+0x88>
    9418:	8926                	mv	s2,s1
    941a:	bf99                	j	9370 <_strtol_l.isra.0+0x10>
    941c:	02b00793          	li	a5,43
    9420:	00f40563          	beq	s0,a5,942a <_strtol_l.isra.0+0xca>
    9424:	87a2                	mv	a5,s0
    9426:	4301                	li	t1,0
    9428:	bfbd                	j	93a6 <_strtol_l.isra.0+0x46>
    942a:	209c                	lbu	a5,0(s1)
    942c:	00290493          	addi	s1,s2,2
    9430:	bfdd                	j	9426 <_strtol_l.isra.0+0xc6>
    9432:	fbf78713          	addi	a4,a5,-65
    9436:	00eee563          	bltu	t4,a4,9440 <_strtol_l.isra.0+0xe0>
    943a:	fc978793          	addi	a5,a5,-55
    943e:	bf55                	j	93f2 <_strtol_l.isra.0+0x92>
    9440:	f9f78713          	addi	a4,a5,-97
    9444:	00eee563          	bltu	t4,a4,944e <_strtol_l.isra.0+0xee>
    9448:	fa978793          	addi	a5,a5,-87
    944c:	b75d                	j	93f2 <_strtol_l.isra.0+0x92>
    944e:	57fd                	li	a5,-1
    9450:	00f81f63          	bne	a6,a5,946e <_strtol_l.isra.0+0x10e>
    9454:	02200793          	li	a5,34
    9458:	00f9a023          	sw	a5,0(s3)
    945c:	8546                	mv	a0,a7
    945e:	ee19                	bnez	a2,947c <_strtol_l.isra.0+0x11c>
    9460:	50b2                	lw	ra,44(sp)
    9462:	5422                	lw	s0,40(sp)
    9464:	5492                	lw	s1,36(sp)
    9466:	5902                	lw	s2,32(sp)
    9468:	49f2                	lw	s3,28(sp)
    946a:	6145                	addi	sp,sp,48
    946c:	8082                	ret
    946e:	00030463          	beqz	t1,9476 <_strtol_l.isra.0+0x116>
    9472:	40a00533          	neg	a0,a0
    9476:	d66d                	beqz	a2,9460 <_strtol_l.isra.0+0x100>
    9478:	00080463          	beqz	a6,9480 <_strtol_l.isra.0+0x120>
    947c:	fff48593          	addi	a1,s1,-1
    9480:	c20c                	sw	a1,0(a2)
    9482:	bff9                	j	9460 <_strtol_l.isra.0+0x100>
    9484:	03000793          	li	a5,48
    9488:	f2a9                	bnez	a3,93ca <_strtol_l.isra.0+0x6a>
    948a:	46a1                	li	a3,8
    948c:	bf3d                	j	93ca <_strtol_l.isra.0+0x6a>
    948e:	03000713          	li	a4,48
    9492:	f2e782e3          	beq	a5,a4,93b6 <_strtol_l.isra.0+0x56>
    9496:	46a9                	li	a3,10
    9498:	bf0d                	j	93ca <_strtol_l.isra.0+0x6a>

0000949a <_strtol_r>:
    949a:	81018793          	addi	a5,gp,-2032 # 20000238 <_impure_ptr>
    949e:	439c                	lw	a5,0(a5)
    94a0:	5398                	lw	a4,32(a5)
    94a2:	e709                	bnez	a4,94ac <_strtol_r+0x12>
    94a4:	1fff7717          	auipc	a4,0x1fff7
    94a8:	c1470713          	addi	a4,a4,-1004 # 200000b8 <__global_locale>
    94ac:	eb5ff06f          	j	9360 <_strtol_l.isra.0>

000094b0 <__swbuf_r>:
    94b0:	1101                	addi	sp,sp,-32
    94b2:	cc22                	sw	s0,24(sp)
    94b4:	ca26                	sw	s1,20(sp)
    94b6:	c84a                	sw	s2,16(sp)
    94b8:	ce06                	sw	ra,28(sp)
    94ba:	c64e                	sw	s3,12(sp)
    94bc:	84aa                	mv	s1,a0
    94be:	892e                	mv	s2,a1
    94c0:	8432                	mv	s0,a2
    94c2:	c509                	beqz	a0,94cc <__swbuf_r+0x1c>
    94c4:	4d1c                	lw	a5,24(a0)
    94c6:	e399                	bnez	a5,94cc <__swbuf_r+0x1c>
    94c8:	14c010ef          	jal	ra,a614 <__sinit>
    94cc:	00005797          	auipc	a5,0x5
    94d0:	8a478793          	addi	a5,a5,-1884 # dd70 <__sf_fake_stdin>
    94d4:	06f41963          	bne	s0,a5,9546 <__swbuf_r+0x96>
    94d8:	40c0                	lw	s0,4(s1)
    94da:	4c1c                	lw	a5,24(s0)
    94dc:	c41c                	sw	a5,8(s0)
    94de:	245e                	lhu	a5,12(s0)
    94e0:	8ba1                	andi	a5,a5,8
    94e2:	c3d1                	beqz	a5,9566 <__swbuf_r+0xb6>
    94e4:	481c                	lw	a5,16(s0)
    94e6:	c3c1                	beqz	a5,9566 <__swbuf_r+0xb6>
    94e8:	481c                	lw	a5,16(s0)
    94ea:	4008                	lw	a0,0(s0)
    94ec:	0ff97993          	andi	s3,s2,255
    94f0:	0ff97913          	andi	s2,s2,255
    94f4:	8d1d                	sub	a0,a0,a5
    94f6:	485c                	lw	a5,20(s0)
    94f8:	00f54763          	blt	a0,a5,9506 <__swbuf_r+0x56>
    94fc:	85a2                	mv	a1,s0
    94fe:	8526                	mv	a0,s1
    9500:	7f7000ef          	jal	ra,a4f6 <_fflush_r>
    9504:	e52d                	bnez	a0,956e <__swbuf_r+0xbe>
    9506:	441c                	lw	a5,8(s0)
    9508:	0505                	addi	a0,a0,1
    950a:	17fd                	addi	a5,a5,-1
    950c:	c41c                	sw	a5,8(s0)
    950e:	401c                	lw	a5,0(s0)
    9510:	00178713          	addi	a4,a5,1
    9514:	c018                	sw	a4,0(s0)
    9516:	01378023          	sb	s3,0(a5)
    951a:	485c                	lw	a5,20(s0)
    951c:	00a78863          	beq	a5,a0,952c <__swbuf_r+0x7c>
    9520:	245e                	lhu	a5,12(s0)
    9522:	8b85                	andi	a5,a5,1
    9524:	cb89                	beqz	a5,9536 <__swbuf_r+0x86>
    9526:	47a9                	li	a5,10
    9528:	00f91763          	bne	s2,a5,9536 <__swbuf_r+0x86>
    952c:	85a2                	mv	a1,s0
    952e:	8526                	mv	a0,s1
    9530:	7c7000ef          	jal	ra,a4f6 <_fflush_r>
    9534:	ed0d                	bnez	a0,956e <__swbuf_r+0xbe>
    9536:	40f2                	lw	ra,28(sp)
    9538:	4462                	lw	s0,24(sp)
    953a:	854a                	mv	a0,s2
    953c:	44d2                	lw	s1,20(sp)
    953e:	4942                	lw	s2,16(sp)
    9540:	49b2                	lw	s3,12(sp)
    9542:	6105                	addi	sp,sp,32
    9544:	8082                	ret
    9546:	00005797          	auipc	a5,0x5
    954a:	84a78793          	addi	a5,a5,-1974 # dd90 <__sf_fake_stdout>
    954e:	00f41463          	bne	s0,a5,9556 <__swbuf_r+0xa6>
    9552:	4480                	lw	s0,8(s1)
    9554:	b759                	j	94da <__swbuf_r+0x2a>
    9556:	00004797          	auipc	a5,0x4
    955a:	7fa78793          	addi	a5,a5,2042 # dd50 <__sf_fake_stderr>
    955e:	f6f41ee3          	bne	s0,a5,94da <__swbuf_r+0x2a>
    9562:	44c0                	lw	s0,12(s1)
    9564:	bf9d                	j	94da <__swbuf_r+0x2a>
    9566:	85a2                	mv	a1,s0
    9568:	8526                	mv	a0,s1
    956a:	2021                	jal	9572 <__swsetup_r>
    956c:	dd35                	beqz	a0,94e8 <__swbuf_r+0x38>
    956e:	597d                	li	s2,-1
    9570:	b7d9                	j	9536 <__swbuf_r+0x86>

00009572 <__swsetup_r>:
    9572:	1141                	addi	sp,sp,-16
    9574:	81018793          	addi	a5,gp,-2032 # 20000238 <_impure_ptr>
    9578:	c226                	sw	s1,4(sp)
    957a:	4384                	lw	s1,0(a5)
    957c:	c422                	sw	s0,8(sp)
    957e:	c04a                	sw	s2,0(sp)
    9580:	c606                	sw	ra,12(sp)
    9582:	892a                	mv	s2,a0
    9584:	842e                	mv	s0,a1
    9586:	c491                	beqz	s1,9592 <__swsetup_r+0x20>
    9588:	4c9c                	lw	a5,24(s1)
    958a:	e781                	bnez	a5,9592 <__swsetup_r+0x20>
    958c:	8526                	mv	a0,s1
    958e:	086010ef          	jal	ra,a614 <__sinit>
    9592:	00004797          	auipc	a5,0x4
    9596:	7de78793          	addi	a5,a5,2014 # dd70 <__sf_fake_stdin>
    959a:	02f41b63          	bne	s0,a5,95d0 <__swsetup_r+0x5e>
    959e:	40c0                	lw	s0,4(s1)
    95a0:	00c41703          	lh	a4,12(s0) # 350000c <_data_lma+0x34f2038>
    95a4:	01071793          	slli	a5,a4,0x10
    95a8:	83c1                	srli	a5,a5,0x10
    95aa:	0087f693          	andi	a3,a5,8
    95ae:	eab5                	bnez	a3,9622 <__swsetup_r+0xb0>
    95b0:	0107f693          	andi	a3,a5,16
    95b4:	ee95                	bnez	a3,95f0 <__swsetup_r+0x7e>
    95b6:	47a5                	li	a5,9
    95b8:	00f92023          	sw	a5,0(s2)
    95bc:	04076713          	ori	a4,a4,64
    95c0:	a45a                	sh	a4,12(s0)
    95c2:	557d                	li	a0,-1
    95c4:	40b2                	lw	ra,12(sp)
    95c6:	4422                	lw	s0,8(sp)
    95c8:	4492                	lw	s1,4(sp)
    95ca:	4902                	lw	s2,0(sp)
    95cc:	0141                	addi	sp,sp,16
    95ce:	8082                	ret
    95d0:	00004797          	auipc	a5,0x4
    95d4:	7c078793          	addi	a5,a5,1984 # dd90 <__sf_fake_stdout>
    95d8:	00f41463          	bne	s0,a5,95e0 <__swsetup_r+0x6e>
    95dc:	4480                	lw	s0,8(s1)
    95de:	b7c9                	j	95a0 <__swsetup_r+0x2e>
    95e0:	00004797          	auipc	a5,0x4
    95e4:	77078793          	addi	a5,a5,1904 # dd50 <__sf_fake_stderr>
    95e8:	faf41ce3          	bne	s0,a5,95a0 <__swsetup_r+0x2e>
    95ec:	44c0                	lw	s0,12(s1)
    95ee:	bf4d                	j	95a0 <__swsetup_r+0x2e>
    95f0:	8b91                	andi	a5,a5,4
    95f2:	c785                	beqz	a5,961a <__swsetup_r+0xa8>
    95f4:	584c                	lw	a1,52(s0)
    95f6:	c991                	beqz	a1,960a <__swsetup_r+0x98>
    95f8:	04440793          	addi	a5,s0,68
    95fc:	00f58563          	beq	a1,a5,9606 <__swsetup_r+0x94>
    9600:	854a                	mv	a0,s2
    9602:	3d8020ef          	jal	ra,b9da <_free_r>
    9606:	02042a23          	sw	zero,52(s0)
    960a:	245e                	lhu	a5,12(s0)
    960c:	00042223          	sw	zero,4(s0)
    9610:	fdb7f793          	andi	a5,a5,-37
    9614:	a45e                	sh	a5,12(s0)
    9616:	481c                	lw	a5,16(s0)
    9618:	c01c                	sw	a5,0(s0)
    961a:	245e                	lhu	a5,12(s0)
    961c:	0087e793          	ori	a5,a5,8
    9620:	a45e                	sh	a5,12(s0)
    9622:	481c                	lw	a5,16(s0)
    9624:	ef81                	bnez	a5,963c <__swsetup_r+0xca>
    9626:	245e                	lhu	a5,12(s0)
    9628:	20000713          	li	a4,512
    962c:	2807f793          	andi	a5,a5,640
    9630:	00e78663          	beq	a5,a4,963c <__swsetup_r+0xca>
    9634:	85a2                	mv	a1,s0
    9636:	854a                	mv	a0,s2
    9638:	109010ef          	jal	ra,af40 <__smakebuf_r>
    963c:	245e                	lhu	a5,12(s0)
    963e:	0017f713          	andi	a4,a5,1
    9642:	c31d                	beqz	a4,9668 <__swsetup_r+0xf6>
    9644:	485c                	lw	a5,20(s0)
    9646:	00042423          	sw	zero,8(s0)
    964a:	40f007b3          	neg	a5,a5
    964e:	cc1c                	sw	a5,24(s0)
    9650:	481c                	lw	a5,16(s0)
    9652:	4501                	li	a0,0
    9654:	fba5                	bnez	a5,95c4 <__swsetup_r+0x52>
    9656:	00c41783          	lh	a5,12(s0)
    965a:	0807f713          	andi	a4,a5,128
    965e:	d33d                	beqz	a4,95c4 <__swsetup_r+0x52>
    9660:	0407e793          	ori	a5,a5,64
    9664:	a45e                	sh	a5,12(s0)
    9666:	bfb1                	j	95c2 <__swsetup_r+0x50>
    9668:	8b89                	andi	a5,a5,2
    966a:	4701                	li	a4,0
    966c:	e391                	bnez	a5,9670 <__swsetup_r+0xfe>
    966e:	4858                	lw	a4,20(s0)
    9670:	c418                	sw	a4,8(s0)
    9672:	bff9                	j	9650 <__swsetup_r+0xde>

00009674 <quorem>:
    9674:	1101                	addi	sp,sp,-32
    9676:	cc22                	sw	s0,24(sp)
    9678:	491c                	lw	a5,16(a0)
    967a:	4980                	lw	s0,16(a1)
    967c:	ce06                	sw	ra,28(sp)
    967e:	ca26                	sw	s1,20(sp)
    9680:	c84a                	sw	s2,16(sp)
    9682:	c64e                	sw	s3,12(sp)
    9684:	c452                	sw	s4,8(sp)
    9686:	c256                	sw	s5,4(sp)
    9688:	1287c163          	blt	a5,s0,97aa <quorem+0x136>
    968c:	147d                	addi	s0,s0,-1
    968e:	00241813          	slli	a6,s0,0x2
    9692:	01458993          	addi	s3,a1,20 # 6b00014 <_data_lma+0x6af2040>
    9696:	01098a33          	add	s4,s3,a6
    969a:	01450913          	addi	s2,a0,20
    969e:	984a                	add	a6,a6,s2
    96a0:	000a2783          	lw	a5,0(s4)
    96a4:	00082703          	lw	a4,0(a6)
    96a8:	0785                	addi	a5,a5,1
    96aa:	02f754b3          	divu	s1,a4,a5
    96ae:	06f76663          	bltu	a4,a5,971a <quorem+0xa6>
    96b2:	68c1                	lui	a7,0x10
    96b4:	834e                	mv	t1,s3
    96b6:	8e4a                	mv	t3,s2
    96b8:	4e81                	li	t4,0
    96ba:	4f01                	li	t5,0
    96bc:	18fd                	addi	a7,a7,-1
    96be:	0311                	addi	t1,t1,4
    96c0:	ffc32603          	lw	a2,-4(t1)
    96c4:	0e11                	addi	t3,t3,4
    96c6:	01167733          	and	a4,a2,a7
    96ca:	8241                	srli	a2,a2,0x10
    96cc:	02970733          	mul	a4,a4,s1
    96d0:	02960633          	mul	a2,a2,s1
    96d4:	9776                	add	a4,a4,t4
    96d6:	01075693          	srli	a3,a4,0x10
    96da:	011777b3          	and	a5,a4,a7
    96de:	40ff07b3          	sub	a5,t5,a5
    96e2:	9636                	add	a2,a2,a3
    96e4:	ffce2683          	lw	a3,-4(t3)
    96e8:	01065e93          	srli	t4,a2,0x10
    96ec:	01167633          	and	a2,a2,a7
    96f0:	0116f733          	and	a4,a3,a7
    96f4:	97ba                	add	a5,a5,a4
    96f6:	82c1                	srli	a3,a3,0x10
    96f8:	4107d713          	srai	a4,a5,0x10
    96fc:	8e91                	sub	a3,a3,a2
    96fe:	96ba                	add	a3,a3,a4
    9700:	4106df13          	srai	t5,a3,0x10
    9704:	0117f7b3          	and	a5,a5,a7
    9708:	06c2                	slli	a3,a3,0x10
    970a:	8fd5                	or	a5,a5,a3
    970c:	fefe2e23          	sw	a5,-4(t3)
    9710:	fa6a77e3          	bgeu	s4,t1,96be <quorem+0x4a>
    9714:	00082783          	lw	a5,0(a6)
    9718:	cbbd                	beqz	a5,978e <quorem+0x11a>
    971a:	8aaa                	mv	s5,a0
    971c:	6b7010ef          	jal	ra,b5d2 <__mcmp>
    9720:	04054963          	bltz	a0,9772 <quorem+0xfe>
    9724:	6641                	lui	a2,0x10
    9726:	0485                	addi	s1,s1,1
    9728:	85ca                	mv	a1,s2
    972a:	4501                	li	a0,0
    972c:	167d                	addi	a2,a2,-1
    972e:	0991                	addi	s3,s3,4
    9730:	ffc9a803          	lw	a6,-4(s3)
    9734:	4198                	lw	a4,0(a1)
    9736:	0591                	addi	a1,a1,4
    9738:	00c876b3          	and	a3,a6,a2
    973c:	8d15                	sub	a0,a0,a3
    973e:	00c776b3          	and	a3,a4,a2
    9742:	96aa                	add	a3,a3,a0
    9744:	01075793          	srli	a5,a4,0x10
    9748:	01085813          	srli	a6,a6,0x10
    974c:	4106d713          	srai	a4,a3,0x10
    9750:	410787b3          	sub	a5,a5,a6
    9754:	97ba                	add	a5,a5,a4
    9756:	4107d513          	srai	a0,a5,0x10
    975a:	8ef1                	and	a3,a3,a2
    975c:	07c2                	slli	a5,a5,0x10
    975e:	8fd5                	or	a5,a5,a3
    9760:	fef5ae23          	sw	a5,-4(a1)
    9764:	fd3a75e3          	bgeu	s4,s3,972e <quorem+0xba>
    9768:	00241793          	slli	a5,s0,0x2
    976c:	97ca                	add	a5,a5,s2
    976e:	4398                	lw	a4,0(a5)
    9770:	c71d                	beqz	a4,979e <quorem+0x12a>
    9772:	8526                	mv	a0,s1
    9774:	40f2                	lw	ra,28(sp)
    9776:	4462                	lw	s0,24(sp)
    9778:	44d2                	lw	s1,20(sp)
    977a:	4942                	lw	s2,16(sp)
    977c:	49b2                	lw	s3,12(sp)
    977e:	4a22                	lw	s4,8(sp)
    9780:	4a92                	lw	s5,4(sp)
    9782:	6105                	addi	sp,sp,32
    9784:	8082                	ret
    9786:	00082783          	lw	a5,0(a6)
    978a:	e789                	bnez	a5,9794 <quorem+0x120>
    978c:	147d                	addi	s0,s0,-1
    978e:	1871                	addi	a6,a6,-4
    9790:	ff096be3          	bltu	s2,a6,9786 <quorem+0x112>
    9794:	c900                	sw	s0,16(a0)
    9796:	b751                	j	971a <quorem+0xa6>
    9798:	4398                	lw	a4,0(a5)
    979a:	e709                	bnez	a4,97a4 <quorem+0x130>
    979c:	147d                	addi	s0,s0,-1
    979e:	17f1                	addi	a5,a5,-4
    97a0:	fef96ce3          	bltu	s2,a5,9798 <quorem+0x124>
    97a4:	008aa823          	sw	s0,16(s5)
    97a8:	b7e9                	j	9772 <quorem+0xfe>
    97aa:	4501                	li	a0,0
    97ac:	b7e1                	j	9774 <quorem+0x100>

000097ae <_dtoa_r>:
    97ae:	7175                	addi	sp,sp,-144
    97b0:	d83e                	sw	a5,48(sp)
    97b2:	515c                	lw	a5,36(a0)
    97b4:	c522                	sw	s0,136(sp)
    97b6:	c326                	sw	s1,132(sp)
    97b8:	c14a                	sw	s2,128(sp)
    97ba:	dece                	sw	s3,124(sp)
    97bc:	dcd2                	sw	s4,120(sp)
    97be:	d4e2                	sw	s8,104(sp)
    97c0:	c706                	sw	ra,140(sp)
    97c2:	dad6                	sw	s5,116(sp)
    97c4:	d8da                	sw	s6,112(sp)
    97c6:	d6de                	sw	s7,108(sp)
    97c8:	d2e6                	sw	s9,100(sp)
    97ca:	d0ea                	sw	s10,96(sp)
    97cc:	ceee                	sw	s11,92(sp)
    97ce:	c236                	sw	a3,4(sp)
    97d0:	c63a                	sw	a4,12(sp)
    97d2:	ca46                	sw	a7,20(sp)
    97d4:	84aa                	mv	s1,a0
    97d6:	842e                	mv	s0,a1
    97d8:	8932                	mv	s2,a2
    97da:	89c2                	mv	s3,a6
    97dc:	8a2e                	mv	s4,a1
    97de:	8c32                	mv	s8,a2
    97e0:	ef89                	bnez	a5,97fa <_dtoa_r+0x4c>
    97e2:	4541                	li	a0,16
    97e4:	7f0010ef          	jal	ra,afd4 <malloc>
    97e8:	d0c8                	sw	a0,36(s1)
    97ea:	00052223          	sw	zero,4(a0)
    97ee:	00052423          	sw	zero,8(a0)
    97f2:	00052023          	sw	zero,0(a0)
    97f6:	00052623          	sw	zero,12(a0)
    97fa:	50dc                	lw	a5,36(s1)
    97fc:	438c                	lw	a1,0(a5)
    97fe:	cd89                	beqz	a1,9818 <_dtoa_r+0x6a>
    9800:	43d8                	lw	a4,4(a5)
    9802:	4785                	li	a5,1
    9804:	8526                	mv	a0,s1
    9806:	00e797b3          	sll	a5,a5,a4
    980a:	c59c                	sw	a5,8(a1)
    980c:	c1d8                	sw	a4,4(a1)
    980e:	0a9010ef          	jal	ra,b0b6 <_Bfree>
    9812:	50dc                	lw	a5,36(s1)
    9814:	0007a023          	sw	zero,0(a5)
    9818:	04095363          	bgez	s2,985e <_dtoa_r+0xb0>
    981c:	4785                	li	a5,1
    981e:	00191c13          	slli	s8,s2,0x1
    9822:	00f9a023          	sw	a5,0(s3)
    9826:	001c5c13          	srli	s8,s8,0x1
    982a:	7ff007b7          	lui	a5,0x7ff00
    982e:	00fc7733          	and	a4,s8,a5
    9832:	06f71463          	bne	a4,a5,989a <_dtoa_r+0xec>
    9836:	5742                	lw	a4,48(sp)
    9838:	6789                	lui	a5,0x2
    983a:	0c32                	slli	s8,s8,0xc
    983c:	70f78793          	addi	a5,a5,1807 # 270f <mpu_set_dmp_state+0x47>
    9840:	00cc5c13          	srli	s8,s8,0xc
    9844:	c31c                	sw	a5,0(a4)
    9846:	008c6c33          	or	s8,s8,s0
    984a:	320c00e3          	beqz	s8,a36a <_dtoa_r+0xbbc>
    984e:	47d2                	lw	a5,20(sp)
    9850:	eb91                	bnez	a5,9864 <_dtoa_r+0xb6>
    9852:	00004797          	auipc	a5,0x4
    9856:	4fa78793          	addi	a5,a5,1274 # dd4c <tinytens+0x64>
    985a:	c03e                	sw	a5,0(sp)
    985c:	a839                	j	987a <_dtoa_r+0xcc>
    985e:	0009a023          	sw	zero,0(s3)
    9862:	b7e1                	j	982a <_dtoa_r+0x7c>
    9864:	00004797          	auipc	a5,0x4
    9868:	4e878793          	addi	a5,a5,1256 # dd4c <tinytens+0x64>
    986c:	c03e                	sw	a5,0(sp)
    986e:	00004797          	auipc	a5,0x4
    9872:	4e178793          	addi	a5,a5,1249 # dd4f <tinytens+0x67>
    9876:	4752                	lw	a4,20(sp)
    9878:	c31c                	sw	a5,0(a4)
    987a:	40ba                	lw	ra,140(sp)
    987c:	442a                	lw	s0,136(sp)
    987e:	4502                	lw	a0,0(sp)
    9880:	449a                	lw	s1,132(sp)
    9882:	490a                	lw	s2,128(sp)
    9884:	59f6                	lw	s3,124(sp)
    9886:	5a66                	lw	s4,120(sp)
    9888:	5ad6                	lw	s5,116(sp)
    988a:	5b46                	lw	s6,112(sp)
    988c:	5bb6                	lw	s7,108(sp)
    988e:	5c26                	lw	s8,104(sp)
    9890:	5c96                	lw	s9,100(sp)
    9892:	5d06                	lw	s10,96(sp)
    9894:	4df6                	lw	s11,92(sp)
    9896:	6149                	addi	sp,sp,144
    9898:	8082                	ret
    989a:	4601                	li	a2,0
    989c:	4681                	li	a3,0
    989e:	8522                	mv	a0,s0
    98a0:	85e2                	mv	a1,s8
    98a2:	ce22                	sw	s0,28(sp)
    98a4:	d462                	sw	s8,40(sp)
    98a6:	3c3020ef          	jal	ra,c468 <__eqdf2>
    98aa:	e105                	bnez	a0,98ca <_dtoa_r+0x11c>
    98ac:	5742                	lw	a4,48(sp)
    98ae:	4785                	li	a5,1
    98b0:	c31c                	sw	a5,0(a4)
    98b2:	00004797          	auipc	a5,0x4
    98b6:	38e78793          	addi	a5,a5,910 # dc40 <__clz_tab+0x118>
    98ba:	c03e                	sw	a5,0(sp)
    98bc:	47d2                	lw	a5,20(sp)
    98be:	dfd5                	beqz	a5,987a <_dtoa_r+0xcc>
    98c0:	00004797          	auipc	a5,0x4
    98c4:	38178793          	addi	a5,a5,897 # dc41 <__clz_tab+0x119>
    98c8:	b77d                	j	9876 <_dtoa_r+0xc8>
    98ca:	00b8                	addi	a4,sp,72
    98cc:	00f4                	addi	a3,sp,76
    98ce:	8662                	mv	a2,s8
    98d0:	85a2                	mv	a1,s0
    98d2:	8526                	mv	a0,s1
    98d4:	014c5913          	srli	s2,s8,0x14
    98d8:	719010ef          	jal	ra,b7f0 <__d2b>
    98dc:	7ff97913          	andi	s2,s2,2047
    98e0:	89aa                	mv	s3,a0
    98e2:	4aa6                	lw	s5,72(sp)
    98e4:	10090d63          	beqz	s2,99fe <_dtoa_r+0x250>
    98e8:	57a2                	lw	a5,40(sp)
    98ea:	4572                	lw	a0,28(sp)
    98ec:	c0190913          	addi	s2,s2,-1023
    98f0:	00c79593          	slli	a1,a5,0xc
    98f4:	81b1                	srli	a1,a1,0xc
    98f6:	3ff007b7          	lui	a5,0x3ff00
    98fa:	8ddd                	or	a1,a1,a5
    98fc:	dc02                	sw	zero,56(sp)
    98fe:	00004797          	auipc	a5,0x4
    9902:	03a78793          	addi	a5,a5,58 # d938 <test+0x100>
    9906:	4390                	lw	a2,0(a5)
    9908:	43d4                	lw	a3,4(a5)
    990a:	a68fc0ef          	jal	ra,5b72 <__subdf3>
    990e:	00004797          	auipc	a5,0x4
    9912:	40278793          	addi	a5,a5,1026 # dd10 <tinytens+0x28>
    9916:	4390                	lw	a2,0(a5)
    9918:	43d4                	lw	a3,4(a5)
    991a:	da1fb0ef          	jal	ra,56ba <__muldf3>
    991e:	00004797          	auipc	a5,0x4
    9922:	3fa78793          	addi	a5,a5,1018 # dd18 <tinytens+0x30>
    9926:	4390                	lw	a2,0(a5)
    9928:	43d4                	lw	a3,4(a5)
    992a:	ffffa0ef          	jal	ra,4928 <__adddf3>
    992e:	8b2a                	mv	s6,a0
    9930:	854a                	mv	a0,s2
    9932:	8bae                	mv	s7,a1
    9934:	9b9fc0ef          	jal	ra,62ec <__floatsidf>
    9938:	00004797          	auipc	a5,0x4
    993c:	3e878793          	addi	a5,a5,1000 # dd20 <tinytens+0x38>
    9940:	4390                	lw	a2,0(a5)
    9942:	43d4                	lw	a3,4(a5)
    9944:	d77fb0ef          	jal	ra,56ba <__muldf3>
    9948:	862a                	mv	a2,a0
    994a:	86ae                	mv	a3,a1
    994c:	855a                	mv	a0,s6
    994e:	85de                	mv	a1,s7
    9950:	fd9fa0ef          	jal	ra,4928 <__adddf3>
    9954:	8b2a                	mv	s6,a0
    9956:	8bae                	mv	s7,a1
    9958:	431020ef          	jal	ra,c588 <__fixdfsi>
    995c:	842a                	mv	s0,a0
    995e:	4601                	li	a2,0
    9960:	4681                	li	a3,0
    9962:	855a                	mv	a0,s6
    9964:	85de                	mv	a1,s7
    9966:	36d020ef          	jal	ra,c4d2 <__ledf2>
    996a:	00055b63          	bgez	a0,9980 <_dtoa_r+0x1d2>
    996e:	8522                	mv	a0,s0
    9970:	97dfc0ef          	jal	ra,62ec <__floatsidf>
    9974:	865a                	mv	a2,s6
    9976:	86de                	mv	a3,s7
    9978:	2f1020ef          	jal	ra,c468 <__eqdf2>
    997c:	c111                	beqz	a0,9980 <_dtoa_r+0x1d2>
    997e:	147d                	addi	s0,s0,-1
    9980:	4705                	li	a4,1
    9982:	47d9                	li	a5,22
    9984:	d63a                	sw	a4,44(sp)
    9986:	0287e363          	bltu	a5,s0,99ac <_dtoa_r+0x1fe>
    998a:	00341713          	slli	a4,s0,0x3
    998e:	00004797          	auipc	a5,0x4
    9992:	45a78793          	addi	a5,a5,1114 # dde8 <__mprec_tens>
    9996:	97ba                	add	a5,a5,a4
    9998:	4390                	lw	a2,0(a5)
    999a:	43d4                	lw	a3,4(a5)
    999c:	4572                	lw	a0,28(sp)
    999e:	55a2                	lw	a1,40(sp)
    99a0:	333020ef          	jal	ra,c4d2 <__ledf2>
    99a4:	00055363          	bgez	a0,99aa <_dtoa_r+0x1fc>
    99a8:	147d                	addi	s0,s0,-1
    99aa:	d602                	sw	zero,44(sp)
    99ac:	412a8933          	sub	s2,s5,s2
    99b0:	fff90b93          	addi	s7,s2,-1
    99b4:	4b01                	li	s6,0
    99b6:	000bd663          	bgez	s7,99c2 <_dtoa_r+0x214>
    99ba:	4b05                	li	s6,1
    99bc:	412b0b33          	sub	s6,s6,s2
    99c0:	4b81                	li	s7,0
    99c2:	06044e63          	bltz	s0,9a3e <_dtoa_r+0x290>
    99c6:	9ba2                	add	s7,s7,s0
    99c8:	cc22                	sw	s0,24(sp)
    99ca:	4a81                	li	s5,0
    99cc:	4712                	lw	a4,4(sp)
    99ce:	47a5                	li	a5,9
    99d0:	14e7e563          	bltu	a5,a4,9b1a <_dtoa_r+0x36c>
    99d4:	4795                	li	a5,5
    99d6:	4c85                	li	s9,1
    99d8:	00e7d663          	bge	a5,a4,99e4 <_dtoa_r+0x236>
    99dc:	ffc70793          	addi	a5,a4,-4
    99e0:	c23e                	sw	a5,4(sp)
    99e2:	4c81                	li	s9,0
    99e4:	4712                	lw	a4,4(sp)
    99e6:	478d                	li	a5,3
    99e8:	10f70e63          	beq	a4,a5,9b04 <_dtoa_r+0x356>
    99ec:	04e7cf63          	blt	a5,a4,9a4a <_dtoa_r+0x29c>
    99f0:	4789                	li	a5,2
    99f2:	c802                	sw	zero,16(sp)
    99f4:	06f70d63          	beq	a4,a5,9a6e <_dtoa_r+0x2c0>
    99f8:	4785                	li	a5,1
    99fa:	c83e                	sw	a5,16(sp)
    99fc:	a08d                	j	9a5e <_dtoa_r+0x2b0>
    99fe:	4936                	lw	s2,76(sp)
    9a00:	02000793          	li	a5,32
    9a04:	9956                	add	s2,s2,s5
    9a06:	43290713          	addi	a4,s2,1074
    9a0a:	02e7d563          	bge	a5,a4,9a34 <_dtoa_r+0x286>
    9a0e:	04000513          	li	a0,64
    9a12:	8d19                	sub	a0,a0,a4
    9a14:	41290793          	addi	a5,s2,1042
    9a18:	00ac1533          	sll	a0,s8,a0
    9a1c:	00f45433          	srl	s0,s0,a5
    9a20:	8d41                	or	a0,a0,s0
    9a22:	42b020ef          	jal	ra,c64c <__floatunsidf>
    9a26:	fe1007b7          	lui	a5,0xfe100
    9a2a:	95be                	add	a1,a1,a5
    9a2c:	4785                	li	a5,1
    9a2e:	197d                	addi	s2,s2,-1
    9a30:	dc3e                	sw	a5,56(sp)
    9a32:	b5f1                	j	98fe <_dtoa_r+0x150>
    9a34:	40e78533          	sub	a0,a5,a4
    9a38:	00a41533          	sll	a0,s0,a0
    9a3c:	b7dd                	j	9a22 <_dtoa_r+0x274>
    9a3e:	408b0b33          	sub	s6,s6,s0
    9a42:	40800ab3          	neg	s5,s0
    9a46:	cc02                	sw	zero,24(sp)
    9a48:	b751                	j	99cc <_dtoa_r+0x21e>
    9a4a:	4712                	lw	a4,4(sp)
    9a4c:	4791                	li	a5,4
    9a4e:	00f70e63          	beq	a4,a5,9a6a <_dtoa_r+0x2bc>
    9a52:	4705                	li	a4,1
    9a54:	c83a                	sw	a4,16(sp)
    9a56:	4712                	lw	a4,4(sp)
    9a58:	4795                	li	a5,5
    9a5a:	0af70663          	beq	a4,a5,9b06 <_dtoa_r+0x358>
    9a5e:	57fd                	li	a5,-1
    9a60:	c43e                	sw	a5,8(sp)
    9a62:	5dfd                	li	s11,-1
    9a64:	47c9                	li	a5,18
    9a66:	c602                	sw	zero,12(sp)
    9a68:	a819                	j	9a7e <_dtoa_r+0x2d0>
    9a6a:	4785                	li	a5,1
    9a6c:	c83e                	sw	a5,16(sp)
    9a6e:	47b2                	lw	a5,12(sp)
    9a70:	0af04863          	bgtz	a5,9b20 <_dtoa_r+0x372>
    9a74:	4785                	li	a5,1
    9a76:	4705                	li	a4,1
    9a78:	c43e                	sw	a5,8(sp)
    9a7a:	4d85                	li	s11,1
    9a7c:	c63a                	sw	a4,12(sp)
    9a7e:	0244a903          	lw	s2,36(s1)
    9a82:	4711                	li	a4,4
    9a84:	00092223          	sw	zero,4(s2)
    9a88:	01470693          	addi	a3,a4,20
    9a8c:	00492583          	lw	a1,4(s2)
    9a90:	08d7fc63          	bgeu	a5,a3,9b28 <_dtoa_r+0x37a>
    9a94:	8526                	mv	a0,s1
    9a96:	594010ef          	jal	ra,b02a <_Balloc>
    9a9a:	50dc                	lw	a5,36(s1)
    9a9c:	00a92023          	sw	a0,0(s2)
    9aa0:	439c                	lw	a5,0(a5)
    9aa2:	c03e                	sw	a5,0(sp)
    9aa4:	47b9                	li	a5,14
    9aa6:	1db7e663          	bltu	a5,s11,9c72 <_dtoa_r+0x4c4>
    9aaa:	1c0c8463          	beqz	s9,9c72 <_dtoa_r+0x4c4>
    9aae:	0a805e63          	blez	s0,9b6a <_dtoa_r+0x3bc>
    9ab2:	00f47793          	andi	a5,s0,15
    9ab6:	00379713          	slli	a4,a5,0x3
    9aba:	40445c93          	srai	s9,s0,0x4
    9abe:	00004797          	auipc	a5,0x4
    9ac2:	32a78793          	addi	a5,a5,810 # dde8 <__mprec_tens>
    9ac6:	97ba                	add	a5,a5,a4
    9ac8:	010cf693          	andi	a3,s9,16
    9acc:	4398                	lw	a4,0(a5)
    9ace:	4909                	li	s2,2
    9ad0:	43dc                	lw	a5,4(a5)
    9ad2:	c685                	beqz	a3,9afa <_dtoa_r+0x34c>
    9ad4:	00004697          	auipc	a3,0x4
    9ad8:	2ec68693          	addi	a3,a3,748 # ddc0 <__mprec_bigtens>
    9adc:	5290                	lw	a2,32(a3)
    9ade:	4572                	lw	a0,28(sp)
    9ae0:	52d4                	lw	a3,36(a3)
    9ae2:	55a2                	lw	a1,40(sp)
    9ae4:	d03a                	sw	a4,32(sp)
    9ae6:	d23e                	sw	a5,36(sp)
    9ae8:	d70fb0ef          	jal	ra,5058 <__divdf3>
    9aec:	5702                	lw	a4,32(sp)
    9aee:	5792                	lw	a5,36(sp)
    9af0:	00fcfc93          	andi	s9,s9,15
    9af4:	8a2a                	mv	s4,a0
    9af6:	8c2e                	mv	s8,a1
    9af8:	490d                	li	s2,3
    9afa:	00004d17          	auipc	s10,0x4
    9afe:	2c6d0d13          	addi	s10,s10,710 # ddc0 <__mprec_bigtens>
    9b02:	a889                	j	9b54 <_dtoa_r+0x3a6>
    9b04:	c802                	sw	zero,16(sp)
    9b06:	47b2                	lw	a5,12(sp)
    9b08:	97a2                	add	a5,a5,s0
    9b0a:	c43e                	sw	a5,8(sp)
    9b0c:	00178d93          	addi	s11,a5,1
    9b10:	87ee                	mv	a5,s11
    9b12:	f7b046e3          	bgtz	s11,9a7e <_dtoa_r+0x2d0>
    9b16:	4785                	li	a5,1
    9b18:	b79d                	j	9a7e <_dtoa_r+0x2d0>
    9b1a:	4c85                	li	s9,1
    9b1c:	c202                	sw	zero,4(sp)
    9b1e:	bde9                	j	99f8 <_dtoa_r+0x24a>
    9b20:	47b2                	lw	a5,12(sp)
    9b22:	c43e                	sw	a5,8(sp)
    9b24:	8dbe                	mv	s11,a5
    9b26:	bfa1                	j	9a7e <_dtoa_r+0x2d0>
    9b28:	0585                	addi	a1,a1,1
    9b2a:	00b92223          	sw	a1,4(s2)
    9b2e:	0706                	slli	a4,a4,0x1
    9b30:	bfa1                	j	9a88 <_dtoa_r+0x2da>
    9b32:	001cf693          	andi	a3,s9,1
    9b36:	ce81                	beqz	a3,9b4e <_dtoa_r+0x3a0>
    9b38:	000d2603          	lw	a2,0(s10)
    9b3c:	004d2683          	lw	a3,4(s10)
    9b40:	853a                	mv	a0,a4
    9b42:	85be                	mv	a1,a5
    9b44:	b77fb0ef          	jal	ra,56ba <__muldf3>
    9b48:	0905                	addi	s2,s2,1
    9b4a:	872a                	mv	a4,a0
    9b4c:	87ae                	mv	a5,a1
    9b4e:	401cdc93          	srai	s9,s9,0x1
    9b52:	0d21                	addi	s10,s10,8
    9b54:	fc0c9fe3          	bnez	s9,9b32 <_dtoa_r+0x384>
    9b58:	863a                	mv	a2,a4
    9b5a:	86be                	mv	a3,a5
    9b5c:	8552                	mv	a0,s4
    9b5e:	85e2                	mv	a1,s8
    9b60:	cf8fb0ef          	jal	ra,5058 <__divdf3>
    9b64:	8a2a                	mv	s4,a0
    9b66:	8c2e                	mv	s8,a1
    9b68:	a081                	j	9ba8 <_dtoa_r+0x3fa>
    9b6a:	4909                	li	s2,2
    9b6c:	cc15                	beqz	s0,9ba8 <_dtoa_r+0x3fa>
    9b6e:	40800cb3          	neg	s9,s0
    9b72:	00fcf793          	andi	a5,s9,15
    9b76:	00379713          	slli	a4,a5,0x3
    9b7a:	00004797          	auipc	a5,0x4
    9b7e:	26e78793          	addi	a5,a5,622 # dde8 <__mprec_tens>
    9b82:	97ba                	add	a5,a5,a4
    9b84:	4390                	lw	a2,0(a5)
    9b86:	43d4                	lw	a3,4(a5)
    9b88:	4572                	lw	a0,28(sp)
    9b8a:	55a2                	lw	a1,40(sp)
    9b8c:	404cdc93          	srai	s9,s9,0x4
    9b90:	00004d17          	auipc	s10,0x4
    9b94:	230d0d13          	addi	s10,s10,560 # ddc0 <__mprec_bigtens>
    9b98:	b23fb0ef          	jal	ra,56ba <__muldf3>
    9b9c:	8a2a                	mv	s4,a0
    9b9e:	8c2e                	mv	s8,a1
    9ba0:	4781                	li	a5,0
    9ba2:	120c9b63          	bnez	s9,9cd8 <_dtoa_r+0x52a>
    9ba6:	ffdd                	bnez	a5,9b64 <_dtoa_r+0x3b6>
    9ba8:	57b2                	lw	a5,44(sp)
    9baa:	14078663          	beqz	a5,9cf6 <_dtoa_r+0x548>
    9bae:	00004717          	auipc	a4,0x4
    9bb2:	cba70713          	addi	a4,a4,-838 # d868 <test+0x30>
    9bb6:	4310                	lw	a2,0(a4)
    9bb8:	4354                	lw	a3,4(a4)
    9bba:	8552                	mv	a0,s4
    9bbc:	85e2                	mv	a1,s8
    9bbe:	d052                	sw	s4,32(sp)
    9bc0:	113020ef          	jal	ra,c4d2 <__ledf2>
    9bc4:	12055963          	bgez	a0,9cf6 <_dtoa_r+0x548>
    9bc8:	120d8a63          	beqz	s11,9cfc <_dtoa_r+0x54e>
    9bcc:	47a2                	lw	a5,8(sp)
    9bce:	0af05063          	blez	a5,9c6e <_dtoa_r+0x4c0>
    9bd2:	00004717          	auipc	a4,0x4
    9bd6:	15670713          	addi	a4,a4,342 # dd28 <tinytens+0x40>
    9bda:	5782                	lw	a5,32(sp)
    9bdc:	4310                	lw	a2,0(a4)
    9bde:	4354                	lw	a3,4(a4)
    9be0:	853e                	mv	a0,a5
    9be2:	85e2                	mv	a1,s8
    9be4:	ad7fb0ef          	jal	ra,56ba <__muldf3>
    9be8:	47a2                	lw	a5,8(sp)
    9bea:	fff40d13          	addi	s10,s0,-1
    9bee:	8a2a                	mv	s4,a0
    9bf0:	8c2e                	mv	s8,a1
    9bf2:	0905                	addi	s2,s2,1
    9bf4:	8762                	mv	a4,s8
    9bf6:	854a                	mv	a0,s2
    9bf8:	de3e                	sw	a5,60(sp)
    9bfa:	da52                	sw	s4,52(sp)
    9bfc:	8cba                	mv	s9,a4
    9bfe:	d03a                	sw	a4,32(sp)
    9c00:	eecfc0ef          	jal	ra,62ec <__floatsidf>
    9c04:	5852                	lw	a6,52(sp)
    9c06:	5702                	lw	a4,32(sp)
    9c08:	fcc00937          	lui	s2,0xfcc00
    9c0c:	8642                	mv	a2,a6
    9c0e:	86ba                	mv	a3,a4
    9c10:	aabfb0ef          	jal	ra,56ba <__muldf3>
    9c14:	00004697          	auipc	a3,0x4
    9c18:	11c68693          	addi	a3,a3,284 # dd30 <tinytens+0x48>
    9c1c:	4290                	lw	a2,0(a3)
    9c1e:	42d4                	lw	a3,4(a3)
    9c20:	8c52                	mv	s8,s4
    9c22:	d07fa0ef          	jal	ra,4928 <__adddf3>
    9c26:	57f2                	lw	a5,60(sp)
    9c28:	8a2a                	mv	s4,a0
    9c2a:	992e                	add	s2,s2,a1
    9c2c:	ebf9                	bnez	a5,9d02 <_dtoa_r+0x554>
    9c2e:	00004797          	auipc	a5,0x4
    9c32:	10a78793          	addi	a5,a5,266 # dd38 <tinytens+0x50>
    9c36:	5852                	lw	a6,52(sp)
    9c38:	5702                	lw	a4,32(sp)
    9c3a:	4390                	lw	a2,0(a5)
    9c3c:	43d4                	lw	a3,4(a5)
    9c3e:	8542                	mv	a0,a6
    9c40:	85ba                	mv	a1,a4
    9c42:	f31fb0ef          	jal	ra,5b72 <__subdf3>
    9c46:	8652                	mv	a2,s4
    9c48:	86ca                	mv	a3,s2
    9c4a:	8c2a                	mv	s8,a0
    9c4c:	8cae                	mv	s9,a1
    9c4e:	9bffb0ef          	jal	ra,560c <__gedf2>
    9c52:	54a04663          	bgtz	a0,a19e <_dtoa_r+0x9f0>
    9c56:	800007b7          	lui	a5,0x80000
    9c5a:	0127c7b3          	xor	a5,a5,s2
    9c5e:	8652                	mv	a2,s4
    9c60:	86be                	mv	a3,a5
    9c62:	8562                	mv	a0,s8
    9c64:	85e6                	mv	a1,s9
    9c66:	06d020ef          	jal	ra,c4d2 <__ledf2>
    9c6a:	52054763          	bltz	a0,a198 <_dtoa_r+0x9ea>
    9c6e:	4a72                	lw	s4,28(sp)
    9c70:	5c22                	lw	s8,40(sp)
    9c72:	47b6                	lw	a5,76(sp)
    9c74:	3007c363          	bltz	a5,9f7a <_dtoa_r+0x7cc>
    9c78:	4739                	li	a4,14
    9c7a:	30874063          	blt	a4,s0,9f7a <_dtoa_r+0x7cc>
    9c7e:	00341713          	slli	a4,s0,0x3
    9c82:	00004797          	auipc	a5,0x4
    9c86:	16678793          	addi	a5,a5,358 # dde8 <__mprec_tens>
    9c8a:	97ba                	add	a5,a5,a4
    9c8c:	0007ab03          	lw	s6,0(a5)
    9c90:	0047ab83          	lw	s7,4(a5)
    9c94:	47b2                	lw	a5,12(sp)
    9c96:	2007d163          	bgez	a5,9e98 <_dtoa_r+0x6ea>
    9c9a:	1fb04f63          	bgtz	s11,9e98 <_dtoa_r+0x6ea>
    9c9e:	4e0d9d63          	bnez	s11,a198 <_dtoa_r+0x9ea>
    9ca2:	00004797          	auipc	a5,0x4
    9ca6:	09678793          	addi	a5,a5,150 # dd38 <tinytens+0x50>
    9caa:	4390                	lw	a2,0(a5)
    9cac:	43d4                	lw	a3,4(a5)
    9cae:	855a                	mv	a0,s6
    9cb0:	85de                	mv	a1,s7
    9cb2:	a09fb0ef          	jal	ra,56ba <__muldf3>
    9cb6:	8652                	mv	a2,s4
    9cb8:	86e2                	mv	a3,s8
    9cba:	953fb0ef          	jal	ra,560c <__gedf2>
    9cbe:	4a81                	li	s5,0
    9cc0:	4901                	li	s2,0
    9cc2:	4a055363          	bgez	a0,a168 <_dtoa_r+0x9ba>
    9cc6:	4782                	lw	a5,0(sp)
    9cc8:	4702                	lw	a4,0(sp)
    9cca:	0405                	addi	s0,s0,1
    9ccc:	00178a13          	addi	s4,a5,1
    9cd0:	03100793          	li	a5,49
    9cd4:	a31c                	sb	a5,0(a4)
    9cd6:	a969                	j	a170 <_dtoa_r+0x9c2>
    9cd8:	001cf713          	andi	a4,s9,1
    9cdc:	cb09                	beqz	a4,9cee <_dtoa_r+0x540>
    9cde:	000d2603          	lw	a2,0(s10)
    9ce2:	004d2683          	lw	a3,4(s10)
    9ce6:	0905                	addi	s2,s2,1
    9ce8:	9d3fb0ef          	jal	ra,56ba <__muldf3>
    9cec:	4785                	li	a5,1
    9cee:	401cdc93          	srai	s9,s9,0x1
    9cf2:	0d21                	addi	s10,s10,8
    9cf4:	b57d                	j	9ba2 <_dtoa_r+0x3f4>
    9cf6:	8d22                	mv	s10,s0
    9cf8:	87ee                	mv	a5,s11
    9cfa:	bded                	j	9bf4 <_dtoa_r+0x446>
    9cfc:	8d22                	mv	s10,s0
    9cfe:	4781                	li	a5,0
    9d00:	bdd5                	j	9bf4 <_dtoa_r+0x446>
    9d02:	fff78693          	addi	a3,a5,-1
    9d06:	00369613          	slli	a2,a3,0x3
    9d0a:	00004697          	auipc	a3,0x4
    9d0e:	0de68693          	addi	a3,a3,222 # dde8 <__mprec_tens>
    9d12:	96b2                	add	a3,a3,a2
    9d14:	4288                	lw	a0,0(a3)
    9d16:	42cc                	lw	a1,4(a3)
    9d18:	4682                	lw	a3,0(sp)
    9d1a:	97b6                	add	a5,a5,a3
    9d1c:	da3e                	sw	a5,52(sp)
    9d1e:	47c2                	lw	a5,16(sp)
    9d20:	c3e9                	beqz	a5,9de2 <_dtoa_r+0x634>
    9d22:	00004797          	auipc	a5,0x4
    9d26:	bbe78793          	addi	a5,a5,-1090 # d8e0 <test+0xa8>
    9d2a:	862a                	mv	a2,a0
    9d2c:	86ae                	mv	a3,a1
    9d2e:	4388                	lw	a0,0(a5)
    9d30:	43cc                	lw	a1,4(a5)
    9d32:	de4a                	sw	s2,60(sp)
    9d34:	d052                	sw	s4,32(sp)
    9d36:	b22fb0ef          	jal	ra,5058 <__divdf3>
    9d3a:	5802                	lw	a6,32(sp)
    9d3c:	5772                	lw	a4,60(sp)
    9d3e:	00004917          	auipc	s2,0x4
    9d42:	fea90913          	addi	s2,s2,-22 # dd28 <tinytens+0x40>
    9d46:	8642                	mv	a2,a6
    9d48:	86ba                	mv	a3,a4
    9d4a:	e29fb0ef          	jal	ra,5b72 <__subdf3>
    9d4e:	4a02                	lw	s4,0(sp)
    9d50:	d02a                	sw	a0,32(sp)
    9d52:	d22e                	sw	a1,36(sp)
    9d54:	85e6                	mv	a1,s9
    9d56:	8562                	mv	a0,s8
    9d58:	031020ef          	jal	ra,c588 <__fixdfsi>
    9d5c:	de2a                	sw	a0,60(sp)
    9d5e:	d8efc0ef          	jal	ra,62ec <__floatsidf>
    9d62:	862a                	mv	a2,a0
    9d64:	86ae                	mv	a3,a1
    9d66:	8562                	mv	a0,s8
    9d68:	85e6                	mv	a1,s9
    9d6a:	e09fb0ef          	jal	ra,5b72 <__subdf3>
    9d6e:	57f2                	lw	a5,60(sp)
    9d70:	8c2a                	mv	s8,a0
    9d72:	8cae                	mv	s9,a1
    9d74:	862a                	mv	a2,a0
    9d76:	86ae                	mv	a3,a1
    9d78:	5502                	lw	a0,32(sp)
    9d7a:	5592                	lw	a1,36(sp)
    9d7c:	0a05                	addi	s4,s4,1
    9d7e:	03078793          	addi	a5,a5,48
    9d82:	fefa0fa3          	sb	a5,-1(s4)
    9d86:	887fb0ef          	jal	ra,560c <__gedf2>
    9d8a:	0ea04863          	bgtz	a0,9e7a <_dtoa_r+0x6cc>
    9d8e:	00004797          	auipc	a5,0x4
    9d92:	ada78793          	addi	a5,a5,-1318 # d868 <test+0x30>
    9d96:	4388                	lw	a0,0(a5)
    9d98:	43cc                	lw	a1,4(a5)
    9d9a:	8662                	mv	a2,s8
    9d9c:	86e6                	mv	a3,s9
    9d9e:	dd5fb0ef          	jal	ra,5b72 <__subdf3>
    9da2:	862a                	mv	a2,a0
    9da4:	86ae                	mv	a3,a1
    9da6:	5502                	lw	a0,32(sp)
    9da8:	5592                	lw	a1,36(sp)
    9daa:	863fb0ef          	jal	ra,560c <__gedf2>
    9dae:	18a04263          	bgtz	a0,9f32 <_dtoa_r+0x784>
    9db2:	57d2                	lw	a5,52(sp)
    9db4:	eafa0de3          	beq	s4,a5,9c6e <_dtoa_r+0x4c0>
    9db8:	00092603          	lw	a2,0(s2)
    9dbc:	00492683          	lw	a3,4(s2)
    9dc0:	5502                	lw	a0,32(sp)
    9dc2:	5592                	lw	a1,36(sp)
    9dc4:	8f7fb0ef          	jal	ra,56ba <__muldf3>
    9dc8:	00092603          	lw	a2,0(s2)
    9dcc:	00492683          	lw	a3,4(s2)
    9dd0:	d02a                	sw	a0,32(sp)
    9dd2:	d22e                	sw	a1,36(sp)
    9dd4:	8562                	mv	a0,s8
    9dd6:	85e6                	mv	a1,s9
    9dd8:	8e3fb0ef          	jal	ra,56ba <__muldf3>
    9ddc:	8c2a                	mv	s8,a0
    9dde:	8cae                	mv	s9,a1
    9de0:	bf95                	j	9d54 <_dtoa_r+0x5a6>
    9de2:	8652                	mv	a2,s4
    9de4:	86ca                	mv	a3,s2
    9de6:	8d5fb0ef          	jal	ra,56ba <__muldf3>
    9dea:	5a52                	lw	s4,52(sp)
    9dec:	4902                	lw	s2,0(sp)
    9dee:	d02a                	sw	a0,32(sp)
    9df0:	d22e                	sw	a1,36(sp)
    9df2:	85e6                	mv	a1,s9
    9df4:	8562                	mv	a0,s8
    9df6:	792020ef          	jal	ra,c588 <__fixdfsi>
    9dfa:	de2a                	sw	a0,60(sp)
    9dfc:	cf0fc0ef          	jal	ra,62ec <__floatsidf>
    9e00:	862a                	mv	a2,a0
    9e02:	86ae                	mv	a3,a1
    9e04:	8562                	mv	a0,s8
    9e06:	85e6                	mv	a1,s9
    9e08:	d6bfb0ef          	jal	ra,5b72 <__subdf3>
    9e0c:	5772                	lw	a4,60(sp)
    9e0e:	57d2                	lw	a5,52(sp)
    9e10:	0905                	addi	s2,s2,1
    9e12:	03070713          	addi	a4,a4,48
    9e16:	fee90fa3          	sb	a4,-1(s2)
    9e1a:	8c2a                	mv	s8,a0
    9e1c:	8cae                	mv	s9,a1
    9e1e:	06f91263          	bne	s2,a5,9e82 <_dtoa_r+0x6d4>
    9e22:	00004917          	auipc	s2,0x4
    9e26:	abe90913          	addi	s2,s2,-1346 # d8e0 <test+0xa8>
    9e2a:	00092603          	lw	a2,0(s2)
    9e2e:	00492683          	lw	a3,4(s2)
    9e32:	5502                	lw	a0,32(sp)
    9e34:	5592                	lw	a1,36(sp)
    9e36:	af3fa0ef          	jal	ra,4928 <__adddf3>
    9e3a:	862a                	mv	a2,a0
    9e3c:	86ae                	mv	a3,a1
    9e3e:	8562                	mv	a0,s8
    9e40:	85e6                	mv	a1,s9
    9e42:	fcafb0ef          	jal	ra,560c <__gedf2>
    9e46:	0ea04663          	bgtz	a0,9f32 <_dtoa_r+0x784>
    9e4a:	5602                	lw	a2,32(sp)
    9e4c:	5692                	lw	a3,36(sp)
    9e4e:	00092503          	lw	a0,0(s2)
    9e52:	00492583          	lw	a1,4(s2)
    9e56:	d1dfb0ef          	jal	ra,5b72 <__subdf3>
    9e5a:	862a                	mv	a2,a0
    9e5c:	86ae                	mv	a3,a1
    9e5e:	8562                	mv	a0,s8
    9e60:	85e6                	mv	a1,s9
    9e62:	670020ef          	jal	ra,c4d2 <__ledf2>
    9e66:	03000793          	li	a5,48
    9e6a:	e00552e3          	bgez	a0,9c6e <_dtoa_r+0x4c0>
    9e6e:	fffa4703          	lbu	a4,-1(s4)
    9e72:	fffa0693          	addi	a3,s4,-1
    9e76:	00f70463          	beq	a4,a5,9e7e <_dtoa_r+0x6d0>
    9e7a:	846a                	mv	s0,s10
    9e7c:	a859                	j	9f12 <_dtoa_r+0x764>
    9e7e:	8a36                	mv	s4,a3
    9e80:	b7fd                	j	9e6e <_dtoa_r+0x6c0>
    9e82:	00004797          	auipc	a5,0x4
    9e86:	ea678793          	addi	a5,a5,-346 # dd28 <tinytens+0x40>
    9e8a:	4390                	lw	a2,0(a5)
    9e8c:	43d4                	lw	a3,4(a5)
    9e8e:	82dfb0ef          	jal	ra,56ba <__muldf3>
    9e92:	8c2a                	mv	s8,a0
    9e94:	8cae                	mv	s9,a1
    9e96:	bfb1                	j	9df2 <_dtoa_r+0x644>
    9e98:	87e2                	mv	a5,s8
    9e9a:	8cbe                	mv	s9,a5
    9e9c:	4782                	lw	a5,0(sp)
    9e9e:	8c52                	mv	s8,s4
    9ea0:	00004a97          	auipc	s5,0x4
    9ea4:	e88a8a93          	addi	s5,s5,-376 # dd28 <tinytens+0x40>
    9ea8:	00178913          	addi	s2,a5,1
    9eac:	9dbe                	add	s11,s11,a5
    9eae:	865a                	mv	a2,s6
    9eb0:	86de                	mv	a3,s7
    9eb2:	8562                	mv	a0,s8
    9eb4:	85e6                	mv	a1,s9
    9eb6:	9a2fb0ef          	jal	ra,5058 <__divdf3>
    9eba:	6ce020ef          	jal	ra,c588 <__fixdfsi>
    9ebe:	8d2a                	mv	s10,a0
    9ec0:	c2cfc0ef          	jal	ra,62ec <__floatsidf>
    9ec4:	865a                	mv	a2,s6
    9ec6:	86de                	mv	a3,s7
    9ec8:	ff2fb0ef          	jal	ra,56ba <__muldf3>
    9ecc:	862a                	mv	a2,a0
    9ece:	86ae                	mv	a3,a1
    9ed0:	8562                	mv	a0,s8
    9ed2:	85e6                	mv	a1,s9
    9ed4:	c9ffb0ef          	jal	ra,5b72 <__subdf3>
    9ed8:	030d0793          	addi	a5,s10,48
    9edc:	fef90fa3          	sb	a5,-1(s2)
    9ee0:	862a                	mv	a2,a0
    9ee2:	86ae                	mv	a3,a1
    9ee4:	8a4a                	mv	s4,s2
    9ee6:	072d9b63          	bne	s11,s2,9f5c <_dtoa_r+0x7ae>
    9eea:	a3ffa0ef          	jal	ra,4928 <__adddf3>
    9eee:	865a                	mv	a2,s6
    9ef0:	86de                	mv	a3,s7
    9ef2:	8c2a                	mv	s8,a0
    9ef4:	8cae                	mv	s9,a1
    9ef6:	f16fb0ef          	jal	ra,560c <__gedf2>
    9efa:	02a04b63          	bgtz	a0,9f30 <_dtoa_r+0x782>
    9efe:	865a                	mv	a2,s6
    9f00:	86de                	mv	a3,s7
    9f02:	8562                	mv	a0,s8
    9f04:	85e6                	mv	a1,s9
    9f06:	562020ef          	jal	ra,c468 <__eqdf2>
    9f0a:	e501                	bnez	a0,9f12 <_dtoa_r+0x764>
    9f0c:	001d7793          	andi	a5,s10,1
    9f10:	e385                	bnez	a5,9f30 <_dtoa_r+0x782>
    9f12:	85ce                	mv	a1,s3
    9f14:	8526                	mv	a0,s1
    9f16:	1a0010ef          	jal	ra,b0b6 <_Bfree>
    9f1a:	57c2                	lw	a5,48(sp)
    9f1c:	000a0023          	sb	zero,0(s4)
    9f20:	0405                	addi	s0,s0,1
    9f22:	c380                	sw	s0,0(a5)
    9f24:	47d2                	lw	a5,20(sp)
    9f26:	94078ae3          	beqz	a5,987a <_dtoa_r+0xcc>
    9f2a:	0147a023          	sw	s4,0(a5)
    9f2e:	b2b1                	j	987a <_dtoa_r+0xcc>
    9f30:	8d22                	mv	s10,s0
    9f32:	03900713          	li	a4,57
    9f36:	fffa4683          	lbu	a3,-1(s4)
    9f3a:	fffa0793          	addi	a5,s4,-1
    9f3e:	00e69963          	bne	a3,a4,9f50 <_dtoa_r+0x7a2>
    9f42:	4682                	lw	a3,0(sp)
    9f44:	00f69a63          	bne	a3,a5,9f58 <_dtoa_r+0x7aa>
    9f48:	03000713          	li	a4,48
    9f4c:	0d05                	addi	s10,s10,1
    9f4e:	a298                	sb	a4,0(a3)
    9f50:	2398                	lbu	a4,0(a5)
    9f52:	0705                	addi	a4,a4,1
    9f54:	a398                	sb	a4,0(a5)
    9f56:	b715                	j	9e7a <_dtoa_r+0x6cc>
    9f58:	8a3e                	mv	s4,a5
    9f5a:	bff1                	j	9f36 <_dtoa_r+0x788>
    9f5c:	000aa603          	lw	a2,0(s5)
    9f60:	004aa683          	lw	a3,4(s5)
    9f64:	0905                	addi	s2,s2,1
    9f66:	f54fb0ef          	jal	ra,56ba <__muldf3>
    9f6a:	4601                	li	a2,0
    9f6c:	4681                	li	a3,0
    9f6e:	8c2a                	mv	s8,a0
    9f70:	8cae                	mv	s9,a1
    9f72:	4f6020ef          	jal	ra,c468 <__eqdf2>
    9f76:	fd05                	bnez	a0,9eae <_dtoa_r+0x700>
    9f78:	bf69                	j	9f12 <_dtoa_r+0x764>
    9f7a:	4742                	lw	a4,16(sp)
    9f7c:	10070063          	beqz	a4,a07c <_dtoa_r+0x8ce>
    9f80:	4692                	lw	a3,4(sp)
    9f82:	4705                	li	a4,1
    9f84:	0cd74563          	blt	a4,a3,a04e <_dtoa_r+0x8a0>
    9f88:	5762                	lw	a4,56(sp)
    9f8a:	43378793          	addi	a5,a5,1075
    9f8e:	e709                	bnez	a4,9f98 <_dtoa_r+0x7ea>
    9f90:	4726                	lw	a4,72(sp)
    9f92:	03600793          	li	a5,54
    9f96:	8f99                	sub	a5,a5,a4
    9f98:	8d56                	mv	s10,s5
    9f9a:	8cda                	mv	s9,s6
    9f9c:	4585                	li	a1,1
    9f9e:	8526                	mv	a0,s1
    9fa0:	9b3e                	add	s6,s6,a5
    9fa2:	9bbe                	add	s7,s7,a5
    9fa4:	342010ef          	jal	ra,b2e6 <__i2b>
    9fa8:	892a                	mv	s2,a0
    9faa:	01905e63          	blez	s9,9fc6 <_dtoa_r+0x818>
    9fae:	01705c63          	blez	s7,9fc6 <_dtoa_r+0x818>
    9fb2:	87e6                	mv	a5,s9
    9fb4:	019bd363          	bge	s7,s9,9fba <_dtoa_r+0x80c>
    9fb8:	87de                	mv	a5,s7
    9fba:	40fb0b33          	sub	s6,s6,a5
    9fbe:	40fc8cb3          	sub	s9,s9,a5
    9fc2:	40fb8bb3          	sub	s7,s7,a5
    9fc6:	040a8063          	beqz	s5,a006 <_dtoa_r+0x858>
    9fca:	47c2                	lw	a5,16(sp)
    9fcc:	cfc5                	beqz	a5,a084 <_dtoa_r+0x8d6>
    9fce:	03a05463          	blez	s10,9ff6 <_dtoa_r+0x848>
    9fd2:	85ca                	mv	a1,s2
    9fd4:	866a                	mv	a2,s10
    9fd6:	8526                	mv	a0,s1
    9fd8:	46e010ef          	jal	ra,b446 <__pow5mult>
    9fdc:	864e                	mv	a2,s3
    9fde:	85aa                	mv	a1,a0
    9fe0:	892a                	mv	s2,a0
    9fe2:	8526                	mv	a0,s1
    9fe4:	31e010ef          	jal	ra,b302 <__multiply>
    9fe8:	ce2a                	sw	a0,28(sp)
    9fea:	85ce                	mv	a1,s3
    9fec:	8526                	mv	a0,s1
    9fee:	0c8010ef          	jal	ra,b0b6 <_Bfree>
    9ff2:	47f2                	lw	a5,28(sp)
    9ff4:	89be                	mv	s3,a5
    9ff6:	41aa8633          	sub	a2,s5,s10
    9ffa:	c611                	beqz	a2,a006 <_dtoa_r+0x858>
    9ffc:	85ce                	mv	a1,s3
    9ffe:	8526                	mv	a0,s1
    a000:	446010ef          	jal	ra,b446 <__pow5mult>
    a004:	89aa                	mv	s3,a0
    a006:	4585                	li	a1,1
    a008:	8526                	mv	a0,s1
    a00a:	2dc010ef          	jal	ra,b2e6 <__i2b>
    a00e:	47e2                	lw	a5,24(sp)
    a010:	8aaa                	mv	s5,a0
    a012:	06f05b63          	blez	a5,a088 <_dtoa_r+0x8da>
    a016:	863e                	mv	a2,a5
    a018:	85aa                	mv	a1,a0
    a01a:	8526                	mv	a0,s1
    a01c:	42a010ef          	jal	ra,b446 <__pow5mult>
    a020:	4712                	lw	a4,4(sp)
    a022:	4785                	li	a5,1
    a024:	8aaa                	mv	s5,a0
    a026:	4d01                	li	s10,0
    a028:	06e7c863          	blt	a5,a4,a098 <_dtoa_r+0x8ea>
    a02c:	4d01                	li	s10,0
    a02e:	060a1263          	bnez	s4,a092 <_dtoa_r+0x8e4>
    a032:	00cc1793          	slli	a5,s8,0xc
    a036:	8d52                	mv	s10,s4
    a038:	efa9                	bnez	a5,a092 <_dtoa_r+0x8e4>
    a03a:	7ff005b7          	lui	a1,0x7ff00
    a03e:	00bc7c33          	and	s8,s8,a1
    a042:	040c0863          	beqz	s8,a092 <_dtoa_r+0x8e4>
    a046:	0b05                	addi	s6,s6,1
    a048:	0b85                	addi	s7,s7,1
    a04a:	4d05                	li	s10,1
    a04c:	a099                	j	a092 <_dtoa_r+0x8e4>
    a04e:	fffd8d13          	addi	s10,s11,-1
    a052:	01aaca63          	blt	s5,s10,a066 <_dtoa_r+0x8b8>
    a056:	41aa8d33          	sub	s10,s5,s10
    a05a:	000dde63          	bgez	s11,a076 <_dtoa_r+0x8c8>
    a05e:	41bb0cb3          	sub	s9,s6,s11
    a062:	4781                	li	a5,0
    a064:	bf25                	j	9f9c <_dtoa_r+0x7ee>
    a066:	47e2                	lw	a5,24(sp)
    a068:	415d0ab3          	sub	s5,s10,s5
    a06c:	97d6                	add	a5,a5,s5
    a06e:	cc3e                	sw	a5,24(sp)
    a070:	8aea                	mv	s5,s10
    a072:	4d01                	li	s10,0
    a074:	b7dd                	j	a05a <_dtoa_r+0x8ac>
    a076:	8cda                	mv	s9,s6
    a078:	87ee                	mv	a5,s11
    a07a:	b70d                	j	9f9c <_dtoa_r+0x7ee>
    a07c:	8d56                	mv	s10,s5
    a07e:	8cda                	mv	s9,s6
    a080:	4901                	li	s2,0
    a082:	b725                	j	9faa <_dtoa_r+0x7fc>
    a084:	8656                	mv	a2,s5
    a086:	bf9d                	j	9ffc <_dtoa_r+0x84e>
    a088:	4712                	lw	a4,4(sp)
    a08a:	4785                	li	a5,1
    a08c:	4d01                	li	s10,0
    a08e:	f8e7dfe3          	bge	a5,a4,a02c <_dtoa_r+0x87e>
    a092:	47e2                	lw	a5,24(sp)
    a094:	4505                	li	a0,1
    a096:	cf89                	beqz	a5,a0b0 <_dtoa_r+0x902>
    a098:	010aa783          	lw	a5,16(s5)
    a09c:	078d                	addi	a5,a5,3
    a09e:	078a                	slli	a5,a5,0x2
    a0a0:	97d6                	add	a5,a5,s5
    a0a2:	43c8                	lw	a0,4(a5)
    a0a4:	192010ef          	jal	ra,b236 <__hi0bits>
    a0a8:	02000793          	li	a5,32
    a0ac:	40a78533          	sub	a0,a5,a0
    a0b0:	955e                	add	a0,a0,s7
    a0b2:	897d                	andi	a0,a0,31
    a0b4:	c151                	beqz	a0,a138 <_dtoa_r+0x98a>
    a0b6:	02000793          	li	a5,32
    a0ba:	8f89                	sub	a5,a5,a0
    a0bc:	4711                	li	a4,4
    a0be:	06f75a63          	bge	a4,a5,a132 <_dtoa_r+0x984>
    a0c2:	47f1                	li	a5,28
    a0c4:	40a78533          	sub	a0,a5,a0
    a0c8:	9b2a                	add	s6,s6,a0
    a0ca:	9caa                	add	s9,s9,a0
    a0cc:	9baa                	add	s7,s7,a0
    a0ce:	01605863          	blez	s6,a0de <_dtoa_r+0x930>
    a0d2:	85ce                	mv	a1,s3
    a0d4:	865a                	mv	a2,s6
    a0d6:	8526                	mv	a0,s1
    a0d8:	42c010ef          	jal	ra,b504 <__lshift>
    a0dc:	89aa                	mv	s3,a0
    a0de:	01705863          	blez	s7,a0ee <_dtoa_r+0x940>
    a0e2:	85d6                	mv	a1,s5
    a0e4:	865e                	mv	a2,s7
    a0e6:	8526                	mv	a0,s1
    a0e8:	41c010ef          	jal	ra,b504 <__lshift>
    a0ec:	8aaa                	mv	s5,a0
    a0ee:	57b2                	lw	a5,44(sp)
    a0f0:	c7b1                	beqz	a5,a13c <_dtoa_r+0x98e>
    a0f2:	85d6                	mv	a1,s5
    a0f4:	854e                	mv	a0,s3
    a0f6:	4dc010ef          	jal	ra,b5d2 <__mcmp>
    a0fa:	04055163          	bgez	a0,a13c <_dtoa_r+0x98e>
    a0fe:	85ce                	mv	a1,s3
    a100:	4681                	li	a3,0
    a102:	4629                	li	a2,10
    a104:	8526                	mv	a0,s1
    a106:	7f5000ef          	jal	ra,b0fa <__multadd>
    a10a:	47c2                	lw	a5,16(sp)
    a10c:	147d                	addi	s0,s0,-1
    a10e:	89aa                	mv	s3,a0
    a110:	26078b63          	beqz	a5,a386 <_dtoa_r+0xbd8>
    a114:	85ca                	mv	a1,s2
    a116:	4681                	li	a3,0
    a118:	4629                	li	a2,10
    a11a:	8526                	mv	a0,s1
    a11c:	7df000ef          	jal	ra,b0fa <__multadd>
    a120:	47a2                	lw	a5,8(sp)
    a122:	892a                	mv	s2,a0
    a124:	08f04563          	bgtz	a5,a1ae <_dtoa_r+0xa00>
    a128:	4712                	lw	a4,4(sp)
    a12a:	4789                	li	a5,2
    a12c:	08e7d163          	bge	a5,a4,a1ae <_dtoa_r+0xa00>
    a130:	a829                	j	a14a <_dtoa_r+0x99c>
    a132:	f8e78ee3          	beq	a5,a4,a0ce <_dtoa_r+0x920>
    a136:	853e                	mv	a0,a5
    a138:	0571                	addi	a0,a0,28
    a13a:	b779                	j	a0c8 <_dtoa_r+0x91a>
    a13c:	07b04563          	bgtz	s11,a1a6 <_dtoa_r+0x9f8>
    a140:	4712                	lw	a4,4(sp)
    a142:	4789                	li	a5,2
    a144:	06e7d163          	bge	a5,a4,a1a6 <_dtoa_r+0x9f8>
    a148:	c46e                	sw	s11,8(sp)
    a14a:	47a2                	lw	a5,8(sp)
    a14c:	ef91                	bnez	a5,a168 <_dtoa_r+0x9ba>
    a14e:	85d6                	mv	a1,s5
    a150:	4681                	li	a3,0
    a152:	4615                	li	a2,5
    a154:	8526                	mv	a0,s1
    a156:	7a5000ef          	jal	ra,b0fa <__multadd>
    a15a:	8aaa                	mv	s5,a0
    a15c:	85aa                	mv	a1,a0
    a15e:	854e                	mv	a0,s3
    a160:	472010ef          	jal	ra,b5d2 <__mcmp>
    a164:	b6a041e3          	bgtz	a0,9cc6 <_dtoa_r+0x518>
    a168:	47b2                	lw	a5,12(sp)
    a16a:	4a02                	lw	s4,0(sp)
    a16c:	fff7c413          	not	s0,a5
    a170:	4b01                	li	s6,0
    a172:	85d6                	mv	a1,s5
    a174:	8526                	mv	a0,s1
    a176:	741000ef          	jal	ra,b0b6 <_Bfree>
    a17a:	d8090ce3          	beqz	s2,9f12 <_dtoa_r+0x764>
    a17e:	000b0863          	beqz	s6,a18e <_dtoa_r+0x9e0>
    a182:	012b0663          	beq	s6,s2,a18e <_dtoa_r+0x9e0>
    a186:	85da                	mv	a1,s6
    a188:	8526                	mv	a0,s1
    a18a:	72d000ef          	jal	ra,b0b6 <_Bfree>
    a18e:	85ca                	mv	a1,s2
    a190:	8526                	mv	a0,s1
    a192:	725000ef          	jal	ra,b0b6 <_Bfree>
    a196:	bbb5                	j	9f12 <_dtoa_r+0x764>
    a198:	4a81                	li	s5,0
    a19a:	4901                	li	s2,0
    a19c:	b7f1                	j	a168 <_dtoa_r+0x9ba>
    a19e:	846a                	mv	s0,s10
    a1a0:	4a81                	li	s5,0
    a1a2:	4901                	li	s2,0
    a1a4:	b60d                	j	9cc6 <_dtoa_r+0x518>
    a1a6:	47c2                	lw	a5,16(sp)
    a1a8:	c46e                	sw	s11,8(sp)
    a1aa:	1e078563          	beqz	a5,a394 <_dtoa_r+0xbe6>
    a1ae:	01905863          	blez	s9,a1be <_dtoa_r+0xa10>
    a1b2:	85ca                	mv	a1,s2
    a1b4:	8666                	mv	a2,s9
    a1b6:	8526                	mv	a0,s1
    a1b8:	34c010ef          	jal	ra,b504 <__lshift>
    a1bc:	892a                	mv	s2,a0
    a1be:	854a                	mv	a0,s2
    a1c0:	020d0663          	beqz	s10,a1ec <_dtoa_r+0xa3e>
    a1c4:	00492583          	lw	a1,4(s2)
    a1c8:	8526                	mv	a0,s1
    a1ca:	661000ef          	jal	ra,b02a <_Balloc>
    a1ce:	01092603          	lw	a2,16(s2)
    a1d2:	8b2a                	mv	s6,a0
    a1d4:	00c90593          	addi	a1,s2,12
    a1d8:	0609                	addi	a2,a2,2
    a1da:	060a                	slli	a2,a2,0x2
    a1dc:	0531                	addi	a0,a0,12
    a1de:	c22fd0ef          	jal	ra,7600 <memcpy>
    a1e2:	4605                	li	a2,1
    a1e4:	85da                	mv	a1,s6
    a1e6:	8526                	mv	a0,s1
    a1e8:	31c010ef          	jal	ra,b504 <__lshift>
    a1ec:	4782                	lw	a5,0(sp)
    a1ee:	4722                	lw	a4,8(sp)
    a1f0:	8b4a                	mv	s6,s2
    a1f2:	00178c13          	addi	s8,a5,1
    a1f6:	97ba                	add	a5,a5,a4
    a1f8:	c63e                	sw	a5,12(sp)
    a1fa:	001a7793          	andi	a5,s4,1
    a1fe:	892a                	mv	s2,a0
    a200:	c43e                	sw	a5,8(sp)
    a202:	85d6                	mv	a1,s5
    a204:	854e                	mv	a0,s3
    a206:	c6eff0ef          	jal	ra,9674 <quorem>
    a20a:	85da                	mv	a1,s6
    a20c:	8d2a                	mv	s10,a0
    a20e:	03050d93          	addi	s11,a0,48
    a212:	854e                	mv	a0,s3
    a214:	3be010ef          	jal	ra,b5d2 <__mcmp>
    a218:	864a                	mv	a2,s2
    a21a:	8baa                	mv	s7,a0
    a21c:	85d6                	mv	a1,s5
    a21e:	8526                	mv	a0,s1
    a220:	3e4010ef          	jal	ra,b604 <__mdiff>
    a224:	4550                	lw	a2,12(a0)
    a226:	fffc0c93          	addi	s9,s8,-1
    a22a:	8a2a                	mv	s4,a0
    a22c:	4705                	li	a4,1
    a22e:	e611                	bnez	a2,a23a <_dtoa_r+0xa8c>
    a230:	85aa                	mv	a1,a0
    a232:	854e                	mv	a0,s3
    a234:	39e010ef          	jal	ra,b5d2 <__mcmp>
    a238:	872a                	mv	a4,a0
    a23a:	85d2                	mv	a1,s4
    a23c:	8526                	mv	a0,s1
    a23e:	c83a                	sw	a4,16(sp)
    a240:	677000ef          	jal	ra,b0b6 <_Bfree>
    a244:	4792                	lw	a5,4(sp)
    a246:	4742                	lw	a4,16(sp)
    a248:	8a62                	mv	s4,s8
    a24a:	00e7e6b3          	or	a3,a5,a4
    a24e:	47a2                	lw	a5,8(sp)
    a250:	8edd                	or	a3,a3,a5
    a252:	ee81                	bnez	a3,a26a <_dtoa_r+0xabc>
    a254:	03900713          	li	a4,57
    a258:	04ed8863          	beq	s11,a4,a2a8 <_dtoa_r+0xafa>
    a25c:	01705463          	blez	s7,a264 <_dtoa_r+0xab6>
    a260:	031d0d93          	addi	s11,s10,49
    a264:	01bc8023          	sb	s11,0(s9)
    a268:	b729                	j	a172 <_dtoa_r+0x9c4>
    a26a:	000bca63          	bltz	s7,a27e <_dtoa_r+0xad0>
    a26e:	4792                	lw	a5,4(sp)
    a270:	0177ebb3          	or	s7,a5,s7
    a274:	47a2                	lw	a5,8(sp)
    a276:	00fbebb3          	or	s7,s7,a5
    a27a:	040b9563          	bnez	s7,a2c4 <_dtoa_r+0xb16>
    a27e:	fee053e3          	blez	a4,a264 <_dtoa_r+0xab6>
    a282:	85ce                	mv	a1,s3
    a284:	4605                	li	a2,1
    a286:	8526                	mv	a0,s1
    a288:	27c010ef          	jal	ra,b504 <__lshift>
    a28c:	85d6                	mv	a1,s5
    a28e:	89aa                	mv	s3,a0
    a290:	342010ef          	jal	ra,b5d2 <__mcmp>
    a294:	00a04663          	bgtz	a0,a2a0 <_dtoa_r+0xaf2>
    a298:	f571                	bnez	a0,a264 <_dtoa_r+0xab6>
    a29a:	001df713          	andi	a4,s11,1
    a29e:	d379                	beqz	a4,a264 <_dtoa_r+0xab6>
    a2a0:	03900713          	li	a4,57
    a2a4:	faed9ee3          	bne	s11,a4,a260 <_dtoa_r+0xab2>
    a2a8:	03900793          	li	a5,57
    a2ac:	00fc8023          	sb	a5,0(s9)
    a2b0:	03900693          	li	a3,57
    a2b4:	fffa4783          	lbu	a5,-1(s4)
    a2b8:	fffa0713          	addi	a4,s4,-1
    a2bc:	08d78c63          	beq	a5,a3,a354 <_dtoa_r+0xba6>
    a2c0:	0785                	addi	a5,a5,1
    a2c2:	a045                	j	a362 <_dtoa_r+0xbb4>
    a2c4:	00e05b63          	blez	a4,a2da <_dtoa_r+0xb2c>
    a2c8:	03900713          	li	a4,57
    a2cc:	fced8ee3          	beq	s11,a4,a2a8 <_dtoa_r+0xafa>
    a2d0:	001d8793          	addi	a5,s11,1
    a2d4:	00fc8023          	sb	a5,0(s9)
    a2d8:	bd69                	j	a172 <_dtoa_r+0x9c4>
    a2da:	47b2                	lw	a5,12(sp)
    a2dc:	ffbc0fa3          	sb	s11,-1(s8)
    a2e0:	05878163          	beq	a5,s8,a322 <_dtoa_r+0xb74>
    a2e4:	85ce                	mv	a1,s3
    a2e6:	4681                	li	a3,0
    a2e8:	4629                	li	a2,10
    a2ea:	8526                	mv	a0,s1
    a2ec:	60f000ef          	jal	ra,b0fa <__multadd>
    a2f0:	89aa                	mv	s3,a0
    a2f2:	4681                	li	a3,0
    a2f4:	4629                	li	a2,10
    a2f6:	85da                	mv	a1,s6
    a2f8:	8526                	mv	a0,s1
    a2fa:	012b1863          	bne	s6,s2,a30a <_dtoa_r+0xb5c>
    a2fe:	5fd000ef          	jal	ra,b0fa <__multadd>
    a302:	8b2a                	mv	s6,a0
    a304:	892a                	mv	s2,a0
    a306:	0c05                	addi	s8,s8,1
    a308:	bded                	j	a202 <_dtoa_r+0xa54>
    a30a:	5f1000ef          	jal	ra,b0fa <__multadd>
    a30e:	85ca                	mv	a1,s2
    a310:	8b2a                	mv	s6,a0
    a312:	4681                	li	a3,0
    a314:	4629                	li	a2,10
    a316:	8526                	mv	a0,s1
    a318:	5e3000ef          	jal	ra,b0fa <__multadd>
    a31c:	892a                	mv	s2,a0
    a31e:	b7e5                	j	a306 <_dtoa_r+0xb58>
    a320:	4b01                	li	s6,0
    a322:	85ce                	mv	a1,s3
    a324:	4605                	li	a2,1
    a326:	8526                	mv	a0,s1
    a328:	1dc010ef          	jal	ra,b504 <__lshift>
    a32c:	85d6                	mv	a1,s5
    a32e:	89aa                	mv	s3,a0
    a330:	2a2010ef          	jal	ra,b5d2 <__mcmp>
    a334:	f6a04ee3          	bgtz	a0,a2b0 <_dtoa_r+0xb02>
    a338:	e501                	bnez	a0,a340 <_dtoa_r+0xb92>
    a33a:	001df793          	andi	a5,s11,1
    a33e:	fbad                	bnez	a5,a2b0 <_dtoa_r+0xb02>
    a340:	03000793          	li	a5,48
    a344:	fffa4703          	lbu	a4,-1(s4)
    a348:	fffa0693          	addi	a3,s4,-1
    a34c:	e2f713e3          	bne	a4,a5,a172 <_dtoa_r+0x9c4>
    a350:	8a36                	mv	s4,a3
    a352:	bfcd                	j	a344 <_dtoa_r+0xb96>
    a354:	4782                	lw	a5,0(sp)
    a356:	00e79863          	bne	a5,a4,a366 <_dtoa_r+0xbb8>
    a35a:	4702                	lw	a4,0(sp)
    a35c:	0405                	addi	s0,s0,1
    a35e:	03100793          	li	a5,49
    a362:	a31c                	sb	a5,0(a4)
    a364:	b539                	j	a172 <_dtoa_r+0x9c4>
    a366:	8a3a                	mv	s4,a4
    a368:	b7b1                	j	a2b4 <_dtoa_r+0xb06>
    a36a:	4752                	lw	a4,20(sp)
    a36c:	00004797          	auipc	a5,0x4
    a370:	9d478793          	addi	a5,a5,-1580 # dd40 <tinytens+0x58>
    a374:	c03e                	sw	a5,0(sp)
    a376:	00004797          	auipc	a5,0x4
    a37a:	9d278793          	addi	a5,a5,-1582 # dd48 <tinytens+0x60>
    a37e:	ce071c63          	bnez	a4,9876 <_dtoa_r+0xc8>
    a382:	cf8ff06f          	j	987a <_dtoa_r+0xcc>
    a386:	47a2                	lw	a5,8(sp)
    a388:	00f04663          	bgtz	a5,a394 <_dtoa_r+0xbe6>
    a38c:	4712                	lw	a4,4(sp)
    a38e:	4789                	li	a5,2
    a390:	dae7cde3          	blt	a5,a4,a14a <_dtoa_r+0x99c>
    a394:	4a02                	lw	s4,0(sp)
    a396:	85d6                	mv	a1,s5
    a398:	854e                	mv	a0,s3
    a39a:	adaff0ef          	jal	ra,9674 <quorem>
    a39e:	4782                	lw	a5,0(sp)
    a3a0:	0a05                	addi	s4,s4,1
    a3a2:	03050d93          	addi	s11,a0,48
    a3a6:	40fa0733          	sub	a4,s4,a5
    a3aa:	47a2                	lw	a5,8(sp)
    a3ac:	ffba0fa3          	sb	s11,-1(s4)
    a3b0:	f6f758e3          	bge	a4,a5,a320 <_dtoa_r+0xb72>
    a3b4:	85ce                	mv	a1,s3
    a3b6:	4681                	li	a3,0
    a3b8:	4629                	li	a2,10
    a3ba:	8526                	mv	a0,s1
    a3bc:	53f000ef          	jal	ra,b0fa <__multadd>
    a3c0:	89aa                	mv	s3,a0
    a3c2:	bfd1                	j	a396 <_dtoa_r+0xbe8>

0000a3c4 <__sflush_r>:
    a3c4:	25de                	lhu	a5,12(a1)
    a3c6:	1101                	addi	sp,sp,-32
    a3c8:	cc22                	sw	s0,24(sp)
    a3ca:	ca26                	sw	s1,20(sp)
    a3cc:	ce06                	sw	ra,28(sp)
    a3ce:	c84a                	sw	s2,16(sp)
    a3d0:	c64e                	sw	s3,12(sp)
    a3d2:	0087f713          	andi	a4,a5,8
    a3d6:	84aa                	mv	s1,a0
    a3d8:	842e                	mv	s0,a1
    a3da:	ef61                	bnez	a4,a4b2 <__sflush_r+0xee>
    a3dc:	41d8                	lw	a4,4(a1)
    a3de:	00e04d63          	bgtz	a4,a3f8 <__sflush_r+0x34>
    a3e2:	41b8                	lw	a4,64(a1)
    a3e4:	00e04a63          	bgtz	a4,a3f8 <__sflush_r+0x34>
    a3e8:	4501                	li	a0,0
    a3ea:	40f2                	lw	ra,28(sp)
    a3ec:	4462                	lw	s0,24(sp)
    a3ee:	44d2                	lw	s1,20(sp)
    a3f0:	4942                	lw	s2,16(sp)
    a3f2:	49b2                	lw	s3,12(sp)
    a3f4:	6105                	addi	sp,sp,32
    a3f6:	8082                	ret
    a3f8:	5458                	lw	a4,44(s0)
    a3fa:	d77d                	beqz	a4,a3e8 <__sflush_r+0x24>
    a3fc:	0004a903          	lw	s2,0(s1)
    a400:	01379693          	slli	a3,a5,0x13
    a404:	0004a023          	sw	zero,0(s1)
    a408:	0606dc63          	bgez	a3,a480 <__sflush_r+0xbc>
    a40c:	4870                	lw	a2,84(s0)
    a40e:	245e                	lhu	a5,12(s0)
    a410:	8b91                	andi	a5,a5,4
    a412:	c799                	beqz	a5,a420 <__sflush_r+0x5c>
    a414:	405c                	lw	a5,4(s0)
    a416:	8e1d                	sub	a2,a2,a5
    a418:	585c                	lw	a5,52(s0)
    a41a:	c399                	beqz	a5,a420 <__sflush_r+0x5c>
    a41c:	403c                	lw	a5,64(s0)
    a41e:	8e1d                	sub	a2,a2,a5
    a420:	545c                	lw	a5,44(s0)
    a422:	500c                	lw	a1,32(s0)
    a424:	4681                	li	a3,0
    a426:	8526                	mv	a0,s1
    a428:	9782                	jalr	a5
    a42a:	57fd                	li	a5,-1
    a42c:	245a                	lhu	a4,12(s0)
    a42e:	00f51d63          	bne	a0,a5,a448 <__sflush_r+0x84>
    a432:	4094                	lw	a3,0(s1)
    a434:	47f5                	li	a5,29
    a436:	06d7e963          	bltu	a5,a3,a4a8 <__sflush_r+0xe4>
    a43a:	204007b7          	lui	a5,0x20400
    a43e:	0785                	addi	a5,a5,1
    a440:	00d7d7b3          	srl	a5,a5,a3
    a444:	8b85                	andi	a5,a5,1
    a446:	c3ad                	beqz	a5,a4a8 <__sflush_r+0xe4>
    a448:	481c                	lw	a5,16(s0)
    a44a:	00042223          	sw	zero,4(s0)
    a44e:	c01c                	sw	a5,0(s0)
    a450:	01371793          	slli	a5,a4,0x13
    a454:	0007d863          	bgez	a5,a464 <__sflush_r+0xa0>
    a458:	57fd                	li	a5,-1
    a45a:	00f51463          	bne	a0,a5,a462 <__sflush_r+0x9e>
    a45e:	409c                	lw	a5,0(s1)
    a460:	e391                	bnez	a5,a464 <__sflush_r+0xa0>
    a462:	c868                	sw	a0,84(s0)
    a464:	584c                	lw	a1,52(s0)
    a466:	0124a023          	sw	s2,0(s1)
    a46a:	ddbd                	beqz	a1,a3e8 <__sflush_r+0x24>
    a46c:	04440793          	addi	a5,s0,68
    a470:	00f58563          	beq	a1,a5,a47a <__sflush_r+0xb6>
    a474:	8526                	mv	a0,s1
    a476:	564010ef          	jal	ra,b9da <_free_r>
    a47a:	02042a23          	sw	zero,52(s0)
    a47e:	b7ad                	j	a3e8 <__sflush_r+0x24>
    a480:	500c                	lw	a1,32(s0)
    a482:	4601                	li	a2,0
    a484:	4685                	li	a3,1
    a486:	8526                	mv	a0,s1
    a488:	9702                	jalr	a4
    a48a:	57fd                	li	a5,-1
    a48c:	862a                	mv	a2,a0
    a48e:	f8f510e3          	bne	a0,a5,a40e <__sflush_r+0x4a>
    a492:	409c                	lw	a5,0(s1)
    a494:	dfad                	beqz	a5,a40e <__sflush_r+0x4a>
    a496:	4775                	li	a4,29
    a498:	00e78563          	beq	a5,a4,a4a2 <__sflush_r+0xde>
    a49c:	4759                	li	a4,22
    a49e:	04e79363          	bne	a5,a4,a4e4 <__sflush_r+0x120>
    a4a2:	0124a023          	sw	s2,0(s1)
    a4a6:	b789                	j	a3e8 <__sflush_r+0x24>
    a4a8:	04076713          	ori	a4,a4,64
    a4ac:	a45a                	sh	a4,12(s0)
    a4ae:	557d                	li	a0,-1
    a4b0:	bf2d                	j	a3ea <__sflush_r+0x26>
    a4b2:	0105a983          	lw	s3,16(a1) # 7ff00010 <_eusrstack+0x5fef8010>
    a4b6:	f20989e3          	beqz	s3,a3e8 <__sflush_r+0x24>
    a4ba:	0005a903          	lw	s2,0(a1)
    a4be:	8b8d                	andi	a5,a5,3
    a4c0:	0135a023          	sw	s3,0(a1)
    a4c4:	41390933          	sub	s2,s2,s3
    a4c8:	4701                	li	a4,0
    a4ca:	e391                	bnez	a5,a4ce <__sflush_r+0x10a>
    a4cc:	49d8                	lw	a4,20(a1)
    a4ce:	c418                	sw	a4,8(s0)
    a4d0:	f1205ce3          	blez	s2,a3e8 <__sflush_r+0x24>
    a4d4:	541c                	lw	a5,40(s0)
    a4d6:	500c                	lw	a1,32(s0)
    a4d8:	86ca                	mv	a3,s2
    a4da:	864e                	mv	a2,s3
    a4dc:	8526                	mv	a0,s1
    a4de:	9782                	jalr	a5
    a4e0:	00a04763          	bgtz	a0,a4ee <__sflush_r+0x12a>
    a4e4:	245e                	lhu	a5,12(s0)
    a4e6:	0407e793          	ori	a5,a5,64
    a4ea:	a45e                	sh	a5,12(s0)
    a4ec:	b7c9                	j	a4ae <__sflush_r+0xea>
    a4ee:	99aa                	add	s3,s3,a0
    a4f0:	40a90933          	sub	s2,s2,a0
    a4f4:	bff1                	j	a4d0 <__sflush_r+0x10c>

0000a4f6 <_fflush_r>:
    a4f6:	499c                	lw	a5,16(a1)
    a4f8:	c3a5                	beqz	a5,a558 <_fflush_r+0x62>
    a4fa:	1101                	addi	sp,sp,-32
    a4fc:	cc22                	sw	s0,24(sp)
    a4fe:	ce06                	sw	ra,28(sp)
    a500:	842a                	mv	s0,a0
    a502:	c511                	beqz	a0,a50e <_fflush_r+0x18>
    a504:	4d1c                	lw	a5,24(a0)
    a506:	e781                	bnez	a5,a50e <_fflush_r+0x18>
    a508:	c62e                	sw	a1,12(sp)
    a50a:	2229                	jal	a614 <__sinit>
    a50c:	45b2                	lw	a1,12(sp)
    a50e:	00004797          	auipc	a5,0x4
    a512:	86278793          	addi	a5,a5,-1950 # dd70 <__sf_fake_stdin>
    a516:	00f59c63          	bne	a1,a5,a52e <_fflush_r+0x38>
    a51a:	404c                	lw	a1,4(s0)
    a51c:	00c59783          	lh	a5,12(a1)
    a520:	c79d                	beqz	a5,a54e <_fflush_r+0x58>
    a522:	8522                	mv	a0,s0
    a524:	4462                	lw	s0,24(sp)
    a526:	40f2                	lw	ra,28(sp)
    a528:	6105                	addi	sp,sp,32
    a52a:	e9bff06f          	j	a3c4 <__sflush_r>
    a52e:	00004797          	auipc	a5,0x4
    a532:	86278793          	addi	a5,a5,-1950 # dd90 <__sf_fake_stdout>
    a536:	00f59463          	bne	a1,a5,a53e <_fflush_r+0x48>
    a53a:	440c                	lw	a1,8(s0)
    a53c:	b7c5                	j	a51c <_fflush_r+0x26>
    a53e:	00004797          	auipc	a5,0x4
    a542:	81278793          	addi	a5,a5,-2030 # dd50 <__sf_fake_stderr>
    a546:	fcf59be3          	bne	a1,a5,a51c <_fflush_r+0x26>
    a54a:	444c                	lw	a1,12(s0)
    a54c:	bfc1                	j	a51c <_fflush_r+0x26>
    a54e:	40f2                	lw	ra,28(sp)
    a550:	4462                	lw	s0,24(sp)
    a552:	4501                	li	a0,0
    a554:	6105                	addi	sp,sp,32
    a556:	8082                	ret
    a558:	4501                	li	a0,0
    a55a:	8082                	ret

0000a55c <std>:
    a55c:	1141                	addi	sp,sp,-16
    a55e:	c422                	sw	s0,8(sp)
    a560:	c606                	sw	ra,12(sp)
    a562:	842a                	mv	s0,a0
    a564:	a54e                	sh	a1,12(a0)
    a566:	a572                	sh	a2,14(a0)
    a568:	00052023          	sw	zero,0(a0)
    a56c:	00052223          	sw	zero,4(a0)
    a570:	00052423          	sw	zero,8(a0)
    a574:	06052223          	sw	zero,100(a0)
    a578:	00052823          	sw	zero,16(a0)
    a57c:	00052a23          	sw	zero,20(a0)
    a580:	00052c23          	sw	zero,24(a0)
    a584:	4621                	li	a2,8
    a586:	4581                	li	a1,0
    a588:	05c50513          	addi	a0,a0,92
    a58c:	cd5f50ef          	jal	ra,260 <memset>
    a590:	00002797          	auipc	a5,0x2
    a594:	c3278793          	addi	a5,a5,-974 # c1c2 <__sread>
    a598:	d05c                	sw	a5,36(s0)
    a59a:	00002797          	auipc	a5,0x2
    a59e:	c5478793          	addi	a5,a5,-940 # c1ee <__swrite>
    a5a2:	d41c                	sw	a5,40(s0)
    a5a4:	00002797          	auipc	a5,0x2
    a5a8:	c9278793          	addi	a5,a5,-878 # c236 <__sseek>
    a5ac:	d45c                	sw	a5,44(s0)
    a5ae:	00002797          	auipc	a5,0x2
    a5b2:	cb878793          	addi	a5,a5,-840 # c266 <__sclose>
    a5b6:	d000                	sw	s0,32(s0)
    a5b8:	d81c                	sw	a5,48(s0)
    a5ba:	40b2                	lw	ra,12(sp)
    a5bc:	4422                	lw	s0,8(sp)
    a5be:	0141                	addi	sp,sp,16
    a5c0:	8082                	ret

0000a5c2 <_cleanup_r>:
    a5c2:	00000597          	auipc	a1,0x0
    a5c6:	f3458593          	addi	a1,a1,-204 # a4f6 <_fflush_r>
    a5ca:	aa99                	j	a720 <_fwalk_reent>

0000a5cc <__sfmoreglue>:
    a5cc:	1141                	addi	sp,sp,-16
    a5ce:	c226                	sw	s1,4(sp)
    a5d0:	06800613          	li	a2,104
    a5d4:	fff58493          	addi	s1,a1,-1
    a5d8:	02c484b3          	mul	s1,s1,a2
    a5dc:	c04a                	sw	s2,0(sp)
    a5de:	892e                	mv	s2,a1
    a5e0:	c422                	sw	s0,8(sp)
    a5e2:	c606                	sw	ra,12(sp)
    a5e4:	07448593          	addi	a1,s1,116
    a5e8:	49a010ef          	jal	ra,ba82 <_malloc_r>
    a5ec:	842a                	mv	s0,a0
    a5ee:	cd01                	beqz	a0,a606 <__sfmoreglue+0x3a>
    a5f0:	00052023          	sw	zero,0(a0)
    a5f4:	01252223          	sw	s2,4(a0)
    a5f8:	0531                	addi	a0,a0,12
    a5fa:	c408                	sw	a0,8(s0)
    a5fc:	06848613          	addi	a2,s1,104
    a600:	4581                	li	a1,0
    a602:	c5ff50ef          	jal	ra,260 <memset>
    a606:	8522                	mv	a0,s0
    a608:	40b2                	lw	ra,12(sp)
    a60a:	4422                	lw	s0,8(sp)
    a60c:	4492                	lw	s1,4(sp)
    a60e:	4902                	lw	s2,0(sp)
    a610:	0141                	addi	sp,sp,16
    a612:	8082                	ret

0000a614 <__sinit>:
    a614:	4d1c                	lw	a5,24(a0)
    a616:	e7a5                	bnez	a5,a67e <__sinit+0x6a>
    a618:	1141                	addi	sp,sp,-16
    a61a:	c606                	sw	ra,12(sp)
    a61c:	c422                	sw	s0,8(sp)
    a61e:	00000797          	auipc	a5,0x0
    a622:	fa478793          	addi	a5,a5,-92 # a5c2 <_cleanup_r>
    a626:	d51c                	sw	a5,40(a0)
    a628:	81418793          	addi	a5,gp,-2028 # 2000023c <_global_impure_ptr>
    a62c:	439c                	lw	a5,0(a5)
    a62e:	04052423          	sw	zero,72(a0)
    a632:	04052623          	sw	zero,76(a0)
    a636:	04052823          	sw	zero,80(a0)
    a63a:	00f51463          	bne	a0,a5,a642 <__sinit+0x2e>
    a63e:	4785                	li	a5,1
    a640:	cd1c                	sw	a5,24(a0)
    a642:	842a                	mv	s0,a0
    a644:	2835                	jal	a680 <__sfp>
    a646:	c048                	sw	a0,4(s0)
    a648:	8522                	mv	a0,s0
    a64a:	281d                	jal	a680 <__sfp>
    a64c:	c408                	sw	a0,8(s0)
    a64e:	8522                	mv	a0,s0
    a650:	2805                	jal	a680 <__sfp>
    a652:	c448                	sw	a0,12(s0)
    a654:	4048                	lw	a0,4(s0)
    a656:	4601                	li	a2,0
    a658:	4591                	li	a1,4
    a65a:	f03ff0ef          	jal	ra,a55c <std>
    a65e:	4408                	lw	a0,8(s0)
    a660:	4605                	li	a2,1
    a662:	45a5                	li	a1,9
    a664:	ef9ff0ef          	jal	ra,a55c <std>
    a668:	4448                	lw	a0,12(s0)
    a66a:	4609                	li	a2,2
    a66c:	45c9                	li	a1,18
    a66e:	eefff0ef          	jal	ra,a55c <std>
    a672:	4785                	li	a5,1
    a674:	cc1c                	sw	a5,24(s0)
    a676:	40b2                	lw	ra,12(sp)
    a678:	4422                	lw	s0,8(sp)
    a67a:	0141                	addi	sp,sp,16
    a67c:	8082                	ret
    a67e:	8082                	ret

0000a680 <__sfp>:
    a680:	1141                	addi	sp,sp,-16
    a682:	81418793          	addi	a5,gp,-2028 # 2000023c <_global_impure_ptr>
    a686:	c226                	sw	s1,4(sp)
    a688:	4384                	lw	s1,0(a5)
    a68a:	c04a                	sw	s2,0(sp)
    a68c:	c606                	sw	ra,12(sp)
    a68e:	4c9c                	lw	a5,24(s1)
    a690:	c422                	sw	s0,8(sp)
    a692:	892a                	mv	s2,a0
    a694:	e781                	bnez	a5,a69c <__sfp+0x1c>
    a696:	8526                	mv	a0,s1
    a698:	f7dff0ef          	jal	ra,a614 <__sinit>
    a69c:	04848493          	addi	s1,s1,72
    a6a0:	4480                	lw	s0,8(s1)
    a6a2:	40dc                	lw	a5,4(s1)
    a6a4:	17fd                	addi	a5,a5,-1
    a6a6:	0007d663          	bgez	a5,a6b2 <__sfp+0x32>
    a6aa:	409c                	lw	a5,0(s1)
    a6ac:	cfb9                	beqz	a5,a70a <__sfp+0x8a>
    a6ae:	4084                	lw	s1,0(s1)
    a6b0:	bfc5                	j	a6a0 <__sfp+0x20>
    a6b2:	00c41703          	lh	a4,12(s0)
    a6b6:	e739                	bnez	a4,a704 <__sfp+0x84>
    a6b8:	77c1                	lui	a5,0xffff0
    a6ba:	0785                	addi	a5,a5,1
    a6bc:	06042223          	sw	zero,100(s0)
    a6c0:	00042023          	sw	zero,0(s0)
    a6c4:	00042223          	sw	zero,4(s0)
    a6c8:	00042423          	sw	zero,8(s0)
    a6cc:	c45c                	sw	a5,12(s0)
    a6ce:	00042823          	sw	zero,16(s0)
    a6d2:	00042a23          	sw	zero,20(s0)
    a6d6:	00042c23          	sw	zero,24(s0)
    a6da:	4621                	li	a2,8
    a6dc:	4581                	li	a1,0
    a6de:	05c40513          	addi	a0,s0,92
    a6e2:	b7ff50ef          	jal	ra,260 <memset>
    a6e6:	02042a23          	sw	zero,52(s0)
    a6ea:	02042c23          	sw	zero,56(s0)
    a6ee:	04042423          	sw	zero,72(s0)
    a6f2:	04042623          	sw	zero,76(s0)
    a6f6:	8522                	mv	a0,s0
    a6f8:	40b2                	lw	ra,12(sp)
    a6fa:	4422                	lw	s0,8(sp)
    a6fc:	4492                	lw	s1,4(sp)
    a6fe:	4902                	lw	s2,0(sp)
    a700:	0141                	addi	sp,sp,16
    a702:	8082                	ret
    a704:	06840413          	addi	s0,s0,104
    a708:	bf71                	j	a6a4 <__sfp+0x24>
    a70a:	4591                	li	a1,4
    a70c:	854a                	mv	a0,s2
    a70e:	ebfff0ef          	jal	ra,a5cc <__sfmoreglue>
    a712:	c088                	sw	a0,0(s1)
    a714:	fd49                	bnez	a0,a6ae <__sfp+0x2e>
    a716:	47b1                	li	a5,12
    a718:	00f92023          	sw	a5,0(s2)
    a71c:	4401                	li	s0,0
    a71e:	bfe1                	j	a6f6 <__sfp+0x76>

0000a720 <_fwalk_reent>:
    a720:	7179                	addi	sp,sp,-48
    a722:	d422                	sw	s0,40(sp)
    a724:	d04a                	sw	s2,32(sp)
    a726:	cc52                	sw	s4,24(sp)
    a728:	ca56                	sw	s5,20(sp)
    a72a:	c85a                	sw	s6,16(sp)
    a72c:	c65e                	sw	s7,12(sp)
    a72e:	d606                	sw	ra,44(sp)
    a730:	d226                	sw	s1,36(sp)
    a732:	ce4e                	sw	s3,28(sp)
    a734:	8a2a                	mv	s4,a0
    a736:	8aae                	mv	s5,a1
    a738:	04850413          	addi	s0,a0,72
    a73c:	4901                	li	s2,0
    a73e:	4b05                	li	s6,1
    a740:	5bfd                	li	s7,-1
    a742:	ec09                	bnez	s0,a75c <_fwalk_reent+0x3c>
    a744:	50b2                	lw	ra,44(sp)
    a746:	5422                	lw	s0,40(sp)
    a748:	854a                	mv	a0,s2
    a74a:	5492                	lw	s1,36(sp)
    a74c:	5902                	lw	s2,32(sp)
    a74e:	49f2                	lw	s3,28(sp)
    a750:	4a62                	lw	s4,24(sp)
    a752:	4ad2                	lw	s5,20(sp)
    a754:	4b42                	lw	s6,16(sp)
    a756:	4bb2                	lw	s7,12(sp)
    a758:	6145                	addi	sp,sp,48
    a75a:	8082                	ret
    a75c:	4404                	lw	s1,8(s0)
    a75e:	00442983          	lw	s3,4(s0)
    a762:	19fd                	addi	s3,s3,-1
    a764:	0009d463          	bgez	s3,a76c <_fwalk_reent+0x4c>
    a768:	4000                	lw	s0,0(s0)
    a76a:	bfe1                	j	a742 <_fwalk_reent+0x22>
    a76c:	24de                	lhu	a5,12(s1)
    a76e:	00fb7b63          	bgeu	s6,a5,a784 <_fwalk_reent+0x64>
    a772:	00e49783          	lh	a5,14(s1)
    a776:	01778763          	beq	a5,s7,a784 <_fwalk_reent+0x64>
    a77a:	85a6                	mv	a1,s1
    a77c:	8552                	mv	a0,s4
    a77e:	9a82                	jalr	s5
    a780:	00a96933          	or	s2,s2,a0
    a784:	06848493          	addi	s1,s1,104
    a788:	bfe9                	j	a762 <_fwalk_reent+0x42>

0000a78a <rshift>:
    a78a:	4910                	lw	a2,16(a0)
    a78c:	01450693          	addi	a3,a0,20
    a790:	4055d713          	srai	a4,a1,0x5
    a794:	87b6                	mv	a5,a3
    a796:	02c75663          	bge	a4,a2,a7c2 <rshift+0x38>
    a79a:	060a                	slli	a2,a2,0x2
    a79c:	070a                	slli	a4,a4,0x2
    a79e:	89fd                	andi	a1,a1,31
    a7a0:	9636                	add	a2,a2,a3
    a7a2:	9736                	add	a4,a4,a3
    a7a4:	c9b9                	beqz	a1,a7fa <rshift+0x70>
    a7a6:	00470813          	addi	a6,a4,4
    a7aa:	4318                	lw	a4,0(a4)
    a7ac:	02000313          	li	t1,32
    a7b0:	40b30333          	sub	t1,t1,a1
    a7b4:	00b75733          	srl	a4,a4,a1
    a7b8:	00c86e63          	bltu	a6,a2,a7d4 <rshift+0x4a>
    a7bc:	c398                	sw	a4,0(a5)
    a7be:	c311                	beqz	a4,a7c2 <rshift+0x38>
    a7c0:	0791                	addi	a5,a5,4
    a7c2:	40d78733          	sub	a4,a5,a3
    a7c6:	8709                	srai	a4,a4,0x2
    a7c8:	c918                	sw	a4,16(a0)
    a7ca:	00d79463          	bne	a5,a3,a7d2 <rshift+0x48>
    a7ce:	00052a23          	sw	zero,20(a0)
    a7d2:	8082                	ret
    a7d4:	00082883          	lw	a7,0(a6)
    a7d8:	0791                	addi	a5,a5,4
    a7da:	0811                	addi	a6,a6,4
    a7dc:	006898b3          	sll	a7,a7,t1
    a7e0:	00e8e733          	or	a4,a7,a4
    a7e4:	fee7ae23          	sw	a4,-4(a5) # fffefffc <_eusrstack+0xdffe7ffc>
    a7e8:	ffc82703          	lw	a4,-4(a6)
    a7ec:	b7e1                	j	a7b4 <rshift+0x2a>
    a7ee:	0711                	addi	a4,a4,4
    a7f0:	ffc72583          	lw	a1,-4(a4)
    a7f4:	0791                	addi	a5,a5,4
    a7f6:	feb7ae23          	sw	a1,-4(a5)
    a7fa:	fec76ae3          	bltu	a4,a2,a7ee <rshift+0x64>
    a7fe:	b7d1                	j	a7c2 <rshift+0x38>

0000a800 <__hexdig_fun>:
    a800:	fd050793          	addi	a5,a0,-48
    a804:	0ff7f793          	andi	a5,a5,255
    a808:	4725                	li	a4,9
    a80a:	00f76763          	bltu	a4,a5,a818 <__hexdig_fun+0x18>
    a80e:	1501                	addi	a0,a0,-32
    a810:	0ff57793          	andi	a5,a0,255
    a814:	853e                	mv	a0,a5
    a816:	8082                	ret
    a818:	f9f50793          	addi	a5,a0,-97
    a81c:	0ff7f793          	andi	a5,a5,255
    a820:	4695                	li	a3,5
    a822:	00f6e563          	bltu	a3,a5,a82c <__hexdig_fun+0x2c>
    a826:	fb950513          	addi	a0,a0,-71
    a82a:	b7dd                	j	a810 <__hexdig_fun+0x10>
    a82c:	fbf50713          	addi	a4,a0,-65
    a830:	0ff77713          	andi	a4,a4,255
    a834:	4781                	li	a5,0
    a836:	fce6efe3          	bltu	a3,a4,a814 <__hexdig_fun+0x14>
    a83a:	fd950513          	addi	a0,a0,-39
    a83e:	bfc9                	j	a810 <__hexdig_fun+0x10>

0000a840 <__gethex>:
    a840:	711d                	addi	sp,sp,-96
    a842:	c2d6                	sw	s5,68(sp)
    a844:	8aaa                	mv	s5,a0
    a846:	8542                	mv	a0,a6
    a848:	c636                	sw	a3,12(sp)
    a84a:	c23a                	sw	a4,4(sp)
    a84c:	ce86                	sw	ra,92(sp)
    a84e:	c8ca                	sw	s2,80(sp)
    a850:	c4d2                	sw	s4,72(sp)
    a852:	c0da                	sw	s6,64(sp)
    a854:	de5e                	sw	s7,60(sp)
    a856:	8b3e                	mv	s6,a5
    a858:	d66e                	sw	s11,44(sp)
    a85a:	8932                	mv	s2,a2
    a85c:	8dae                	mv	s11,a1
    a85e:	cca2                	sw	s0,88(sp)
    a860:	caa6                	sw	s1,84(sp)
    a862:	c6ce                	sw	s3,76(sp)
    a864:	dc62                	sw	s8,56(sp)
    a866:	da66                	sw	s9,52(sp)
    a868:	d86a                	sw	s10,48(sp)
    a86a:	2585                	jal	aeca <__localeconv_l>
    a86c:	00052b83          	lw	s7,0(a0)
    a870:	855e                	mv	a0,s7
    a872:	e0dfd0ef          	jal	ra,867e <strlen>
    a876:	00ab87b3          	add	a5,s7,a0
    a87a:	000da683          	lw	a3,0(s11)
    a87e:	fff7c783          	lbu	a5,-1(a5)
    a882:	5779                	li	a4,-2
    a884:	8f15                	sub	a4,a4,a3
    a886:	c83e                	sw	a5,16(sp)
    a888:	8a2a                	mv	s4,a0
    a88a:	00268793          	addi	a5,a3,2
    a88e:	03000693          	li	a3,48
    a892:	00f70633          	add	a2,a4,a5
    a896:	84be                	mv	s1,a5
    a898:	0785                	addi	a5,a5,1
    a89a:	fff7c503          	lbu	a0,-1(a5)
    a89e:	c432                	sw	a2,8(sp)
    a8a0:	fed509e3          	beq	a0,a3,a892 <__gethex+0x52>
    a8a4:	f5dff0ef          	jal	ra,a800 <__hexdig_fun>
    a8a8:	10051e63          	bnez	a0,a9c4 <__gethex+0x184>
    a8ac:	8652                	mv	a2,s4
    a8ae:	85de                	mv	a1,s7
    a8b0:	8526                	mv	a0,s1
    a8b2:	1bb010ef          	jal	ra,c26c <strncmp>
    a8b6:	10051c63          	bnez	a0,a9ce <__gethex+0x18e>
    a8ba:	01448c33          	add	s8,s1,s4
    a8be:	000c4503          	lbu	a0,0(s8)
    a8c2:	f3fff0ef          	jal	ra,a800 <__hexdig_fun>
    a8c6:	10050563          	beqz	a0,a9d0 <__gethex+0x190>
    a8ca:	84e2                	mv	s1,s8
    a8cc:	03000793          	li	a5,48
    a8d0:	2088                	lbu	a0,0(s1)
    a8d2:	00f50b63          	beq	a0,a5,a8e8 <__gethex+0xa8>
    a8d6:	f2bff0ef          	jal	ra,a800 <__hexdig_fun>
    a8da:	4785                	li	a5,1
    a8dc:	00153993          	seqz	s3,a0
    a8e0:	8ce2                	mv	s9,s8
    a8e2:	c43e                	sw	a5,8(sp)
    a8e4:	8c26                	mv	s8,s1
    a8e6:	a021                	j	a8ee <__gethex+0xae>
    a8e8:	0485                	addi	s1,s1,1
    a8ea:	b7dd                	j	a8d0 <__gethex+0x90>
    a8ec:	0c05                	addi	s8,s8,1
    a8ee:	000c4503          	lbu	a0,0(s8)
    a8f2:	f0fff0ef          	jal	ra,a800 <__hexdig_fun>
    a8f6:	f97d                	bnez	a0,a8ec <__gethex+0xac>
    a8f8:	8652                	mv	a2,s4
    a8fa:	85de                	mv	a1,s7
    a8fc:	8562                	mv	a0,s8
    a8fe:	16f010ef          	jal	ra,c26c <strncmp>
    a902:	e911                	bnez	a0,a916 <__gethex+0xd6>
    a904:	000c9c63          	bnez	s9,a91c <__gethex+0xdc>
    a908:	9c52                	add	s8,s8,s4
    a90a:	8ce2                	mv	s9,s8
    a90c:	000c4503          	lbu	a0,0(s8)
    a910:	ef1ff0ef          	jal	ra,a800 <__hexdig_fun>
    a914:	e95d                	bnez	a0,a9ca <__gethex+0x18a>
    a916:	4401                	li	s0,0
    a918:	000c8563          	beqz	s9,a922 <__gethex+0xe2>
    a91c:	418c8433          	sub	s0,s9,s8
    a920:	040a                	slli	s0,s0,0x2
    a922:	000c4783          	lbu	a5,0(s8)
    a926:	05000713          	li	a4,80
    a92a:	00e78763          	beq	a5,a4,a938 <__gethex+0xf8>
    a92e:	07000613          	li	a2,112
    a932:	8ce2                	mv	s9,s8
    a934:	06c79063          	bne	a5,a2,a994 <__gethex+0x154>
    a938:	001c4783          	lbu	a5,1(s8)
    a93c:	02b00713          	li	a4,43
    a940:	08e78b63          	beq	a5,a4,a9d6 <__gethex+0x196>
    a944:	02d00713          	li	a4,45
    a948:	08e78b63          	beq	a5,a4,a9de <__gethex+0x19e>
    a94c:	001c0c93          	addi	s9,s8,1
    a950:	4d01                	li	s10,0
    a952:	000cc503          	lbu	a0,0(s9)
    a956:	eabff0ef          	jal	ra,a800 <__hexdig_fun>
    a95a:	fff50793          	addi	a5,a0,-1
    a95e:	0ff7f793          	andi	a5,a5,255
    a962:	45e1                	li	a1,24
    a964:	08f5e463          	bltu	a1,a5,a9ec <__gethex+0x1ac>
    a968:	ff050793          	addi	a5,a0,-16
    a96c:	0c85                	addi	s9,s9,1
    a96e:	000cc503          	lbu	a0,0(s9)
    a972:	ca3e                	sw	a5,20(sp)
    a974:	e8dff0ef          	jal	ra,a800 <__hexdig_fun>
    a978:	fff50593          	addi	a1,a0,-1
    a97c:	0ff5f593          	andi	a1,a1,255
    a980:	4861                	li	a6,24
    a982:	47d2                	lw	a5,20(sp)
    a984:	48a9                	li	a7,10
    a986:	04b87e63          	bgeu	a6,a1,a9e2 <__gethex+0x1a2>
    a98a:	000d0463          	beqz	s10,a992 <__gethex+0x152>
    a98e:	40f007b3          	neg	a5,a5
    a992:	943e                	add	s0,s0,a5
    a994:	019da023          	sw	s9,0(s11)
    a998:	04098c63          	beqz	s3,a9f0 <__gethex+0x1b0>
    a99c:	47a2                	lw	a5,8(sp)
    a99e:	4481                	li	s1,0
    a9a0:	e391                	bnez	a5,a9a4 <__gethex+0x164>
    a9a2:	4499                	li	s1,6
    a9a4:	40f6                	lw	ra,92(sp)
    a9a6:	4466                	lw	s0,88(sp)
    a9a8:	8526                	mv	a0,s1
    a9aa:	4946                	lw	s2,80(sp)
    a9ac:	44d6                	lw	s1,84(sp)
    a9ae:	49b6                	lw	s3,76(sp)
    a9b0:	4a26                	lw	s4,72(sp)
    a9b2:	4a96                	lw	s5,68(sp)
    a9b4:	4b06                	lw	s6,64(sp)
    a9b6:	5bf2                	lw	s7,60(sp)
    a9b8:	5c62                	lw	s8,56(sp)
    a9ba:	5cd2                	lw	s9,52(sp)
    a9bc:	5d42                	lw	s10,48(sp)
    a9be:	5db2                	lw	s11,44(sp)
    a9c0:	6125                	addi	sp,sp,96
    a9c2:	8082                	ret
    a9c4:	4981                	li	s3,0
    a9c6:	4c81                	li	s9,0
    a9c8:	bf31                	j	a8e4 <__gethex+0xa4>
    a9ca:	0c05                	addi	s8,s8,1
    a9cc:	b781                	j	a90c <__gethex+0xcc>
    a9ce:	8c26                	mv	s8,s1
    a9d0:	4401                	li	s0,0
    a9d2:	4985                	li	s3,1
    a9d4:	b7b9                	j	a922 <__gethex+0xe2>
    a9d6:	4d01                	li	s10,0
    a9d8:	002c0c93          	addi	s9,s8,2
    a9dc:	bf9d                	j	a952 <__gethex+0x112>
    a9de:	4d05                	li	s10,1
    a9e0:	bfe5                	j	a9d8 <__gethex+0x198>
    a9e2:	031787b3          	mul	a5,a5,a7
    a9e6:	97aa                	add	a5,a5,a0
    a9e8:	17c1                	addi	a5,a5,-16
    a9ea:	b749                	j	a96c <__gethex+0x12c>
    a9ec:	8ce2                	mv	s9,s8
    a9ee:	b75d                	j	a994 <__gethex+0x154>
    a9f0:	409c07b3          	sub	a5,s8,s1
    a9f4:	17fd                	addi	a5,a5,-1
    a9f6:	4581                	li	a1,0
    a9f8:	471d                	li	a4,7
    a9fa:	0af74463          	blt	a4,a5,aaa2 <__gethex+0x262>
    a9fe:	8556                	mv	a0,s5
    aa00:	252d                	jal	b02a <_Balloc>
    aa02:	4605                	li	a2,1
    aa04:	01450993          	addi	s3,a0,20
    aa08:	414607b3          	sub	a5,a2,s4
    aa0c:	8daa                	mv	s11,a0
    aa0e:	8d4e                	mv	s10,s3
    aa10:	4881                	li	a7,0
    aa12:	4c81                	li	s9,0
    aa14:	ca3e                	sw	a5,20(sp)
    aa16:	0984e963          	bltu	s1,s8,aaa8 <__gethex+0x268>
    aa1a:	004d0513          	addi	a0,s10,4
    aa1e:	41350533          	sub	a0,a0,s3
    aa22:	8509                	srai	a0,a0,0x2
    aa24:	019d2023          	sw	s9,0(s10)
    aa28:	00ada823          	sw	a0,16(s11)
    aa2c:	00551493          	slli	s1,a0,0x5
    aa30:	8566                	mv	a0,s9
    aa32:	005000ef          	jal	ra,b236 <__hi0bits>
    aa36:	00092b83          	lw	s7,0(s2)
    aa3a:	8c89                	sub	s1,s1,a0
    aa3c:	0c9bd863          	bge	s7,s1,ab0c <__gethex+0x2cc>
    aa40:	417484b3          	sub	s1,s1,s7
    aa44:	85a6                	mv	a1,s1
    aa46:	856e                	mv	a0,s11
    aa48:	727000ef          	jal	ra,b96e <__any_on>
    aa4c:	8a2a                	mv	s4,a0
    aa4e:	c905                	beqz	a0,aa7e <__gethex+0x23e>
    aa50:	fff48613          	addi	a2,s1,-1
    aa54:	40565693          	srai	a3,a2,0x5
    aa58:	068a                	slli	a3,a3,0x2
    aa5a:	96ce                	add	a3,a3,s3
    aa5c:	4294                	lw	a3,0(a3)
    aa5e:	4705                	li	a4,1
    aa60:	00c71733          	sll	a4,a4,a2
    aa64:	8f75                	and	a4,a4,a3
    aa66:	4a05                	li	s4,1
    aa68:	cb19                	beqz	a4,aa7e <__gethex+0x23e>
    aa6a:	00ca5963          	bge	s4,a2,aa7c <__gethex+0x23c>
    aa6e:	ffe48593          	addi	a1,s1,-2
    aa72:	856e                	mv	a0,s11
    aa74:	6fb000ef          	jal	ra,b96e <__any_on>
    aa78:	4a0d                	li	s4,3
    aa7a:	e111                	bnez	a0,aa7e <__gethex+0x23e>
    aa7c:	4a09                	li	s4,2
    aa7e:	85a6                	mv	a1,s1
    aa80:	856e                	mv	a0,s11
    aa82:	d09ff0ef          	jal	ra,a78a <rshift>
    aa86:	9426                	add	s0,s0,s1
    aa88:	00892703          	lw	a4,8(s2)
    aa8c:	08875f63          	bge	a4,s0,ab2a <__gethex+0x2ea>
    aa90:	85ee                	mv	a1,s11
    aa92:	8556                	mv	a0,s5
    aa94:	250d                	jal	b0b6 <_Bfree>
    aa96:	4792                	lw	a5,4(sp)
    aa98:	0a300493          	li	s1,163
    aa9c:	0007a023          	sw	zero,0(a5)
    aaa0:	b711                	j	a9a4 <__gethex+0x164>
    aaa2:	0585                	addi	a1,a1,1
    aaa4:	8785                	srai	a5,a5,0x1
    aaa6:	bf91                	j	a9fa <__gethex+0x1ba>
    aaa8:	fffc0793          	addi	a5,s8,-1
    aaac:	c43e                	sw	a5,8(sp)
    aaae:	fffc4603          	lbu	a2,-1(s8)
    aab2:	47c2                	lw	a5,16(sp)
    aab4:	02f60963          	beq	a2,a5,aae6 <__gethex+0x2a6>
    aab8:	02000793          	li	a5,32
    aabc:	00f89763          	bne	a7,a5,aaca <__gethex+0x28a>
    aac0:	019d2023          	sw	s9,0(s10)
    aac4:	4881                	li	a7,0
    aac6:	0d11                	addi	s10,s10,4
    aac8:	4c81                	li	s9,0
    aaca:	fffc4503          	lbu	a0,-1(s8)
    aace:	cc46                	sw	a7,24(sp)
    aad0:	d31ff0ef          	jal	ra,a800 <__hexdig_fun>
    aad4:	48e2                	lw	a7,24(sp)
    aad6:	893d                	andi	a0,a0,15
    aad8:	4322                	lw	t1,8(sp)
    aada:	01151533          	sll	a0,a0,a7
    aade:	00acecb3          	or	s9,s9,a0
    aae2:	0891                	addi	a7,a7,4
    aae4:	a015                	j	ab08 <__gethex+0x2c8>
    aae6:	4752                	lw	a4,20(sp)
    aae8:	fffc0793          	addi	a5,s8,-1
    aaec:	00e78333          	add	t1,a5,a4
    aaf0:	fc9364e3          	bltu	t1,s1,aab8 <__gethex+0x278>
    aaf4:	851a                	mv	a0,t1
    aaf6:	8652                	mv	a2,s4
    aaf8:	85de                	mv	a1,s7
    aafa:	ce46                	sw	a7,28(sp)
    aafc:	cc1a                	sw	t1,24(sp)
    aafe:	76e010ef          	jal	ra,c26c <strncmp>
    ab02:	4362                	lw	t1,24(sp)
    ab04:	48f2                	lw	a7,28(sp)
    ab06:	f94d                	bnez	a0,aab8 <__gethex+0x278>
    ab08:	8c1a                	mv	s8,t1
    ab0a:	b731                	j	aa16 <__gethex+0x1d6>
    ab0c:	4a01                	li	s4,0
    ab0e:	f774dde3          	bge	s1,s7,aa88 <__gethex+0x248>
    ab12:	409b84b3          	sub	s1,s7,s1
    ab16:	85ee                	mv	a1,s11
    ab18:	8626                	mv	a2,s1
    ab1a:	8556                	mv	a0,s5
    ab1c:	1e9000ef          	jal	ra,b504 <__lshift>
    ab20:	8daa                	mv	s11,a0
    ab22:	8c05                	sub	s0,s0,s1
    ab24:	01450993          	addi	s3,a0,20
    ab28:	b785                	j	aa88 <__gethex+0x248>
    ab2a:	00492703          	lw	a4,4(s2)
    ab2e:	0ee45563          	bge	s0,a4,ac18 <__gethex+0x3d8>
    ab32:	40870433          	sub	s0,a4,s0
    ab36:	07744563          	blt	s0,s7,aba0 <__gethex+0x360>
    ab3a:	00c92703          	lw	a4,12(s2)
    ab3e:	4689                	li	a3,2
    ab40:	04d70a63          	beq	a4,a3,ab94 <__gethex+0x354>
    ab44:	468d                	li	a3,3
    ab46:	04d70a63          	beq	a4,a3,ab9a <__gethex+0x35a>
    ab4a:	4685                	li	a3,1
    ab4c:	02d71b63          	bne	a4,a3,ab82 <__gethex+0x342>
    ab50:	028b9963          	bne	s7,s0,ab82 <__gethex+0x342>
    ab54:	02eb9163          	bne	s7,a4,ab76 <__gethex+0x336>
    ab58:	00492703          	lw	a4,4(s2)
    ab5c:	47b2                	lw	a5,12(sp)
    ab5e:	06200493          	li	s1,98
    ab62:	c398                	sw	a4,0(a5)
    ab64:	4705                	li	a4,1
    ab66:	4792                	lw	a5,4(sp)
    ab68:	00eda823          	sw	a4,16(s11)
    ab6c:	00e9a023          	sw	a4,0(s3)
    ab70:	01b7a023          	sw	s11,0(a5)
    ab74:	bd05                	j	a9a4 <__gethex+0x164>
    ab76:	fffb8593          	addi	a1,s7,-1
    ab7a:	856e                	mv	a0,s11
    ab7c:	5f3000ef          	jal	ra,b96e <__any_on>
    ab80:	fd61                	bnez	a0,ab58 <__gethex+0x318>
    ab82:	85ee                	mv	a1,s11
    ab84:	8556                	mv	a0,s5
    ab86:	2b05                	jal	b0b6 <_Bfree>
    ab88:	4792                	lw	a5,4(sp)
    ab8a:	05000493          	li	s1,80
    ab8e:	0007a023          	sw	zero,0(a5)
    ab92:	bd09                	j	a9a4 <__gethex+0x164>
    ab94:	fe0b17e3          	bnez	s6,ab82 <__gethex+0x342>
    ab98:	b7c1                	j	ab58 <__gethex+0x318>
    ab9a:	fa0b1fe3          	bnez	s6,ab58 <__gethex+0x318>
    ab9e:	b7d5                	j	ab82 <__gethex+0x342>
    aba0:	fff40493          	addi	s1,s0,-1
    aba4:	060a1863          	bnez	s4,ac14 <__gethex+0x3d4>
    aba8:	c491                	beqz	s1,abb4 <__gethex+0x374>
    abaa:	85a6                	mv	a1,s1
    abac:	856e                	mv	a0,s11
    abae:	5c1000ef          	jal	ra,b96e <__any_on>
    abb2:	8a2a                	mv	s4,a0
    abb4:	4054d713          	srai	a4,s1,0x5
    abb8:	070a                	slli	a4,a4,0x2
    abba:	974e                	add	a4,a4,s3
    abbc:	4318                	lw	a4,0(a4)
    abbe:	4585                	li	a1,1
    abc0:	009595b3          	sll	a1,a1,s1
    abc4:	8df9                	and	a1,a1,a4
    abc6:	c199                	beqz	a1,abcc <__gethex+0x38c>
    abc8:	002a6a13          	ori	s4,s4,2
    abcc:	85a2                	mv	a1,s0
    abce:	856e                	mv	a0,s11
    abd0:	408b8bb3          	sub	s7,s7,s0
    abd4:	bb7ff0ef          	jal	ra,a78a <rshift>
    abd8:	00492403          	lw	s0,4(s2)
    abdc:	4489                	li	s1,2
    abde:	080a0b63          	beqz	s4,ac74 <__gethex+0x434>
    abe2:	00c92703          	lw	a4,12(s2)
    abe6:	4689                	li	a3,2
    abe8:	02d70a63          	beq	a4,a3,ac1c <__gethex+0x3dc>
    abec:	468d                	li	a3,3
    abee:	02d70a63          	beq	a4,a3,ac22 <__gethex+0x3e2>
    abf2:	4685                	li	a3,1
    abf4:	00d71d63          	bne	a4,a3,ac0e <__gethex+0x3ce>
    abf8:	002a7713          	andi	a4,s4,2
    abfc:	cb09                	beqz	a4,ac0e <__gethex+0x3ce>
    abfe:	0009a703          	lw	a4,0(s3)
    ac02:	00ea6a33          	or	s4,s4,a4
    ac06:	001a7a13          	andi	s4,s4,1
    ac0a:	000a1e63          	bnez	s4,ac26 <__gethex+0x3e6>
    ac0e:	0104e493          	ori	s1,s1,16
    ac12:	a08d                	j	ac74 <__gethex+0x434>
    ac14:	4a05                	li	s4,1
    ac16:	bf79                	j	abb4 <__gethex+0x374>
    ac18:	4485                	li	s1,1
    ac1a:	b7d1                	j	abde <__gethex+0x39e>
    ac1c:	4705                	li	a4,1
    ac1e:	41670b33          	sub	s6,a4,s6
    ac22:	fe0b06e3          	beqz	s6,ac0e <__gethex+0x3ce>
    ac26:	010da983          	lw	s3,16(s11)
    ac2a:	014d8713          	addi	a4,s11,20
    ac2e:	55fd                	li	a1,-1
    ac30:	00299a13          	slli	s4,s3,0x2
    ac34:	01470633          	add	a2,a4,s4
    ac38:	4314                	lw	a3,0(a4)
    ac3a:	04b68363          	beq	a3,a1,ac80 <__gethex+0x440>
    ac3e:	0685                	addi	a3,a3,1
    ac40:	c314                	sw	a3,0(a4)
    ac42:	4689                	li	a3,2
    ac44:	014d8713          	addi	a4,s11,20
    ac48:	08d49463          	bne	s1,a3,acd0 <__gethex+0x490>
    ac4c:	00092683          	lw	a3,0(s2)
    ac50:	16fd                	addi	a3,a3,-1
    ac52:	01769f63          	bne	a3,s7,ac70 <__gethex+0x430>
    ac56:	405bd693          	srai	a3,s7,0x5
    ac5a:	068a                	slli	a3,a3,0x2
    ac5c:	9736                	add	a4,a4,a3
    ac5e:	4318                	lw	a4,0(a4)
    ac60:	4685                	li	a3,1
    ac62:	01769bb3          	sll	s7,a3,s7
    ac66:	00ebfbb3          	and	s7,s7,a4
    ac6a:	000b8363          	beqz	s7,ac70 <__gethex+0x430>
    ac6e:	4485                	li	s1,1
    ac70:	0204e493          	ori	s1,s1,32
    ac74:	4792                	lw	a5,4(sp)
    ac76:	01b7a023          	sw	s11,0(a5)
    ac7a:	47b2                	lw	a5,12(sp)
    ac7c:	c380                	sw	s0,0(a5)
    ac7e:	b31d                	j	a9a4 <__gethex+0x164>
    ac80:	0711                	addi	a4,a4,4
    ac82:	fe072e23          	sw	zero,-4(a4)
    ac86:	fac769e3          	bltu	a4,a2,ac38 <__gethex+0x3f8>
    ac8a:	008da703          	lw	a4,8(s11)
    ac8e:	02e9c563          	blt	s3,a4,acb8 <__gethex+0x478>
    ac92:	004da583          	lw	a1,4(s11)
    ac96:	8556                	mv	a0,s5
    ac98:	0585                	addi	a1,a1,1
    ac9a:	2e41                	jal	b02a <_Balloc>
    ac9c:	010da603          	lw	a2,16(s11)
    aca0:	00cd8593          	addi	a1,s11,12
    aca4:	8b2a                	mv	s6,a0
    aca6:	0609                	addi	a2,a2,2
    aca8:	060a                	slli	a2,a2,0x2
    acaa:	0531                	addi	a0,a0,12
    acac:	955fc0ef          	jal	ra,7600 <memcpy>
    acb0:	85ee                	mv	a1,s11
    acb2:	8556                	mv	a0,s5
    acb4:	2109                	jal	b0b6 <_Bfree>
    acb6:	8dda                	mv	s11,s6
    acb8:	010da703          	lw	a4,16(s11)
    acbc:	00170693          	addi	a3,a4,1
    acc0:	0711                	addi	a4,a4,4
    acc2:	070a                	slli	a4,a4,0x2
    acc4:	00dda823          	sw	a3,16(s11)
    acc8:	976e                	add	a4,a4,s11
    acca:	4685                	li	a3,1
    accc:	c354                	sw	a3,4(a4)
    acce:	bf95                	j	ac42 <__gethex+0x402>
    acd0:	010da683          	lw	a3,16(s11)
    acd4:	00d9dc63          	bge	s3,a3,acec <__gethex+0x4ac>
    acd8:	4585                	li	a1,1
    acda:	856e                	mv	a0,s11
    acdc:	aafff0ef          	jal	ra,a78a <rshift>
    ace0:	00892703          	lw	a4,8(s2)
    ace4:	0405                	addi	s0,s0,1
    ace6:	f88754e3          	bge	a4,s0,ac6e <__gethex+0x42e>
    acea:	b35d                	j	aa90 <__gethex+0x250>
    acec:	01fbfb93          	andi	s7,s7,31
    acf0:	4485                	li	s1,1
    acf2:	f60b8fe3          	beqz	s7,ac70 <__gethex+0x430>
    acf6:	9752                	add	a4,a4,s4
    acf8:	ffc72503          	lw	a0,-4(a4)
    acfc:	2b2d                	jal	b236 <__hi0bits>
    acfe:	02000713          	li	a4,32
    ad02:	41770bb3          	sub	s7,a4,s7
    ad06:	fd7549e3          	blt	a0,s7,acd8 <__gethex+0x498>
    ad0a:	b79d                	j	ac70 <__gethex+0x430>

0000ad0c <L_shift>:
    ad0c:	47a1                	li	a5,8
    ad0e:	40c78633          	sub	a2,a5,a2
    ad12:	060a                	slli	a2,a2,0x2
    ad14:	02000693          	li	a3,32
    ad18:	8e91                	sub	a3,a3,a2
    ad1a:	415c                	lw	a5,4(a0)
    ad1c:	4118                	lw	a4,0(a0)
    ad1e:	0511                	addi	a0,a0,4
    ad20:	00d79833          	sll	a6,a5,a3
    ad24:	01076733          	or	a4,a4,a6
    ad28:	00c7d7b3          	srl	a5,a5,a2
    ad2c:	fee52e23          	sw	a4,-4(a0)
    ad30:	c11c                	sw	a5,0(a0)
    ad32:	feb564e3          	bltu	a0,a1,ad1a <L_shift+0xe>
    ad36:	8082                	ret

0000ad38 <__match>:
    ad38:	411c                	lw	a5,0(a0)
    ad3a:	4865                	li	a6,25
    ad3c:	0585                	addi	a1,a1,1
    ad3e:	fff5c603          	lbu	a2,-1(a1)
    ad42:	0785                	addi	a5,a5,1
    ad44:	e601                	bnez	a2,ad4c <__match+0x14>
    ad46:	c11c                	sw	a5,0(a0)
    ad48:	4505                	li	a0,1
    ad4a:	8082                	ret
    ad4c:	2398                	lbu	a4,0(a5)
    ad4e:	fbf70693          	addi	a3,a4,-65
    ad52:	0ff6f693          	andi	a3,a3,255
    ad56:	00d86463          	bltu	a6,a3,ad5e <__match+0x26>
    ad5a:	02070713          	addi	a4,a4,32
    ad5e:	fcc70fe3          	beq	a4,a2,ad3c <__match+0x4>
    ad62:	4501                	li	a0,0
    ad64:	8082                	ret

0000ad66 <__hexnan>:
    ad66:	715d                	addi	sp,sp,-80
    ad68:	dc52                	sw	s4,56(sp)
    ad6a:	0005aa03          	lw	s4,0(a1)
    ad6e:	c2a6                	sw	s1,68(sp)
    ad70:	de4e                	sw	s3,60(sp)
    ad72:	405a5493          	srai	s1,s4,0x5
    ad76:	d85a                	sw	s6,48(sp)
    ad78:	048a                	slli	s1,s1,0x2
    ad7a:	c686                	sw	ra,76(sp)
    ad7c:	c4a2                	sw	s0,72(sp)
    ad7e:	c0ca                	sw	s2,64(sp)
    ad80:	da56                	sw	s5,52(sp)
    ad82:	d65e                	sw	s7,44(sp)
    ad84:	d462                	sw	s8,40(sp)
    ad86:	d266                	sw	s9,36(sp)
    ad88:	d06a                	sw	s10,32(sp)
    ad8a:	ce6e                	sw	s11,28(sp)
    ad8c:	01fa7a13          	andi	s4,s4,31
    ad90:	8b2a                	mv	s6,a0
    ad92:	89b2                	mv	s3,a2
    ad94:	94b2                	add	s1,s1,a2
    ad96:	000a0363          	beqz	s4,ad9c <__hexnan+0x36>
    ad9a:	0491                	addi	s1,s1,4
    ad9c:	000b2783          	lw	a5,0(s6)
    ada0:	ffc48913          	addi	s2,s1,-4
    ada4:	fe04ae23          	sw	zero,-4(s1)
    ada8:	8dca                	mv	s11,s2
    adaa:	844a                	mv	s0,s2
    adac:	4601                	li	a2,0
    adae:	4a81                	li	s5,0
    adb0:	4b81                	li	s7,0
    adb2:	4c21                	li	s8,8
    adb4:	02000c93          	li	s9,32
    adb8:	4d1d                	li	s10,7
    adba:	3394                	lbu	a3,1(a5)
    adbc:	00178713          	addi	a4,a5,1
    adc0:	c03a                	sw	a4,0(sp)
    adc2:	cab1                	beqz	a3,ae16 <__hexnan+0xb0>
    adc4:	8536                	mv	a0,a3
    adc6:	c632                	sw	a2,12(sp)
    adc8:	c43e                	sw	a5,8(sp)
    adca:	c236                	sw	a3,4(sp)
    adcc:	a35ff0ef          	jal	ra,a800 <__hexdig_fun>
    add0:	4632                	lw	a2,12(sp)
    add2:	e559                	bnez	a0,ae60 <__hexnan+0xfa>
    add4:	4692                	lw	a3,4(sp)
    add6:	47a2                	lw	a5,8(sp)
    add8:	02dce863          	bltu	s9,a3,ae08 <__hexnan+0xa2>
    addc:	037ad463          	bge	s5,s7,ae04 <__hexnan+0x9e>
    ade0:	01b47863          	bgeu	s0,s11,adf0 <__hexnan+0x8a>
    ade4:	00cd4663          	blt	s10,a2,adf0 <__hexnan+0x8a>
    ade8:	85ee                	mv	a1,s11
    adea:	8522                	mv	a0,s0
    adec:	f21ff0ef          	jal	ra,ad0c <L_shift>
    adf0:	4621                	li	a2,8
    adf2:	0089f963          	bgeu	s3,s0,ae04 <__hexnan+0x9e>
    adf6:	ffc40d93          	addi	s11,s0,-4
    adfa:	fe042e23          	sw	zero,-4(s0)
    adfe:	8ade                	mv	s5,s7
    ae00:	846e                	mv	s0,s11
    ae02:	4601                	li	a2,0
    ae04:	4782                	lw	a5,0(sp)
    ae06:	bf55                	j	adba <__hexnan+0x54>
    ae08:	02900593          	li	a1,41
    ae0c:	08b69c63          	bne	a3,a1,aea4 <__hexnan+0x13e>
    ae10:	0789                	addi	a5,a5,2
    ae12:	00fb2023          	sw	a5,0(s6)
    ae16:	080b8763          	beqz	s7,aea4 <__hexnan+0x13e>
    ae1a:	01b47963          	bgeu	s0,s11,ae2c <__hexnan+0xc6>
    ae1e:	479d                	li	a5,7
    ae20:	00c7c663          	blt	a5,a2,ae2c <__hexnan+0xc6>
    ae24:	85ee                	mv	a1,s11
    ae26:	8522                	mv	a0,s0
    ae28:	ee5ff0ef          	jal	ra,ad0c <L_shift>
    ae2c:	0489fa63          	bgeu	s3,s0,ae80 <__hexnan+0x11a>
    ae30:	87ce                	mv	a5,s3
    ae32:	0411                	addi	s0,s0,4
    ae34:	ffc42703          	lw	a4,-4(s0)
    ae38:	0791                	addi	a5,a5,4
    ae3a:	fee7ae23          	sw	a4,-4(a5)
    ae3e:	fe897ae3          	bgeu	s2,s0,ae32 <__hexnan+0xcc>
    ae42:	0791                	addi	a5,a5,4
    ae44:	fe07ae23          	sw	zero,-4(a5)
    ae48:	fef97de3          	bgeu	s2,a5,ae42 <__hexnan+0xdc>
    ae4c:	00092783          	lw	a5,0(s2)
    ae50:	e791                	bnez	a5,ae5c <__hexnan+0xf6>
    ae52:	05391763          	bne	s2,s3,aea0 <__hexnan+0x13a>
    ae56:	4785                	li	a5,1
    ae58:	00f92023          	sw	a5,0(s2)
    ae5c:	4515                	li	a0,5
    ae5e:	a0a1                	j	aea6 <__hexnan+0x140>
    ae60:	0605                	addi	a2,a2,1
    ae62:	0b85                	addi	s7,s7,1
    ae64:	00cc5863          	bge	s8,a2,ae74 <__hexnan+0x10e>
    ae68:	f889fee3          	bgeu	s3,s0,ae04 <__hexnan+0x9e>
    ae6c:	fe042e23          	sw	zero,-4(s0)
    ae70:	4605                	li	a2,1
    ae72:	1471                	addi	s0,s0,-4
    ae74:	401c                	lw	a5,0(s0)
    ae76:	893d                	andi	a0,a0,15
    ae78:	0792                	slli	a5,a5,0x4
    ae7a:	8fc9                	or	a5,a5,a0
    ae7c:	c01c                	sw	a5,0(s0)
    ae7e:	b759                	j	ae04 <__hexnan+0x9e>
    ae80:	fc0a06e3          	beqz	s4,ae4c <__hexnan+0xe6>
    ae84:	02000793          	li	a5,32
    ae88:	414787b3          	sub	a5,a5,s4
    ae8c:	5a7d                	li	s4,-1
    ae8e:	00fa57b3          	srl	a5,s4,a5
    ae92:	ffc4aa03          	lw	s4,-4(s1)
    ae96:	00fa7a33          	and	s4,s4,a5
    ae9a:	ff44ae23          	sw	s4,-4(s1)
    ae9e:	b77d                	j	ae4c <__hexnan+0xe6>
    aea0:	1971                	addi	s2,s2,-4
    aea2:	b76d                	j	ae4c <__hexnan+0xe6>
    aea4:	4511                	li	a0,4
    aea6:	40b6                	lw	ra,76(sp)
    aea8:	4426                	lw	s0,72(sp)
    aeaa:	4496                	lw	s1,68(sp)
    aeac:	4906                	lw	s2,64(sp)
    aeae:	59f2                	lw	s3,60(sp)
    aeb0:	5a62                	lw	s4,56(sp)
    aeb2:	5ad2                	lw	s5,52(sp)
    aeb4:	5b42                	lw	s6,48(sp)
    aeb6:	5bb2                	lw	s7,44(sp)
    aeb8:	5c22                	lw	s8,40(sp)
    aeba:	5c92                	lw	s9,36(sp)
    aebc:	5d02                	lw	s10,32(sp)
    aebe:	4df2                	lw	s11,28(sp)
    aec0:	6161                	addi	sp,sp,80
    aec2:	8082                	ret

0000aec4 <__locale_ctype_ptr_l>:
    aec4:	0ec52503          	lw	a0,236(a0)
    aec8:	8082                	ret

0000aeca <__localeconv_l>:
    aeca:	0f050513          	addi	a0,a0,240
    aece:	8082                	ret

0000aed0 <_localeconv_r>:
    aed0:	81018793          	addi	a5,gp,-2032 # 20000238 <_impure_ptr>
    aed4:	439c                	lw	a5,0(a5)
    aed6:	5388                	lw	a0,32(a5)
    aed8:	e509                	bnez	a0,aee2 <_localeconv_r+0x12>
    aeda:	1fff5517          	auipc	a0,0x1fff5
    aede:	1de50513          	addi	a0,a0,478 # 200000b8 <__global_locale>
    aee2:	0f050513          	addi	a0,a0,240
    aee6:	8082                	ret

0000aee8 <__swhatbuf_r>:
    aee8:	7119                	addi	sp,sp,-128
    aeea:	daa6                	sw	s1,116(sp)
    aeec:	84ae                	mv	s1,a1
    aeee:	00e59583          	lh	a1,14(a1)
    aef2:	dca2                	sw	s0,120(sp)
    aef4:	de86                	sw	ra,124(sp)
    aef6:	8432                	mv	s0,a2
    aef8:	0005db63          	bgez	a1,af0e <__swhatbuf_r+0x26>
    aefc:	24de                	lhu	a5,12(s1)
    aefe:	0006a023          	sw	zero,0(a3)
    af02:	0807f793          	andi	a5,a5,128
    af06:	e785                	bnez	a5,af2e <__swhatbuf_r+0x46>
    af08:	40000793          	li	a5,1024
    af0c:	a01d                	j	af32 <__swhatbuf_r+0x4a>
    af0e:	0830                	addi	a2,sp,24
    af10:	c636                	sw	a3,12(sp)
    af12:	3f6010ef          	jal	ra,c308 <_fstat_r>
    af16:	46b2                	lw	a3,12(sp)
    af18:	fe0542e3          	bltz	a0,aefc <__swhatbuf_r+0x14>
    af1c:	4772                	lw	a4,28(sp)
    af1e:	67bd                	lui	a5,0xf
    af20:	8ff9                	and	a5,a5,a4
    af22:	7779                	lui	a4,0xffffe
    af24:	97ba                	add	a5,a5,a4
    af26:	0017b793          	seqz	a5,a5
    af2a:	c29c                	sw	a5,0(a3)
    af2c:	bff1                	j	af08 <__swhatbuf_r+0x20>
    af2e:	04000793          	li	a5,64
    af32:	c01c                	sw	a5,0(s0)
    af34:	50f6                	lw	ra,124(sp)
    af36:	5466                	lw	s0,120(sp)
    af38:	54d6                	lw	s1,116(sp)
    af3a:	4501                	li	a0,0
    af3c:	6109                	addi	sp,sp,128
    af3e:	8082                	ret

0000af40 <__smakebuf_r>:
    af40:	25de                	lhu	a5,12(a1)
    af42:	1101                	addi	sp,sp,-32
    af44:	cc22                	sw	s0,24(sp)
    af46:	ce06                	sw	ra,28(sp)
    af48:	ca26                	sw	s1,20(sp)
    af4a:	c84a                	sw	s2,16(sp)
    af4c:	8b89                	andi	a5,a5,2
    af4e:	842e                	mv	s0,a1
    af50:	cf89                	beqz	a5,af6a <__smakebuf_r+0x2a>
    af52:	04740793          	addi	a5,s0,71
    af56:	c01c                	sw	a5,0(s0)
    af58:	c81c                	sw	a5,16(s0)
    af5a:	4785                	li	a5,1
    af5c:	c85c                	sw	a5,20(s0)
    af5e:	40f2                	lw	ra,28(sp)
    af60:	4462                	lw	s0,24(sp)
    af62:	44d2                	lw	s1,20(sp)
    af64:	4942                	lw	s2,16(sp)
    af66:	6105                	addi	sp,sp,32
    af68:	8082                	ret
    af6a:	0074                	addi	a3,sp,12
    af6c:	0030                	addi	a2,sp,8
    af6e:	84aa                	mv	s1,a0
    af70:	f79ff0ef          	jal	ra,aee8 <__swhatbuf_r>
    af74:	45a2                	lw	a1,8(sp)
    af76:	892a                	mv	s2,a0
    af78:	8526                	mv	a0,s1
    af7a:	309000ef          	jal	ra,ba82 <_malloc_r>
    af7e:	e919                	bnez	a0,af94 <__smakebuf_r+0x54>
    af80:	00c41783          	lh	a5,12(s0)
    af84:	2007f713          	andi	a4,a5,512
    af88:	fb79                	bnez	a4,af5e <__smakebuf_r+0x1e>
    af8a:	9bf1                	andi	a5,a5,-4
    af8c:	0027e793          	ori	a5,a5,2
    af90:	a45e                	sh	a5,12(s0)
    af92:	b7c1                	j	af52 <__smakebuf_r+0x12>
    af94:	fffff797          	auipc	a5,0xfffff
    af98:	62e78793          	addi	a5,a5,1582 # a5c2 <_cleanup_r>
    af9c:	d49c                	sw	a5,40(s1)
    af9e:	245e                	lhu	a5,12(s0)
    afa0:	c008                	sw	a0,0(s0)
    afa2:	c808                	sw	a0,16(s0)
    afa4:	0807e793          	ori	a5,a5,128
    afa8:	a45e                	sh	a5,12(s0)
    afaa:	47a2                	lw	a5,8(sp)
    afac:	c85c                	sw	a5,20(s0)
    afae:	47b2                	lw	a5,12(sp)
    afb0:	cf81                	beqz	a5,afc8 <__smakebuf_r+0x88>
    afb2:	00e41583          	lh	a1,14(s0)
    afb6:	8526                	mv	a0,s1
    afb8:	37a010ef          	jal	ra,c332 <_isatty_r>
    afbc:	c511                	beqz	a0,afc8 <__smakebuf_r+0x88>
    afbe:	245e                	lhu	a5,12(s0)
    afc0:	9bf1                	andi	a5,a5,-4
    afc2:	0017e793          	ori	a5,a5,1
    afc6:	a45e                	sh	a5,12(s0)
    afc8:	245e                	lhu	a5,12(s0)
    afca:	00f96933          	or	s2,s2,a5
    afce:	01241623          	sh	s2,12(s0)
    afd2:	b771                	j	af5e <__smakebuf_r+0x1e>

0000afd4 <malloc>:
    afd4:	81018793          	addi	a5,gp,-2032 # 20000238 <_impure_ptr>
    afd8:	85aa                	mv	a1,a0
    afda:	4388                	lw	a0,0(a5)
    afdc:	2a70006f          	j	ba82 <_malloc_r>

0000afe0 <__ascii_mbtowc>:
    afe0:	ed91                	bnez	a1,affc <__ascii_mbtowc+0x1c>
    afe2:	1141                	addi	sp,sp,-16
    afe4:	006c                	addi	a1,sp,12
    afe6:	4501                	li	a0,0
    afe8:	ca01                	beqz	a2,aff8 <__ascii_mbtowc+0x18>
    afea:	5579                	li	a0,-2
    afec:	c691                	beqz	a3,aff8 <__ascii_mbtowc+0x18>
    afee:	221c                	lbu	a5,0(a2)
    aff0:	c19c                	sw	a5,0(a1)
    aff2:	2208                	lbu	a0,0(a2)
    aff4:	00a03533          	snez	a0,a0
    aff8:	0141                	addi	sp,sp,16
    affa:	8082                	ret
    affc:	4501                	li	a0,0
    affe:	ca09                	beqz	a2,b010 <__ascii_mbtowc+0x30>
    b000:	5579                	li	a0,-2
    b002:	c699                	beqz	a3,b010 <__ascii_mbtowc+0x30>
    b004:	221c                	lbu	a5,0(a2)
    b006:	c19c                	sw	a5,0(a1)
    b008:	2208                	lbu	a0,0(a2)
    b00a:	00a03533          	snez	a0,a0
    b00e:	8082                	ret
    b010:	8082                	ret

0000b012 <memchr>:
    b012:	0ff5f593          	andi	a1,a1,255
    b016:	962a                	add	a2,a2,a0
    b018:	00c51463          	bne	a0,a2,b020 <memchr+0xe>
    b01c:	4501                	li	a0,0
    b01e:	8082                	ret
    b020:	211c                	lbu	a5,0(a0)
    b022:	feb78ee3          	beq	a5,a1,b01e <memchr+0xc>
    b026:	0505                	addi	a0,a0,1
    b028:	bfc5                	j	b018 <memchr+0x6>

0000b02a <_Balloc>:
    b02a:	515c                	lw	a5,36(a0)
    b02c:	1141                	addi	sp,sp,-16
    b02e:	c422                	sw	s0,8(sp)
    b030:	c04a                	sw	s2,0(sp)
    b032:	c606                	sw	ra,12(sp)
    b034:	c226                	sw	s1,4(sp)
    b036:	842a                	mv	s0,a0
    b038:	892e                	mv	s2,a1
    b03a:	ef89                	bnez	a5,b054 <_Balloc+0x2a>
    b03c:	4541                	li	a0,16
    b03e:	f97ff0ef          	jal	ra,afd4 <malloc>
    b042:	d048                	sw	a0,36(s0)
    b044:	00052223          	sw	zero,4(a0)
    b048:	00052423          	sw	zero,8(a0)
    b04c:	00052023          	sw	zero,0(a0)
    b050:	00052623          	sw	zero,12(a0)
    b054:	5044                	lw	s1,36(s0)
    b056:	44dc                	lw	a5,12(s1)
    b058:	c79d                	beqz	a5,b086 <_Balloc+0x5c>
    b05a:	5058                	lw	a4,36(s0)
    b05c:	00291793          	slli	a5,s2,0x2
    b060:	4758                	lw	a4,12(a4)
    b062:	97ba                	add	a5,a5,a4
    b064:	4388                	lw	a0,0(a5)
    b066:	e129                	bnez	a0,b0a8 <_Balloc+0x7e>
    b068:	4485                	li	s1,1
    b06a:	012494b3          	sll	s1,s1,s2
    b06e:	00548613          	addi	a2,s1,5
    b072:	060a                	slli	a2,a2,0x2
    b074:	4585                	li	a1,1
    b076:	8522                	mv	a0,s0
    b078:	13d000ef          	jal	ra,b9b4 <_calloc_r>
    b07c:	cd19                	beqz	a0,b09a <_Balloc+0x70>
    b07e:	01252223          	sw	s2,4(a0)
    b082:	c504                	sw	s1,8(a0)
    b084:	a025                	j	b0ac <_Balloc+0x82>
    b086:	02100613          	li	a2,33
    b08a:	4591                	li	a1,4
    b08c:	8522                	mv	a0,s0
    b08e:	127000ef          	jal	ra,b9b4 <_calloc_r>
    b092:	505c                	lw	a5,36(s0)
    b094:	c4c8                	sw	a0,12(s1)
    b096:	47dc                	lw	a5,12(a5)
    b098:	f3e9                	bnez	a5,b05a <_Balloc+0x30>
    b09a:	4501                	li	a0,0
    b09c:	40b2                	lw	ra,12(sp)
    b09e:	4422                	lw	s0,8(sp)
    b0a0:	4492                	lw	s1,4(sp)
    b0a2:	4902                	lw	s2,0(sp)
    b0a4:	0141                	addi	sp,sp,16
    b0a6:	8082                	ret
    b0a8:	4118                	lw	a4,0(a0)
    b0aa:	c398                	sw	a4,0(a5)
    b0ac:	00052823          	sw	zero,16(a0)
    b0b0:	00052623          	sw	zero,12(a0)
    b0b4:	b7e5                	j	b09c <_Balloc+0x72>

0000b0b6 <_Bfree>:
    b0b6:	515c                	lw	a5,36(a0)
    b0b8:	1101                	addi	sp,sp,-32
    b0ba:	cc22                	sw	s0,24(sp)
    b0bc:	ce06                	sw	ra,28(sp)
    b0be:	842a                	mv	s0,a0
    b0c0:	ef99                	bnez	a5,b0de <_Bfree+0x28>
    b0c2:	4541                	li	a0,16
    b0c4:	c62e                	sw	a1,12(sp)
    b0c6:	f0fff0ef          	jal	ra,afd4 <malloc>
    b0ca:	45b2                	lw	a1,12(sp)
    b0cc:	d048                	sw	a0,36(s0)
    b0ce:	00052223          	sw	zero,4(a0)
    b0d2:	00052423          	sw	zero,8(a0)
    b0d6:	00052023          	sw	zero,0(a0)
    b0da:	00052623          	sw	zero,12(a0)
    b0de:	c991                	beqz	a1,b0f2 <_Bfree+0x3c>
    b0e0:	5054                	lw	a3,36(s0)
    b0e2:	41dc                	lw	a5,4(a1)
    b0e4:	00279713          	slli	a4,a5,0x2
    b0e8:	46dc                	lw	a5,12(a3)
    b0ea:	97ba                	add	a5,a5,a4
    b0ec:	4398                	lw	a4,0(a5)
    b0ee:	c198                	sw	a4,0(a1)
    b0f0:	c38c                	sw	a1,0(a5)
    b0f2:	40f2                	lw	ra,28(sp)
    b0f4:	4462                	lw	s0,24(sp)
    b0f6:	6105                	addi	sp,sp,32
    b0f8:	8082                	ret

0000b0fa <__multadd>:
    b0fa:	7179                	addi	sp,sp,-48
    b0fc:	ce4e                	sw	s3,28(sp)
    b0fe:	89aa                	mv	s3,a0
    b100:	6541                	lui	a0,0x10
    b102:	d422                	sw	s0,40(sp)
    b104:	d226                	sw	s1,36(sp)
    b106:	842e                	mv	s0,a1
    b108:	4984                	lw	s1,16(a1)
    b10a:	d606                	sw	ra,44(sp)
    b10c:	d04a                	sw	s2,32(sp)
    b10e:	05d1                	addi	a1,a1,20
    b110:	4801                	li	a6,0
    b112:	157d                	addi	a0,a0,-1
    b114:	419c                	lw	a5,0(a1)
    b116:	0591                	addi	a1,a1,4
    b118:	0805                	addi	a6,a6,1
    b11a:	00a7f733          	and	a4,a5,a0
    b11e:	02c70733          	mul	a4,a4,a2
    b122:	83c1                	srli	a5,a5,0x10
    b124:	02c787b3          	mul	a5,a5,a2
    b128:	9736                	add	a4,a4,a3
    b12a:	01075693          	srli	a3,a4,0x10
    b12e:	8f69                	and	a4,a4,a0
    b130:	97b6                	add	a5,a5,a3
    b132:	0107d693          	srli	a3,a5,0x10
    b136:	07c2                	slli	a5,a5,0x10
    b138:	97ba                	add	a5,a5,a4
    b13a:	fef5ae23          	sw	a5,-4(a1)
    b13e:	fc984be3          	blt	a6,s1,b114 <__multadd+0x1a>
    b142:	c2a1                	beqz	a3,b182 <__multadd+0x88>
    b144:	441c                	lw	a5,8(s0)
    b146:	02f4c763          	blt	s1,a5,b174 <__multadd+0x7a>
    b14a:	404c                	lw	a1,4(s0)
    b14c:	854e                	mv	a0,s3
    b14e:	c636                	sw	a3,12(sp)
    b150:	0585                	addi	a1,a1,1
    b152:	ed9ff0ef          	jal	ra,b02a <_Balloc>
    b156:	4810                	lw	a2,16(s0)
    b158:	00c40593          	addi	a1,s0,12
    b15c:	892a                	mv	s2,a0
    b15e:	0609                	addi	a2,a2,2
    b160:	060a                	slli	a2,a2,0x2
    b162:	0531                	addi	a0,a0,12
    b164:	c9cfc0ef          	jal	ra,7600 <memcpy>
    b168:	85a2                	mv	a1,s0
    b16a:	854e                	mv	a0,s3
    b16c:	f4bff0ef          	jal	ra,b0b6 <_Bfree>
    b170:	46b2                	lw	a3,12(sp)
    b172:	844a                	mv	s0,s2
    b174:	00448793          	addi	a5,s1,4
    b178:	078a                	slli	a5,a5,0x2
    b17a:	97a2                	add	a5,a5,s0
    b17c:	c3d4                	sw	a3,4(a5)
    b17e:	0485                	addi	s1,s1,1
    b180:	c804                	sw	s1,16(s0)
    b182:	8522                	mv	a0,s0
    b184:	50b2                	lw	ra,44(sp)
    b186:	5422                	lw	s0,40(sp)
    b188:	5492                	lw	s1,36(sp)
    b18a:	5902                	lw	s2,32(sp)
    b18c:	49f2                	lw	s3,28(sp)
    b18e:	6145                	addi	sp,sp,48
    b190:	8082                	ret

0000b192 <__s2b>:
    b192:	7179                	addi	sp,sp,-48
    b194:	00868793          	addi	a5,a3,8
    b198:	cc52                	sw	s4,24(sp)
    b19a:	8a36                	mv	s4,a3
    b19c:	46a5                	li	a3,9
    b19e:	d422                	sw	s0,40(sp)
    b1a0:	d226                	sw	s1,36(sp)
    b1a2:	ce4e                	sw	s3,28(sp)
    b1a4:	842e                	mv	s0,a1
    b1a6:	02d7c7b3          	div	a5,a5,a3
    b1aa:	d606                	sw	ra,44(sp)
    b1ac:	d04a                	sw	s2,32(sp)
    b1ae:	ca56                	sw	s5,20(sp)
    b1b0:	89aa                	mv	s3,a0
    b1b2:	84b2                	mv	s1,a2
    b1b4:	4685                	li	a3,1
    b1b6:	4581                	li	a1,0
    b1b8:	04f6cc63          	blt	a3,a5,b210 <__s2b+0x7e>
    b1bc:	854e                	mv	a0,s3
    b1be:	c63a                	sw	a4,12(sp)
    b1c0:	e6bff0ef          	jal	ra,b02a <_Balloc>
    b1c4:	4732                	lw	a4,12(sp)
    b1c6:	4785                	li	a5,1
    b1c8:	c91c                	sw	a5,16(a0)
    b1ca:	c958                	sw	a4,20(a0)
    b1cc:	47a5                	li	a5,9
    b1ce:	0497d463          	bge	a5,s1,b216 <__s2b+0x84>
    b1d2:	00940a93          	addi	s5,s0,9
    b1d6:	8956                	mv	s2,s5
    b1d8:	9426                	add	s0,s0,s1
    b1da:	0905                	addi	s2,s2,1
    b1dc:	fff94683          	lbu	a3,-1(s2)
    b1e0:	85aa                	mv	a1,a0
    b1e2:	4629                	li	a2,10
    b1e4:	fd068693          	addi	a3,a3,-48
    b1e8:	854e                	mv	a0,s3
    b1ea:	f11ff0ef          	jal	ra,b0fa <__multadd>
    b1ee:	fe8916e3          	bne	s2,s0,b1da <__s2b+0x48>
    b1f2:	ff848413          	addi	s0,s1,-8
    b1f6:	9456                	add	s0,s0,s5
    b1f8:	8926                	mv	s2,s1
    b1fa:	03494163          	blt	s2,s4,b21c <__s2b+0x8a>
    b1fe:	50b2                	lw	ra,44(sp)
    b200:	5422                	lw	s0,40(sp)
    b202:	5492                	lw	s1,36(sp)
    b204:	5902                	lw	s2,32(sp)
    b206:	49f2                	lw	s3,28(sp)
    b208:	4a62                	lw	s4,24(sp)
    b20a:	4ad2                	lw	s5,20(sp)
    b20c:	6145                	addi	sp,sp,48
    b20e:	8082                	ret
    b210:	0686                	slli	a3,a3,0x1
    b212:	0585                	addi	a1,a1,1
    b214:	b755                	j	b1b8 <__s2b+0x26>
    b216:	0429                	addi	s0,s0,10
    b218:	44a5                	li	s1,9
    b21a:	bff9                	j	b1f8 <__s2b+0x66>
    b21c:	409907b3          	sub	a5,s2,s1
    b220:	97a2                	add	a5,a5,s0
    b222:	2394                	lbu	a3,0(a5)
    b224:	85aa                	mv	a1,a0
    b226:	4629                	li	a2,10
    b228:	fd068693          	addi	a3,a3,-48
    b22c:	854e                	mv	a0,s3
    b22e:	ecdff0ef          	jal	ra,b0fa <__multadd>
    b232:	0905                	addi	s2,s2,1
    b234:	b7d9                	j	b1fa <__s2b+0x68>

0000b236 <__hi0bits>:
    b236:	7741                	lui	a4,0xffff0
    b238:	8f69                	and	a4,a4,a0
    b23a:	87aa                	mv	a5,a0
    b23c:	4501                	li	a0,0
    b23e:	e319                	bnez	a4,b244 <__hi0bits+0xe>
    b240:	07c2                	slli	a5,a5,0x10
    b242:	4541                	li	a0,16
    b244:	ff000737          	lui	a4,0xff000
    b248:	8f7d                	and	a4,a4,a5
    b24a:	e319                	bnez	a4,b250 <__hi0bits+0x1a>
    b24c:	0521                	addi	a0,a0,8
    b24e:	07a2                	slli	a5,a5,0x8
    b250:	f0000737          	lui	a4,0xf0000
    b254:	8f7d                	and	a4,a4,a5
    b256:	e319                	bnez	a4,b25c <__hi0bits+0x26>
    b258:	0511                	addi	a0,a0,4
    b25a:	0792                	slli	a5,a5,0x4
    b25c:	c0000737          	lui	a4,0xc0000
    b260:	8f7d                	and	a4,a4,a5
    b262:	e319                	bnez	a4,b268 <__hi0bits+0x32>
    b264:	0509                	addi	a0,a0,2
    b266:	078a                	slli	a5,a5,0x2
    b268:	0007c963          	bltz	a5,b27a <__hi0bits+0x44>
    b26c:	00179713          	slli	a4,a5,0x1
    b270:	0505                	addi	a0,a0,1
    b272:	00074463          	bltz	a4,b27a <__hi0bits+0x44>
    b276:	02000513          	li	a0,32
    b27a:	8082                	ret

0000b27c <__lo0bits>:
    b27c:	411c                	lw	a5,0(a0)
    b27e:	0077f713          	andi	a4,a5,7
    b282:	c30d                	beqz	a4,b2a4 <__lo0bits+0x28>
    b284:	0017f693          	andi	a3,a5,1
    b288:	4701                	li	a4,0
    b28a:	e699                	bnez	a3,b298 <__lo0bits+0x1c>
    b28c:	0027f713          	andi	a4,a5,2
    b290:	c711                	beqz	a4,b29c <__lo0bits+0x20>
    b292:	8385                	srli	a5,a5,0x1
    b294:	c11c                	sw	a5,0(a0)
    b296:	4705                	li	a4,1
    b298:	853a                	mv	a0,a4
    b29a:	8082                	ret
    b29c:	8389                	srli	a5,a5,0x2
    b29e:	c11c                	sw	a5,0(a0)
    b2a0:	4709                	li	a4,2
    b2a2:	bfdd                	j	b298 <__lo0bits+0x1c>
    b2a4:	01079693          	slli	a3,a5,0x10
    b2a8:	82c1                	srli	a3,a3,0x10
    b2aa:	4701                	li	a4,0
    b2ac:	e299                	bnez	a3,b2b2 <__lo0bits+0x36>
    b2ae:	83c1                	srli	a5,a5,0x10
    b2b0:	4741                	li	a4,16
    b2b2:	0ff7f693          	andi	a3,a5,255
    b2b6:	e299                	bnez	a3,b2bc <__lo0bits+0x40>
    b2b8:	0721                	addi	a4,a4,8
    b2ba:	83a1                	srli	a5,a5,0x8
    b2bc:	00f7f693          	andi	a3,a5,15
    b2c0:	e299                	bnez	a3,b2c6 <__lo0bits+0x4a>
    b2c2:	0711                	addi	a4,a4,4
    b2c4:	8391                	srli	a5,a5,0x4
    b2c6:	0037f693          	andi	a3,a5,3
    b2ca:	e299                	bnez	a3,b2d0 <__lo0bits+0x54>
    b2cc:	0709                	addi	a4,a4,2
    b2ce:	8389                	srli	a5,a5,0x2
    b2d0:	0017f693          	andi	a3,a5,1
    b2d4:	e681                	bnez	a3,b2dc <__lo0bits+0x60>
    b2d6:	8385                	srli	a5,a5,0x1
    b2d8:	0705                	addi	a4,a4,1
    b2da:	c399                	beqz	a5,b2e0 <__lo0bits+0x64>
    b2dc:	c11c                	sw	a5,0(a0)
    b2de:	bf6d                	j	b298 <__lo0bits+0x1c>
    b2e0:	02000713          	li	a4,32
    b2e4:	bf55                	j	b298 <__lo0bits+0x1c>

0000b2e6 <__i2b>:
    b2e6:	1141                	addi	sp,sp,-16
    b2e8:	c422                	sw	s0,8(sp)
    b2ea:	842e                	mv	s0,a1
    b2ec:	4585                	li	a1,1
    b2ee:	c606                	sw	ra,12(sp)
    b2f0:	d3bff0ef          	jal	ra,b02a <_Balloc>
    b2f4:	c940                	sw	s0,20(a0)
    b2f6:	40b2                	lw	ra,12(sp)
    b2f8:	4422                	lw	s0,8(sp)
    b2fa:	4705                	li	a4,1
    b2fc:	c918                	sw	a4,16(a0)
    b2fe:	0141                	addi	sp,sp,16
    b300:	8082                	ret

0000b302 <__multiply>:
    b302:	4998                	lw	a4,16(a1)
    b304:	4a1c                	lw	a5,16(a2)
    b306:	7179                	addi	sp,sp,-48
    b308:	d226                	sw	s1,36(sp)
    b30a:	d606                	sw	ra,44(sp)
    b30c:	d422                	sw	s0,40(sp)
    b30e:	d04a                	sw	s2,32(sp)
    b310:	ce4e                	sw	s3,28(sp)
    b312:	84ae                	mv	s1,a1
    b314:	00f75463          	bge	a4,a5,b31c <__multiply+0x1a>
    b318:	84b2                	mv	s1,a2
    b31a:	862e                	mv	a2,a1
    b31c:	0104a983          	lw	s3,16(s1)
    b320:	01062903          	lw	s2,16(a2) # 10010 <_data_lma+0x203c>
    b324:	449c                	lw	a5,8(s1)
    b326:	40cc                	lw	a1,4(s1)
    b328:	01298433          	add	s0,s3,s2
    b32c:	0087d363          	bge	a5,s0,b332 <__multiply+0x30>
    b330:	0585                	addi	a1,a1,1
    b332:	c632                	sw	a2,12(sp)
    b334:	cf7ff0ef          	jal	ra,b02a <_Balloc>
    b338:	4632                	lw	a2,12(sp)
    b33a:	01450813          	addi	a6,a0,20 # 10014 <_data_lma+0x2040>
    b33e:	00241313          	slli	t1,s0,0x2
    b342:	9342                	add	t1,t1,a6
    b344:	87c2                	mv	a5,a6
    b346:	0267ed63          	bltu	a5,t1,b380 <__multiply+0x7e>
    b34a:	01448593          	addi	a1,s1,20
    b34e:	00299893          	slli	a7,s3,0x2
    b352:	0651                	addi	a2,a2,20
    b354:	00291e13          	slli	t3,s2,0x2
    b358:	66c1                	lui	a3,0x10
    b35a:	98ae                	add	a7,a7,a1
    b35c:	9e32                	add	t3,t3,a2
    b35e:	16fd                	addi	a3,a3,-1
    b360:	03c66463          	bltu	a2,t3,b388 <__multiply+0x86>
    b364:	00805663          	blez	s0,b370 <__multiply+0x6e>
    b368:	1371                	addi	t1,t1,-4
    b36a:	00032783          	lw	a5,0(t1)
    b36e:	cbf1                	beqz	a5,b442 <__multiply+0x140>
    b370:	c900                	sw	s0,16(a0)
    b372:	50b2                	lw	ra,44(sp)
    b374:	5422                	lw	s0,40(sp)
    b376:	5492                	lw	s1,36(sp)
    b378:	5902                	lw	s2,32(sp)
    b37a:	49f2                	lw	s3,28(sp)
    b37c:	6145                	addi	sp,sp,48
    b37e:	8082                	ret
    b380:	0007a023          	sw	zero,0(a5)
    b384:	0791                	addi	a5,a5,4
    b386:	b7c1                	j	b346 <__multiply+0x44>
    b388:	00062f83          	lw	t6,0(a2)
    b38c:	00dfffb3          	and	t6,t6,a3
    b390:	040f8a63          	beqz	t6,b3e4 <__multiply+0xe2>
    b394:	8f42                	mv	t5,a6
    b396:	82ae                	mv	t0,a1
    b398:	4481                	li	s1,0
    b39a:	0002a703          	lw	a4,0(t0)
    b39e:	000f2383          	lw	t2,0(t5)
    b3a2:	0f11                	addi	t5,t5,4
    b3a4:	00d77eb3          	and	t4,a4,a3
    b3a8:	03fe8eb3          	mul	t4,t4,t6
    b3ac:	00d3f7b3          	and	a5,t2,a3
    b3b0:	0103d393          	srli	t2,t2,0x10
    b3b4:	0291                	addi	t0,t0,4
    b3b6:	9ebe                	add	t4,t4,a5
    b3b8:	01075793          	srli	a5,a4,0x10
    b3bc:	03f787b3          	mul	a5,a5,t6
    b3c0:	9ea6                	add	t4,t4,s1
    b3c2:	010ed713          	srli	a4,t4,0x10
    b3c6:	00defeb3          	and	t4,t4,a3
    b3ca:	979e                	add	a5,a5,t2
    b3cc:	97ba                	add	a5,a5,a4
    b3ce:	0107d493          	srli	s1,a5,0x10
    b3d2:	07c2                	slli	a5,a5,0x10
    b3d4:	01d7e7b3          	or	a5,a5,t4
    b3d8:	feff2e23          	sw	a5,-4(t5)
    b3dc:	fb12efe3          	bltu	t0,a7,b39a <__multiply+0x98>
    b3e0:	009f2023          	sw	s1,0(t5)
    b3e4:	00265283          	lhu	t0,2(a2)
    b3e8:	04028a63          	beqz	t0,b43c <__multiply+0x13a>
    b3ec:	00082783          	lw	a5,0(a6)
    b3f0:	8ec2                	mv	t4,a6
    b3f2:	8f2e                	mv	t5,a1
    b3f4:	4f81                	li	t6,0
    b3f6:	000f2703          	lw	a4,0(t5)
    b3fa:	002ed383          	lhu	t2,2(t4)
    b3fe:	8ff5                	and	a5,a5,a3
    b400:	8f75                	and	a4,a4,a3
    b402:	02570733          	mul	a4,a4,t0
    b406:	0e91                	addi	t4,t4,4
    b408:	0f11                	addi	t5,t5,4
    b40a:	971e                	add	a4,a4,t2
    b40c:	977e                	add	a4,a4,t6
    b40e:	01071f93          	slli	t6,a4,0x10
    b412:	00ffe7b3          	or	a5,t6,a5
    b416:	fefeae23          	sw	a5,-4(t4)
    b41a:	ffef5783          	lhu	a5,-2(t5)
    b41e:	000eaf83          	lw	t6,0(t4)
    b422:	8341                	srli	a4,a4,0x10
    b424:	025787b3          	mul	a5,a5,t0
    b428:	00dfffb3          	and	t6,t6,a3
    b42c:	97fe                	add	a5,a5,t6
    b42e:	97ba                	add	a5,a5,a4
    b430:	0107df93          	srli	t6,a5,0x10
    b434:	fd1f61e3          	bltu	t5,a7,b3f6 <__multiply+0xf4>
    b438:	00fea023          	sw	a5,0(t4)
    b43c:	0611                	addi	a2,a2,4
    b43e:	0811                	addi	a6,a6,4
    b440:	b705                	j	b360 <__multiply+0x5e>
    b442:	147d                	addi	s0,s0,-1
    b444:	b705                	j	b364 <__multiply+0x62>

0000b446 <__pow5mult>:
    b446:	1101                	addi	sp,sp,-32
    b448:	ca26                	sw	s1,20(sp)
    b44a:	c84a                	sw	s2,16(sp)
    b44c:	c64e                	sw	s3,12(sp)
    b44e:	ce06                	sw	ra,28(sp)
    b450:	cc22                	sw	s0,24(sp)
    b452:	c452                	sw	s4,8(sp)
    b454:	00367793          	andi	a5,a2,3
    b458:	892a                	mv	s2,a0
    b45a:	84b2                	mv	s1,a2
    b45c:	89ae                	mv	s3,a1
    b45e:	cf89                	beqz	a5,b478 <__pow5mult+0x32>
    b460:	17fd                	addi	a5,a5,-1
    b462:	00003717          	auipc	a4,0x3
    b466:	a4e70713          	addi	a4,a4,-1458 # deb0 <p05.3319>
    b46a:	078a                	slli	a5,a5,0x2
    b46c:	97ba                	add	a5,a5,a4
    b46e:	4390                	lw	a2,0(a5)
    b470:	4681                	li	a3,0
    b472:	c89ff0ef          	jal	ra,b0fa <__multadd>
    b476:	89aa                	mv	s3,a0
    b478:	8489                	srai	s1,s1,0x2
    b47a:	cca5                	beqz	s1,b4f2 <__pow5mult+0xac>
    b47c:	02492783          	lw	a5,36(s2)
    b480:	ef91                	bnez	a5,b49c <__pow5mult+0x56>
    b482:	4541                	li	a0,16
    b484:	b51ff0ef          	jal	ra,afd4 <malloc>
    b488:	02a92223          	sw	a0,36(s2)
    b48c:	00052223          	sw	zero,4(a0)
    b490:	00052423          	sw	zero,8(a0)
    b494:	00052023          	sw	zero,0(a0)
    b498:	00052623          	sw	zero,12(a0)
    b49c:	02492a03          	lw	s4,36(s2)
    b4a0:	008a2403          	lw	s0,8(s4)
    b4a4:	e819                	bnez	s0,b4ba <__pow5mult+0x74>
    b4a6:	27100593          	li	a1,625
    b4aa:	854a                	mv	a0,s2
    b4ac:	e3bff0ef          	jal	ra,b2e6 <__i2b>
    b4b0:	00aa2423          	sw	a0,8(s4)
    b4b4:	842a                	mv	s0,a0
    b4b6:	00052023          	sw	zero,0(a0)
    b4ba:	0014f793          	andi	a5,s1,1
    b4be:	cf81                	beqz	a5,b4d6 <__pow5mult+0x90>
    b4c0:	85ce                	mv	a1,s3
    b4c2:	8622                	mv	a2,s0
    b4c4:	854a                	mv	a0,s2
    b4c6:	e3dff0ef          	jal	ra,b302 <__multiply>
    b4ca:	8a2a                	mv	s4,a0
    b4cc:	85ce                	mv	a1,s3
    b4ce:	854a                	mv	a0,s2
    b4d0:	be7ff0ef          	jal	ra,b0b6 <_Bfree>
    b4d4:	89d2                	mv	s3,s4
    b4d6:	8485                	srai	s1,s1,0x1
    b4d8:	cc89                	beqz	s1,b4f2 <__pow5mult+0xac>
    b4da:	4008                	lw	a0,0(s0)
    b4dc:	e909                	bnez	a0,b4ee <__pow5mult+0xa8>
    b4de:	8622                	mv	a2,s0
    b4e0:	85a2                	mv	a1,s0
    b4e2:	854a                	mv	a0,s2
    b4e4:	e1fff0ef          	jal	ra,b302 <__multiply>
    b4e8:	c008                	sw	a0,0(s0)
    b4ea:	00052023          	sw	zero,0(a0)
    b4ee:	842a                	mv	s0,a0
    b4f0:	b7e9                	j	b4ba <__pow5mult+0x74>
    b4f2:	40f2                	lw	ra,28(sp)
    b4f4:	4462                	lw	s0,24(sp)
    b4f6:	854e                	mv	a0,s3
    b4f8:	44d2                	lw	s1,20(sp)
    b4fa:	4942                	lw	s2,16(sp)
    b4fc:	49b2                	lw	s3,12(sp)
    b4fe:	4a22                	lw	s4,8(sp)
    b500:	6105                	addi	sp,sp,32
    b502:	8082                	ret

0000b504 <__lshift>:
    b504:	7179                	addi	sp,sp,-48
    b506:	d226                	sw	s1,36(sp)
    b508:	84ae                	mv	s1,a1
    b50a:	ce4e                	sw	s3,28(sp)
    b50c:	0104a983          	lw	s3,16(s1)
    b510:	d422                	sw	s0,40(sp)
    b512:	41cc                	lw	a1,4(a1)
    b514:	40565413          	srai	s0,a2,0x5
    b518:	449c                	lw	a5,8(s1)
    b51a:	99a2                	add	s3,s3,s0
    b51c:	d04a                	sw	s2,32(sp)
    b51e:	ca56                	sw	s5,20(sp)
    b520:	d606                	sw	ra,44(sp)
    b522:	cc52                	sw	s4,24(sp)
    b524:	8aaa                	mv	s5,a0
    b526:	00198913          	addi	s2,s3,1
    b52a:	0927c463          	blt	a5,s2,b5b2 <__lshift+0xae>
    b52e:	8556                	mv	a0,s5
    b530:	c632                	sw	a2,12(sp)
    b532:	af9ff0ef          	jal	ra,b02a <_Balloc>
    b536:	4632                	lw	a2,12(sp)
    b538:	01450793          	addi	a5,a0,20
    b53c:	8a2a                	mv	s4,a0
    b53e:	86be                	mv	a3,a5
    b540:	4701                	li	a4,0
    b542:	0691                	addi	a3,a3,4
    b544:	06874a63          	blt	a4,s0,b5b8 <__lshift+0xb4>
    b548:	00045363          	bgez	s0,b54e <__lshift+0x4a>
    b54c:	4401                	li	s0,0
    b54e:	4894                	lw	a3,16(s1)
    b550:	040a                	slli	s0,s0,0x2
    b552:	00878733          	add	a4,a5,s0
    b556:	068a                	slli	a3,a3,0x2
    b558:	01448793          	addi	a5,s1,20
    b55c:	8a7d                	andi	a2,a2,31
    b55e:	96be                	add	a3,a3,a5
    b560:	c225                	beqz	a2,b5c0 <__lshift+0xbc>
    b562:	02000813          	li	a6,32
    b566:	40c80833          	sub	a6,a6,a2
    b56a:	4581                	li	a1,0
    b56c:	4388                	lw	a0,0(a5)
    b56e:	0711                	addi	a4,a4,4
    b570:	0791                	addi	a5,a5,4
    b572:	00c51533          	sll	a0,a0,a2
    b576:	8dc9                	or	a1,a1,a0
    b578:	feb72e23          	sw	a1,-4(a4)
    b57c:	ffc7a583          	lw	a1,-4(a5)
    b580:	0105d5b3          	srl	a1,a1,a6
    b584:	fed7e4e3          	bltu	a5,a3,b56c <__lshift+0x68>
    b588:	c30c                	sw	a1,0(a4)
    b58a:	c199                	beqz	a1,b590 <__lshift+0x8c>
    b58c:	00298913          	addi	s2,s3,2
    b590:	197d                	addi	s2,s2,-1
    b592:	012a2823          	sw	s2,16(s4)
    b596:	8556                	mv	a0,s5
    b598:	85a6                	mv	a1,s1
    b59a:	b1dff0ef          	jal	ra,b0b6 <_Bfree>
    b59e:	50b2                	lw	ra,44(sp)
    b5a0:	5422                	lw	s0,40(sp)
    b5a2:	8552                	mv	a0,s4
    b5a4:	5492                	lw	s1,36(sp)
    b5a6:	5902                	lw	s2,32(sp)
    b5a8:	49f2                	lw	s3,28(sp)
    b5aa:	4a62                	lw	s4,24(sp)
    b5ac:	4ad2                	lw	s5,20(sp)
    b5ae:	6145                	addi	sp,sp,48
    b5b0:	8082                	ret
    b5b2:	0585                	addi	a1,a1,1
    b5b4:	0786                	slli	a5,a5,0x1
    b5b6:	bf95                	j	b52a <__lshift+0x26>
    b5b8:	fe06ae23          	sw	zero,-4(a3) # fffc <_data_lma+0x2028>
    b5bc:	0705                	addi	a4,a4,1
    b5be:	b751                	j	b542 <__lshift+0x3e>
    b5c0:	0791                	addi	a5,a5,4
    b5c2:	ffc7a603          	lw	a2,-4(a5)
    b5c6:	0711                	addi	a4,a4,4
    b5c8:	fec72e23          	sw	a2,-4(a4)
    b5cc:	fed7eae3          	bltu	a5,a3,b5c0 <__lshift+0xbc>
    b5d0:	b7c1                	j	b590 <__lshift+0x8c>

0000b5d2 <__mcmp>:
    b5d2:	491c                	lw	a5,16(a0)
    b5d4:	4998                	lw	a4,16(a1)
    b5d6:	8f99                	sub	a5,a5,a4
    b5d8:	e38d                	bnez	a5,b5fa <__mcmp+0x28>
    b5da:	070a                	slli	a4,a4,0x2
    b5dc:	0551                	addi	a0,a0,20
    b5de:	05d1                	addi	a1,a1,20
    b5e0:	00e506b3          	add	a3,a0,a4
    b5e4:	95ba                	add	a1,a1,a4
    b5e6:	16f1                	addi	a3,a3,-4
    b5e8:	15f1                	addi	a1,a1,-4
    b5ea:	4290                	lw	a2,0(a3)
    b5ec:	4198                	lw	a4,0(a1)
    b5ee:	00e60863          	beq	a2,a4,b5fe <__mcmp+0x2c>
    b5f2:	57fd                	li	a5,-1
    b5f4:	00e66363          	bltu	a2,a4,b5fa <__mcmp+0x28>
    b5f8:	4785                	li	a5,1
    b5fa:	853e                	mv	a0,a5
    b5fc:	8082                	ret
    b5fe:	fed564e3          	bltu	a0,a3,b5e6 <__mcmp+0x14>
    b602:	bfe5                	j	b5fa <__mcmp+0x28>

0000b604 <__mdiff>:
    b604:	1101                	addi	sp,sp,-32
    b606:	ca26                	sw	s1,20(sp)
    b608:	84ae                	mv	s1,a1
    b60a:	c64e                	sw	s3,12(sp)
    b60c:	85b2                	mv	a1,a2
    b60e:	89aa                	mv	s3,a0
    b610:	8526                	mv	a0,s1
    b612:	cc22                	sw	s0,24(sp)
    b614:	ce06                	sw	ra,28(sp)
    b616:	c84a                	sw	s2,16(sp)
    b618:	8432                	mv	s0,a2
    b61a:	fb9ff0ef          	jal	ra,b5d2 <__mcmp>
    b61e:	e105                	bnez	a0,b63e <__mdiff+0x3a>
    b620:	4581                	li	a1,0
    b622:	854e                	mv	a0,s3
    b624:	a07ff0ef          	jal	ra,b02a <_Balloc>
    b628:	4785                	li	a5,1
    b62a:	c91c                	sw	a5,16(a0)
    b62c:	00052a23          	sw	zero,20(a0)
    b630:	40f2                	lw	ra,28(sp)
    b632:	4462                	lw	s0,24(sp)
    b634:	44d2                	lw	s1,20(sp)
    b636:	4942                	lw	s2,16(sp)
    b638:	49b2                	lw	s3,12(sp)
    b63a:	6105                	addi	sp,sp,32
    b63c:	8082                	ret
    b63e:	4905                	li	s2,1
    b640:	00054663          	bltz	a0,b64c <__mdiff+0x48>
    b644:	87a2                	mv	a5,s0
    b646:	4901                	li	s2,0
    b648:	8426                	mv	s0,s1
    b64a:	84be                	mv	s1,a5
    b64c:	404c                	lw	a1,4(s0)
    b64e:	854e                	mv	a0,s3
    b650:	9dbff0ef          	jal	ra,b02a <_Balloc>
    b654:	01042303          	lw	t1,16(s0)
    b658:	0104a883          	lw	a7,16(s1)
    b65c:	01440613          	addi	a2,s0,20
    b660:	00231e13          	slli	t3,t1,0x2
    b664:	01448813          	addi	a6,s1,20
    b668:	088a                	slli	a7,a7,0x2
    b66a:	6ec1                	lui	t4,0x10
    b66c:	01252623          	sw	s2,12(a0)
    b670:	9e32                	add	t3,t3,a2
    b672:	98c2                	add	a7,a7,a6
    b674:	01450693          	addi	a3,a0,20
    b678:	4f01                	li	t5,0
    b67a:	1efd                	addi	t4,t4,-1
    b67c:	4218                	lw	a4,0(a2)
    b67e:	00082f83          	lw	t6,0(a6)
    b682:	0691                	addi	a3,a3,4
    b684:	01d775b3          	and	a1,a4,t4
    b688:	01dff7b3          	and	a5,t6,t4
    b68c:	95fa                	add	a1,a1,t5
    b68e:	8d9d                	sub	a1,a1,a5
    b690:	010fdf93          	srli	t6,t6,0x10
    b694:	01075793          	srli	a5,a4,0x10
    b698:	41f787b3          	sub	a5,a5,t6
    b69c:	4105d713          	srai	a4,a1,0x10
    b6a0:	97ba                	add	a5,a5,a4
    b6a2:	4107df13          	srai	t5,a5,0x10
    b6a6:	01d5f5b3          	and	a1,a1,t4
    b6aa:	07c2                	slli	a5,a5,0x10
    b6ac:	8fcd                	or	a5,a5,a1
    b6ae:	0811                	addi	a6,a6,4
    b6b0:	fef6ae23          	sw	a5,-4(a3)
    b6b4:	0611                	addi	a2,a2,4
    b6b6:	fd1863e3          	bltu	a6,a7,b67c <__mdiff+0x78>
    b6ba:	65c1                	lui	a1,0x10
    b6bc:	15fd                	addi	a1,a1,-1
    b6be:	01c66863          	bltu	a2,t3,b6ce <__mdiff+0xca>
    b6c2:	16f1                	addi	a3,a3,-4
    b6c4:	429c                	lw	a5,0(a3)
    b6c6:	c795                	beqz	a5,b6f2 <__mdiff+0xee>
    b6c8:	00652823          	sw	t1,16(a0)
    b6cc:	b795                	j	b630 <__mdiff+0x2c>
    b6ce:	421c                	lw	a5,0(a2)
    b6d0:	0691                	addi	a3,a3,4
    b6d2:	0611                	addi	a2,a2,4
    b6d4:	00b7f733          	and	a4,a5,a1
    b6d8:	977a                	add	a4,a4,t5
    b6da:	41075813          	srai	a6,a4,0x10
    b6de:	83c1                	srli	a5,a5,0x10
    b6e0:	97c2                	add	a5,a5,a6
    b6e2:	4107df13          	srai	t5,a5,0x10
    b6e6:	8f6d                	and	a4,a4,a1
    b6e8:	07c2                	slli	a5,a5,0x10
    b6ea:	8fd9                	or	a5,a5,a4
    b6ec:	fef6ae23          	sw	a5,-4(a3)
    b6f0:	b7f9                	j	b6be <__mdiff+0xba>
    b6f2:	137d                	addi	t1,t1,-1
    b6f4:	b7f9                	j	b6c2 <__mdiff+0xbe>

0000b6f6 <__ulp>:
    b6f6:	7ff007b7          	lui	a5,0x7ff00
    b6fa:	8dfd                	and	a1,a1,a5
    b6fc:	fcc007b7          	lui	a5,0xfcc00
    b700:	95be                	add	a1,a1,a5
    b702:	00b05563          	blez	a1,b70c <__ulp+0x16>
    b706:	4781                	li	a5,0
    b708:	853e                	mv	a0,a5
    b70a:	8082                	ret
    b70c:	40b005b3          	neg	a1,a1
    b710:	4145d793          	srai	a5,a1,0x14
    b714:	474d                	li	a4,19
    b716:	00f74763          	blt	a4,a5,b724 <__ulp+0x2e>
    b71a:	000805b7          	lui	a1,0x80
    b71e:	40f5d5b3          	sra	a1,a1,a5
    b722:	b7d5                	j	b706 <__ulp+0x10>
    b724:	fec78713          	addi	a4,a5,-20 # fcbfffec <_eusrstack+0xdcbf7fec>
    b728:	46f9                	li	a3,30
    b72a:	4581                	li	a1,0
    b72c:	4785                	li	a5,1
    b72e:	fce6cde3          	blt	a3,a4,b708 <__ulp+0x12>
    b732:	800007b7          	lui	a5,0x80000
    b736:	00e7d7b3          	srl	a5,a5,a4
    b73a:	b7f9                	j	b708 <__ulp+0x12>

0000b73c <__b2d>:
    b73c:	7179                	addi	sp,sp,-48
    b73e:	d226                	sw	s1,36(sp)
    b740:	4904                	lw	s1,16(a0)
    b742:	ce4e                	sw	s3,28(sp)
    b744:	01450993          	addi	s3,a0,20
    b748:	048a                	slli	s1,s1,0x2
    b74a:	94ce                	add	s1,s1,s3
    b74c:	d422                	sw	s0,40(sp)
    b74e:	ffc4a403          	lw	s0,-4(s1)
    b752:	d04a                	sw	s2,32(sp)
    b754:	c62e                	sw	a1,12(sp)
    b756:	8522                	mv	a0,s0
    b758:	d606                	sw	ra,44(sp)
    b75a:	addff0ef          	jal	ra,b236 <__hi0bits>
    b75e:	45b2                	lw	a1,12(sp)
    b760:	02000793          	li	a5,32
    b764:	8f89                	sub	a5,a5,a0
    b766:	c19c                	sw	a5,0(a1)
    b768:	47a9                	li	a5,10
    b76a:	ffc48913          	addi	s2,s1,-4
    b76e:	02a7cd63          	blt	a5,a0,b7a8 <__b2d+0x6c>
    b772:	47ad                	li	a5,11
    b774:	8f89                	sub	a5,a5,a0
    b776:	3ff00737          	lui	a4,0x3ff00
    b77a:	00f456b3          	srl	a3,s0,a5
    b77e:	8ed9                	or	a3,a3,a4
    b780:	4701                	li	a4,0
    b782:	0129f463          	bgeu	s3,s2,b78a <__b2d+0x4e>
    b786:	ff84a703          	lw	a4,-8(s1)
    b78a:	0555                	addi	a0,a0,21
    b78c:	00a41533          	sll	a0,s0,a0
    b790:	00f757b3          	srl	a5,a4,a5
    b794:	8fc9                	or	a5,a5,a0
    b796:	50b2                	lw	ra,44(sp)
    b798:	5422                	lw	s0,40(sp)
    b79a:	5492                	lw	s1,36(sp)
    b79c:	5902                	lw	s2,32(sp)
    b79e:	49f2                	lw	s3,28(sp)
    b7a0:	853e                	mv	a0,a5
    b7a2:	85b6                	mv	a1,a3
    b7a4:	6145                	addi	sp,sp,48
    b7a6:	8082                	ret
    b7a8:	4781                	li	a5,0
    b7aa:	0129f663          	bgeu	s3,s2,b7b6 <__b2d+0x7a>
    b7ae:	ff84a783          	lw	a5,-8(s1)
    b7b2:	ff848913          	addi	s2,s1,-8
    b7b6:	1555                	addi	a0,a0,-11
    b7b8:	c905                	beqz	a0,b7e8 <__b2d+0xac>
    b7ba:	02000713          	li	a4,32
    b7be:	40a70633          	sub	a2,a4,a0
    b7c2:	00c7d733          	srl	a4,a5,a2
    b7c6:	00a41433          	sll	s0,s0,a0
    b7ca:	8c59                	or	s0,s0,a4
    b7cc:	3ff006b7          	lui	a3,0x3ff00
    b7d0:	8ec1                	or	a3,a3,s0
    b7d2:	4701                	li	a4,0
    b7d4:	0129f463          	bgeu	s3,s2,b7dc <__b2d+0xa0>
    b7d8:	ffc92703          	lw	a4,-4(s2)
    b7dc:	00a797b3          	sll	a5,a5,a0
    b7e0:	00c75733          	srl	a4,a4,a2
    b7e4:	8fd9                	or	a5,a5,a4
    b7e6:	bf45                	j	b796 <__b2d+0x5a>
    b7e8:	3ff006b7          	lui	a3,0x3ff00
    b7ec:	8ec1                	or	a3,a3,s0
    b7ee:	b765                	j	b796 <__b2d+0x5a>

0000b7f0 <__d2b>:
    b7f0:	7179                	addi	sp,sp,-48
    b7f2:	d422                	sw	s0,40(sp)
    b7f4:	842e                	mv	s0,a1
    b7f6:	4585                	li	a1,1
    b7f8:	d226                	sw	s1,36(sp)
    b7fa:	d04a                	sw	s2,32(sp)
    b7fc:	84b2                	mv	s1,a2
    b7fe:	ce4e                	sw	s3,28(sp)
    b800:	cc52                	sw	s4,24(sp)
    b802:	893a                	mv	s2,a4
    b804:	d606                	sw	ra,44(sp)
    b806:	8a36                	mv	s4,a3
    b808:	823ff0ef          	jal	ra,b02a <_Balloc>
    b80c:	00100737          	lui	a4,0x100
    b810:	fff70793          	addi	a5,a4,-1 # fffff <_data_lma+0xf202b>
    b814:	8fe5                	and	a5,a5,s1
    b816:	80d1                	srli	s1,s1,0x14
    b818:	7ff4f493          	andi	s1,s1,2047
    b81c:	89aa                	mv	s3,a0
    b81e:	e0b5                	bnez	s1,b882 <__d2b+0x92>
    b820:	c63e                	sw	a5,12(sp)
    b822:	c42d                	beqz	s0,b88c <__d2b+0x9c>
    b824:	0028                	addi	a0,sp,8
    b826:	c422                	sw	s0,8(sp)
    b828:	a55ff0ef          	jal	ra,b27c <__lo0bits>
    b82c:	46a2                	lw	a3,8(sp)
    b82e:	cd21                	beqz	a0,b886 <__d2b+0x96>
    b830:	4732                	lw	a4,12(sp)
    b832:	02000793          	li	a5,32
    b836:	8f89                	sub	a5,a5,a0
    b838:	00f717b3          	sll	a5,a4,a5
    b83c:	8fd5                	or	a5,a5,a3
    b83e:	00a75733          	srl	a4,a4,a0
    b842:	00f9aa23          	sw	a5,20(s3)
    b846:	c63a                	sw	a4,12(sp)
    b848:	4432                	lw	s0,12(sp)
    b84a:	0089ac23          	sw	s0,24(s3)
    b84e:	00803433          	snez	s0,s0
    b852:	0405                	addi	s0,s0,1
    b854:	0089a823          	sw	s0,16(s3)
    b858:	c4b9                	beqz	s1,b8a6 <__d2b+0xb6>
    b85a:	bcd48493          	addi	s1,s1,-1075
    b85e:	94aa                	add	s1,s1,a0
    b860:	03500793          	li	a5,53
    b864:	009a2023          	sw	s1,0(s4)
    b868:	40a78533          	sub	a0,a5,a0
    b86c:	00a92023          	sw	a0,0(s2)
    b870:	50b2                	lw	ra,44(sp)
    b872:	5422                	lw	s0,40(sp)
    b874:	854e                	mv	a0,s3
    b876:	5492                	lw	s1,36(sp)
    b878:	5902                	lw	s2,32(sp)
    b87a:	49f2                	lw	s3,28(sp)
    b87c:	4a62                	lw	s4,24(sp)
    b87e:	6145                	addi	sp,sp,48
    b880:	8082                	ret
    b882:	8fd9                	or	a5,a5,a4
    b884:	bf71                	j	b820 <__d2b+0x30>
    b886:	00d9aa23          	sw	a3,20(s3)
    b88a:	bf7d                	j	b848 <__d2b+0x58>
    b88c:	0068                	addi	a0,sp,12
    b88e:	9efff0ef          	jal	ra,b27c <__lo0bits>
    b892:	47b2                	lw	a5,12(sp)
    b894:	02050513          	addi	a0,a0,32
    b898:	4405                	li	s0,1
    b89a:	00f9aa23          	sw	a5,20(s3)
    b89e:	4785                	li	a5,1
    b8a0:	00f9a823          	sw	a5,16(s3)
    b8a4:	bf55                	j	b858 <__d2b+0x68>
    b8a6:	00241793          	slli	a5,s0,0x2
    b8aa:	bce50513          	addi	a0,a0,-1074
    b8ae:	97ce                	add	a5,a5,s3
    b8b0:	00aa2023          	sw	a0,0(s4)
    b8b4:	4b88                	lw	a0,16(a5)
    b8b6:	0416                	slli	s0,s0,0x5
    b8b8:	97fff0ef          	jal	ra,b236 <__hi0bits>
    b8bc:	8c09                	sub	s0,s0,a0
    b8be:	00892023          	sw	s0,0(s2)
    b8c2:	b77d                	j	b870 <__d2b+0x80>

0000b8c4 <__ratio>:
    b8c4:	7179                	addi	sp,sp,-48
    b8c6:	d04a                	sw	s2,32(sp)
    b8c8:	892e                	mv	s2,a1
    b8ca:	002c                	addi	a1,sp,8
    b8cc:	d606                	sw	ra,44(sp)
    b8ce:	d422                	sw	s0,40(sp)
    b8d0:	d226                	sw	s1,36(sp)
    b8d2:	ce4e                	sw	s3,28(sp)
    b8d4:	cc52                	sw	s4,24(sp)
    b8d6:	8a2a                	mv	s4,a0
    b8d8:	e65ff0ef          	jal	ra,b73c <__b2d>
    b8dc:	89aa                	mv	s3,a0
    b8de:	84ae                	mv	s1,a1
    b8e0:	842e                	mv	s0,a1
    b8e2:	854a                	mv	a0,s2
    b8e4:	006c                	addi	a1,sp,12
    b8e6:	e57ff0ef          	jal	ra,b73c <__b2d>
    b8ea:	01092783          	lw	a5,16(s2)
    b8ee:	010a2703          	lw	a4,16(s4)
    b8f2:	46a2                	lw	a3,8(sp)
    b8f4:	8f1d                	sub	a4,a4,a5
    b8f6:	47b2                	lw	a5,12(sp)
    b8f8:	0716                	slli	a4,a4,0x5
    b8fa:	8e9d                	sub	a3,a3,a5
    b8fc:	00d707b3          	add	a5,a4,a3
    b900:	02f05563          	blez	a5,b92a <__ratio+0x66>
    b904:	07d2                	slli	a5,a5,0x14
    b906:	862e                	mv	a2,a1
    b908:	00978433          	add	s0,a5,s1
    b90c:	8732                	mv	a4,a2
    b90e:	85a2                	mv	a1,s0
    b910:	862a                	mv	a2,a0
    b912:	86ba                	mv	a3,a4
    b914:	854e                	mv	a0,s3
    b916:	f42f90ef          	jal	ra,5058 <__divdf3>
    b91a:	50b2                	lw	ra,44(sp)
    b91c:	5422                	lw	s0,40(sp)
    b91e:	5492                	lw	s1,36(sp)
    b920:	5902                	lw	s2,32(sp)
    b922:	49f2                	lw	s3,28(sp)
    b924:	4a62                	lw	s4,24(sp)
    b926:	6145                	addi	sp,sp,48
    b928:	8082                	ret
    b92a:	fff00737          	lui	a4,0xfff00
    b92e:	02e787b3          	mul	a5,a5,a4
    b932:	00b78633          	add	a2,a5,a1
    b936:	bfd9                	j	b90c <__ratio+0x48>

0000b938 <__copybits>:
    b938:	fff58793          	addi	a5,a1,-1 # 7ffff <_data_lma+0x7202b>
    b93c:	4a18                	lw	a4,16(a2)
    b93e:	8795                	srai	a5,a5,0x5
    b940:	0785                	addi	a5,a5,1
    b942:	078a                	slli	a5,a5,0x2
    b944:	01460693          	addi	a3,a2,20
    b948:	070a                	slli	a4,a4,0x2
    b94a:	97aa                	add	a5,a5,a0
    b94c:	9736                	add	a4,a4,a3
    b94e:	00e6e563          	bltu	a3,a4,b958 <__copybits+0x20>
    b952:	00f56a63          	bltu	a0,a5,b966 <__copybits+0x2e>
    b956:	8082                	ret
    b958:	0691                	addi	a3,a3,4
    b95a:	ffc6a603          	lw	a2,-4(a3) # 3feffffc <_eusrstack+0x1fef7ffc>
    b95e:	0511                	addi	a0,a0,4
    b960:	fec52e23          	sw	a2,-4(a0)
    b964:	b7ed                	j	b94e <__copybits+0x16>
    b966:	0511                	addi	a0,a0,4
    b968:	fe052e23          	sw	zero,-4(a0)
    b96c:	b7dd                	j	b952 <__copybits+0x1a>

0000b96e <__any_on>:
    b96e:	4914                	lw	a3,16(a0)
    b970:	4055d793          	srai	a5,a1,0x5
    b974:	01450713          	addi	a4,a0,20
    b978:	02f6c763          	blt	a3,a5,b9a6 <__any_on+0x38>
    b97c:	00d7df63          	bge	a5,a3,b99a <__any_on+0x2c>
    b980:	89fd                	andi	a1,a1,31
    b982:	cd81                	beqz	a1,b99a <__any_on+0x2c>
    b984:	00279693          	slli	a3,a5,0x2
    b988:	96ba                	add	a3,a3,a4
    b98a:	4290                	lw	a2,0(a3)
    b98c:	4505                	li	a0,1
    b98e:	00b656b3          	srl	a3,a2,a1
    b992:	00b695b3          	sll	a1,a3,a1
    b996:	00b61e63          	bne	a2,a1,b9b2 <__any_on+0x44>
    b99a:	078a                	slli	a5,a5,0x2
    b99c:	97ba                	add	a5,a5,a4
    b99e:	00f76663          	bltu	a4,a5,b9aa <__any_on+0x3c>
    b9a2:	4501                	li	a0,0
    b9a4:	8082                	ret
    b9a6:	87b6                	mv	a5,a3
    b9a8:	bfcd                	j	b99a <__any_on+0x2c>
    b9aa:	17f1                	addi	a5,a5,-4
    b9ac:	4394                	lw	a3,0(a5)
    b9ae:	dae5                	beqz	a3,b99e <__any_on+0x30>
    b9b0:	4505                	li	a0,1
    b9b2:	8082                	ret

0000b9b4 <_calloc_r>:
    b9b4:	02c58633          	mul	a2,a1,a2
    b9b8:	1101                	addi	sp,sp,-32
    b9ba:	cc22                	sw	s0,24(sp)
    b9bc:	ce06                	sw	ra,28(sp)
    b9be:	85b2                	mv	a1,a2
    b9c0:	c632                	sw	a2,12(sp)
    b9c2:	20c1                	jal	ba82 <_malloc_r>
    b9c4:	842a                	mv	s0,a0
    b9c6:	c509                	beqz	a0,b9d0 <_calloc_r+0x1c>
    b9c8:	4632                	lw	a2,12(sp)
    b9ca:	4581                	li	a1,0
    b9cc:	895f40ef          	jal	ra,260 <memset>
    b9d0:	8522                	mv	a0,s0
    b9d2:	40f2                	lw	ra,28(sp)
    b9d4:	4462                	lw	s0,24(sp)
    b9d6:	6105                	addi	sp,sp,32
    b9d8:	8082                	ret

0000b9da <_free_r>:
    b9da:	c1dd                	beqz	a1,ba80 <_free_r+0xa6>
    b9dc:	ffc5a783          	lw	a5,-4(a1)
    b9e0:	1141                	addi	sp,sp,-16
    b9e2:	c422                	sw	s0,8(sp)
    b9e4:	c606                	sw	ra,12(sp)
    b9e6:	c226                	sw	s1,4(sp)
    b9e8:	ffc58413          	addi	s0,a1,-4
    b9ec:	0007d363          	bgez	a5,b9f2 <_free_r+0x18>
    b9f0:	943e                	add	s0,s0,a5
    b9f2:	84aa                	mv	s1,a0
    b9f4:	1d9000ef          	jal	ra,c3cc <__malloc_lock>
    b9f8:	84418793          	addi	a5,gp,-1980 # 2000026c <__malloc_free_list>
    b9fc:	439c                	lw	a5,0(a5)
    b9fe:	ef81                	bnez	a5,ba16 <_free_r+0x3c>
    ba00:	00042223          	sw	zero,4(s0)
    ba04:	8481a223          	sw	s0,-1980(gp) # 2000026c <__malloc_free_list>
    ba08:	4422                	lw	s0,8(sp)
    ba0a:	40b2                	lw	ra,12(sp)
    ba0c:	8526                	mv	a0,s1
    ba0e:	4492                	lw	s1,4(sp)
    ba10:	0141                	addi	sp,sp,16
    ba12:	1bd0006f          	j	c3ce <__malloc_unlock>
    ba16:	00f47e63          	bgeu	s0,a5,ba32 <_free_r+0x58>
    ba1a:	4014                	lw	a3,0(s0)
    ba1c:	00d40733          	add	a4,s0,a3
    ba20:	00e79663          	bne	a5,a4,ba2c <_free_r+0x52>
    ba24:	4398                	lw	a4,0(a5)
    ba26:	43dc                	lw	a5,4(a5)
    ba28:	9736                	add	a4,a4,a3
    ba2a:	c018                	sw	a4,0(s0)
    ba2c:	c05c                	sw	a5,4(s0)
    ba2e:	bfd9                	j	ba04 <_free_r+0x2a>
    ba30:	87ba                	mv	a5,a4
    ba32:	43d8                	lw	a4,4(a5)
    ba34:	c319                	beqz	a4,ba3a <_free_r+0x60>
    ba36:	fee47de3          	bgeu	s0,a4,ba30 <_free_r+0x56>
    ba3a:	4394                	lw	a3,0(a5)
    ba3c:	00d78633          	add	a2,a5,a3
    ba40:	00861f63          	bne	a2,s0,ba5e <_free_r+0x84>
    ba44:	4010                	lw	a2,0(s0)
    ba46:	96b2                	add	a3,a3,a2
    ba48:	c394                	sw	a3,0(a5)
    ba4a:	00d78633          	add	a2,a5,a3
    ba4e:	fac71de3          	bne	a4,a2,ba08 <_free_r+0x2e>
    ba52:	4310                	lw	a2,0(a4)
    ba54:	4358                	lw	a4,4(a4)
    ba56:	96b2                	add	a3,a3,a2
    ba58:	c394                	sw	a3,0(a5)
    ba5a:	c3d8                	sw	a4,4(a5)
    ba5c:	b775                	j	ba08 <_free_r+0x2e>
    ba5e:	00c47563          	bgeu	s0,a2,ba68 <_free_r+0x8e>
    ba62:	47b1                	li	a5,12
    ba64:	c09c                	sw	a5,0(s1)
    ba66:	b74d                	j	ba08 <_free_r+0x2e>
    ba68:	4010                	lw	a2,0(s0)
    ba6a:	00c406b3          	add	a3,s0,a2
    ba6e:	00d71663          	bne	a4,a3,ba7a <_free_r+0xa0>
    ba72:	4314                	lw	a3,0(a4)
    ba74:	4358                	lw	a4,4(a4)
    ba76:	96b2                	add	a3,a3,a2
    ba78:	c014                	sw	a3,0(s0)
    ba7a:	c058                	sw	a4,4(s0)
    ba7c:	c3c0                	sw	s0,4(a5)
    ba7e:	b769                	j	ba08 <_free_r+0x2e>
    ba80:	8082                	ret

0000ba82 <_malloc_r>:
    ba82:	1101                	addi	sp,sp,-32
    ba84:	ca26                	sw	s1,20(sp)
    ba86:	00358493          	addi	s1,a1,3
    ba8a:	98f1                	andi	s1,s1,-4
    ba8c:	ce06                	sw	ra,28(sp)
    ba8e:	cc22                	sw	s0,24(sp)
    ba90:	c84a                	sw	s2,16(sp)
    ba92:	c64e                	sw	s3,12(sp)
    ba94:	04a1                	addi	s1,s1,8
    ba96:	47b1                	li	a5,12
    ba98:	04f4f363          	bgeu	s1,a5,bade <_malloc_r+0x5c>
    ba9c:	44b1                	li	s1,12
    ba9e:	04b4e263          	bltu	s1,a1,bae2 <_malloc_r+0x60>
    baa2:	892a                	mv	s2,a0
    baa4:	129000ef          	jal	ra,c3cc <__malloc_lock>
    baa8:	84418793          	addi	a5,gp,-1980 # 2000026c <__malloc_free_list>
    baac:	4398                	lw	a4,0(a5)
    baae:	843a                	mv	s0,a4
    bab0:	e039                	bnez	s0,baf6 <_malloc_r+0x74>
    bab2:	84818793          	addi	a5,gp,-1976 # 20000270 <__malloc_sbrk_start>
    bab6:	439c                	lw	a5,0(a5)
    bab8:	e791                	bnez	a5,bac4 <_malloc_r+0x42>
    baba:	4581                	li	a1,0
    babc:	854a                	mv	a0,s2
    babe:	2de9                	jal	c198 <_sbrk_r>
    bac0:	84a1a423          	sw	a0,-1976(gp) # 20000270 <__malloc_sbrk_start>
    bac4:	85a6                	mv	a1,s1
    bac6:	854a                	mv	a0,s2
    bac8:	2dc1                	jal	c198 <_sbrk_r>
    baca:	59fd                	li	s3,-1
    bacc:	07351963          	bne	a0,s3,bb3e <_malloc_r+0xbc>
    bad0:	47b1                	li	a5,12
    bad2:	00f92023          	sw	a5,0(s2)
    bad6:	854a                	mv	a0,s2
    bad8:	0f7000ef          	jal	ra,c3ce <__malloc_unlock>
    badc:	a029                	j	bae6 <_malloc_r+0x64>
    bade:	fc04d0e3          	bgez	s1,ba9e <_malloc_r+0x1c>
    bae2:	47b1                	li	a5,12
    bae4:	c11c                	sw	a5,0(a0)
    bae6:	4501                	li	a0,0
    bae8:	40f2                	lw	ra,28(sp)
    baea:	4462                	lw	s0,24(sp)
    baec:	44d2                	lw	s1,20(sp)
    baee:	4942                	lw	s2,16(sp)
    baf0:	49b2                	lw	s3,12(sp)
    baf2:	6105                	addi	sp,sp,32
    baf4:	8082                	ret
    baf6:	401c                	lw	a5,0(s0)
    baf8:	8f85                	sub	a5,a5,s1
    bafa:	0207cf63          	bltz	a5,bb38 <_malloc_r+0xb6>
    bafe:	46ad                	li	a3,11
    bb00:	00f6f663          	bgeu	a3,a5,bb0c <_malloc_r+0x8a>
    bb04:	c01c                	sw	a5,0(s0)
    bb06:	943e                	add	s0,s0,a5
    bb08:	c004                	sw	s1,0(s0)
    bb0a:	a031                	j	bb16 <_malloc_r+0x94>
    bb0c:	405c                	lw	a5,4(s0)
    bb0e:	02871363          	bne	a4,s0,bb34 <_malloc_r+0xb2>
    bb12:	84f1a223          	sw	a5,-1980(gp) # 2000026c <__malloc_free_list>
    bb16:	854a                	mv	a0,s2
    bb18:	0b7000ef          	jal	ra,c3ce <__malloc_unlock>
    bb1c:	00b40513          	addi	a0,s0,11
    bb20:	00440793          	addi	a5,s0,4
    bb24:	9961                	andi	a0,a0,-8
    bb26:	40f50733          	sub	a4,a0,a5
    bb2a:	df5d                	beqz	a4,bae8 <_malloc_r+0x66>
    bb2c:	943a                	add	s0,s0,a4
    bb2e:	8f89                	sub	a5,a5,a0
    bb30:	c01c                	sw	a5,0(s0)
    bb32:	bf5d                	j	bae8 <_malloc_r+0x66>
    bb34:	c35c                	sw	a5,4(a4)
    bb36:	b7c5                	j	bb16 <_malloc_r+0x94>
    bb38:	8722                	mv	a4,s0
    bb3a:	4040                	lw	s0,4(s0)
    bb3c:	bf95                	j	bab0 <_malloc_r+0x2e>
    bb3e:	00350413          	addi	s0,a0,3
    bb42:	9871                	andi	s0,s0,-4
    bb44:	fc8502e3          	beq	a0,s0,bb08 <_malloc_r+0x86>
    bb48:	40a405b3          	sub	a1,s0,a0
    bb4c:	854a                	mv	a0,s2
    bb4e:	25a9                	jal	c198 <_sbrk_r>
    bb50:	fb351ce3          	bne	a0,s3,bb08 <_malloc_r+0x86>
    bb54:	bfb5                	j	bad0 <_malloc_r+0x4e>

0000bb56 <__ssputs_r>:
    bb56:	1101                	addi	sp,sp,-32
    bb58:	c84a                	sw	s2,16(sp)
    bb5a:	0085a903          	lw	s2,8(a1)
    bb5e:	cc22                	sw	s0,24(sp)
    bb60:	c452                	sw	s4,8(sp)
    bb62:	c05a                	sw	s6,0(sp)
    bb64:	ce06                	sw	ra,28(sp)
    bb66:	ca26                	sw	s1,20(sp)
    bb68:	c64e                	sw	s3,12(sp)
    bb6a:	c256                	sw	s5,4(sp)
    bb6c:	842e                	mv	s0,a1
    bb6e:	8b32                	mv	s6,a2
    bb70:	8a36                	mv	s4,a3
    bb72:	0926e963          	bltu	a3,s2,bc04 <__ssputs_r+0xae>
    bb76:	25de                	lhu	a5,12(a1)
    bb78:	4807f713          	andi	a4,a5,1152
    bb7c:	c351                	beqz	a4,bc00 <__ssputs_r+0xaa>
    bb7e:	4004                	lw	s1,0(s0)
    bb80:	498c                	lw	a1,16(a1)
    bb82:	4858                	lw	a4,20(s0)
    bb84:	8aaa                	mv	s5,a0
    bb86:	40b489b3          	sub	s3,s1,a1
    bb8a:	448d                	li	s1,3
    bb8c:	02e484b3          	mul	s1,s1,a4
    bb90:	4709                	li	a4,2
    bb92:	02e4c4b3          	div	s1,s1,a4
    bb96:	00168713          	addi	a4,a3,1
    bb9a:	974e                	add	a4,a4,s3
    bb9c:	00e4f363          	bgeu	s1,a4,bba2 <__ssputs_r+0x4c>
    bba0:	84ba                	mv	s1,a4
    bba2:	4007f793          	andi	a5,a5,1024
    bba6:	cfbd                	beqz	a5,bc24 <__ssputs_r+0xce>
    bba8:	85a6                	mv	a1,s1
    bbaa:	8556                	mv	a0,s5
    bbac:	ed7ff0ef          	jal	ra,ba82 <_malloc_r>
    bbb0:	892a                	mv	s2,a0
    bbb2:	e11d                	bnez	a0,bbd8 <__ssputs_r+0x82>
    bbb4:	47b1                	li	a5,12
    bbb6:	00faa023          	sw	a5,0(s5)
    bbba:	245e                	lhu	a5,12(s0)
    bbbc:	557d                	li	a0,-1
    bbbe:	0407e793          	ori	a5,a5,64
    bbc2:	a45e                	sh	a5,12(s0)
    bbc4:	40f2                	lw	ra,28(sp)
    bbc6:	4462                	lw	s0,24(sp)
    bbc8:	44d2                	lw	s1,20(sp)
    bbca:	4942                	lw	s2,16(sp)
    bbcc:	49b2                	lw	s3,12(sp)
    bbce:	4a22                	lw	s4,8(sp)
    bbd0:	4a92                	lw	s5,4(sp)
    bbd2:	4b02                	lw	s6,0(sp)
    bbd4:	6105                	addi	sp,sp,32
    bbd6:	8082                	ret
    bbd8:	480c                	lw	a1,16(s0)
    bbda:	864e                	mv	a2,s3
    bbdc:	a25fb0ef          	jal	ra,7600 <memcpy>
    bbe0:	245e                	lhu	a5,12(s0)
    bbe2:	b7f7f793          	andi	a5,a5,-1153
    bbe6:	0807e793          	ori	a5,a5,128
    bbea:	a45e                	sh	a5,12(s0)
    bbec:	01242823          	sw	s2,16(s0)
    bbf0:	c844                	sw	s1,20(s0)
    bbf2:	994e                	add	s2,s2,s3
    bbf4:	413484b3          	sub	s1,s1,s3
    bbf8:	01242023          	sw	s2,0(s0)
    bbfc:	c404                	sw	s1,8(s0)
    bbfe:	8952                	mv	s2,s4
    bc00:	012a7363          	bgeu	s4,s2,bc06 <__ssputs_r+0xb0>
    bc04:	8952                	mv	s2,s4
    bc06:	4008                	lw	a0,0(s0)
    bc08:	864a                	mv	a2,s2
    bc0a:	85da                	mv	a1,s6
    bc0c:	77a000ef          	jal	ra,c386 <memmove>
    bc10:	441c                	lw	a5,8(s0)
    bc12:	4501                	li	a0,0
    bc14:	412787b3          	sub	a5,a5,s2
    bc18:	c41c                	sw	a5,8(s0)
    bc1a:	401c                	lw	a5,0(s0)
    bc1c:	993e                	add	s2,s2,a5
    bc1e:	01242023          	sw	s2,0(s0)
    bc22:	b74d                	j	bbc4 <__ssputs_r+0x6e>
    bc24:	8626                	mv	a2,s1
    bc26:	8556                	mv	a0,s5
    bc28:	7a8000ef          	jal	ra,c3d0 <_realloc_r>
    bc2c:	892a                	mv	s2,a0
    bc2e:	fd5d                	bnez	a0,bbec <__ssputs_r+0x96>
    bc30:	480c                	lw	a1,16(s0)
    bc32:	8556                	mv	a0,s5
    bc34:	da7ff0ef          	jal	ra,b9da <_free_r>
    bc38:	bfb5                	j	bbb4 <__ssputs_r+0x5e>

0000bc3a <_svfiprintf_r>:
    bc3a:	25de                	lhu	a5,12(a1)
    bc3c:	7171                	addi	sp,sp,-176
    bc3e:	d326                	sw	s1,164(sp)
    bc40:	d14a                	sw	s2,160(sp)
    bc42:	cf4e                	sw	s3,156(sp)
    bc44:	d706                	sw	ra,172(sp)
    bc46:	d522                	sw	s0,168(sp)
    bc48:	cd52                	sw	s4,152(sp)
    bc4a:	cb56                	sw	s5,148(sp)
    bc4c:	c95a                	sw	s6,144(sp)
    bc4e:	c75e                	sw	s7,140(sp)
    bc50:	c562                	sw	s8,136(sp)
    bc52:	c366                	sw	s9,132(sp)
    bc54:	0807f793          	andi	a5,a5,128
    bc58:	89aa                	mv	s3,a0
    bc5a:	892e                	mv	s2,a1
    bc5c:	84b2                	mv	s1,a2
    bc5e:	c3b9                	beqz	a5,bca4 <_svfiprintf_r+0x6a>
    bc60:	499c                	lw	a5,16(a1)
    bc62:	e3a9                	bnez	a5,bca4 <_svfiprintf_r+0x6a>
    bc64:	04000593          	li	a1,64
    bc68:	c636                	sw	a3,12(sp)
    bc6a:	e19ff0ef          	jal	ra,ba82 <_malloc_r>
    bc6e:	00a92023          	sw	a0,0(s2)
    bc72:	00a92823          	sw	a0,16(s2)
    bc76:	46b2                	lw	a3,12(sp)
    bc78:	e115                	bnez	a0,bc9c <_svfiprintf_r+0x62>
    bc7a:	47b1                	li	a5,12
    bc7c:	00f9a023          	sw	a5,0(s3)
    bc80:	557d                	li	a0,-1
    bc82:	50ba                	lw	ra,172(sp)
    bc84:	542a                	lw	s0,168(sp)
    bc86:	549a                	lw	s1,164(sp)
    bc88:	590a                	lw	s2,160(sp)
    bc8a:	49fa                	lw	s3,156(sp)
    bc8c:	4a6a                	lw	s4,152(sp)
    bc8e:	4ada                	lw	s5,148(sp)
    bc90:	4b4a                	lw	s6,144(sp)
    bc92:	4bba                	lw	s7,140(sp)
    bc94:	4c2a                	lw	s8,136(sp)
    bc96:	4c9a                	lw	s9,132(sp)
    bc98:	614d                	addi	sp,sp,176
    bc9a:	8082                	ret
    bc9c:	04000793          	li	a5,64
    bca0:	00f92a23          	sw	a5,20(s2)
    bca4:	02000793          	li	a5,32
    bca8:	02f10ca3          	sb	a5,57(sp)
    bcac:	03000793          	li	a5,48
    bcb0:	da02                	sw	zero,52(sp)
    bcb2:	02f10d23          	sb	a5,58(sp)
    bcb6:	ce36                	sw	a3,28(sp)
    bcb8:	02500b93          	li	s7,37
    bcbc:	00002a97          	auipc	s5,0x2
    bcc0:	200a8a93          	addi	s5,s5,512 # debc <p05.3319+0xc>
    bcc4:	4c05                	li	s8,1
    bcc6:	4b29                	li	s6,10
    bcc8:	8426                	mv	s0,s1
    bcca:	201c                	lbu	a5,0(s0)
    bccc:	c399                	beqz	a5,bcd2 <_svfiprintf_r+0x98>
    bcce:	09779963          	bne	a5,s7,bd60 <_svfiprintf_r+0x126>
    bcd2:	40940cb3          	sub	s9,s0,s1
    bcd6:	000c8e63          	beqz	s9,bcf2 <_svfiprintf_r+0xb8>
    bcda:	86e6                	mv	a3,s9
    bcdc:	8626                	mv	a2,s1
    bcde:	85ca                	mv	a1,s2
    bce0:	854e                	mv	a0,s3
    bce2:	e75ff0ef          	jal	ra,bb56 <__ssputs_r>
    bce6:	57fd                	li	a5,-1
    bce8:	18f50963          	beq	a0,a5,be7a <_svfiprintf_r+0x240>
    bcec:	56d2                	lw	a3,52(sp)
    bcee:	96e6                	add	a3,a3,s9
    bcf0:	da36                	sw	a3,52(sp)
    bcf2:	201c                	lbu	a5,0(s0)
    bcf4:	18078363          	beqz	a5,be7a <_svfiprintf_r+0x240>
    bcf8:	57fd                	li	a5,-1
    bcfa:	00140493          	addi	s1,s0,1
    bcfe:	d002                	sw	zero,32(sp)
    bd00:	d602                	sw	zero,44(sp)
    bd02:	d23e                	sw	a5,36(sp)
    bd04:	d402                	sw	zero,40(sp)
    bd06:	060101a3          	sb	zero,99(sp)
    bd0a:	dc82                	sw	zero,120(sp)
    bd0c:	208c                	lbu	a1,0(s1)
    bd0e:	4615                	li	a2,5
    bd10:	8556                	mv	a0,s5
    bd12:	b00ff0ef          	jal	ra,b012 <memchr>
    bd16:	00148413          	addi	s0,s1,1
    bd1a:	5782                	lw	a5,32(sp)
    bd1c:	e521                	bnez	a0,bd64 <_svfiprintf_r+0x12a>
    bd1e:	0107f713          	andi	a4,a5,16
    bd22:	c709                	beqz	a4,bd2c <_svfiprintf_r+0xf2>
    bd24:	02000713          	li	a4,32
    bd28:	06e101a3          	sb	a4,99(sp)
    bd2c:	0087f713          	andi	a4,a5,8
    bd30:	c709                	beqz	a4,bd3a <_svfiprintf_r+0x100>
    bd32:	02b00713          	li	a4,43
    bd36:	06e101a3          	sb	a4,99(sp)
    bd3a:	2094                	lbu	a3,0(s1)
    bd3c:	02a00713          	li	a4,42
    bd40:	02e68a63          	beq	a3,a4,bd74 <_svfiprintf_r+0x13a>
    bd44:	57b2                	lw	a5,44(sp)
    bd46:	8426                	mv	s0,s1
    bd48:	4681                	li	a3,0
    bd4a:	4625                	li	a2,9
    bd4c:	2018                	lbu	a4,0(s0)
    bd4e:	00140593          	addi	a1,s0,1
    bd52:	fd070713          	addi	a4,a4,-48 # ffefffd0 <_eusrstack+0xdfef7fd0>
    bd56:	06e67263          	bgeu	a2,a4,bdba <_svfiprintf_r+0x180>
    bd5a:	c68d                	beqz	a3,bd84 <_svfiprintf_r+0x14a>
    bd5c:	d63e                	sw	a5,44(sp)
    bd5e:	a01d                	j	bd84 <_svfiprintf_r+0x14a>
    bd60:	0405                	addi	s0,s0,1
    bd62:	b7a5                	j	bcca <_svfiprintf_r+0x90>
    bd64:	41550533          	sub	a0,a0,s5
    bd68:	00ac1533          	sll	a0,s8,a0
    bd6c:	8fc9                	or	a5,a5,a0
    bd6e:	d03e                	sw	a5,32(sp)
    bd70:	84a2                	mv	s1,s0
    bd72:	bf69                	j	bd0c <_svfiprintf_r+0xd2>
    bd74:	4772                	lw	a4,28(sp)
    bd76:	00470693          	addi	a3,a4,4
    bd7a:	4318                	lw	a4,0(a4)
    bd7c:	ce36                	sw	a3,28(sp)
    bd7e:	02074763          	bltz	a4,bdac <_svfiprintf_r+0x172>
    bd82:	d63a                	sw	a4,44(sp)
    bd84:	2018                	lbu	a4,0(s0)
    bd86:	02e00793          	li	a5,46
    bd8a:	04f71d63          	bne	a4,a5,bde4 <_svfiprintf_r+0x1aa>
    bd8e:	3018                	lbu	a4,1(s0)
    bd90:	02a00793          	li	a5,42
    bd94:	02f71b63          	bne	a4,a5,bdca <_svfiprintf_r+0x190>
    bd98:	47f2                	lw	a5,28(sp)
    bd9a:	0409                	addi	s0,s0,2
    bd9c:	00478713          	addi	a4,a5,4 # 80000004 <_eusrstack+0x5fff8004>
    bda0:	439c                	lw	a5,0(a5)
    bda2:	ce3a                	sw	a4,28(sp)
    bda4:	0207c163          	bltz	a5,bdc6 <_svfiprintf_r+0x18c>
    bda8:	d23e                	sw	a5,36(sp)
    bdaa:	a82d                	j	bde4 <_svfiprintf_r+0x1aa>
    bdac:	40e00733          	neg	a4,a4
    bdb0:	0027e793          	ori	a5,a5,2
    bdb4:	d63a                	sw	a4,44(sp)
    bdb6:	d03e                	sw	a5,32(sp)
    bdb8:	b7f1                	j	bd84 <_svfiprintf_r+0x14a>
    bdba:	036787b3          	mul	a5,a5,s6
    bdbe:	4685                	li	a3,1
    bdc0:	842e                	mv	s0,a1
    bdc2:	97ba                	add	a5,a5,a4
    bdc4:	b761                	j	bd4c <_svfiprintf_r+0x112>
    bdc6:	57fd                	li	a5,-1
    bdc8:	b7c5                	j	bda8 <_svfiprintf_r+0x16e>
    bdca:	0405                	addi	s0,s0,1
    bdcc:	d202                	sw	zero,36(sp)
    bdce:	4681                	li	a3,0
    bdd0:	4781                	li	a5,0
    bdd2:	4625                	li	a2,9
    bdd4:	2018                	lbu	a4,0(s0)
    bdd6:	00140593          	addi	a1,s0,1
    bdda:	fd070713          	addi	a4,a4,-48
    bdde:	06e67663          	bgeu	a2,a4,be4a <_svfiprintf_r+0x210>
    bde2:	f2f9                	bnez	a3,bda8 <_svfiprintf_r+0x16e>
    bde4:	200c                	lbu	a1,0(s0)
    bde6:	460d                	li	a2,3
    bde8:	00002517          	auipc	a0,0x2
    bdec:	0dc50513          	addi	a0,a0,220 # dec4 <p05.3319+0x14>
    bdf0:	a22ff0ef          	jal	ra,b012 <memchr>
    bdf4:	cd11                	beqz	a0,be10 <_svfiprintf_r+0x1d6>
    bdf6:	00002797          	auipc	a5,0x2
    bdfa:	0ce78793          	addi	a5,a5,206 # dec4 <p05.3319+0x14>
    bdfe:	8d1d                	sub	a0,a0,a5
    be00:	04000793          	li	a5,64
    be04:	00a797b3          	sll	a5,a5,a0
    be08:	5502                	lw	a0,32(sp)
    be0a:	0405                	addi	s0,s0,1
    be0c:	8d5d                	or	a0,a0,a5
    be0e:	d02a                	sw	a0,32(sp)
    be10:	200c                	lbu	a1,0(s0)
    be12:	4619                	li	a2,6
    be14:	00002517          	auipc	a0,0x2
    be18:	0b450513          	addi	a0,a0,180 # dec8 <p05.3319+0x18>
    be1c:	00140493          	addi	s1,s0,1
    be20:	02b10c23          	sb	a1,56(sp)
    be24:	9eeff0ef          	jal	ra,b012 <memchr>
    be28:	c135                	beqz	a0,be8c <_svfiprintf_r+0x252>
    be2a:	ffffc797          	auipc	a5,0xffffc
    be2e:	9f678793          	addi	a5,a5,-1546 # 7820 <_printf_float>
    be32:	e795                	bnez	a5,be5e <_svfiprintf_r+0x224>
    be34:	5702                	lw	a4,32(sp)
    be36:	47f2                	lw	a5,28(sp)
    be38:	10077713          	andi	a4,a4,256
    be3c:	cf09                	beqz	a4,be56 <_svfiprintf_r+0x21c>
    be3e:	0791                	addi	a5,a5,4
    be40:	ce3e                	sw	a5,28(sp)
    be42:	57d2                	lw	a5,52(sp)
    be44:	97d2                	add	a5,a5,s4
    be46:	da3e                	sw	a5,52(sp)
    be48:	b541                	j	bcc8 <_svfiprintf_r+0x8e>
    be4a:	036787b3          	mul	a5,a5,s6
    be4e:	4685                	li	a3,1
    be50:	842e                	mv	s0,a1
    be52:	97ba                	add	a5,a5,a4
    be54:	b741                	j	bdd4 <_svfiprintf_r+0x19a>
    be56:	079d                	addi	a5,a5,7
    be58:	9be1                	andi	a5,a5,-8
    be5a:	07a1                	addi	a5,a5,8
    be5c:	b7d5                	j	be40 <_svfiprintf_r+0x206>
    be5e:	0878                	addi	a4,sp,28
    be60:	00000697          	auipc	a3,0x0
    be64:	cf668693          	addi	a3,a3,-778 # bb56 <__ssputs_r>
    be68:	864a                	mv	a2,s2
    be6a:	100c                	addi	a1,sp,32
    be6c:	854e                	mv	a0,s3
    be6e:	9b3fb0ef          	jal	ra,7820 <_printf_float>
    be72:	57fd                	li	a5,-1
    be74:	8a2a                	mv	s4,a0
    be76:	fcf516e3          	bne	a0,a5,be42 <_svfiprintf_r+0x208>
    be7a:	00c95783          	lhu	a5,12(s2)
    be7e:	557d                	li	a0,-1
    be80:	0407f793          	andi	a5,a5,64
    be84:	de079fe3          	bnez	a5,bc82 <_svfiprintf_r+0x48>
    be88:	5552                	lw	a0,52(sp)
    be8a:	bbe5                	j	bc82 <_svfiprintf_r+0x48>
    be8c:	0878                	addi	a4,sp,28
    be8e:	00000697          	auipc	a3,0x0
    be92:	cc868693          	addi	a3,a3,-824 # bb56 <__ssputs_r>
    be96:	864a                	mv	a2,s2
    be98:	100c                	addi	a1,sp,32
    be9a:	854e                	mv	a0,s3
    be9c:	f55fb0ef          	jal	ra,7df0 <_printf_i>
    bea0:	bfc9                	j	be72 <_svfiprintf_r+0x238>

0000bea2 <__sfputc_r>:
    bea2:	461c                	lw	a5,8(a2)
    bea4:	17fd                	addi	a5,a5,-1
    bea6:	c61c                	sw	a5,8(a2)
    bea8:	0007da63          	bgez	a5,bebc <__sfputc_r+0x1a>
    beac:	4e18                	lw	a4,24(a2)
    beae:	00e7c563          	blt	a5,a4,beb8 <__sfputc_r+0x16>
    beb2:	47a9                	li	a5,10
    beb4:	00f59463          	bne	a1,a5,bebc <__sfputc_r+0x1a>
    beb8:	df8fd06f          	j	94b0 <__swbuf_r>
    bebc:	421c                	lw	a5,0(a2)
    bebe:	852e                	mv	a0,a1
    bec0:	00178713          	addi	a4,a5,1
    bec4:	c218                	sw	a4,0(a2)
    bec6:	a38c                	sb	a1,0(a5)
    bec8:	8082                	ret

0000beca <__sfputs_r>:
    beca:	1101                	addi	sp,sp,-32
    becc:	cc22                	sw	s0,24(sp)
    bece:	ca26                	sw	s1,20(sp)
    bed0:	c84a                	sw	s2,16(sp)
    bed2:	c64e                	sw	s3,12(sp)
    bed4:	c452                	sw	s4,8(sp)
    bed6:	ce06                	sw	ra,28(sp)
    bed8:	892a                	mv	s2,a0
    beda:	89ae                	mv	s3,a1
    bedc:	8432                	mv	s0,a2
    bede:	00d604b3          	add	s1,a2,a3
    bee2:	5a7d                	li	s4,-1
    bee4:	00941463          	bne	s0,s1,beec <__sfputs_r+0x22>
    bee8:	4501                	li	a0,0
    beea:	a809                	j	befc <__sfputs_r+0x32>
    beec:	200c                	lbu	a1,0(s0)
    beee:	864e                	mv	a2,s3
    bef0:	854a                	mv	a0,s2
    bef2:	fb1ff0ef          	jal	ra,bea2 <__sfputc_r>
    bef6:	0405                	addi	s0,s0,1
    bef8:	ff4516e3          	bne	a0,s4,bee4 <__sfputs_r+0x1a>
    befc:	40f2                	lw	ra,28(sp)
    befe:	4462                	lw	s0,24(sp)
    bf00:	44d2                	lw	s1,20(sp)
    bf02:	4942                	lw	s2,16(sp)
    bf04:	49b2                	lw	s3,12(sp)
    bf06:	4a22                	lw	s4,8(sp)
    bf08:	6105                	addi	sp,sp,32
    bf0a:	8082                	ret

0000bf0c <_vfiprintf_r>:
    bf0c:	7135                	addi	sp,sp,-160
    bf0e:	cd22                	sw	s0,152(sp)
    bf10:	cb26                	sw	s1,148(sp)
    bf12:	c94a                	sw	s2,144(sp)
    bf14:	c74e                	sw	s3,140(sp)
    bf16:	cf06                	sw	ra,156(sp)
    bf18:	c552                	sw	s4,136(sp)
    bf1a:	c356                	sw	s5,132(sp)
    bf1c:	c15a                	sw	s6,128(sp)
    bf1e:	dede                	sw	s7,124(sp)
    bf20:	dce2                	sw	s8,120(sp)
    bf22:	dae6                	sw	s9,116(sp)
    bf24:	89aa                	mv	s3,a0
    bf26:	84ae                	mv	s1,a1
    bf28:	8932                	mv	s2,a2
    bf2a:	8436                	mv	s0,a3
    bf2c:	c509                	beqz	a0,bf36 <_vfiprintf_r+0x2a>
    bf2e:	4d1c                	lw	a5,24(a0)
    bf30:	e399                	bnez	a5,bf36 <_vfiprintf_r+0x2a>
    bf32:	ee2fe0ef          	jal	ra,a614 <__sinit>
    bf36:	00002797          	auipc	a5,0x2
    bf3a:	e3a78793          	addi	a5,a5,-454 # dd70 <__sf_fake_stdin>
    bf3e:	0cf49963          	bne	s1,a5,c010 <_vfiprintf_r+0x104>
    bf42:	0049a483          	lw	s1,4(s3)
    bf46:	24de                	lhu	a5,12(s1)
    bf48:	8ba1                	andi	a5,a5,8
    bf4a:	c7ed                	beqz	a5,c034 <_vfiprintf_r+0x128>
    bf4c:	489c                	lw	a5,16(s1)
    bf4e:	c3fd                	beqz	a5,c034 <_vfiprintf_r+0x128>
    bf50:	02000793          	li	a5,32
    bf54:	02f104a3          	sb	a5,41(sp)
    bf58:	03000793          	li	a5,48
    bf5c:	d202                	sw	zero,36(sp)
    bf5e:	02f10523          	sb	a5,42(sp)
    bf62:	c622                	sw	s0,12(sp)
    bf64:	02500b93          	li	s7,37
    bf68:	00002a97          	auipc	s5,0x2
    bf6c:	f54a8a93          	addi	s5,s5,-172 # debc <p05.3319+0xc>
    bf70:	4c05                	li	s8,1
    bf72:	4b29                	li	s6,10
    bf74:	844a                	mv	s0,s2
    bf76:	201c                	lbu	a5,0(s0)
    bf78:	c399                	beqz	a5,bf7e <_vfiprintf_r+0x72>
    bf7a:	0f779063          	bne	a5,s7,c05a <_vfiprintf_r+0x14e>
    bf7e:	41240cb3          	sub	s9,s0,s2
    bf82:	000c8e63          	beqz	s9,bf9e <_vfiprintf_r+0x92>
    bf86:	86e6                	mv	a3,s9
    bf88:	864a                	mv	a2,s2
    bf8a:	85a6                	mv	a1,s1
    bf8c:	854e                	mv	a0,s3
    bf8e:	f3dff0ef          	jal	ra,beca <__sfputs_r>
    bf92:	57fd                	li	a5,-1
    bf94:	1ef50063          	beq	a0,a5,c174 <_vfiprintf_r+0x268>
    bf98:	5692                	lw	a3,36(sp)
    bf9a:	96e6                	add	a3,a3,s9
    bf9c:	d236                	sw	a3,36(sp)
    bf9e:	201c                	lbu	a5,0(s0)
    bfa0:	1c078a63          	beqz	a5,c174 <_vfiprintf_r+0x268>
    bfa4:	57fd                	li	a5,-1
    bfa6:	00140913          	addi	s2,s0,1
    bfaa:	c802                	sw	zero,16(sp)
    bfac:	ce02                	sw	zero,28(sp)
    bfae:	ca3e                	sw	a5,20(sp)
    bfb0:	cc02                	sw	zero,24(sp)
    bfb2:	040109a3          	sb	zero,83(sp)
    bfb6:	d482                	sw	zero,104(sp)
    bfb8:	00094583          	lbu	a1,0(s2)
    bfbc:	4615                	li	a2,5
    bfbe:	8556                	mv	a0,s5
    bfc0:	852ff0ef          	jal	ra,b012 <memchr>
    bfc4:	00190413          	addi	s0,s2,1
    bfc8:	47c2                	lw	a5,16(sp)
    bfca:	e951                	bnez	a0,c05e <_vfiprintf_r+0x152>
    bfcc:	0107f713          	andi	a4,a5,16
    bfd0:	c709                	beqz	a4,bfda <_vfiprintf_r+0xce>
    bfd2:	02000713          	li	a4,32
    bfd6:	04e109a3          	sb	a4,83(sp)
    bfda:	0087f713          	andi	a4,a5,8
    bfde:	c709                	beqz	a4,bfe8 <_vfiprintf_r+0xdc>
    bfe0:	02b00713          	li	a4,43
    bfe4:	04e109a3          	sb	a4,83(sp)
    bfe8:	00094683          	lbu	a3,0(s2)
    bfec:	02a00713          	li	a4,42
    bff0:	06e68f63          	beq	a3,a4,c06e <_vfiprintf_r+0x162>
    bff4:	47f2                	lw	a5,28(sp)
    bff6:	844a                	mv	s0,s2
    bff8:	4681                	li	a3,0
    bffa:	4625                	li	a2,9
    bffc:	2018                	lbu	a4,0(s0)
    bffe:	00140593          	addi	a1,s0,1
    c002:	fd070713          	addi	a4,a4,-48
    c006:	0ae67763          	bgeu	a2,a4,c0b4 <_vfiprintf_r+0x1a8>
    c00a:	cab5                	beqz	a3,c07e <_vfiprintf_r+0x172>
    c00c:	ce3e                	sw	a5,28(sp)
    c00e:	a885                	j	c07e <_vfiprintf_r+0x172>
    c010:	00002797          	auipc	a5,0x2
    c014:	d8078793          	addi	a5,a5,-640 # dd90 <__sf_fake_stdout>
    c018:	00f49563          	bne	s1,a5,c022 <_vfiprintf_r+0x116>
    c01c:	0089a483          	lw	s1,8(s3)
    c020:	b71d                	j	bf46 <_vfiprintf_r+0x3a>
    c022:	00002797          	auipc	a5,0x2
    c026:	d2e78793          	addi	a5,a5,-722 # dd50 <__sf_fake_stderr>
    c02a:	f0f49ee3          	bne	s1,a5,bf46 <_vfiprintf_r+0x3a>
    c02e:	00c9a483          	lw	s1,12(s3)
    c032:	bf11                	j	bf46 <_vfiprintf_r+0x3a>
    c034:	85a6                	mv	a1,s1
    c036:	854e                	mv	a0,s3
    c038:	d3afd0ef          	jal	ra,9572 <__swsetup_r>
    c03c:	d911                	beqz	a0,bf50 <_vfiprintf_r+0x44>
    c03e:	557d                	li	a0,-1
    c040:	40fa                	lw	ra,156(sp)
    c042:	446a                	lw	s0,152(sp)
    c044:	44da                	lw	s1,148(sp)
    c046:	494a                	lw	s2,144(sp)
    c048:	49ba                	lw	s3,140(sp)
    c04a:	4a2a                	lw	s4,136(sp)
    c04c:	4a9a                	lw	s5,132(sp)
    c04e:	4b0a                	lw	s6,128(sp)
    c050:	5bf6                	lw	s7,124(sp)
    c052:	5c66                	lw	s8,120(sp)
    c054:	5cd6                	lw	s9,116(sp)
    c056:	610d                	addi	sp,sp,160
    c058:	8082                	ret
    c05a:	0405                	addi	s0,s0,1
    c05c:	bf29                	j	bf76 <_vfiprintf_r+0x6a>
    c05e:	41550533          	sub	a0,a0,s5
    c062:	00ac1533          	sll	a0,s8,a0
    c066:	8fc9                	or	a5,a5,a0
    c068:	c83e                	sw	a5,16(sp)
    c06a:	8922                	mv	s2,s0
    c06c:	b7b1                	j	bfb8 <_vfiprintf_r+0xac>
    c06e:	4732                	lw	a4,12(sp)
    c070:	00470693          	addi	a3,a4,4
    c074:	4318                	lw	a4,0(a4)
    c076:	c636                	sw	a3,12(sp)
    c078:	02074763          	bltz	a4,c0a6 <_vfiprintf_r+0x19a>
    c07c:	ce3a                	sw	a4,28(sp)
    c07e:	2018                	lbu	a4,0(s0)
    c080:	02e00793          	li	a5,46
    c084:	04f71d63          	bne	a4,a5,c0de <_vfiprintf_r+0x1d2>
    c088:	3018                	lbu	a4,1(s0)
    c08a:	02a00793          	li	a5,42
    c08e:	02f71b63          	bne	a4,a5,c0c4 <_vfiprintf_r+0x1b8>
    c092:	47b2                	lw	a5,12(sp)
    c094:	0409                	addi	s0,s0,2
    c096:	00478713          	addi	a4,a5,4
    c09a:	439c                	lw	a5,0(a5)
    c09c:	c63a                	sw	a4,12(sp)
    c09e:	0207c163          	bltz	a5,c0c0 <_vfiprintf_r+0x1b4>
    c0a2:	ca3e                	sw	a5,20(sp)
    c0a4:	a82d                	j	c0de <_vfiprintf_r+0x1d2>
    c0a6:	40e00733          	neg	a4,a4
    c0aa:	0027e793          	ori	a5,a5,2
    c0ae:	ce3a                	sw	a4,28(sp)
    c0b0:	c83e                	sw	a5,16(sp)
    c0b2:	b7f1                	j	c07e <_vfiprintf_r+0x172>
    c0b4:	036787b3          	mul	a5,a5,s6
    c0b8:	4685                	li	a3,1
    c0ba:	842e                	mv	s0,a1
    c0bc:	97ba                	add	a5,a5,a4
    c0be:	bf3d                	j	bffc <_vfiprintf_r+0xf0>
    c0c0:	57fd                	li	a5,-1
    c0c2:	b7c5                	j	c0a2 <_vfiprintf_r+0x196>
    c0c4:	0405                	addi	s0,s0,1
    c0c6:	ca02                	sw	zero,20(sp)
    c0c8:	4681                	li	a3,0
    c0ca:	4781                	li	a5,0
    c0cc:	4625                	li	a2,9
    c0ce:	2018                	lbu	a4,0(s0)
    c0d0:	00140593          	addi	a1,s0,1
    c0d4:	fd070713          	addi	a4,a4,-48
    c0d8:	06e67663          	bgeu	a2,a4,c144 <_vfiprintf_r+0x238>
    c0dc:	f2f9                	bnez	a3,c0a2 <_vfiprintf_r+0x196>
    c0de:	200c                	lbu	a1,0(s0)
    c0e0:	460d                	li	a2,3
    c0e2:	00002517          	auipc	a0,0x2
    c0e6:	de250513          	addi	a0,a0,-542 # dec4 <p05.3319+0x14>
    c0ea:	f29fe0ef          	jal	ra,b012 <memchr>
    c0ee:	cd11                	beqz	a0,c10a <_vfiprintf_r+0x1fe>
    c0f0:	00002797          	auipc	a5,0x2
    c0f4:	dd478793          	addi	a5,a5,-556 # dec4 <p05.3319+0x14>
    c0f8:	8d1d                	sub	a0,a0,a5
    c0fa:	04000793          	li	a5,64
    c0fe:	00a797b3          	sll	a5,a5,a0
    c102:	4542                	lw	a0,16(sp)
    c104:	0405                	addi	s0,s0,1
    c106:	8d5d                	or	a0,a0,a5
    c108:	c82a                	sw	a0,16(sp)
    c10a:	200c                	lbu	a1,0(s0)
    c10c:	4619                	li	a2,6
    c10e:	00002517          	auipc	a0,0x2
    c112:	dba50513          	addi	a0,a0,-582 # dec8 <p05.3319+0x18>
    c116:	00140913          	addi	s2,s0,1
    c11a:	02b10423          	sb	a1,40(sp)
    c11e:	ef5fe0ef          	jal	ra,b012 <memchr>
    c122:	c125                	beqz	a0,c182 <_vfiprintf_r+0x276>
    c124:	ffffb797          	auipc	a5,0xffffb
    c128:	6fc78793          	addi	a5,a5,1788 # 7820 <_printf_float>
    c12c:	e795                	bnez	a5,c158 <_vfiprintf_r+0x24c>
    c12e:	4742                	lw	a4,16(sp)
    c130:	47b2                	lw	a5,12(sp)
    c132:	10077713          	andi	a4,a4,256
    c136:	cf09                	beqz	a4,c150 <_vfiprintf_r+0x244>
    c138:	0791                	addi	a5,a5,4
    c13a:	c63e                	sw	a5,12(sp)
    c13c:	5792                	lw	a5,36(sp)
    c13e:	97d2                	add	a5,a5,s4
    c140:	d23e                	sw	a5,36(sp)
    c142:	bd0d                	j	bf74 <_vfiprintf_r+0x68>
    c144:	036787b3          	mul	a5,a5,s6
    c148:	4685                	li	a3,1
    c14a:	842e                	mv	s0,a1
    c14c:	97ba                	add	a5,a5,a4
    c14e:	b741                	j	c0ce <_vfiprintf_r+0x1c2>
    c150:	079d                	addi	a5,a5,7
    c152:	9be1                	andi	a5,a5,-8
    c154:	07a1                	addi	a5,a5,8
    c156:	b7d5                	j	c13a <_vfiprintf_r+0x22e>
    c158:	0078                	addi	a4,sp,12
    c15a:	00000697          	auipc	a3,0x0
    c15e:	d7068693          	addi	a3,a3,-656 # beca <__sfputs_r>
    c162:	8626                	mv	a2,s1
    c164:	080c                	addi	a1,sp,16
    c166:	854e                	mv	a0,s3
    c168:	eb8fb0ef          	jal	ra,7820 <_printf_float>
    c16c:	57fd                	li	a5,-1
    c16e:	8a2a                	mv	s4,a0
    c170:	fcf516e3          	bne	a0,a5,c13c <_vfiprintf_r+0x230>
    c174:	24de                	lhu	a5,12(s1)
    c176:	0407f793          	andi	a5,a5,64
    c17a:	ec0792e3          	bnez	a5,c03e <_vfiprintf_r+0x132>
    c17e:	5512                	lw	a0,36(sp)
    c180:	b5c1                	j	c040 <_vfiprintf_r+0x134>
    c182:	0078                	addi	a4,sp,12
    c184:	00000697          	auipc	a3,0x0
    c188:	d4668693          	addi	a3,a3,-698 # beca <__sfputs_r>
    c18c:	8626                	mv	a2,s1
    c18e:	080c                	addi	a1,sp,16
    c190:	854e                	mv	a0,s3
    c192:	c5ffb0ef          	jal	ra,7df0 <_printf_i>
    c196:	bfd9                	j	c16c <_vfiprintf_r+0x260>

0000c198 <_sbrk_r>:
    c198:	1141                	addi	sp,sp,-16
    c19a:	c422                	sw	s0,8(sp)
    c19c:	842a                	mv	s0,a0
    c19e:	852e                	mv	a0,a1
    c1a0:	8401ae23          	sw	zero,-1956(gp) # 20000284 <errno>
    c1a4:	c606                	sw	ra,12(sp)
    c1a6:	f72f70ef          	jal	ra,3918 <_sbrk>
    c1aa:	57fd                	li	a5,-1
    c1ac:	00f51763          	bne	a0,a5,c1ba <_sbrk_r+0x22>
    c1b0:	85c18793          	addi	a5,gp,-1956 # 20000284 <errno>
    c1b4:	439c                	lw	a5,0(a5)
    c1b6:	c391                	beqz	a5,c1ba <_sbrk_r+0x22>
    c1b8:	c01c                	sw	a5,0(s0)
    c1ba:	40b2                	lw	ra,12(sp)
    c1bc:	4422                	lw	s0,8(sp)
    c1be:	0141                	addi	sp,sp,16
    c1c0:	8082                	ret

0000c1c2 <__sread>:
    c1c2:	1141                	addi	sp,sp,-16
    c1c4:	c422                	sw	s0,8(sp)
    c1c6:	842e                	mv	s0,a1
    c1c8:	00e59583          	lh	a1,14(a1)
    c1cc:	c606                	sw	ra,12(sp)
    c1ce:	2ca9                	jal	c428 <_read_r>
    c1d0:	00054963          	bltz	a0,c1e2 <__sread+0x20>
    c1d4:	487c                	lw	a5,84(s0)
    c1d6:	97aa                	add	a5,a5,a0
    c1d8:	c87c                	sw	a5,84(s0)
    c1da:	40b2                	lw	ra,12(sp)
    c1dc:	4422                	lw	s0,8(sp)
    c1de:	0141                	addi	sp,sp,16
    c1e0:	8082                	ret
    c1e2:	245e                	lhu	a5,12(s0)
    c1e4:	777d                	lui	a4,0xfffff
    c1e6:	177d                	addi	a4,a4,-1
    c1e8:	8ff9                	and	a5,a5,a4
    c1ea:	a45e                	sh	a5,12(s0)
    c1ec:	b7fd                	j	c1da <__sread+0x18>

0000c1ee <__swrite>:
    c1ee:	25de                	lhu	a5,12(a1)
    c1f0:	1101                	addi	sp,sp,-32
    c1f2:	cc22                	sw	s0,24(sp)
    c1f4:	ca26                	sw	s1,20(sp)
    c1f6:	c84a                	sw	s2,16(sp)
    c1f8:	c64e                	sw	s3,12(sp)
    c1fa:	ce06                	sw	ra,28(sp)
    c1fc:	1007f793          	andi	a5,a5,256
    c200:	84aa                	mv	s1,a0
    c202:	842e                	mv	s0,a1
    c204:	8932                	mv	s2,a2
    c206:	89b6                	mv	s3,a3
    c208:	c791                	beqz	a5,c214 <__swrite+0x26>
    c20a:	00e59583          	lh	a1,14(a1)
    c20e:	4689                	li	a3,2
    c210:	4601                	li	a2,0
    c212:	22a1                	jal	c35a <_lseek_r>
    c214:	245e                	lhu	a5,12(s0)
    c216:	777d                	lui	a4,0xfffff
    c218:	177d                	addi	a4,a4,-1
    c21a:	8ff9                	and	a5,a5,a4
    c21c:	a45e                	sh	a5,12(s0)
    c21e:	00e41583          	lh	a1,14(s0)
    c222:	4462                	lw	s0,24(sp)
    c224:	40f2                	lw	ra,28(sp)
    c226:	86ce                	mv	a3,s3
    c228:	864a                	mv	a2,s2
    c22a:	49b2                	lw	s3,12(sp)
    c22c:	4942                	lw	s2,16(sp)
    c22e:	8526                	mv	a0,s1
    c230:	44d2                	lw	s1,20(sp)
    c232:	6105                	addi	sp,sp,32
    c234:	a8bd                	j	c2b2 <_write_r>

0000c236 <__sseek>:
    c236:	1141                	addi	sp,sp,-16
    c238:	c422                	sw	s0,8(sp)
    c23a:	842e                	mv	s0,a1
    c23c:	00e59583          	lh	a1,14(a1)
    c240:	c606                	sw	ra,12(sp)
    c242:	2a21                	jal	c35a <_lseek_r>
    c244:	57fd                	li	a5,-1
    c246:	245a                	lhu	a4,12(s0)
    c248:	00f51a63          	bne	a0,a5,c25c <__sseek+0x26>
    c24c:	77fd                	lui	a5,0xfffff
    c24e:	17fd                	addi	a5,a5,-1
    c250:	8ff9                	and	a5,a5,a4
    c252:	a45e                	sh	a5,12(s0)
    c254:	40b2                	lw	ra,12(sp)
    c256:	4422                	lw	s0,8(sp)
    c258:	0141                	addi	sp,sp,16
    c25a:	8082                	ret
    c25c:	6785                	lui	a5,0x1
    c25e:	8fd9                	or	a5,a5,a4
    c260:	a45e                	sh	a5,12(s0)
    c262:	c868                	sw	a0,84(s0)
    c264:	bfc5                	j	c254 <__sseek+0x1e>

0000c266 <__sclose>:
    c266:	00e59583          	lh	a1,14(a1)
    c26a:	a89d                	j	c2e0 <_close_r>

0000c26c <strncmp>:
    c26c:	c215                	beqz	a2,c290 <strncmp+0x24>
    c26e:	167d                	addi	a2,a2,-1
    c270:	4701                	li	a4,0
    c272:	00e507b3          	add	a5,a0,a4
    c276:	00e586b3          	add	a3,a1,a4
    c27a:	239c                	lbu	a5,0(a5)
    c27c:	2294                	lbu	a3,0(a3)
    c27e:	00d79663          	bne	a5,a3,c28a <strncmp+0x1e>
    c282:	00c70463          	beq	a4,a2,c28a <strncmp+0x1e>
    c286:	0705                	addi	a4,a4,1
    c288:	f7ed                	bnez	a5,c272 <strncmp+0x6>
    c28a:	40d78533          	sub	a0,a5,a3
    c28e:	8082                	ret
    c290:	4501                	li	a0,0
    c292:	8082                	ret

0000c294 <__ascii_wctomb>:
    c294:	cd89                	beqz	a1,c2ae <__ascii_wctomb+0x1a>
    c296:	0ff00793          	li	a5,255
    c29a:	00c7f763          	bgeu	a5,a2,c2a8 <__ascii_wctomb+0x14>
    c29e:	08a00793          	li	a5,138
    c2a2:	c11c                	sw	a5,0(a0)
    c2a4:	557d                	li	a0,-1
    c2a6:	8082                	ret
    c2a8:	a190                	sb	a2,0(a1)
    c2aa:	4505                	li	a0,1
    c2ac:	8082                	ret
    c2ae:	4501                	li	a0,0
    c2b0:	8082                	ret

0000c2b2 <_write_r>:
    c2b2:	1141                	addi	sp,sp,-16
    c2b4:	c422                	sw	s0,8(sp)
    c2b6:	842a                	mv	s0,a0
    c2b8:	852e                	mv	a0,a1
    c2ba:	85b2                	mv	a1,a2
    c2bc:	8636                	mv	a2,a3
    c2be:	8401ae23          	sw	zero,-1956(gp) # 20000284 <errno>
    c2c2:	c606                	sw	ra,12(sp)
    c2c4:	e16f70ef          	jal	ra,38da <_write>
    c2c8:	57fd                	li	a5,-1
    c2ca:	00f51763          	bne	a0,a5,c2d8 <_write_r+0x26>
    c2ce:	85c18793          	addi	a5,gp,-1956 # 20000284 <errno>
    c2d2:	439c                	lw	a5,0(a5)
    c2d4:	c391                	beqz	a5,c2d8 <_write_r+0x26>
    c2d6:	c01c                	sw	a5,0(s0)
    c2d8:	40b2                	lw	ra,12(sp)
    c2da:	4422                	lw	s0,8(sp)
    c2dc:	0141                	addi	sp,sp,16
    c2de:	8082                	ret

0000c2e0 <_close_r>:
    c2e0:	1141                	addi	sp,sp,-16
    c2e2:	c422                	sw	s0,8(sp)
    c2e4:	842a                	mv	s0,a0
    c2e6:	852e                	mv	a0,a1
    c2e8:	8401ae23          	sw	zero,-1956(gp) # 20000284 <errno>
    c2ec:	c606                	sw	ra,12(sp)
    c2ee:	2751                	jal	ca72 <_close>
    c2f0:	57fd                	li	a5,-1
    c2f2:	00f51763          	bne	a0,a5,c300 <_close_r+0x20>
    c2f6:	85c18793          	addi	a5,gp,-1956 # 20000284 <errno>
    c2fa:	439c                	lw	a5,0(a5)
    c2fc:	c391                	beqz	a5,c300 <_close_r+0x20>
    c2fe:	c01c                	sw	a5,0(s0)
    c300:	40b2                	lw	ra,12(sp)
    c302:	4422                	lw	s0,8(sp)
    c304:	0141                	addi	sp,sp,16
    c306:	8082                	ret

0000c308 <_fstat_r>:
    c308:	1141                	addi	sp,sp,-16
    c30a:	c422                	sw	s0,8(sp)
    c30c:	842a                	mv	s0,a0
    c30e:	852e                	mv	a0,a1
    c310:	85b2                	mv	a1,a2
    c312:	8401ae23          	sw	zero,-1956(gp) # 20000284 <errno>
    c316:	c606                	sw	ra,12(sp)
    c318:	279d                	jal	ca7e <_fstat>
    c31a:	57fd                	li	a5,-1
    c31c:	00f51763          	bne	a0,a5,c32a <_fstat_r+0x22>
    c320:	85c18793          	addi	a5,gp,-1956 # 20000284 <errno>
    c324:	439c                	lw	a5,0(a5)
    c326:	c391                	beqz	a5,c32a <_fstat_r+0x22>
    c328:	c01c                	sw	a5,0(s0)
    c32a:	40b2                	lw	ra,12(sp)
    c32c:	4422                	lw	s0,8(sp)
    c32e:	0141                	addi	sp,sp,16
    c330:	8082                	ret

0000c332 <_isatty_r>:
    c332:	1141                	addi	sp,sp,-16
    c334:	c422                	sw	s0,8(sp)
    c336:	842a                	mv	s0,a0
    c338:	852e                	mv	a0,a1
    c33a:	8401ae23          	sw	zero,-1956(gp) # 20000284 <errno>
    c33e:	c606                	sw	ra,12(sp)
    c340:	27a9                	jal	ca8a <_isatty>
    c342:	57fd                	li	a5,-1
    c344:	00f51763          	bne	a0,a5,c352 <_isatty_r+0x20>
    c348:	85c18793          	addi	a5,gp,-1956 # 20000284 <errno>
    c34c:	439c                	lw	a5,0(a5)
    c34e:	c391                	beqz	a5,c352 <_isatty_r+0x20>
    c350:	c01c                	sw	a5,0(s0)
    c352:	40b2                	lw	ra,12(sp)
    c354:	4422                	lw	s0,8(sp)
    c356:	0141                	addi	sp,sp,16
    c358:	8082                	ret

0000c35a <_lseek_r>:
    c35a:	1141                	addi	sp,sp,-16
    c35c:	c422                	sw	s0,8(sp)
    c35e:	842a                	mv	s0,a0
    c360:	852e                	mv	a0,a1
    c362:	85b2                	mv	a1,a2
    c364:	8636                	mv	a2,a3
    c366:	8401ae23          	sw	zero,-1956(gp) # 20000284 <errno>
    c36a:	c606                	sw	ra,12(sp)
    c36c:	272d                	jal	ca96 <_lseek>
    c36e:	57fd                	li	a5,-1
    c370:	00f51763          	bne	a0,a5,c37e <_lseek_r+0x24>
    c374:	85c18793          	addi	a5,gp,-1956 # 20000284 <errno>
    c378:	439c                	lw	a5,0(a5)
    c37a:	c391                	beqz	a5,c37e <_lseek_r+0x24>
    c37c:	c01c                	sw	a5,0(s0)
    c37e:	40b2                	lw	ra,12(sp)
    c380:	4422                	lw	s0,8(sp)
    c382:	0141                	addi	sp,sp,16
    c384:	8082                	ret

0000c386 <memmove>:
    c386:	04a5f163          	bgeu	a1,a0,c3c8 <memmove+0x42>
    c38a:	00c586b3          	add	a3,a1,a2
    c38e:	02d57d63          	bgeu	a0,a3,c3c8 <memmove+0x42>
    c392:	fff64593          	not	a1,a2
    c396:	4781                	li	a5,0
    c398:	17fd                	addi	a5,a5,-1
    c39a:	00f59363          	bne	a1,a5,c3a0 <memmove+0x1a>
    c39e:	8082                	ret
    c3a0:	00f68733          	add	a4,a3,a5
    c3a4:	00074803          	lbu	a6,0(a4) # fffff000 <_eusrstack+0xdfff7000>
    c3a8:	00c78733          	add	a4,a5,a2
    c3ac:	972a                	add	a4,a4,a0
    c3ae:	01070023          	sb	a6,0(a4)
    c3b2:	b7dd                	j	c398 <memmove+0x12>
    c3b4:	00f58733          	add	a4,a1,a5
    c3b8:	2314                	lbu	a3,0(a4)
    c3ba:	00f50733          	add	a4,a0,a5
    c3be:	0785                	addi	a5,a5,1
    c3c0:	a314                	sb	a3,0(a4)
    c3c2:	fef619e3          	bne	a2,a5,c3b4 <memmove+0x2e>
    c3c6:	8082                	ret
    c3c8:	4781                	li	a5,0
    c3ca:	bfe5                	j	c3c2 <memmove+0x3c>

0000c3cc <__malloc_lock>:
    c3cc:	8082                	ret

0000c3ce <__malloc_unlock>:
    c3ce:	8082                	ret

0000c3d0 <_realloc_r>:
    c3d0:	e581                	bnez	a1,c3d8 <_realloc_r+0x8>
    c3d2:	85b2                	mv	a1,a2
    c3d4:	eaeff06f          	j	ba82 <_malloc_r>
    c3d8:	1101                	addi	sp,sp,-32
    c3da:	cc22                	sw	s0,24(sp)
    c3dc:	ce06                	sw	ra,28(sp)
    c3de:	ca26                	sw	s1,20(sp)
    c3e0:	c84a                	sw	s2,16(sp)
    c3e2:	c64e                	sw	s3,12(sp)
    c3e4:	8432                	mv	s0,a2
    c3e6:	ee01                	bnez	a2,c3fe <_realloc_r+0x2e>
    c3e8:	df2ff0ef          	jal	ra,b9da <_free_r>
    c3ec:	4901                	li	s2,0
    c3ee:	40f2                	lw	ra,28(sp)
    c3f0:	4462                	lw	s0,24(sp)
    c3f2:	854a                	mv	a0,s2
    c3f4:	44d2                	lw	s1,20(sp)
    c3f6:	4942                	lw	s2,16(sp)
    c3f8:	49b2                	lw	s3,12(sp)
    c3fa:	6105                	addi	sp,sp,32
    c3fc:	8082                	ret
    c3fe:	84ae                	mv	s1,a1
    c400:	89aa                	mv	s3,a0
    c402:	2889                	jal	c454 <_malloc_usable_size_r>
    c404:	8926                	mv	s2,s1
    c406:	fe8574e3          	bgeu	a0,s0,c3ee <_realloc_r+0x1e>
    c40a:	85a2                	mv	a1,s0
    c40c:	854e                	mv	a0,s3
    c40e:	e74ff0ef          	jal	ra,ba82 <_malloc_r>
    c412:	892a                	mv	s2,a0
    c414:	dd69                	beqz	a0,c3ee <_realloc_r+0x1e>
    c416:	85a6                	mv	a1,s1
    c418:	8622                	mv	a2,s0
    c41a:	9e6fb0ef          	jal	ra,7600 <memcpy>
    c41e:	85a6                	mv	a1,s1
    c420:	854e                	mv	a0,s3
    c422:	db8ff0ef          	jal	ra,b9da <_free_r>
    c426:	b7e1                	j	c3ee <_realloc_r+0x1e>

0000c428 <_read_r>:
    c428:	1141                	addi	sp,sp,-16
    c42a:	c422                	sw	s0,8(sp)
    c42c:	842a                	mv	s0,a0
    c42e:	852e                	mv	a0,a1
    c430:	85b2                	mv	a1,a2
    c432:	8636                	mv	a2,a3
    c434:	8401ae23          	sw	zero,-1956(gp) # 20000284 <errno>
    c438:	c606                	sw	ra,12(sp)
    c43a:	25a5                	jal	caa2 <_read>
    c43c:	57fd                	li	a5,-1
    c43e:	00f51763          	bne	a0,a5,c44c <_read_r+0x24>
    c442:	85c18793          	addi	a5,gp,-1956 # 20000284 <errno>
    c446:	439c                	lw	a5,0(a5)
    c448:	c391                	beqz	a5,c44c <_read_r+0x24>
    c44a:	c01c                	sw	a5,0(s0)
    c44c:	40b2                	lw	ra,12(sp)
    c44e:	4422                	lw	s0,8(sp)
    c450:	0141                	addi	sp,sp,16
    c452:	8082                	ret

0000c454 <_malloc_usable_size_r>:
    c454:	ffc5a783          	lw	a5,-4(a1)
    c458:	ffc78513          	addi	a0,a5,-4 # ffc <dmp_set_accel_bias+0xac>
    c45c:	0007d563          	bgez	a5,c466 <_malloc_usable_size_r+0x12>
    c460:	95aa                	add	a1,a1,a0
    c462:	419c                	lw	a5,0(a1)
    c464:	953e                	add	a0,a0,a5
    c466:	8082                	ret

0000c468 <__eqdf2>:
    c468:	0145d713          	srli	a4,a1,0x14
    c46c:	001007b7          	lui	a5,0x100
    c470:	17fd                	addi	a5,a5,-1
    c472:	0146d813          	srli	a6,a3,0x14
    c476:	7ff77713          	andi	a4,a4,2047
    c47a:	7ff00893          	li	a7,2047
    c47e:	00b7fe33          	and	t3,a5,a1
    c482:	8eaa                	mv	t4,a0
    c484:	8ff5                	and	a5,a5,a3
    c486:	81fd                	srli	a1,a1,0x1f
    c488:	8f32                	mv	t5,a2
    c48a:	7ff87813          	andi	a6,a6,2047
    c48e:	82fd                	srli	a3,a3,0x1f
    c490:	01170b63          	beq	a4,a7,c4a6 <__eqdf2+0x3e>
    c494:	4305                	li	t1,1
    c496:	01180663          	beq	a6,a7,c4a2 <__eqdf2+0x3a>
    c49a:	01071463          	bne	a4,a6,c4a2 <__eqdf2+0x3a>
    c49e:	00fe0d63          	beq	t3,a5,c4b8 <__eqdf2+0x50>
    c4a2:	851a                	mv	a0,t1
    c4a4:	8082                	ret
    c4a6:	00ae68b3          	or	a7,t3,a0
    c4aa:	4305                	li	t1,1
    c4ac:	fe089be3          	bnez	a7,c4a2 <__eqdf2+0x3a>
    c4b0:	fee819e3          	bne	a6,a4,c4a2 <__eqdf2+0x3a>
    c4b4:	8fd1                	or	a5,a5,a2
    c4b6:	f7f5                	bnez	a5,c4a2 <__eqdf2+0x3a>
    c4b8:	4305                	li	t1,1
    c4ba:	ffee94e3          	bne	t4,t5,c4a2 <__eqdf2+0x3a>
    c4be:	4301                	li	t1,0
    c4c0:	fed581e3          	beq	a1,a3,c4a2 <__eqdf2+0x3a>
    c4c4:	4305                	li	t1,1
    c4c6:	ff71                	bnez	a4,c4a2 <__eqdf2+0x3a>
    c4c8:	00ae6533          	or	a0,t3,a0
    c4cc:	00a03333          	snez	t1,a0
    c4d0:	bfc9                	j	c4a2 <__eqdf2+0x3a>

0000c4d2 <__ledf2>:
    c4d2:	0145d713          	srli	a4,a1,0x14
    c4d6:	001007b7          	lui	a5,0x100
    c4da:	17fd                	addi	a5,a5,-1
    c4dc:	0146d813          	srli	a6,a3,0x14
    c4e0:	7ff77713          	andi	a4,a4,2047
    c4e4:	7ff00893          	li	a7,2047
    c4e8:	00b7fe33          	and	t3,a5,a1
    c4ec:	8eaa                	mv	t4,a0
    c4ee:	8ff5                	and	a5,a5,a3
    c4f0:	81fd                	srli	a1,a1,0x1f
    c4f2:	8f32                	mv	t5,a2
    c4f4:	7ff87813          	andi	a6,a6,2047
    c4f8:	82fd                	srli	a3,a3,0x1f
    c4fa:	03170e63          	beq	a4,a7,c536 <__ledf2+0x64>
    c4fe:	01180d63          	beq	a6,a7,c518 <__ledf2+0x46>
    c502:	e329                	bnez	a4,c544 <__ledf2+0x72>
    c504:	00ae68b3          	or	a7,t3,a0
    c508:	00081f63          	bnez	a6,c526 <__ledf2+0x54>
    c50c:	8e5d                	or	a2,a2,a5
    c50e:	ee01                	bnez	a2,c526 <__ledf2+0x54>
    c510:	4301                	li	t1,0
    c512:	04088c63          	beqz	a7,c56a <__ledf2+0x98>
    c516:	a821                	j	c52e <__ledf2+0x5c>
    c518:	00c7e8b3          	or	a7,a5,a2
    c51c:	4309                	li	t1,2
    c51e:	04089663          	bnez	a7,c56a <__ledf2+0x98>
    c522:	d36d                	beqz	a4,c504 <__ledf2+0x32>
    c524:	a005                	j	c544 <__ledf2+0x72>
    c526:	04088463          	beqz	a7,c56e <__ledf2+0x9c>
    c52a:	02d58563          	beq	a1,a3,c554 <__ledf2+0x82>
    c52e:	4305                	li	t1,1
    c530:	cd8d                	beqz	a1,c56a <__ledf2+0x98>
    c532:	537d                	li	t1,-1
    c534:	a81d                	j	c56a <__ledf2+0x98>
    c536:	00ae68b3          	or	a7,t3,a0
    c53a:	4309                	li	t1,2
    c53c:	02089763          	bnez	a7,c56a <__ledf2+0x98>
    c540:	02e80a63          	beq	a6,a4,c574 <__ledf2+0xa2>
    c544:	00081463          	bnez	a6,c54c <__ledf2+0x7a>
    c548:	8e5d                	or	a2,a2,a5
    c54a:	d275                	beqz	a2,c52e <__ledf2+0x5c>
    c54c:	fed591e3          	bne	a1,a3,c52e <__ledf2+0x5c>
    c550:	fce84fe3          	blt	a6,a4,c52e <__ledf2+0x5c>
    c554:	01074963          	blt	a4,a6,c566 <__ledf2+0x94>
    c558:	fdc7ebe3          	bltu	a5,t3,c52e <__ledf2+0x5c>
    c55c:	00fe0f63          	beq	t3,a5,c57a <__ledf2+0xa8>
    c560:	4301                	li	t1,0
    c562:	00fe7463          	bgeu	t3,a5,c56a <__ledf2+0x98>
    c566:	d5f1                	beqz	a1,c532 <__ledf2+0x60>
    c568:	4305                	li	t1,1
    c56a:	851a                	mv	a0,t1
    c56c:	8082                	ret
    c56e:	feed                	bnez	a3,c568 <__ledf2+0x96>
    c570:	537d                	li	t1,-1
    c572:	bfe5                	j	c56a <__ledf2+0x98>
    c574:	8e5d                	or	a2,a2,a5
    c576:	da79                	beqz	a2,c54c <__ledf2+0x7a>
    c578:	bfcd                	j	c56a <__ledf2+0x98>
    c57a:	fbdf6ae3          	bltu	t5,t4,c52e <__ledf2+0x5c>
    c57e:	4301                	li	t1,0
    c580:	ffeef5e3          	bgeu	t4,t5,c56a <__ledf2+0x98>
    c584:	f1f5                	bnez	a1,c568 <__ledf2+0x96>
    c586:	b775                	j	c532 <__ledf2+0x60>

0000c588 <__fixdfsi>:
    c588:	0145d793          	srli	a5,a1,0x14
    c58c:	001006b7          	lui	a3,0x100
    c590:	fff68713          	addi	a4,a3,-1 # fffff <_data_lma+0xf202b>
    c594:	7ff7f793          	andi	a5,a5,2047
    c598:	3fe00613          	li	a2,1022
    c59c:	8f6d                	and	a4,a4,a1
    c59e:	81fd                	srli	a1,a1,0x1f
    c5a0:	00f65c63          	bge	a2,a5,c5b8 <__fixdfsi+0x30>
    c5a4:	41d00613          	li	a2,1053
    c5a8:	00f65a63          	bge	a2,a5,c5bc <__fixdfsi+0x34>
    c5ac:	80000537          	lui	a0,0x80000
    c5b0:	fff54513          	not	a0,a0
    c5b4:	952e                	add	a0,a0,a1
    c5b6:	8082                	ret
    c5b8:	4501                	li	a0,0
    c5ba:	8082                	ret
    c5bc:	43300613          	li	a2,1075
    c5c0:	8e1d                	sub	a2,a2,a5
    c5c2:	487d                	li	a6,31
    c5c4:	8f55                	or	a4,a4,a3
    c5c6:	00c85d63          	bge	a6,a2,c5e0 <__fixdfsi+0x58>
    c5ca:	41300693          	li	a3,1043
    c5ce:	40f687b3          	sub	a5,a3,a5
    c5d2:	00f757b3          	srl	a5,a4,a5
    c5d6:	40f00533          	neg	a0,a5
    c5da:	f1e5                	bnez	a1,c5ba <__fixdfsi+0x32>
    c5dc:	853e                	mv	a0,a5
    c5de:	8082                	ret
    c5e0:	bed78793          	addi	a5,a5,-1043 # ffbed <_data_lma+0xf1c19>
    c5e4:	00f717b3          	sll	a5,a4,a5
    c5e8:	00c55533          	srl	a0,a0,a2
    c5ec:	8fc9                	or	a5,a5,a0
    c5ee:	b7e5                	j	c5d6 <__fixdfsi+0x4e>

0000c5f0 <__fixunsdfsi>:
    c5f0:	0145d793          	srli	a5,a1,0x14
    c5f4:	001006b7          	lui	a3,0x100
    c5f8:	fff68713          	addi	a4,a3,-1 # fffff <_data_lma+0xf202b>
    c5fc:	7ff7f793          	andi	a5,a5,2047
    c600:	3fe00613          	li	a2,1022
    c604:	882a                	mv	a6,a0
    c606:	8f6d                	and	a4,a4,a1
    c608:	4501                	li	a0,0
    c60a:	81fd                	srli	a1,a1,0x1f
    c60c:	00f65463          	bge	a2,a5,c614 <__fixunsdfsi+0x24>
    c610:	c199                	beqz	a1,c616 <__fixunsdfsi+0x26>
    c612:	8082                	ret
    c614:	8082                	ret
    c616:	41e00613          	li	a2,1054
    c61a:	557d                	li	a0,-1
    c61c:	fef64be3          	blt	a2,a5,c612 <__fixunsdfsi+0x22>
    c620:	43300513          	li	a0,1075
    c624:	8d1d                	sub	a0,a0,a5
    c626:	467d                	li	a2,31
    c628:	8f55                	or	a4,a4,a3
    c62a:	00a64a63          	blt	a2,a0,c63e <__fixunsdfsi+0x4e>
    c62e:	bed78793          	addi	a5,a5,-1043
    c632:	00f71733          	sll	a4,a4,a5
    c636:	00a85533          	srl	a0,a6,a0
    c63a:	8d59                	or	a0,a0,a4
    c63c:	8082                	ret
    c63e:	41300513          	li	a0,1043
    c642:	40f507b3          	sub	a5,a0,a5
    c646:	00f75533          	srl	a0,a4,a5
    c64a:	8082                	ret

0000c64c <__floatunsidf>:
    c64c:	cd1d                	beqz	a0,c68a <__floatunsidf+0x3e>
    c64e:	1141                	addi	sp,sp,-16
    c650:	c422                	sw	s0,8(sp)
    c652:	c606                	sw	ra,12(sp)
    c654:	842a                	mv	s0,a0
    c656:	f11fa0ef          	jal	ra,7566 <__clzsi2>
    c65a:	41e00693          	li	a3,1054
    c65e:	8e89                	sub	a3,a3,a0
    c660:	47a9                	li	a5,10
    c662:	7ff6f693          	andi	a3,a3,2047
    c666:	02a7dc63          	bge	a5,a0,c69e <__floatunsidf+0x52>
    c66a:	1555                	addi	a0,a0,-11
    c66c:	00a417b3          	sll	a5,s0,a0
    c670:	07b2                	slli	a5,a5,0xc
    c672:	83b1                	srli	a5,a5,0xc
    c674:	4701                	li	a4,0
    c676:	40b2                	lw	ra,12(sp)
    c678:	4422                	lw	s0,8(sp)
    c67a:	07b2                	slli	a5,a5,0xc
    c67c:	06d2                	slli	a3,a3,0x14
    c67e:	83b1                	srli	a5,a5,0xc
    c680:	8fd5                	or	a5,a5,a3
    c682:	853a                	mv	a0,a4
    c684:	85be                	mv	a1,a5
    c686:	0141                	addi	sp,sp,16
    c688:	8082                	ret
    c68a:	4781                	li	a5,0
    c68c:	4681                	li	a3,0
    c68e:	07b2                	slli	a5,a5,0xc
    c690:	06d2                	slli	a3,a3,0x14
    c692:	83b1                	srli	a5,a5,0xc
    c694:	4701                	li	a4,0
    c696:	8fd5                	or	a5,a5,a3
    c698:	853a                	mv	a0,a4
    c69a:	85be                	mv	a1,a5
    c69c:	8082                	ret
    c69e:	472d                	li	a4,11
    c6a0:	8f09                	sub	a4,a4,a0
    c6a2:	00e457b3          	srl	a5,s0,a4
    c6a6:	07b2                	slli	a5,a5,0xc
    c6a8:	01550713          	addi	a4,a0,21 # 80000015 <_eusrstack+0x5fff8015>
    c6ac:	00e41733          	sll	a4,s0,a4
    c6b0:	83b1                	srli	a5,a5,0xc
    c6b2:	b7d1                	j	c676 <__floatunsidf+0x2a>

0000c6b4 <__extenddftf2>:
    c6b4:	01465793          	srli	a5,a2,0x14
    c6b8:	00c61713          	slli	a4,a2,0xc
    c6bc:	7ff7f793          	andi	a5,a5,2047
    c6c0:	7179                	addi	sp,sp,-48
    c6c2:	8331                	srli	a4,a4,0xc
    c6c4:	00178693          	addi	a3,a5,1
    c6c8:	d422                	sw	s0,40(sp)
    c6ca:	d226                	sw	s1,36(sp)
    c6cc:	d606                	sw	ra,44(sp)
    c6ce:	d04a                	sw	s2,32(sp)
    c6d0:	c82e                	sw	a1,16(sp)
    c6d2:	ca3a                	sw	a4,20(sp)
    c6d4:	ce02                	sw	zero,28(sp)
    c6d6:	cc02                	sw	zero,24(sp)
    c6d8:	7fe6f693          	andi	a3,a3,2046
    c6dc:	842a                	mv	s0,a0
    c6de:	01f65493          	srli	s1,a2,0x1f
    c6e2:	cab9                	beqz	a3,c738 <__extenddftf2+0x84>
    c6e4:	6691                	lui	a3,0x4
    c6e6:	c0068693          	addi	a3,a3,-1024 # 3c00 <__ieee754_asin+0x202>
    c6ea:	97b6                	add	a5,a5,a3
    c6ec:	0045d613          	srli	a2,a1,0x4
    c6f0:	01c71693          	slli	a3,a4,0x1c
    c6f4:	07c6                	slli	a5,a5,0x11
    c6f6:	8ed1                	or	a3,a3,a2
    c6f8:	01c59513          	slli	a0,a1,0x1c
    c6fc:	8311                	srli	a4,a4,0x4
    c6fe:	83c5                	srli	a5,a5,0x11
    c700:	4801                	li	a6,0
    c702:	8678                	sh	a4,12(sp)
    c704:	4732                	lw	a4,12(sp)
    c706:	07c6                	slli	a5,a5,0x11
    c708:	800105b7          	lui	a1,0x80010
    c70c:	83c5                	srli	a5,a5,0x11
    c70e:	15fd                	addi	a1,a1,-1
    c710:	07c2                	slli	a5,a5,0x10
    c712:	8f6d                	and	a4,a4,a1
    c714:	8fd9                	or	a5,a5,a4
    c716:	0786                	slli	a5,a5,0x1
    c718:	01f49613          	slli	a2,s1,0x1f
    c71c:	8385                	srli	a5,a5,0x1
    c71e:	8fd1                	or	a5,a5,a2
    c720:	c048                	sw	a0,4(s0)
    c722:	01042023          	sw	a6,0(s0)
    c726:	c414                	sw	a3,8(s0)
    c728:	c45c                	sw	a5,12(s0)
    c72a:	8522                	mv	a0,s0
    c72c:	50b2                	lw	ra,44(sp)
    c72e:	5422                	lw	s0,40(sp)
    c730:	5492                	lw	s1,36(sp)
    c732:	5902                	lw	s2,32(sp)
    c734:	6145                	addi	sp,sp,48
    c736:	8082                	ret
    c738:	00b76533          	or	a0,a4,a1
    c73c:	e7bd                	bnez	a5,c7aa <__extenddftf2+0xf6>
    c73e:	cd51                	beqz	a0,c7da <__extenddftf2+0x126>
    c740:	c355                	beqz	a4,c7e4 <__extenddftf2+0x130>
    c742:	853a                	mv	a0,a4
    c744:	e23fa0ef          	jal	ra,7566 <__clzsi2>
    c748:	03150713          	addi	a4,a0,49
    c74c:	01f77813          	andi	a6,a4,31
    c750:	8715                	srai	a4,a4,0x5
    c752:	0a081d63          	bnez	a6,c80c <__extenddftf2+0x158>
    c756:	0810                	addi	a2,sp,16
    c758:	00271693          	slli	a3,a4,0x2
    c75c:	40d606b3          	sub	a3,a2,a3
    c760:	888a                	mv	a7,sp
    c762:	00271813          	slli	a6,a4,0x2
    c766:	46cc                	lw	a1,12(a3)
    c768:	010687b3          	add	a5,a3,a6
    c76c:	16f1                	addi	a3,a3,-4
    c76e:	c7cc                	sw	a1,12(a5)
    c770:	fed89be3          	bne	a7,a3,c766 <__extenddftf2+0xb2>
    c774:	177d                	addi	a4,a4,-1
    c776:	070a                	slli	a4,a4,0x2
    c778:	9732                	add	a4,a4,a2
    c77a:	00072023          	sw	zero,0(a4)
    c77e:	ffc70693          	addi	a3,a4,-4
    c782:	00e60963          	beq	a2,a4,c794 <__extenddftf2+0xe0>
    c786:	8736                	mv	a4,a3
    c788:	00072023          	sw	zero,0(a4)
    c78c:	ffc70693          	addi	a3,a4,-4
    c790:	fee61be3          	bne	a2,a4,c786 <__extenddftf2+0xd2>
    c794:	6791                	lui	a5,0x4
    c796:	c0c78793          	addi	a5,a5,-1012 # 3c0c <__ieee754_asin+0x20e>
    c79a:	8f89                	sub	a5,a5,a0
    c79c:	07c6                	slli	a5,a5,0x11
    c79e:	4842                	lw	a6,16(sp)
    c7a0:	4552                	lw	a0,20(sp)
    c7a2:	46e2                	lw	a3,24(sp)
    c7a4:	86b8                	lhu	a4,28(sp)
    c7a6:	83c5                	srli	a5,a5,0x11
    c7a8:	bfa9                	j	c702 <__extenddftf2+0x4e>
    c7aa:	c115                	beqz	a0,c7ce <__extenddftf2+0x11a>
    c7ac:	67a1                	lui	a5,0x8
    c7ae:	00475513          	srli	a0,a4,0x4
    c7b2:	01c71693          	slli	a3,a4,0x1c
    c7b6:	00f56733          	or	a4,a0,a5
    c7ba:	0045d613          	srli	a2,a1,0x4
    c7be:	0742                	slli	a4,a4,0x10
    c7c0:	8ed1                	or	a3,a3,a2
    c7c2:	01c59513          	slli	a0,a1,0x1c
    c7c6:	8341                	srli	a4,a4,0x10
    c7c8:	17fd                	addi	a5,a5,-1
    c7ca:	4801                	li	a6,0
    c7cc:	bf1d                	j	c702 <__extenddftf2+0x4e>
    c7ce:	67a1                	lui	a5,0x8
    c7d0:	4681                	li	a3,0
    c7d2:	17fd                	addi	a5,a5,-1
    c7d4:	4701                	li	a4,0
    c7d6:	4801                	li	a6,0
    c7d8:	b72d                	j	c702 <__extenddftf2+0x4e>
    c7da:	4681                	li	a3,0
    c7dc:	4781                	li	a5,0
    c7de:	4701                	li	a4,0
    c7e0:	4801                	li	a6,0
    c7e2:	b705                	j	c702 <__extenddftf2+0x4e>
    c7e4:	852e                	mv	a0,a1
    c7e6:	892e                	mv	s2,a1
    c7e8:	d7ffa0ef          	jal	ra,7566 <__clzsi2>
    c7ec:	05150713          	addi	a4,a0,81
    c7f0:	01f77813          	andi	a6,a4,31
    c7f4:	02050513          	addi	a0,a0,32
    c7f8:	8715                	srai	a4,a4,0x5
    c7fa:	f4080ee3          	beqz	a6,c756 <__extenddftf2+0xa2>
    c7fe:	4789                	li	a5,2
    c800:	00f70663          	beq	a4,a5,c80c <__extenddftf2+0x158>
    c804:	4709                	li	a4,2
    c806:	0810                	addi	a2,sp,16
    c808:	48b1                	li	a7,12
    c80a:	a835                	j	c846 <__extenddftf2+0x192>
    c80c:	40e006b3          	neg	a3,a4
    c810:	068a                	slli	a3,a3,0x2
    c812:	0810                	addi	a2,sp,16
    c814:	06b1                	addi	a3,a3,12
    c816:	02000e13          	li	t3,32
    c81a:	96b2                	add	a3,a3,a2
    c81c:	00271893          	slli	a7,a4,0x2
    c820:	410e0e33          	sub	t3,t3,a6
    c824:	ffc6a583          	lw	a1,-4(a3)
    c828:	429c                	lw	a5,0(a3)
    c82a:	01168333          	add	t1,a3,a7
    c82e:	01c5d5b3          	srl	a1,a1,t3
    c832:	010797b3          	sll	a5,a5,a6
    c836:	8ddd                	or	a1,a1,a5
    c838:	00b32023          	sw	a1,0(t1)
    c83c:	16f1                	addi	a3,a3,-4
    c83e:	fed613e3          	bne	a2,a3,c824 <__extenddftf2+0x170>
    c842:	4942                	lw	s2,16(sp)
    c844:	177d                	addi	a4,a4,-1
    c846:	101c                	addi	a5,sp,32
    c848:	98be                	add	a7,a7,a5
    c84a:	01091933          	sll	s2,s2,a6
    c84e:	ff28a823          	sw	s2,-16(a7) # fff0 <_data_lma+0x201c>
    c852:	b715                	j	c776 <__extenddftf2+0xc2>

0000c854 <__trunctfdf2>:
    c854:	00c52803          	lw	a6,12(a0)
    c858:	4118                	lw	a4,0(a0)
    c85a:	4154                	lw	a3,4(a0)
    c85c:	450c                	lw	a1,8(a0)
    c85e:	6521                	lui	a0,0x8
    c860:	fff50793          	addi	a5,a0,-1 # 7fff <_printf_i+0x20f>
    c864:	01085613          	srli	a2,a6,0x10
    c868:	00359e13          	slli	t3,a1,0x3
    c86c:	8e7d                	and	a2,a2,a5
    c86e:	01d75893          	srli	a7,a4,0x1d
    c872:	01d6d793          	srli	a5,a3,0x1d
    c876:	01081313          	slli	t1,a6,0x10
    c87a:	068e                	slli	a3,a3,0x3
    c87c:	1141                	addi	sp,sp,-16
    c87e:	01c7e7b3          	or	a5,a5,t3
    c882:	0116e6b3          	or	a3,a3,a7
    c886:	01035313          	srli	t1,t1,0x10
    c88a:	00371e13          	slli	t3,a4,0x3
    c88e:	00160893          	addi	a7,a2,1
    c892:	1579                	addi	a0,a0,-2
    c894:	81f5                	srli	a1,a1,0x1d
    c896:	030e                	slli	t1,t1,0x3
    c898:	c43e                	sw	a5,8(sp)
    c89a:	c236                	sw	a3,4(sp)
    c89c:	c072                	sw	t3,0(sp)
    c89e:	00a8f533          	and	a0,a7,a0
    c8a2:	01f85813          	srli	a6,a6,0x1f
    c8a6:	0065e5b3          	or	a1,a1,t1
    c8aa:	c905                	beqz	a0,c8da <__trunctfdf2+0x86>
    c8ac:	7771                	lui	a4,0xffffc
    c8ae:	40070713          	addi	a4,a4,1024 # ffffc400 <_eusrstack+0xdfff4400>
    c8b2:	963a                	add	a2,a2,a4
    c8b4:	7fe00713          	li	a4,2046
    c8b8:	04c75d63          	bge	a4,a2,c912 <__trunctfdf2+0xbe>
    c8bc:	7ff00613          	li	a2,2047
    c8c0:	4701                	li	a4,0
    c8c2:	4781                	li	a5,0
    c8c4:	0732                	slli	a4,a4,0xc
    c8c6:	0652                	slli	a2,a2,0x14
    c8c8:	8331                	srli	a4,a4,0xc
    c8ca:	087e                	slli	a6,a6,0x1f
    c8cc:	8f51                	or	a4,a4,a2
    c8ce:	01076733          	or	a4,a4,a6
    c8d2:	853e                	mv	a0,a5
    c8d4:	85ba                	mv	a1,a4
    c8d6:	0141                	addi	sp,sp,16
    c8d8:	8082                	ret
    c8da:	8fd5                	or	a5,a5,a3
    c8dc:	8fcd                	or	a5,a5,a1
    c8de:	01c7e7b3          	or	a5,a5,t3
    c8e2:	e205                	bnez	a2,c902 <__trunctfdf2+0xae>
    c8e4:	cbf1                	beqz	a5,c9b8 <__trunctfdf2+0x164>
    c8e6:	4781                	li	a5,0
    c8e8:	4695                	li	a3,5
    c8ea:	0036d593          	srli	a1,a3,0x3
    c8ee:	00979713          	slli	a4,a5,0x9
    c8f2:	01d79693          	slli	a3,a5,0x1d
    c8f6:	00b6e7b3          	or	a5,a3,a1
    c8fa:	8331                	srli	a4,a4,0xc
    c8fc:	7ff67613          	andi	a2,a2,2047
    c900:	b7d1                	j	c8c4 <__trunctfdf2+0x70>
    c902:	dfcd                	beqz	a5,c8bc <__trunctfdf2+0x68>
    c904:	4801                	li	a6,0
    c906:	7ff00613          	li	a2,2047
    c90a:	00080737          	lui	a4,0x80
    c90e:	4781                	li	a5,0
    c910:	bf55                	j	c8c4 <__trunctfdf2+0x70>
    c912:	0ac04663          	bgtz	a2,c9be <__trunctfdf2+0x16a>
    c916:	fcc00793          	li	a5,-52
    c91a:	0ef64f63          	blt	a2,a5,ca18 <__trunctfdf2+0x1c4>
    c91e:	03d00793          	li	a5,61
    c922:	40c78633          	sub	a2,a5,a2
    c926:	40565793          	srai	a5,a2,0x5
    c92a:	00080737          	lui	a4,0x80
    c92e:	8dd9                	or	a1,a1,a4
    c930:	00279513          	slli	a0,a5,0x2
    c934:	870a                	mv	a4,sp
    c936:	4681                	li	a3,0
    c938:	c62e                	sw	a1,12(sp)
    c93a:	00a108b3          	add	a7,sp,a0
    c93e:	0711                	addi	a4,a4,4
    c940:	8a7d                	andi	a2,a2,31
    c942:	01c6e6b3          	or	a3,a3,t3
    c946:	01170963          	beq	a4,a7,c958 <__trunctfdf2+0x104>
    c94a:	00072e03          	lw	t3,0(a4) # 80000 <_data_lma+0x7202c>
    c94e:	0711                	addi	a4,a4,4
    c950:	01c6e6b3          	or	a3,a3,t3
    c954:	ff171be3          	bne	a4,a7,c94a <__trunctfdf2+0xf6>
    c958:	470d                	li	a4,3
    c95a:	8f1d                	sub	a4,a4,a5
    c95c:	ca79                	beqz	a2,ca32 <__trunctfdf2+0x1de>
    c95e:	01010893          	addi	a7,sp,16
    c962:	98aa                	add	a7,a7,a0
    c964:	ff08a883          	lw	a7,-16(a7)
    c968:	02000e13          	li	t3,32
    c96c:	40ce0e33          	sub	t3,t3,a2
    c970:	01c898b3          	sll	a7,a7,t3
    c974:	0116e6b3          	or	a3,a3,a7
    c978:	cb75                	beqz	a4,ca6c <__trunctfdf2+0x218>
    c97a:	070a                	slli	a4,a4,0x2
    c97c:	950a                	add	a0,a0,sp
    c97e:	00e10eb3          	add	t4,sp,a4
    c982:	888a                	mv	a7,sp
    c984:	410c                	lw	a1,0(a0)
    c986:	00452303          	lw	t1,4(a0)
    c98a:	0891                	addi	a7,a7,4
    c98c:	00c5d5b3          	srl	a1,a1,a2
    c990:	01c31333          	sll	t1,t1,t3
    c994:	0065e5b3          	or	a1,a1,t1
    c998:	feb8ae23          	sw	a1,-4(a7)
    c99c:	0511                	addi	a0,a0,4
    c99e:	ff1e93e3          	bne	t4,a7,c984 <__trunctfdf2+0x130>
    c9a2:	4591                	li	a1,4
    c9a4:	40f587b3          	sub	a5,a1,a5
    c9a8:	45b2                	lw	a1,12(sp)
    c9aa:	0808                	addi	a0,sp,16
    c9ac:	972a                	add	a4,a4,a0
    c9ae:	00c5d5b3          	srl	a1,a1,a2
    c9b2:	feb72823          	sw	a1,-16(a4)
    c9b6:	a861                	j	ca4e <__trunctfdf2+0x1fa>
    c9b8:	4601                	li	a2,0
    c9ba:	4701                	li	a4,0
    c9bc:	b721                	j	c8c4 <__trunctfdf2+0x70>
    c9be:	00469713          	slli	a4,a3,0x4
    c9c2:	00479513          	slli	a0,a5,0x4
    c9c6:	01c76733          	or	a4,a4,t3
    c9ca:	82f1                	srli	a3,a3,0x1c
    c9cc:	83f1                	srli	a5,a5,0x1c
    c9ce:	0592                	slli	a1,a1,0x4
    c9d0:	00e03733          	snez	a4,a4
    c9d4:	8ec9                	or	a3,a3,a0
    c9d6:	8fcd                	or	a5,a5,a1
    c9d8:	8ed9                	or	a3,a3,a4
    c9da:	0076f713          	andi	a4,a3,7
    c9de:	c711                	beqz	a4,c9ea <__trunctfdf2+0x196>
    c9e0:	00f6f713          	andi	a4,a3,15
    c9e4:	4591                	li	a1,4
    c9e6:	02b71c63          	bne	a4,a1,ca1e <__trunctfdf2+0x1ca>
    c9ea:	00800737          	lui	a4,0x800
    c9ee:	8f7d                	and	a4,a4,a5
    c9f0:	ee070de3          	beqz	a4,c8ea <__trunctfdf2+0x96>
    c9f4:	0605                	addi	a2,a2,1
    c9f6:	7ff00713          	li	a4,2047
    c9fa:	ece601e3          	beq	a2,a4,c8bc <__trunctfdf2+0x68>
    c9fe:	ff800737          	lui	a4,0xff800
    ca02:	177d                	addi	a4,a4,-1
    ca04:	8f7d                	and	a4,a4,a5
    ca06:	01d71793          	slli	a5,a4,0x1d
    ca0a:	828d                	srli	a3,a3,0x3
    ca0c:	0726                	slli	a4,a4,0x9
    ca0e:	7ff67613          	andi	a2,a2,2047
    ca12:	8fd5                	or	a5,a5,a3
    ca14:	8331                	srli	a4,a4,0xc
    ca16:	b57d                	j	c8c4 <__trunctfdf2+0x70>
    ca18:	4685                	li	a3,1
    ca1a:	4781                	li	a5,0
    ca1c:	4601                	li	a2,0
    ca1e:	ffc6b713          	sltiu	a4,a3,-4
    ca22:	00174713          	xori	a4,a4,1
    ca26:	97ba                	add	a5,a5,a4
    ca28:	00800737          	lui	a4,0x800
    ca2c:	0691                	addi	a3,a3,4
    ca2e:	8f7d                	and	a4,a4,a5
    ca30:	b7c1                	j	c9f0 <__trunctfdf2+0x19c>
    ca32:	858a                	mv	a1,sp
    ca34:	00a588b3          	add	a7,a1,a0
    ca38:	0008a883          	lw	a7,0(a7)
    ca3c:	0591                	addi	a1,a1,4
    ca3e:	0605                	addi	a2,a2,1
    ca40:	ff15ae23          	sw	a7,-4(a1) # 8000fffc <_eusrstack+0x60007ffc>
    ca44:	fec758e3          	bge	a4,a2,ca34 <__trunctfdf2+0x1e0>
    ca48:	4711                	li	a4,4
    ca4a:	40f707b3          	sub	a5,a4,a5
    ca4e:	078a                	slli	a5,a5,0x2
    ca50:	978a                	add	a5,a5,sp
    ca52:	0818                	addi	a4,sp,16
    ca54:	0007a023          	sw	zero,0(a5) # 8000 <_printf_i+0x210>
    ca58:	0791                	addi	a5,a5,4
    ca5a:	fee79de3          	bne	a5,a4,ca54 <__trunctfdf2+0x200>
    ca5e:	4702                	lw	a4,0(sp)
    ca60:	00d036b3          	snez	a3,a3
    ca64:	4792                	lw	a5,4(sp)
    ca66:	8ed9                	or	a3,a3,a4
    ca68:	4601                	li	a2,0
    ca6a:	bf85                	j	c9da <__trunctfdf2+0x186>
    ca6c:	4785                	li	a5,1
    ca6e:	4701                	li	a4,0
    ca70:	bf2d                	j	c9aa <__trunctfdf2+0x156>

0000ca72 <_close>:
    ca72:	05800793          	li	a5,88
    ca76:	84f1ae23          	sw	a5,-1956(gp) # 20000284 <errno>
    ca7a:	557d                	li	a0,-1
    ca7c:	8082                	ret

0000ca7e <_fstat>:
    ca7e:	05800793          	li	a5,88
    ca82:	84f1ae23          	sw	a5,-1956(gp) # 20000284 <errno>
    ca86:	557d                	li	a0,-1
    ca88:	8082                	ret

0000ca8a <_isatty>:
    ca8a:	05800793          	li	a5,88
    ca8e:	84f1ae23          	sw	a5,-1956(gp) # 20000284 <errno>
    ca92:	4501                	li	a0,0
    ca94:	8082                	ret

0000ca96 <_lseek>:
    ca96:	05800793          	li	a5,88
    ca9a:	84f1ae23          	sw	a5,-1956(gp) # 20000284 <errno>
    ca9e:	557d                	li	a0,-1
    caa0:	8082                	ret

0000caa2 <_read>:
    caa2:	05800793          	li	a5,88
    caa6:	84f1ae23          	sw	a5,-1956(gp) # 20000284 <errno>
    caaa:	557d                	li	a0,-1
    caac:	8082                	ret
    caae:	0000                	unimp
    cab0:	f2fe                	fsw	ft11,100(sp)
    cab2:	f1aac4ab          	0xf1aac4ab
    cab6:	dfdf afbb dfdf      	0xdfdfafbbdfdf
    cabc:	aab8                	sb	a4,18(a3)
    cabe:	aaaa                	sh	a0,18(a3)
    cac0:	88b0                	0x88b0
    cac2:	00c7c5c3          	fmadd.s	fa1,fa5,fa2,ft0,rmm
    cac6:	0000                	unimp
    cac8:	b1d8                	sb	a4,5(a1)
    caca:	f3b9                	bnez	a5,ca10 <__trunctfdf2+0x1bc>
    cacc:	b691a38b          	0xb691a38b
    cad0:	b409                	j	c4d2 <__ledf2>
    cad2:	00d9                	addi	ra,ra,22
    cad4:	b1da                	sh	a4,36(a1)
    cad6:	f3b9                	bnez	a5,ca1c <__trunctfdf2+0x1c8>
    cad8:	b691a38b          	0xb691a38b
    cadc:	b4da                	sh	a4,44(s1)
    cade:	00da                	slli	ra,ra,0x16
    cae0:	0000                	unimp
    cae2:	42c8                	lw	a0,4(a3)
    cae4:	0000                	unimp
    cae6:	4120                	lw	s0,64(a0)
    cae8:	0000                	unimp
    caea:	c334                	sw	a3,64(a4)
    caec:	0000                	unimp
    caee:	43b4                	lw	a3,64(a5)
    caf0:	0000                	unimp
    caf2:	4334                	lw	a3,64(a4)
    caf4:	6f72                	flw	ft10,28(sp)
    caf6:	6c6c                	flw	fa1,92(s0)
    caf8:	253d                	jal	d126 <dmp_memory+0x626>
    cafa:	0d66                	slli	s10,s10,0x19
    cafc:	000a                	c.slli	zero,0x2
	...

0000cb00 <dmp_memory>:
    cb00:	0000 0070 0000 2400 0000 0200 0300 0000     ..p....$........
    cb10:	6500 5400 efff 0000 80fa 0b00 8212 0100     .e.T............
    cb20:	0c03 c330 8c0e e98c d514 0240 7113 8e0f     ..0.......@..q..
    cb30:	8338 83f8 0030 83f8 8e25 83f8 0030 83f8     8...0...%...0...
    cb40:	ffff ffff fe0f d6a9 0024 0004 821a a179     ........$.....y.
    cb50:	0000 3c00 ffff 0000 1000 0000 8338 a26f     ...<........8.o.
    cb60:	3e00 3003 0040 0000 ca02 09e3 803e 0000     .>.0@.......>...
    cb70:	0020 0000 0000 0000 0040 0000 0060 0000      .......@...`...
    cb80:	0c00 0000 0c00 6e18 0000 9206 160a dfc0     .......n........
    cb90:	ffff 5602 8cfd 77d3 e1ff 96c4 c5e0 aabe     ...V...w........
    cba0:	0000 0000 ffff 2b0b 0000 5716 0000 5903     .......+...W...Y
    cbb0:	0040 0000 0000 fa1d 0200 1d6c 0000 0000     @.........l.....
    cbc0:	ff3f ebdf 3e00 b6b3 0d00 7822 0000 3c2f     ?....>...."x../<
    cbd0:	0000 0000 1900 b542 0000 a239 0000 65b3     ......B...9....e
    cbe0:	0ed9 c99f cf1d 344c 0030 0000 0050 0000     ......L40...P...
    cbf0:	b63b e87a 6400 0000 c800 0000 0000 0000     ;.z..d..........
    cc00:	0010 0000 0010 92fa 0010 5e22 0d00 9f22     .........."^..".
    cc10:	0100 0000 3200 0000 46ff 0000 d463 0000     .....2...F..c...
    cc20:	0010 0000 d604 0000 cc04 0000 cc04 0000     ................
    cc30:	0000 7210 0000 4000 0000 0000 0000 0000     ...r...@........
    cc40:	0600 0200 0500 0700 0000 0000 6400 0000     .............d..
    cc50:	0000 0000 0000 0500 0500 6400 2000 0000     ...........d. ..
	...
    cc68:	0000 0040 0000 0003 0000 3200 98f8 0000     ..@........2....
    cc78:	65ff 0000 0f83 0000 9bff 00fc 0000 0000     .e..............
	...
    ccac:	0000 0010 0040 0000 0000 0600 0000 6ab2     ....@..........j
    ccbc:	0200 0000 0100 83fb 6800 0000 d900 00fc     .........h......
    cccc:	f17c 83ff 0000 0000 6500 0000 6400 e803     |........e...d..
    ccdc:	6400 2800 0000 2500 0000 0000 a016 0000     .d.(...%........
    ccec:	0000 0010 0000 0010 2f00 0000 0000 f401     ........./......
    ccfc:	0000 0010 2800 0000 ffff 8145 ffff 72fa     .....(....E....r
	...
    cd14:	4400 0500 0500 c6ba 4700 a278 0000 0100     .D.......Gx.....
    cd24:	0000 0000 0000 0006 0000 1400 0000 4d25     ..............%M
    cd34:	2f00 6d70 0000 ae05 0c00 d002 0000 0000     ./pm............
	...
    cd50:	1b00 0000 0000 0000 0000 0000 0000 0000     ................
    cd60:	6400 0000 0800 0000 0000 0000 0000 0000     .d..............
	...
    cdc0:	1b00 0000 0000 0000 0000 0000 0e00 0e00     ................
    cdd0:	0000 c70a 0400 0000 0000 3200 ffff 9cff     ...........2....
    cde0:	0000 2b0b 0000 0200 0000 0100 0000 6400     ...+...........d
    cdf0:	e5ff 0000 0000 0000 0000 0000 0000 0000     ................
    ce00:	0000 0100 0000 0000 0100 0000 0000 0000     ................
    ce10:	0100 0080 0100 0080 0100 0080 2400 d326     .............$&.
	...
    ce28:	0600 1000 9600 3c00 0000 0000 0000 0000     .......<........
	...
    ce40:	0a0c 684e cfcd 0977 1650 5967 19c6 82ce     ..Nh..w.P.gY....
	...
    ce68:	d717 0084 0003 0000 0000 0000 0000 0000     ................
    ce78:	93c7 9d8f 1b1e 191c 0000 0000 0000 0000     ................
	...
    ce98:	0302 8518 0000 0040 0000 0300 0000 0300     ......@.........
	...
    ceb0:	0040 0000 0000 0000 0000 0000 0000 0000     @...............
	...
    cee4:	7d67 7edf 9072 552e f64c 88e6 0000 0000     g}.~r..UL.......
	...
    cf00:	dcd8 b8b4 d8b0 abb9 f8f3 b3fa bbb7 9e8e     ................
    cf10:	f1ae f532 f11b b8b4 80b0 f197 dfa9 dfdf     ..2.............
    cf20:	dfaa dfdf aaf2 cdc5 a9c7 c90c 972c a9f1     ............,...
    cf30:	2689 6646 89b2 a999 552d b07d 8ab0 96a8     .&Ff....-U}.....
    cf40:	5636 f176 a3ba b2b4 c080 a8b8 1197 83b2     6Vv.............
    cf50:	ba98 f0a3 0824 1044 1864 b9b2 98b4 f183     ....$.D.d.......
    cf60:	29a3 7d55 b5ba a3b1 9383 00f0 5028 b2f5     .)U}........(P..
    cf70:	aab6 9383 5428 f17c a3b9 9382 ba61 daa2     ....(T|.....a...
    cf80:	dfde 81db b99a f5ae 6860 f170 bada dfa2     ........`hp.....
    cf90:	bad9 faa2 a3b9 9282 31db a2ba bad9 f8a2     .........1......
    cfa0:	85df d0a4 bbc1 83ad c5c2 b8c7 dfa2 dfdf     ................
    cfb0:	a0ba dfdf d8df f1d8 aab8 8db3 98b4 350d     ...............5
    cfc0:	b25d bab6 8caf 1996 9f8f 0ea7 1e16 9ab4     ]...............
    cfd0:	aab8 2c87 7c54 a4ba 8ab0 91b6 5632 b276     ...,T|......2Vv.
    cfe0:	9484 c8a4 cd08 b8d8 b0b4 99f1 a882 552d     ..............-U
    cff0:	987d 0ea8 1e16 2ca2 7c54 a492 2cf0 7850     }......,T|...,Px
    d000:	84f1 98a8 cdc4 d8fc db0d fca8 f32d bad9     ............-...
    d010:	f8a6 bada dea6 bad8 b6b2 9686 d0a6 c8f3     ................
    d020:	da41 c8a6 d8f8 b4b0 82b8 92a8 2cf5 8854     A............,T.
    d030:	f198 d935 18f4 f1d8 d0a2 f9f8 84a8 c7d9     ..5.............
    d040:	f8df 83f8 dac5 69df 83df d8c1 01f4 f114     .......i........
    d050:	82a8 a84e f384 d111 f582 92d9 9728 f188     ..N.........(...
    d060:	f409 1c1c 84d8 f3a8 f9c0 d9d1 8297 29f1     ...............)
    d070:	0df4 f3d8 f9f9 d9d1 f482 03c2 ded8 1adf     ................
    d080:	f1d8 faa2 a8f9 9884 c7d9 f8df f8f8 c783     ................
    d090:	dfda df69 83f8 d8c3 01f4 f114 a898 2e82     ..i.............
    d0a0:	84a8 11f3 82d1 d9f5 5092 8897 09f1 1cf4     .........P......
    d0b0:	84d8 f3a8 f8c0 d1f9 97d9 f182 f449 d80d     ............I...
    d0c0:	f9f3 d1f9 82d9 c4f4 d803 dfde f1d8 88ad     ................
    d0d0:	cc98 09a8 d9f9 9282 f5a8 f17c 3a88 94cf     ..........|..:..
    d0e0:	6e4a db98 3169 adda def2 d8f9 9587 f2a8     Jn..i1..........
    d0f0:	d121 a5da f4f9 d917 aef1 d08e c3c0 82ae     !...............
    d100:	84c6 a8c3 9585 a5c8 f288 f1c0 01f4 f10e     ................
    d110:	9e8e c6a8 563e 54f5 88f1 f472 1501 98f1     ....>V.T..r.....
    d120:	8545 f56e 9e8e 8804 42f1 5a98 9e8e 8806     E.n......B.Z....
    d130:	f469 1c01 98f1 111e d008 04f5 1ef1 0297     i...............
    d140:	9802 2536 f9db 85d9 f3a5 dac1 a585 dff3     ..6%............
    d150:	85d8 a895 09f3 a5da d8fa 9282 f5a8 f178     ..............x.
    d160:	1a88 9f84 8826 2198 f4da f31d 87d8 399f     ....&..!.......9
    d170:	afd1 dfd9 fbdf f4f9 f30c fad8 f8d0 f9da     ................
    d180:	d0f9 d9df d8f9 0bf4 f3d8 9f87 d139 d9af     ............9...
    d190:	dfdf 1df4 d8f3 fcfa 69a8 f9f9 d0af deda     .........i......
    d1a0:	d9fa 8ff8 a89f ccf1 98f3 45db afd9 d0df     ...........E....
    d1b0:	d8f8 8ff1 a89f f3ca 0988 afda cb8f d8f8     ................
    d1c0:	adf2 8d97 d90c dfa5 baf9 f3a6 f4fa f212     ................
    d1d0:	95d8 d10d bad9 f3a6 dafa f2a5 bac1 f3a6     ................
    d1e0:	d8df baf1 b6b2 9686 d0a6 f3ca da49 cba6     ............I...
    d1f0:	d8f8 b4b0 d8b8 84ad c0f2 f1df cb8f a8c3     ................
    d200:	b6b2 9686 c1c8 c3cb b0f3 88b4 a898 db21     ..............!.
    d210:	8d71 719d 9585 d921 f2ad d8fa 9785 28a8     q..q..!........(
    d220:	f4d9 d808 8df2 da29 05f4 f2d9 a485 f2c2     ......).........
    d230:	a8d8 948d d101 f4d9 f211 87d8 d821 0af4     ............!...
    d240:	f2d8 9884 c8a8 d101 f4d9 d811 a4f3 bbc8     ................
    d250:	d0af def2 f8f8 f8f8 f8f8 f8f8 f1d8 f6b8     ................
    d260:	b9b5 8ab0 a395 3cde d9a3 d8f8 a35c f8d9     .......<....\...
    d270:	7cd8 d9a3 d8f8 f9f8 a5d1 dfd9 fada b1d8     .|..............
    d280:	3085 d9f7 d8de 30f8 daad d8de b4f2 998c     .0.....0........
    d290:	2da3 7d55 83a0 dfdf b5df a091 29f6 fbd9     .-U}.........)..
    d2a0:	a0d8 29fc fad9 a0d8 51d0 f8d9 fcd8 d951     ...).....Q....Q.
    d2b0:	d8f9 d979 d8fb d0a0 79fc fad9 a1d8 f9f9     ..y......y......
    d2c0:	f9f9 a0f9 dfda dfdf a1d8 f8f8 f8f8 acf8     ................
    d2d0:	f8de dead 9383 2cac 7c54 a8f1 dfdf f6df     .......,T|......
    d2e0:	2c9d a0da d9df dbfa f82d a8d8 da50 d0a0     .,......-...P...
    d2f0:	d9de f8d0 f8f8 55db d8f8 78a8 a0da dfd0     .......U...x....
    d300:	d0d9 f8fa f8f8 dbf8 f87d 9cd8 8ca8 30f5     ........}......0
    d310:	38db d0d9 dfde d0a0 dfde a8d8 db48 d958     .8..........H.X.
    d320:	d0df a0de d0df d8de 68a8 70db dfd9 a0df     .........h.p....
    d330:	dfdf f1d8 88a8 2c90 7c54 a898 5cd0 d138     .......,T|...\8.
    d340:	f2da 8cae f9df b0d8 a887 c1c1 88b1 c6a8     ................
    d350:	f9f9 36da a8d8 daf9 d836 f9a8 36da a8d8     ...6....6....6..
    d360:	daf9 d836 f9a8 36da f7d8 9d8d f8ad da18     ..6....6........
    d370:	aef2 d8df adf7 30fa a4d9 f9de f2d8 deae     .......0........
    d380:	f9fa a783 c3d9 c7c5 88f1 a79b ad7a def7     ............z...
    d390:	a4df 84f8 0894 97a7 00f3 f2ae 1998 88a4     ................
    d3a0:	a3c6 8894 32f6 f2df 9383 09db f2d9 dfaa     .....2..........
    d3b0:	d8d8 f8ae d1f9 f3da dea4 f1a7 9b88 d87a     ..............z.
    d3c0:	84f3 ae94 f919 aada dff1 a8d8 c081 c5c3     ................
    d3d0:	a3c7 8392 28f6 dead f8d9 a3d8 ad50 f8d9     .....(......P...
    d3e0:	a3d8 ad78 f8d9 f8d8 d1f9 daa1 c3de c7c5     ..x.............
    d3f0:	a1d8 9481 18f8 b0f2 ac89 c5c3 f1c7 b8d8     ................
    d400:	b0b4 8697 31a8 069b 0799 97ab 8828 f09b     .....1......(...
    d410:	200c 4014 b4b0 f0b8 8aa8 289a 7850 9bb7     . .@.......(Px..
    d420:	29a8 7951 7024 4459 3869 4864 f131 abbb     .)Qy$pYDi8dH1...
    d430:	0088 542c f07c 8bb3 a8b8 2804 7850 b0f1     ..,T|......(Px..
    d440:	b488 2697 59a8 bb98 b3ab 028b 4626 b066     ...&.Y......&Ff.
    d450:	f0b8 9c8a 29a8 7951 298b 7951 248a 5970     .....)Qy.)Qy.$pY
    d460:	208b 7158 448a 3869 398b 6840 648a 3148     . Xq.Di8.9@h.dH1
    d470:	308b 6049 f188 00ac 542c f07c a88c 2804     .0I`....,T|....(
    d480:	7850 88f1 2697 59a8 ac98 028c 4626 f066     Px...&.Y....&Ff.
    d490:	9c89 29a8 7951 7024 4459 3869 4864 a931     ...)Qy$pYDi8dH1.
    d4a0:	0988 5920 ab70 3811 6940 19a8 4831 8c60     .. Yp..8@i..1H`.
    d4b0:	3ca8 5c41 7c20 f100 9887 8619 6ea8 7e76     .<A\ |.......nv~
    d4c0:	99a9 2d88 7d55 b1d8 b9b5 dfa3 dfdf d0ae     ...-U}..........
    d4d0:	aadf ded0 abf2 f9f8 b0d9 c487 f1aa dfdf     ................
    d4e0:	afbb dfdf d8b9 f1b1 97a3 608e b0df f284     ...........`....
    d4f0:	f8c8 d9f9 d8de 8593 4af1 83b1 08a3 83b5     .........J......
    d500:	089a b710 109f f1d8 bab0 b0ae c28a b6b2     ................
    d510:	9e8e fbf1 f4d9 d81d d9f9 f10c f8d8 adf8     ................
    d520:	d961 fbae f4d8 f10c f8d8 adf8 d919 fbae     a...............
    d530:	d8df 16f4 d8f1 adf8 618d f4d9 acf4 9cf5     .........a......
    d540:	8d9c 2bdf b6ba faae f4f8 d80b aef1 f8d0     ...+............
    d550:	51ad aeda f8fa d8f1 b1b9 a3b6 9c83 b908     .Q..............
    d560:	83b1 b59a c0aa 30fd b783 109f 8bb5 f293     .......0........
    d570:	0202 abd1 deda f1d8 80b0 abba c3c0 84b2     ................
    d580:	c3c1 b1d8 f3b9 a38b b691 b409 abd9 b0de     ................
    d590:	9c87 a3b9 f1dd 8bb3 8b8b 8b8b 87b0 a3a3     ................
    d5a0:	a3a3 8bb2 9bb6 a3f2 a3a3 a3a3 a3a3 a3a3     ................
    d5b0:	f1a3 87b0 9ab5 f3a3 a39b dca3 acba b9df     ................
    d5c0:	a3a3 a3a3 a3a3 a3a3 a3a3 a3a3 a3a3 a3a3     ................
    d5d0:	d8d8 bbd8 b7b3 aaf1 daf9 d9ff 9a80 28aa     ...............(
    d5e0:	80b4 a798 b720 8797 66a8 f088 5179 90f1     .... ....f..yQ..
    d5f0:	872c a70c 9781 9362 71f0 6071 9485 2901     ,.....b..qq`...)
    d600:	7951 a590 28f1 6c4c 0c87 1895 7885 83a3     Qy...(Ll.....x..
    d610:	2890 6c4c 6c88 f3d8 82a2 f200 a810 1992     .(Ll.l..........
    d620:	a280 d9f2 d826 88f1 4da8 48d9 96d8 39a8     ....&....M.H...9
    d630:	d980 d83c 8095 39a8 86a6 d998 da2c a787     ..<....9....,...
    d640:	d82c 89a8 1995 80a9 38d9 a8d8 3989 80a9     ,........8...9..
    d650:	3cda a8d8 a82e 9039 0cd9 a8d8 3195 d998     .<....9......1..
    d660:	d80c 09a8 ffd9 01d8 ffda 95d8 a939 26da     ............9..&
    d670:	d8ff a890 890d a899 8010 2198 2eda 89d8     ...........!....
    d680:	a899 8031 2eda a8d8 9686 8031 2eda a8d8     ..1.......1.....
    d690:	3187 da80 d82e 82a8 f392 8041 d9f1 d82e     .1........A.....
    d6a0:	82a8 19f3 f180 2ed9 82d8 f3ac a2c0 2280     ..............."
    d6b0:	a6f1 a72e a92e 9822 29a8 acda ffde a2d8     ......"..)......
    d6c0:	2af2 a9f1 822e a892 31f2 a680 f196 00d9     .*.......1......
    d6d0:	8cac 0c9c ac30 d0de ffde 8cd8 ac9c 10d0     ....0...........
    d6e0:	deac 9280 f2a2 824c f1a8 f2ca f135 8896     ......L.....5...
    d6f0:	d9a6 d800 fff1 0000 0000 4348 0000 4680     ..........HC...F
    d700:	0000 4640 0000 4600 0000 45c0 0000 4580     ..@F...F...E...E
    d710:	0000 4540 0000 4500 0000 44c0 1e84 0000     ..@E...E...D....
    d720:	1e8e 0000 1e94 0000 1e9a 0000 1e9e 0000     ................
    d730:	1ea2 0000                                   ....

0000d734 <hw>:
    d734:	0068 0400 0076 0154 fdf7 0100 0000 3080     h...v.T........0
    d744:	0000 c000 6666 6666 a666 404c 0000 4303     ....fffff.L@...C
    d754:	0000 4283 3333 4203 3333 4183 6e55 7573     ...B33.B33.AUnsu
    d764:	7070 726f 6574 2064 6f73 7466 6177 6572     pported software
    d774:	7020 6f72 7564 7463 7220 7665 2520 2e64      product rev %d.
    d784:	000a 0000 7250 646f 6375 2074 4449 7220     ....Product ID r
    d794:	6165 2064 7361 3020 6920 646e 6369 7461     ead as 0 indicat
    d7a4:	7365 6420 7665 6369 2065 7369 6520 7469     es device is eit
    d7b4:	6568 2072 6e69 6f63 706d 7461 6269 656c     her incompatible
    d7c4:	6f20 2072 6e61 4d20 5550 3033 3035 002e      or an MPU3050..
    d7d4:	6148 666c 7320 6e65 6973 6974 6976 7974     Half sensitivity
    d7e4:	7020 7261 2074 6f66 6e75 2e64 0000 0000      part found.....
    d7f4:	0000 41c8 147b 3eae 5a1d 3f84 0000 3780     ...A{..>.Z.?...7
    d804:	0000 3f80 5c29 3e0f 999a 3e99 3333 3f73     ...?)\.>...>33s?
    d814:	e354 3f85 0000 42d2                         T..?...B

0000d81c <reg>:
    d81c:	1975 0c1a 236a 1c1b 201f 7472 3b43 3841     u...j#... rtC;A8
    d82c:	3a39 6c6b 6f37 2406 6e6d 0070               9:kl7o.$mnp.

0000d838 <test>:
    d838:	0083 0000 0800 0000 0100 1800 0032 0005     ............2...
    d848:	0000 4120 0000 42d2 5c29 3e0f 999a 3e99     .. A...B)\.>...>
    d858:	3333 3f73 5c29 3e0f 0000 42b4 0000 4396     33s?)\.>...B...C
    d868:	0000 0000 0000 3ff0 7361 6e69 0000 0000     .......?asin....
    d878:	2d18 5444 21fb 3ff9 5c07 3314 a626 3c91     .-DT.!.?.\.3&..<
    d888:	759c 8800 e43c 7e37 f709 0dfd 3de1 3f02     .u..<.7~.....=.?
    d898:	b288 7501 efe0 3f49 8f3b b568 8228 3fa4     ...u..I?;.h.(..?
    d8a8:	4455 0e88 c155 3fc9 6f7d 03eb d612 3fd4     UD..U..?}o.....?
    d8b8:	5555 5555 5555 3fc5 9282 b12e b8c5 3fb3     UUUUUU.?.......?
    d8c8:	0159 1b8d 066c 3fe6 8ac8 9c59 2ae5 4000     Y...l..?..Y..*.@
    d8d8:	2d4b 1c8a 3a27 4003 0000 0000 0000 3fe0     K-..':.@.......?
    d8e8:	2d18 5444 21fb 3fe9 2d18 5444 21fb 4009     .-DT.!.?.-DT.!.@
    d8f8:	2d18 5444 21fb c009 0000 0000 0000 8000     .-DT.!..........
    d908:	2d18 5444 21fb bff9 21d2 7f33 d97c 4002     .-DT.!...!3.|..@
    d918:	21d2 7f33 d97c c002 2d18 5444 21fb bfe9     .!3.|....-DT.!..
    d928:	5c07 3314 a626 3ca1 0000 0000 0000 4000     .\.3&..<.......@
    d938:	0000 0000 0000 3ff8 0000 0000 0000 bff0     .......?........
    d948:	da11 e322 ad3a 3f90 0deb 2476 7b4b 3fa9     ..".:..?..v$K{.?
    d958:	3d51 a0d0 0d66 3fb1 206e c54c 45cd 3fb7     Q=..f..?n L..E.?
    d968:	83ff 9200 4924 3fc2 550d 5555 5555 3fd5     ....$I.?.UUUUU.?
    d978:	6c2f 2c6a b444 bfa2 fd9a 52de de2d 3fad     /lj,D......R-..?
    d988:	9a6d af74 b0f2 3fb3 1671 fe23 71c6 3fbc     m.t....?q.#..q.?
    d998:	ebc4 9998 9999 3fc9                         .......?

0000d9a0 <atanhi>:
    d9a0:	bb4f 0561 ac67 3fdd 2d18 5444 21fb 3fe9     O.a.g..?.-DT.!.?
    d9b0:	f69b d281 730b 3fef 2d18 5444 21fb 3ff9     .....s.?.-DT.!.?

0000d9c0 <atanlo>:
    d9c0:	65e2 222f 2b7f 3c7a 5c07 3314 a626 3c81     .e/".+z<.\.3&..<
    d9d0:	cbbd 7af0 0788 3c70 5c07 3314 a626 3c91     ...z..p<.\.3&..<
    d9e0:	0000 0000 0000 7ff8 78b2 ffff 7736 ffff     .........x..6w..
    d9f0:	7846 ffff 784e ffff 7846 ffff 7766 ffff     Fx..Nx..Fx..fw..
    da00:	7846 ffff 784e ffff 7736 ffff 7736 ffff     Fx..Nx..6w..6w..
    da10:	7766 ffff 784e ffff 78a8 ffff 78a8 ffff     fw..Nx...x...x..
    da20:	78a8 ffff 7766 ffff 7ea2 ffff 7d94 ffff     .x..fw...~...}..
    da30:	7d94 ffff 7d92 ffff 7d9a ffff 7d9a ffff     .}...}...}...}..
    da40:	7d60 ffff 7d92 ffff 7d9a ffff 7d60 ffff     `}...}...}..`}..
    da50:	7d9a ffff 7d92 ffff 7e8e ffff 7e8e ffff     .}...}...~...~..
    da60:	7e8e ffff 7d60 ffff 8e1a ffff 8d40 ffff     .~..`}......@...
    da70:	8e14 ffff 8d48 ffff 8e14 ffff 8d0e ffff     ....H...........
    da80:	8e14 ffff 8d48 ffff 8d40 ffff 8d40 ffff     ....H...@...@...
    da90:	8d0e ffff 8d48 ffff 8d4e ffff 8d4e ffff     ....H...N...N...
    daa0:	8d4e ffff 8d0e ffff 8d00 ffff 8d00 ffff     N...............
    dab0:	8dd4 ffff 8eb0 ffff 8dd4 ffff 8cce ffff     ................
    dac0:	8dd4 ffff 8eb0 ffff 8d00 ffff 8d00 ffff     ................
    dad0:	8cce ffff 8eb0 ffff 8d0e ffff 8d0e ffff     ................
    dae0:	8d0e ffff 8cce ffff 9184 ffff 90d2 ffff     ................
    daf0:	90d2 ffff 90d0 ffff 90d6 ffff 90d6 ffff     ................
    db00:	90a6 ffff 90d0 ffff 90d6 ffff 90a6 ffff     ................
    db10:	90d6 ffff 90d0 ffff 9172 ffff 9172 ffff     ........r...r...
    db20:	9172 ffff 90a6 ffff                         r.......

0000db28 <__clz_tab>:
    db28:	0100 0202 0303 0303 0404 0404 0404 0404     ................
    db38:	0505 0505 0505 0505 0505 0505 0505 0505     ................
    db48:	0606 0606 0606 0606 0606 0606 0606 0606     ................
    db58:	0606 0606 0606 0606 0606 0606 0606 0606     ................
    db68:	0707 0707 0707 0707 0707 0707 0707 0707     ................
    db78:	0707 0707 0707 0707 0707 0707 0707 0707     ................
    db88:	0707 0707 0707 0707 0707 0707 0707 0707     ................
    db98:	0707 0707 0707 0707 0707 0707 0707 0707     ................
    dba8:	0808 0808 0808 0808 0808 0808 0808 0808     ................
    dbb8:	0808 0808 0808 0808 0808 0808 0808 0808     ................
    dbc8:	0808 0808 0808 0808 0808 0808 0808 0808     ................
    dbd8:	0808 0808 0808 0808 0808 0808 0808 0808     ................
    dbe8:	0808 0808 0808 0808 0808 0808 0808 0808     ................
    dbf8:	0808 0808 0808 0808 0808 0808 0808 0808     ................
    dc08:	0808 0808 0808 0808 0808 0808 0808 0808     ................
    dc18:	0808 0808 0808 0808 0808 0808 0808 0808     ................
    dc28:	ffff ffff ffff 7fef 4e49 0046 6e69 0066     ........INF.inf.
    dc38:	414e 004e 616e 006e 0030 0000 3130 3332     NAN.nan.0...0123
    dc48:	3534 3736 3938 4241 4443 4645 0000 0000     456789ABCDEF....
    dc58:	3130 3332 3534 3736 3938 6261 6463 6665     0123456789abcdef
    dc68:	0000 0000 2565 646c 0000 0000 0000 7fc0     ....e%ld........
    dc78:	abc4 ffff abb0 ffff abe2 ffff abe8 ffff     ................
    dc88:	abc4 ffff 0000 0000 0000 ffc0 ffff 41df     ...............A
    dc98:	3595 94a0 ffff 3fdf e535 35af 0000 3fe0     .5.....?5..5...?
    dca8:	3595 94a0 ffff 3fcf 666e 0000 6e69 7469     .5.....?nf..init
    dcb8:	0079 0000 6e61 0000                         y...an..

0000dcc0 <fpi.3395>:
    dcc0:	0035 0000 fbce ffff 03cb 0000 0001 0000     5...............
    dcd0:	0000 0000                                   ....

0000dcd4 <fpinan.3431>:
    dcd4:	0034 0000 fbce ffff 03cb 0000 0001 0000     4...............
    dce4:	0000 0000                                   ....

0000dce8 <tinytens>:
    dce8:	89bc 97d8 d2b2 3c9c a733 d5a8 f623 3949     .......<3...#.I9
    dcf8:	a73d 44f4 0ffd 32a5 979d cf8c ba08 255b     =..D...2......[%
    dd08:	6f43 64ac 0628 1168 4361 636f 87a7 3fd2     Co.d(.h.aCoc...?
    dd18:	c8b3 8b60 8a28 3fc6 79fb 509f 4413 3fd3     ..`.(..?.y.P.D.?
    dd28:	0000 0000 0000 4024 0000 0000 0000 401c     ......$@.......@
    dd38:	0000 0000 0000 4014 6e49 6966 696e 7974     .......@Infinity
    dd48:	0000 0000 614e 004e                         ....NaN.

0000dd50 <__sf_fake_stderr>:
	...

0000dd70 <__sf_fake_stdin>:
	...

0000dd90 <__sf_fake_stdout>:
	...
    ddb0:	0043 0000 4f50 4953 0058 0000 002e 0000     C...POSIX.......

0000ddc0 <__mprec_bigtens>:
    ddc0:	8000 37e0 c379 4341 6e17 b505 b8b5 4693     ...7y.AC.n.....F
    ddd0:	f9f5 e93f 4f03 4d38 1d32 f930 7748 5a82     ..?..O8M2.0.Hw.Z
    dde0:	bf3c 7f73 4fdd 7515                         <.s..O.u

0000dde8 <__mprec_tens>:
    dde8:	0000 0000 0000 3ff0 0000 0000 0000 4024     .......?......$@
    ddf8:	0000 0000 0000 4059 0000 0000 4000 408f     ......Y@.....@.@
    de08:	0000 0000 8800 40c3 0000 0000 6a00 40f8     .......@.....j.@
    de18:	0000 0000 8480 412e 0000 0000 12d0 4163     .......A......cA
    de28:	0000 0000 d784 4197 0000 0000 cd65 41cd     .......A....e..A
    de38:	0000 2000 a05f 4202 0000 e800 4876 4237     ... _..B....vH7B
    de48:	0000 a200 1a94 426d 0000 e540 309c 42a2     ......mB..@..0.B
    de58:	0000 1e90 bcc4 42d6 0000 2634 6bf5 430c     .......B..4&.k.C
    de68:	8000 37e0 c379 4341 a000 85d8 3457 4376     ...7y.AC....W4vC
    de78:	c800 674e c16d 43ab 3d00 6091 58e4 43e1     ..Ngm..C.=.`.X.C
    de88:	8c40 78b5 af1d 4415 ef50 d6e2 1ae4 444b     @..x...DP.....KD
    de98:	d592 064d f0cf 4480 4af6 c7e1 2d02 44b5     ..M....D.J...-.D
    dea8:	9db4 79d9 7843 44ea                         ...yCx.D

0000deb0 <p05.3319>:
    deb0:	0005 0000 0019 0000 007d 0000 2d23 2b30     ........}...#-0+
    dec0:	0020 0000 6c68 004c 6665 4567 4746 0000      ...hlL.efgEFG..

0000ded0 <_ctype_>:
    ded0:	2000 2020 2020 2020 2020 2828 2828 2028     .         ((((( 
    dee0:	2020 2020 2020 2020 2020 2020 2020 2020                     
    def0:	8820 1010 1010 1010 1010 1010 1010 1010      ...............
    df00:	0410 0404 0404 0404 0404 1004 1010 1010     ................
    df10:	1010 4141 4141 4141 0101 0101 0101 0101     ..AAAAAA........
    df20:	0101 0101 0101 0101 0101 0101 1010 1010     ................
    df30:	1010 4242 4242 4242 0202 0202 0202 0202     ..BBBBBB........
    df40:	0202 0202 0202 0202 0202 0202 1010 1010     ................
    df50:	0020 0000 0000 0000 0000 0000 0000 0000      ...............
	...
