Archive member included to satisfy reference by file (symbol)

c:/mounriver/mounriver_studio/toolchain/risc-v embedded gcc/bin/../lib/gcc/riscv-none-embed/8.2.0/rv32imacxw/ilp32\libgcc.a(ledf2.o)
                              ./User/main.o (__ltdf2)
c:/mounriver/mounriver_studio/toolchain/risc-v embedded gcc/bin/../lib/gcc/riscv-none-embed/8.2.0/rv32imacxw/ilp32\libgcc.a(muldf3.o)
                              ./User/main.o (__muldf3)
c:/mounriver/mounriver_studio/toolchain/risc-v embedded gcc/bin/../lib/gcc/riscv-none-embed/8.2.0/rv32imacxw/ilp32\libgcc.a(subdf3.o)
                              ./User/main.o (__subdf3)
c:/mounriver/mounriver_studio/toolchain/risc-v embedded gcc/bin/../lib/gcc/riscv-none-embed/8.2.0/rv32imacxw/ilp32\libgcc.a(floatsidf.o)
                              ./User/main.o (__floatsidf)
c:/mounriver/mounriver_studio/toolchain/risc-v embedded gcc/bin/../lib/gcc/riscv-none-embed/8.2.0/rv32imacxw/ilp32\libgcc.a(addsf3.o)
                              ./hardware/Speed/speed.o (__addsf3)
c:/mounriver/mounriver_studio/toolchain/risc-v embedded gcc/bin/../lib/gcc/riscv-none-embed/8.2.0/rv32imacxw/ilp32\libgcc.a(divsf3.o)
                              ./hardware/Speed/speed.o (__divsf3)
c:/mounriver/mounriver_studio/toolchain/risc-v embedded gcc/bin/../lib/gcc/riscv-none-embed/8.2.0/rv32imacxw/ilp32\libgcc.a(eqsf2.o)
                              ./User/main.o (__eqsf2)
c:/mounriver/mounriver_studio/toolchain/risc-v embedded gcc/bin/../lib/gcc/riscv-none-embed/8.2.0/rv32imacxw/ilp32\libgcc.a(gesf2.o)
                              ./User/main.o (__gesf2)
c:/mounriver/mounriver_studio/toolchain/risc-v embedded gcc/bin/../lib/gcc/riscv-none-embed/8.2.0/rv32imacxw/ilp32\libgcc.a(lesf2.o)
                              ./User/main.o (__ltsf2)
c:/mounriver/mounriver_studio/toolchain/risc-v embedded gcc/bin/../lib/gcc/riscv-none-embed/8.2.0/rv32imacxw/ilp32\libgcc.a(mulsf3.o)
                              ./User/main.o (__mulsf3)
c:/mounriver/mounriver_studio/toolchain/risc-v embedded gcc/bin/../lib/gcc/riscv-none-embed/8.2.0/rv32imacxw/ilp32\libgcc.a(subsf3.o)
                              ./User/main.o (__subsf3)
c:/mounriver/mounriver_studio/toolchain/risc-v embedded gcc/bin/../lib/gcc/riscv-none-embed/8.2.0/rv32imacxw/ilp32\libgcc.a(fixsfsi.o)
                              ./User/main.o (__fixsfsi)
c:/mounriver/mounriver_studio/toolchain/risc-v embedded gcc/bin/../lib/gcc/riscv-none-embed/8.2.0/rv32imacxw/ilp32\libgcc.a(fixunssfsi.o)
                              ./hardware/Speed/speed.o (__fixunssfsi)
c:/mounriver/mounriver_studio/toolchain/risc-v embedded gcc/bin/../lib/gcc/riscv-none-embed/8.2.0/rv32imacxw/ilp32\libgcc.a(floatsisf.o)
                              ./User/main.o (__floatsisf)
c:/mounriver/mounriver_studio/toolchain/risc-v embedded gcc/bin/../lib/gcc/riscv-none-embed/8.2.0/rv32imacxw/ilp32\libgcc.a(floatunsisf.o)
                              ./hardware/HC-SR04/HC-SR04.o (__floatunsisf)
c:/mounriver/mounriver_studio/toolchain/risc-v embedded gcc/bin/../lib/gcc/riscv-none-embed/8.2.0/rv32imacxw/ilp32\libgcc.a(extendsfdf2.o)
                              ./hardware/UART_show/uartshow.o (__extendsfdf2)
c:/mounriver/mounriver_studio/toolchain/risc-v embedded gcc/bin/../lib/gcc/riscv-none-embed/8.2.0/rv32imacxw/ilp32\libgcc.a(truncdfsf2.o)
                              ./User/main.o (__truncdfsf2)
c:/mounriver/mounriver_studio/toolchain/risc-v embedded gcc/bin/../lib/gcc/riscv-none-embed/8.2.0/rv32imacxw/ilp32\libgcc.a(save-restore.o)
                              ./hardware/RTC/RTC.o (__riscv_save_12)
c:/mounriver/mounriver_studio/toolchain/risc-v embedded gcc/bin/../lib/gcc/riscv-none-embed/8.2.0/rv32imacxw/ilp32\libgcc.a(_clzsi2.o)
                              c:/mounriver/mounriver_studio/toolchain/risc-v embedded gcc/bin/../lib/gcc/riscv-none-embed/8.2.0/rv32imacxw/ilp32\libgcc.a(muldf3.o) (__clzsi2)
c:/mounriver/mounriver_studio/toolchain/risc-v embedded gcc/bin/../lib/gcc/riscv-none-embed/8.2.0/rv32imacxw/ilp32\libgcc.a(_clz.o)
                              c:/mounriver/mounriver_studio/toolchain/risc-v embedded gcc/bin/../lib/gcc/riscv-none-embed/8.2.0/rv32imacxw/ilp32\libgcc.a(_clzsi2.o) (__clz_tab)
c:/mounriver/mounriver_studio/toolchain/risc-v embedded gcc/bin/../lib/gcc/riscv-none-embed/8.2.0/../../../../riscv-none-embed/lib/rv32imacxw/ilp32\libg_nano.a(lib_a-memset.o)
                              ./hardware/ADC_SMOKE/ADC.o (memset)
c:/mounriver/mounriver_studio/toolchain/risc-v embedded gcc/bin/../lib/gcc/riscv-none-embed/8.2.0/../../../../riscv-none-embed/lib/rv32imacxw/ilp32\libg_nano.a(lib_a-nano-vfprintf_float.o)
                              (_printf_float)
c:/mounriver/mounriver_studio/toolchain/risc-v embedded gcc/bin/../lib/gcc/riscv-none-embed/8.2.0/../../../../riscv-none-embed/lib/rv32imacxw/ilp32\libg_nano.a(lib_a-nano-vfprintf_i.o)
                              c:/mounriver/mounriver_studio/toolchain/risc-v embedded gcc/bin/../lib/gcc/riscv-none-embed/8.2.0/../../../../riscv-none-embed/lib/rv32imacxw/ilp32\libg_nano.a(lib_a-nano-vfprintf_float.o) (_printf_common)
c:/mounriver/mounriver_studio/toolchain/risc-v embedded gcc/bin/../lib/gcc/riscv-none-embed/8.2.0/../../../../riscv-none-embed/lib/rv32imacxw/ilp32\libg_nano.a(lib_a-nano-vfscanf_float.o)
                              (_scanf_float)
c:/mounriver/mounriver_studio/toolchain/risc-v embedded gcc/bin/../lib/gcc/riscv-none-embed/8.2.0/../../../../riscv-none-embed/lib/rv32imacxw/ilp32\libg_nano.a(lib_a-sf_nan.o)
                              c:/mounriver/mounriver_studio/toolchain/risc-v embedded gcc/bin/../lib/gcc/riscv-none-embed/8.2.0/../../../../riscv-none-embed/lib/rv32imacxw/ilp32\libg_nano.a(lib_a-nano-vfscanf_float.o) (nanf)
c:/mounriver/mounriver_studio/toolchain/risc-v embedded gcc/bin/../lib/gcc/riscv-none-embed/8.2.0/../../../../riscv-none-embed/lib/rv32imacxw/ilp32\libg_nano.a(lib_a-sprintf.o)
                              ./hardware/UART_show/uartshow.o (sprintf)
c:/mounriver/mounriver_studio/toolchain/risc-v embedded gcc/bin/../lib/gcc/riscv-none-embed/8.2.0/../../../../riscv-none-embed/lib/rv32imacxw/ilp32\libg_nano.a(lib_a-strcpy.o)
                              ./hardware/UART_show/uartshow.o (strcpy)
c:/mounriver/mounriver_studio/toolchain/risc-v embedded gcc/bin/../lib/gcc/riscv-none-embed/8.2.0/../../../../riscv-none-embed/lib/rv32imacxw/ilp32\libg_nano.a(lib_a-strlen.o)
                              c:/mounriver/mounriver_studio/toolchain/risc-v embedded gcc/bin/../lib/gcc/riscv-none-embed/8.2.0/../../../../riscv-none-embed/lib/rv32imacxw/ilp32\libg_nano.a(lib_a-nano-vfprintf_float.o) (strlen)
c:/mounriver/mounriver_studio/toolchain/risc-v embedded gcc/bin/../lib/gcc/riscv-none-embed/8.2.0/../../../../riscv-none-embed/lib/rv32imacxw/ilp32\libg_nano.a(lib_a-strtod.o)
                              c:/mounriver/mounriver_studio/toolchain/risc-v embedded gcc/bin/../lib/gcc/riscv-none-embed/8.2.0/../../../../riscv-none-embed/lib/rv32imacxw/ilp32\libg_nano.a(lib_a-nano-vfscanf_float.o) (_strtod_r)
c:/mounriver/mounriver_studio/toolchain/risc-v embedded gcc/bin/../lib/gcc/riscv-none-embed/8.2.0/../../../../riscv-none-embed/lib/rv32imacxw/ilp32\libg_nano.a(lib_a-strtol.o)
                              c:/mounriver/mounriver_studio/toolchain/risc-v embedded gcc/bin/../lib/gcc/riscv-none-embed/8.2.0/../../../../riscv-none-embed/lib/rv32imacxw/ilp32\libg_nano.a(lib_a-nano-vfscanf_float.o) (_strtol_r)
c:/mounriver/mounriver_studio/toolchain/risc-v embedded gcc/bin/../lib/gcc/riscv-none-embed/8.2.0/../../../../riscv-none-embed/lib/rv32imacxw/ilp32\libg_nano.a(lib_a-dtoa.o)
                              c:/mounriver/mounriver_studio/toolchain/risc-v embedded gcc/bin/../lib/gcc/riscv-none-embed/8.2.0/../../../../riscv-none-embed/lib/rv32imacxw/ilp32\libg_nano.a(lib_a-nano-vfprintf_float.o) (_dtoa_r)
c:/mounriver/mounriver_studio/toolchain/risc-v embedded gcc/bin/../lib/gcc/riscv-none-embed/8.2.0/../../../../riscv-none-embed/lib/rv32imacxw/ilp32\libg_nano.a(lib_a-gdtoa-gethex.o)
                              c:/mounriver/mounriver_studio/toolchain/risc-v embedded gcc/bin/../lib/gcc/riscv-none-embed/8.2.0/../../../../riscv-none-embed/lib/rv32imacxw/ilp32\libg_nano.a(lib_a-strtod.o) (__gethex)
c:/mounriver/mounriver_studio/toolchain/risc-v embedded gcc/bin/../lib/gcc/riscv-none-embed/8.2.0/../../../../riscv-none-embed/lib/rv32imacxw/ilp32\libg_nano.a(lib_a-gdtoa-hexnan.o)
                              c:/mounriver/mounriver_studio/toolchain/risc-v embedded gcc/bin/../lib/gcc/riscv-none-embed/8.2.0/../../../../riscv-none-embed/lib/rv32imacxw/ilp32\libg_nano.a(lib_a-strtod.o) (__match)
c:/mounriver/mounriver_studio/toolchain/risc-v embedded gcc/bin/../lib/gcc/riscv-none-embed/8.2.0/../../../../riscv-none-embed/lib/rv32imacxw/ilp32\libg_nano.a(lib_a-impure.o)
                              c:/mounriver/mounriver_studio/toolchain/risc-v embedded gcc/bin/../lib/gcc/riscv-none-embed/8.2.0/../../../../riscv-none-embed/lib/rv32imacxw/ilp32\libg_nano.a(lib_a-sprintf.o) (_impure_ptr)
c:/mounriver/mounriver_studio/toolchain/risc-v embedded gcc/bin/../lib/gcc/riscv-none-embed/8.2.0/../../../../riscv-none-embed/lib/rv32imacxw/ilp32\libg_nano.a(lib_a-locale.o)
                              c:/mounriver/mounriver_studio/toolchain/risc-v embedded gcc/bin/../lib/gcc/riscv-none-embed/8.2.0/../../../../riscv-none-embed/lib/rv32imacxw/ilp32\libg_nano.a(lib_a-strtol.o) (__locale_ctype_ptr_l)
c:/mounriver/mounriver_studio/toolchain/risc-v embedded gcc/bin/../lib/gcc/riscv-none-embed/8.2.0/../../../../riscv-none-embed/lib/rv32imacxw/ilp32\libg_nano.a(lib_a-localeconv.o)
                              c:/mounriver/mounriver_studio/toolchain/risc-v embedded gcc/bin/../lib/gcc/riscv-none-embed/8.2.0/../../../../riscv-none-embed/lib/rv32imacxw/ilp32\libg_nano.a(lib_a-strtod.o) (__localeconv_l)
c:/mounriver/mounriver_studio/toolchain/risc-v embedded gcc/bin/../lib/gcc/riscv-none-embed/8.2.0/../../../../riscv-none-embed/lib/rv32imacxw/ilp32\libg_nano.a(lib_a-malloc.o)
                              c:/mounriver/mounriver_studio/toolchain/risc-v embedded gcc/bin/../lib/gcc/riscv-none-embed/8.2.0/../../../../riscv-none-embed/lib/rv32imacxw/ilp32\libg_nano.a(lib_a-dtoa.o) (malloc)
c:/mounriver/mounriver_studio/toolchain/risc-v embedded gcc/bin/../lib/gcc/riscv-none-embed/8.2.0/../../../../riscv-none-embed/lib/rv32imacxw/ilp32\libg_nano.a(lib_a-mbtowc_r.o)
                              c:/mounriver/mounriver_studio/toolchain/risc-v embedded gcc/bin/../lib/gcc/riscv-none-embed/8.2.0/../../../../riscv-none-embed/lib/rv32imacxw/ilp32\libg_nano.a(lib_a-locale.o) (__ascii_mbtowc)
c:/mounriver/mounriver_studio/toolchain/risc-v embedded gcc/bin/../lib/gcc/riscv-none-embed/8.2.0/../../../../riscv-none-embed/lib/rv32imacxw/ilp32\libg_nano.a(lib_a-memchr.o)
                              c:/mounriver/mounriver_studio/toolchain/risc-v embedded gcc/bin/../lib/gcc/riscv-none-embed/8.2.0/../../../../riscv-none-embed/lib/rv32imacxw/ilp32\libg_nano.a(lib_a-nano-vfprintf_i.o) (memchr)
c:/mounriver/mounriver_studio/toolchain/risc-v embedded gcc/bin/../lib/gcc/riscv-none-embed/8.2.0/../../../../riscv-none-embed/lib/rv32imacxw/ilp32\libg_nano.a(lib_a-memcpy.o)
                              c:/mounriver/mounriver_studio/toolchain/risc-v embedded gcc/bin/../lib/gcc/riscv-none-embed/8.2.0/../../../../riscv-none-embed/lib/rv32imacxw/ilp32\libg_nano.a(lib_a-strtod.o) (memcpy)
c:/mounriver/mounriver_studio/toolchain/risc-v embedded gcc/bin/../lib/gcc/riscv-none-embed/8.2.0/../../../../riscv-none-embed/lib/rv32imacxw/ilp32\libg_nano.a(lib_a-mprec.o)
                              c:/mounriver/mounriver_studio/toolchain/risc-v embedded gcc/bin/../lib/gcc/riscv-none-embed/8.2.0/../../../../riscv-none-embed/lib/rv32imacxw/ilp32\libg_nano.a(lib_a-strtod.o) (_Balloc)
c:/mounriver/mounriver_studio/toolchain/risc-v embedded gcc/bin/../lib/gcc/riscv-none-embed/8.2.0/../../../../riscv-none-embed/lib/rv32imacxw/ilp32\libg_nano.a(lib_a-nano-callocr.o)
                              c:/mounriver/mounriver_studio/toolchain/risc-v embedded gcc/bin/../lib/gcc/riscv-none-embed/8.2.0/../../../../riscv-none-embed/lib/rv32imacxw/ilp32\libg_nano.a(lib_a-mprec.o) (_calloc_r)
c:/mounriver/mounriver_studio/toolchain/risc-v embedded gcc/bin/../lib/gcc/riscv-none-embed/8.2.0/../../../../riscv-none-embed/lib/rv32imacxw/ilp32\libg_nano.a(lib_a-nano-freer.o)
                              c:/mounriver/mounriver_studio/toolchain/risc-v embedded gcc/bin/../lib/gcc/riscv-none-embed/8.2.0/../../../../riscv-none-embed/lib/rv32imacxw/ilp32\libg_nano.a(lib_a-malloc.o) (_free_r)
c:/mounriver/mounriver_studio/toolchain/risc-v embedded gcc/bin/../lib/gcc/riscv-none-embed/8.2.0/../../../../riscv-none-embed/lib/rv32imacxw/ilp32\libg_nano.a(lib_a-nano-mallocr.o)
                              c:/mounriver/mounriver_studio/toolchain/risc-v embedded gcc/bin/../lib/gcc/riscv-none-embed/8.2.0/../../../../riscv-none-embed/lib/rv32imacxw/ilp32\libg_nano.a(lib_a-malloc.o) (_malloc_r)
c:/mounriver/mounriver_studio/toolchain/risc-v embedded gcc/bin/../lib/gcc/riscv-none-embed/8.2.0/../../../../riscv-none-embed/lib/rv32imacxw/ilp32\libg_nano.a(lib_a-nano-svfprintf.o)
                              c:/mounriver/mounriver_studio/toolchain/risc-v embedded gcc/bin/../lib/gcc/riscv-none-embed/8.2.0/../../../../riscv-none-embed/lib/rv32imacxw/ilp32\libg_nano.a(lib_a-sprintf.o) (_svfprintf_r)
c:/mounriver/mounriver_studio/toolchain/risc-v embedded gcc/bin/../lib/gcc/riscv-none-embed/8.2.0/../../../../riscv-none-embed/lib/rv32imacxw/ilp32\libg_nano.a(lib_a-sbrkr.o)
                              c:/mounriver/mounriver_studio/toolchain/risc-v embedded gcc/bin/../lib/gcc/riscv-none-embed/8.2.0/../../../../riscv-none-embed/lib/rv32imacxw/ilp32\libg_nano.a(lib_a-nano-mallocr.o) (_sbrk_r)
c:/mounriver/mounriver_studio/toolchain/risc-v embedded gcc/bin/../lib/gcc/riscv-none-embed/8.2.0/../../../../riscv-none-embed/lib/rv32imacxw/ilp32\libg_nano.a(lib_a-strcmp.o)
                              c:/mounriver/mounriver_studio/toolchain/risc-v embedded gcc/bin/../lib/gcc/riscv-none-embed/8.2.0/../../../../riscv-none-embed/lib/rv32imacxw/ilp32\libg_nano.a(lib_a-locale.o) (strcmp)
c:/mounriver/mounriver_studio/toolchain/risc-v embedded gcc/bin/../lib/gcc/riscv-none-embed/8.2.0/../../../../riscv-none-embed/lib/rv32imacxw/ilp32\libg_nano.a(lib_a-strncmp.o)
                              c:/mounriver/mounriver_studio/toolchain/risc-v embedded gcc/bin/../lib/gcc/riscv-none-embed/8.2.0/../../../../riscv-none-embed/lib/rv32imacxw/ilp32\libg_nano.a(lib_a-strtod.o) (strncmp)
c:/mounriver/mounriver_studio/toolchain/risc-v embedded gcc/bin/../lib/gcc/riscv-none-embed/8.2.0/../../../../riscv-none-embed/lib/rv32imacxw/ilp32\libg_nano.a(lib_a-wctomb_r.o)
                              c:/mounriver/mounriver_studio/toolchain/risc-v embedded gcc/bin/../lib/gcc/riscv-none-embed/8.2.0/../../../../riscv-none-embed/lib/rv32imacxw/ilp32\libg_nano.a(lib_a-locale.o) (__ascii_wctomb)
c:/mounriver/mounriver_studio/toolchain/risc-v embedded gcc/bin/../lib/gcc/riscv-none-embed/8.2.0/../../../../riscv-none-embed/lib/rv32imacxw/ilp32\libg_nano.a(lib_a-ctype_.o)
                              c:/mounriver/mounriver_studio/toolchain/risc-v embedded gcc/bin/../lib/gcc/riscv-none-embed/8.2.0/../../../../riscv-none-embed/lib/rv32imacxw/ilp32\libg_nano.a(lib_a-locale.o) (_ctype_)
c:/mounriver/mounriver_studio/toolchain/risc-v embedded gcc/bin/../lib/gcc/riscv-none-embed/8.2.0/../../../../riscv-none-embed/lib/rv32imacxw/ilp32\libg_nano.a(lib_a-memmove.o)
                              c:/mounriver/mounriver_studio/toolchain/risc-v embedded gcc/bin/../lib/gcc/riscv-none-embed/8.2.0/../../../../riscv-none-embed/lib/rv32imacxw/ilp32\libg_nano.a(lib_a-nano-svfprintf.o) (memmove)
c:/mounriver/mounriver_studio/toolchain/risc-v embedded gcc/bin/../lib/gcc/riscv-none-embed/8.2.0/../../../../riscv-none-embed/lib/rv32imacxw/ilp32\libg_nano.a(lib_a-mlock.o)
                              c:/mounriver/mounriver_studio/toolchain/risc-v embedded gcc/bin/../lib/gcc/riscv-none-embed/8.2.0/../../../../riscv-none-embed/lib/rv32imacxw/ilp32\libg_nano.a(lib_a-nano-freer.o) (__malloc_lock)
c:/mounriver/mounriver_studio/toolchain/risc-v embedded gcc/bin/../lib/gcc/riscv-none-embed/8.2.0/../../../../riscv-none-embed/lib/rv32imacxw/ilp32\libg_nano.a(lib_a-nano-reallocr.o)
                              c:/mounriver/mounriver_studio/toolchain/risc-v embedded gcc/bin/../lib/gcc/riscv-none-embed/8.2.0/../../../../riscv-none-embed/lib/rv32imacxw/ilp32\libg_nano.a(lib_a-nano-svfprintf.o) (_realloc_r)
c:/mounriver/mounriver_studio/toolchain/risc-v embedded gcc/bin/../lib/gcc/riscv-none-embed/8.2.0/../../../../riscv-none-embed/lib/rv32imacxw/ilp32\libg_nano.a(lib_a-reent.o)
                              c:/mounriver/mounriver_studio/toolchain/risc-v embedded gcc/bin/../lib/gcc/riscv-none-embed/8.2.0/../../../../riscv-none-embed/lib/rv32imacxw/ilp32\libg_nano.a(lib_a-sbrkr.o) (errno)
c:/mounriver/mounriver_studio/toolchain/risc-v embedded gcc/bin/../lib/gcc/riscv-none-embed/8.2.0/../../../../riscv-none-embed/lib/rv32imacxw/ilp32\libg_nano.a(lib_a-nano-msizer.o)
                              c:/mounriver/mounriver_studio/toolchain/risc-v embedded gcc/bin/../lib/gcc/riscv-none-embed/8.2.0/../../../../riscv-none-embed/lib/rv32imacxw/ilp32\libg_nano.a(lib_a-nano-reallocr.o) (_malloc_usable_size_r)
c:/mounriver/mounriver_studio/toolchain/risc-v embedded gcc/bin/../lib/gcc/riscv-none-embed/8.2.0/rv32imacxw/ilp32\libgcc.a(adddf3.o)
                              c:/mounriver/mounriver_studio/toolchain/risc-v embedded gcc/bin/../lib/gcc/riscv-none-embed/8.2.0/../../../../riscv-none-embed/lib/rv32imacxw/ilp32\libg_nano.a(lib_a-strtod.o) (__adddf3)
c:/mounriver/mounriver_studio/toolchain/risc-v embedded gcc/bin/../lib/gcc/riscv-none-embed/8.2.0/rv32imacxw/ilp32\libgcc.a(divdf3.o)
                              c:/mounriver/mounriver_studio/toolchain/risc-v embedded gcc/bin/../lib/gcc/riscv-none-embed/8.2.0/../../../../riscv-none-embed/lib/rv32imacxw/ilp32\libg_nano.a(lib_a-strtod.o) (__divdf3)
c:/mounriver/mounriver_studio/toolchain/risc-v embedded gcc/bin/../lib/gcc/riscv-none-embed/8.2.0/rv32imacxw/ilp32\libgcc.a(eqdf2.o)
                              c:/mounriver/mounriver_studio/toolchain/risc-v embedded gcc/bin/../lib/gcc/riscv-none-embed/8.2.0/../../../../riscv-none-embed/lib/rv32imacxw/ilp32\libg_nano.a(lib_a-nano-vfprintf_float.o) (__eqdf2)
c:/mounriver/mounriver_studio/toolchain/risc-v embedded gcc/bin/../lib/gcc/riscv-none-embed/8.2.0/rv32imacxw/ilp32\libgcc.a(gedf2.o)
                              c:/mounriver/mounriver_studio/toolchain/risc-v embedded gcc/bin/../lib/gcc/riscv-none-embed/8.2.0/../../../../riscv-none-embed/lib/rv32imacxw/ilp32\libg_nano.a(lib_a-dtoa.o) (__gedf2)
c:/mounriver/mounriver_studio/toolchain/risc-v embedded gcc/bin/../lib/gcc/riscv-none-embed/8.2.0/rv32imacxw/ilp32\libgcc.a(unorddf2.o)
                              c:/mounriver/mounriver_studio/toolchain/risc-v embedded gcc/bin/../lib/gcc/riscv-none-embed/8.2.0/../../../../riscv-none-embed/lib/rv32imacxw/ilp32\libg_nano.a(lib_a-nano-vfprintf_float.o) (__unorddf2)
c:/mounriver/mounriver_studio/toolchain/risc-v embedded gcc/bin/../lib/gcc/riscv-none-embed/8.2.0/rv32imacxw/ilp32\libgcc.a(fixdfsi.o)
                              c:/mounriver/mounriver_studio/toolchain/risc-v embedded gcc/bin/../lib/gcc/riscv-none-embed/8.2.0/../../../../riscv-none-embed/lib/rv32imacxw/ilp32\libg_nano.a(lib_a-strtod.o) (__fixdfsi)
c:/mounriver/mounriver_studio/toolchain/risc-v embedded gcc/bin/../lib/gcc/riscv-none-embed/8.2.0/rv32imacxw/ilp32\libgcc.a(fixunsdfsi.o)
                              c:/mounriver/mounriver_studio/toolchain/risc-v embedded gcc/bin/../lib/gcc/riscv-none-embed/8.2.0/../../../../riscv-none-embed/lib/rv32imacxw/ilp32\libg_nano.a(lib_a-strtod.o) (__fixunsdfsi)
c:/mounriver/mounriver_studio/toolchain/risc-v embedded gcc/bin/../lib/gcc/riscv-none-embed/8.2.0/rv32imacxw/ilp32\libgcc.a(floatunsidf.o)
                              c:/mounriver/mounriver_studio/toolchain/risc-v embedded gcc/bin/../lib/gcc/riscv-none-embed/8.2.0/../../../../riscv-none-embed/lib/rv32imacxw/ilp32\libg_nano.a(lib_a-strtod.o) (__floatunsidf)
c:/mounriver/mounriver_studio/toolchain/risc-v embedded gcc/bin/../lib/gcc/riscv-none-embed/8.2.0/rv32imacxw/ilp32\libgcc.a(unordsf2.o)
                              c:/mounriver/mounriver_studio/toolchain/risc-v embedded gcc/bin/../lib/gcc/riscv-none-embed/8.2.0/../../../../riscv-none-embed/lib/rv32imacxw/ilp32\libg_nano.a(lib_a-strtod.o) (__unordsf2)
c:/mounriver/mounriver_studio/toolchain/risc-v embedded gcc/bin/../lib/gcc/riscv-none-embed/8.2.0/rv32imacxw/ilp32\libgcc.a(extenddftf2.o)
                              c:/mounriver/mounriver_studio/toolchain/risc-v embedded gcc/bin/../lib/gcc/riscv-none-embed/8.2.0/../../../../riscv-none-embed/lib/rv32imacxw/ilp32\libg_nano.a(lib_a-nano-vfscanf_float.o) (__extenddftf2)
c:/mounriver/mounriver_studio/toolchain/risc-v embedded gcc/bin/../lib/gcc/riscv-none-embed/8.2.0/rv32imacxw/ilp32\libgcc.a(trunctfdf2.o)
                              c:/mounriver/mounriver_studio/toolchain/risc-v embedded gcc/bin/../lib/gcc/riscv-none-embed/8.2.0/../../../../riscv-none-embed/lib/rv32imacxw/ilp32\libg_nano.a(lib_a-nano-vfprintf_float.o) (__trunctfdf2)

Allocating common symbols
Common symbol       size              file

errno               0x4               c:/mounriver/mounriver_studio/toolchain/risc-v embedded gcc/bin/../lib/gcc/riscv-none-embed/8.2.0/../../../../riscv-none-embed/lib/rv32imacxw/ilp32\libg_nano.a(lib_a-reent.o)

Discarded input sections

 .text          0x0000000000000000        0x0 ./hardware/USART3/USART3.o
 .data          0x0000000000000000        0x0 ./hardware/USART3/USART3.o
 .bss           0x0000000000000000        0x0 ./hardware/USART3/USART3.o
 .text          0x0000000000000000        0x0 ./hardware/USART2/USART2.o
 .data          0x0000000000000000        0x0 ./hardware/USART2/USART2.o
 .bss           0x0000000000000000        0x0 ./hardware/USART2/USART2.o
 .text          0x0000000000000000        0x0 ./hardware/UART_show/uartshow.o
 .data          0x0000000000000000        0x0 ./hardware/UART_show/uartshow.o
 .bss           0x0000000000000000        0x0 ./hardware/UART_show/uartshow.o
 .text          0x0000000000000000        0x0 ./hardware/UART4/UART4.o
 .data          0x0000000000000000        0x0 ./hardware/UART4/UART4.o
 .bss           0x0000000000000000        0x0 ./hardware/UART4/UART4.o
 .text          0x0000000000000000        0x0 ./hardware/Speed/speed.o
 .data          0x0000000000000000        0x0 ./hardware/Speed/speed.o
 .bss           0x0000000000000000        0x0 ./hardware/Speed/speed.o
 .text          0x0000000000000000        0x0 ./hardware/RTC/RTC.o
 .data          0x0000000000000000        0x0 ./hardware/RTC/RTC.o
 .bss           0x0000000000000000        0x0 ./hardware/RTC/RTC.o
 .text          0x0000000000000000        0x0 ./hardware/KEY_Pwm/key_pwm.o
 .data          0x0000000000000000        0x0 ./hardware/KEY_Pwm/key_pwm.o
 .bss           0x0000000000000000        0x0 ./hardware/KEY_Pwm/key_pwm.o
 .text.EXTI5_IRQHandler
                0x0000000000000000       0x60 ./hardware/KEY_Pwm/key_pwm.o
 .text.EXTI6_IRQHandler
                0x0000000000000000       0x36 ./hardware/KEY_Pwm/key_pwm.o
 .text          0x0000000000000000        0x0 ./hardware/HC-SR04/HC-SR04.o
 .data          0x0000000000000000        0x0 ./hardware/HC-SR04/HC-SR04.o
 .bss           0x0000000000000000        0x0 ./hardware/HC-SR04/HC-SR04.o
 .sbss.time     0x0000000000000000        0x8 ./hardware/HC-SR04/HC-SR04.o
 .sbss.time_end
                0x0000000000000000        0x8 ./hardware/HC-SR04/HC-SR04.o
 .text          0x0000000000000000        0x0 ./hardware/DHT11/dht11.o
 .data          0x0000000000000000        0x0 ./hardware/DHT11/dht11.o
 .bss           0x0000000000000000        0x0 ./hardware/DHT11/dht11.o
 .text          0x0000000000000000        0x0 ./hardware/ADC_SMOKE/ADC.o
 .data          0x0000000000000000        0x0 ./hardware/ADC_SMOKE/ADC.o
 .bss           0x0000000000000000        0x0 ./hardware/ADC_SMOKE/ADC.o
 .bss.TxBuf     0x0000000000000000      0x800 ./hardware/ADC_SMOKE/ADC.o
 .text          0x0000000000000000        0x0 ./User/ch32v30x_it.o
 .data          0x0000000000000000        0x0 ./User/ch32v30x_it.o
 .bss           0x0000000000000000        0x0 ./User/ch32v30x_it.o
 .text          0x0000000000000000        0x0 ./User/main.o
 .data          0x0000000000000000        0x0 ./User/main.o
 .bss           0x0000000000000000        0x0 ./User/main.o
 .sbss.omiga    0x0000000000000000        0x4 ./User/main.o
 .sbss.t        0x0000000000000000        0x1 ./User/main.o
 .sdata.Drinkscore
                0x0000000000000000        0x4 ./User/main.o
 .text          0x0000000000000000        0x0 ./User/system_ch32v30x.o
 .data          0x0000000000000000        0x0 ./User/system_ch32v30x.o
 .bss           0x0000000000000000        0x0 ./User/system_ch32v30x.o
 .text          0x0000000000000000        0x0 ./Startup/startup_ch32v30x_D8C.o
 .data          0x0000000000000000        0x0 ./Startup/startup_ch32v30x_D8C.o
 .bss           0x0000000000000000        0x0 ./Startup/startup_ch32v30x_D8C.o
 .text          0x0000000000000000        0x0 ./Peripheral/src/ch32v30x_adc.o
 .data          0x0000000000000000        0x0 ./Peripheral/src/ch32v30x_adc.o
 .bss           0x0000000000000000        0x0 ./Peripheral/src/ch32v30x_adc.o
 .text.ADC_StructInit
                0x0000000000000000       0x1a ./Peripheral/src/ch32v30x_adc.o
 .text.ADC_ITConfig
                0x0000000000000000       0x16 ./Peripheral/src/ch32v30x_adc.o
 .text.ADC_GetSoftwareStartConvStatus
                0x0000000000000000        0x8 ./Peripheral/src/ch32v30x_adc.o
 .text.ADC_DiscModeChannelCountConfig
                0x0000000000000000       0x12 ./Peripheral/src/ch32v30x_adc.o
 .text.ADC_DiscModeCmd
                0x0000000000000000       0x1a ./Peripheral/src/ch32v30x_adc.o
 .text.ADC_ExternalTrigConvCmd
                0x0000000000000000       0x18 ./Peripheral/src/ch32v30x_adc.o
 .text.ADC_GetDualModeConversionValue
                0x0000000000000000        0xa ./Peripheral/src/ch32v30x_adc.o
 .text.ADC_AutoInjectedConvCmd
                0x0000000000000000       0x12 ./Peripheral/src/ch32v30x_adc.o
 .text.ADC_InjectedDiscModeCmd
                0x0000000000000000       0x14 ./Peripheral/src/ch32v30x_adc.o
 .text.ADC_ExternalTrigInjectedConvConfig
                0x0000000000000000        0xe ./Peripheral/src/ch32v30x_adc.o
 .text.ADC_ExternalTrigInjectedConvCmd
                0x0000000000000000       0x14 ./Peripheral/src/ch32v30x_adc.o
 .text.ADC_SoftwareStartInjectedConvCmd
                0x0000000000000000       0x18 ./Peripheral/src/ch32v30x_adc.o
 .text.ADC_GetSoftwareStartInjectedConvCmdStatus
                0x0000000000000000        0x8 ./Peripheral/src/ch32v30x_adc.o
 .text.ADC_InjectedChannelConfig
                0x0000000000000000       0x7a ./Peripheral/src/ch32v30x_adc.o
 .text.ADC_InjectedSequencerLengthConfig
                0x0000000000000000       0x14 ./Peripheral/src/ch32v30x_adc.o
 .text.ADC_SetInjectedOffset
                0x0000000000000000       0x14 ./Peripheral/src/ch32v30x_adc.o
 .text.ADC_GetInjectedConversionValue
                0x0000000000000000       0x1c ./Peripheral/src/ch32v30x_adc.o
 .text.ADC_AnalogWatchdogCmd
                0x0000000000000000       0x12 ./Peripheral/src/ch32v30x_adc.o
 .text.ADC_AnalogWatchdogThresholdsConfig
                0x0000000000000000        0x6 ./Peripheral/src/ch32v30x_adc.o
 .text.ADC_AnalogWatchdogSingleChannelConfig
                0x0000000000000000        0xa ./Peripheral/src/ch32v30x_adc.o
 .text.ADC_TempSensorVrefintCmd
                0x0000000000000000       0x20 ./Peripheral/src/ch32v30x_adc.o
 .text.ADC_ClearFlag
                0x0000000000000000        0x8 ./Peripheral/src/ch32v30x_adc.o
 .text.ADC_GetITStatus
                0x0000000000000000       0x1c ./Peripheral/src/ch32v30x_adc.o
 .text.ADC_ClearITPendingBit
                0x0000000000000000        0xa ./Peripheral/src/ch32v30x_adc.o
 .text.TempSensor_Volt_To_Temper
                0x0000000000000000       0x28 ./Peripheral/src/ch32v30x_adc.o
 .text          0x0000000000000000        0x0 ./Peripheral/src/ch32v30x_bkp.o
 .data          0x0000000000000000        0x0 ./Peripheral/src/ch32v30x_bkp.o
 .bss           0x0000000000000000        0x0 ./Peripheral/src/ch32v30x_bkp.o
 .text.BKP_TamperPinLevelConfig
                0x0000000000000000       0x20 ./Peripheral/src/ch32v30x_bkp.o
 .text.BKP_TamperPinCmd
                0x0000000000000000       0x20 ./Peripheral/src/ch32v30x_bkp.o
 .text.BKP_ITConfig
                0x0000000000000000       0x20 ./Peripheral/src/ch32v30x_bkp.o
 .text.BKP_RTCOutputConfig
                0x0000000000000000       0x18 ./Peripheral/src/ch32v30x_bkp.o
 .text.BKP_SetRTCCalibrationValue
                0x0000000000000000       0x18 ./Peripheral/src/ch32v30x_bkp.o
 .text.BKP_GetFlagStatus
                0x0000000000000000        0xe ./Peripheral/src/ch32v30x_bkp.o
 .text.BKP_ClearFlag
                0x0000000000000000       0x12 ./Peripheral/src/ch32v30x_bkp.o
 .text.BKP_GetITStatus
                0x0000000000000000        0xe ./Peripheral/src/ch32v30x_bkp.o
 .text.BKP_ClearITPendingBit
                0x0000000000000000       0x12 ./Peripheral/src/ch32v30x_bkp.o
 .text          0x0000000000000000        0x0 ./Peripheral/src/ch32v30x_can.o
 .data          0x0000000000000000        0x0 ./Peripheral/src/ch32v30x_can.o
 .bss           0x0000000000000000        0x0 ./Peripheral/src/ch32v30x_can.o
 .text.CAN_DeInit
                0x0000000000000000       0x4c ./Peripheral/src/ch32v30x_can.o
 .text.CAN_Init
                0x0000000000000000       0xe8 ./Peripheral/src/ch32v30x_can.o
 .text.CAN_FilterInit
                0x0000000000000000       0xee ./Peripheral/src/ch32v30x_can.o
 .text.CAN_StructInit
                0x0000000000000000       0x24 ./Peripheral/src/ch32v30x_can.o
 .text.CAN_SlaveStartBank
                0x0000000000000000       0x38 ./Peripheral/src/ch32v30x_can.o
 .text.CAN_DBGFreeze
                0x0000000000000000       0x14 ./Peripheral/src/ch32v30x_can.o
 .text.CAN_TTComModeCmd
                0x0000000000000000       0x58 ./Peripheral/src/ch32v30x_can.o
 .text.CAN_Transmit
                0x0000000000000000       0xbc ./Peripheral/src/ch32v30x_can.o
 .text.CAN_TransmitStatus
                0x0000000000000000       0x62 ./Peripheral/src/ch32v30x_can.o
 .text.CAN_CancelTransmit
                0x0000000000000000       0x2a ./Peripheral/src/ch32v30x_can.o
 .text.CAN_Receive
                0x0000000000000000       0x8c ./Peripheral/src/ch32v30x_can.o
 .text.CAN_FIFORelease
                0x0000000000000000       0x16 ./Peripheral/src/ch32v30x_can.o
 .text.CAN_MessagePending
                0x0000000000000000       0x16 ./Peripheral/src/ch32v30x_can.o
 .text.CAN_OperatingModeRequest
                0x0000000000000000       0x72 ./Peripheral/src/ch32v30x_can.o
 .text.CAN_Sleep
                0x0000000000000000       0x16 ./Peripheral/src/ch32v30x_can.o
 .text.CAN_WakeUp
                0x0000000000000000       0x1e ./Peripheral/src/ch32v30x_can.o
 .text.CAN_GetLastErrorCode
                0x0000000000000000        0x8 ./Peripheral/src/ch32v30x_can.o
 .text.CAN_GetReceiveErrorCounter
                0x0000000000000000        0x6 ./Peripheral/src/ch32v30x_can.o
 .text.CAN_GetLSBTransmitErrorCounter
                0x0000000000000000        0xa ./Peripheral/src/ch32v30x_can.o
 .text.CAN_ITConfig
                0x0000000000000000       0x12 ./Peripheral/src/ch32v30x_can.o
 .text.CAN_GetFlagStatus
                0x0000000000000000       0x56 ./Peripheral/src/ch32v30x_can.o
 .text.CAN_ClearFlag
                0x0000000000000000       0x40 ./Peripheral/src/ch32v30x_can.o
 .text.CAN_GetITStatus
                0x0000000000000000       0xd0 ./Peripheral/src/ch32v30x_can.o
 .text.CAN_ClearITPendingBit
                0x0000000000000000       0x94 ./Peripheral/src/ch32v30x_can.o
 .debug_info    0x0000000000000000     0x1807 ./Peripheral/src/ch32v30x_can.o
 .debug_abbrev  0x0000000000000000      0x3eb ./Peripheral/src/ch32v30x_can.o
 .debug_loc     0x0000000000000000      0x999 ./Peripheral/src/ch32v30x_can.o
 .debug_aranges
                0x0000000000000000       0xd8 ./Peripheral/src/ch32v30x_can.o
 .debug_ranges  0x0000000000000000       0xf8 ./Peripheral/src/ch32v30x_can.o
 .debug_line    0x0000000000000000     0x1a49 ./Peripheral/src/ch32v30x_can.o
 .debug_str     0x0000000000000000      0xbc1 ./Peripheral/src/ch32v30x_can.o
 .comment       0x0000000000000000       0x34 ./Peripheral/src/ch32v30x_can.o
 .debug_frame   0x0000000000000000      0x19c ./Peripheral/src/ch32v30x_can.o
 .text          0x0000000000000000        0x0 ./Peripheral/src/ch32v30x_crc.o
 .data          0x0000000000000000        0x0 ./Peripheral/src/ch32v30x_crc.o
 .bss           0x0000000000000000        0x0 ./Peripheral/src/ch32v30x_crc.o
 .text.CRC_ResetDR
                0x0000000000000000        0xa ./Peripheral/src/ch32v30x_crc.o
 .text.CRC_CalcCRC
                0x0000000000000000        0xa ./Peripheral/src/ch32v30x_crc.o
 .text.CRC_CalcBlockCRC
                0x0000000000000000       0x20 ./Peripheral/src/ch32v30x_crc.o
 .text.CRC_GetCRC
                0x0000000000000000        0x8 ./Peripheral/src/ch32v30x_crc.o
 .text.CRC_SetIDRegister
                0x0000000000000000        0x8 ./Peripheral/src/ch32v30x_crc.o
 .text.CRC_GetIDRegister
                0x0000000000000000        0x8 ./Peripheral/src/ch32v30x_crc.o
 .debug_info    0x0000000000000000      0xab3 ./Peripheral/src/ch32v30x_crc.o
 .debug_abbrev  0x0000000000000000      0x25f ./Peripheral/src/ch32v30x_crc.o
 .debug_loc     0x0000000000000000       0x75 ./Peripheral/src/ch32v30x_crc.o
 .debug_aranges
                0x0000000000000000       0x48 ./Peripheral/src/ch32v30x_crc.o
 .debug_ranges  0x0000000000000000       0x38 ./Peripheral/src/ch32v30x_crc.o
 .debug_line    0x0000000000000000      0x3ce ./Peripheral/src/ch32v30x_crc.o
 .debug_str     0x0000000000000000      0x681 ./Peripheral/src/ch32v30x_crc.o
 .comment       0x0000000000000000       0x34 ./Peripheral/src/ch32v30x_crc.o
 .debug_frame   0x0000000000000000       0x70 ./Peripheral/src/ch32v30x_crc.o
 .text          0x0000000000000000        0x0 ./Peripheral/src/ch32v30x_dac.o
 .data          0x0000000000000000        0x0 ./Peripheral/src/ch32v30x_dac.o
 .bss           0x0000000000000000        0x0 ./Peripheral/src/ch32v30x_dac.o
 .text.DAC_DeInit
                0x0000000000000000       0x2c ./Peripheral/src/ch32v30x_dac.o
 .text.DAC_Init
                0x0000000000000000       0x30 ./Peripheral/src/ch32v30x_dac.o
 .text.DAC_StructInit
                0x0000000000000000       0x12 ./Peripheral/src/ch32v30x_dac.o
 .text.DAC_Cmd  0x0000000000000000       0x2c ./Peripheral/src/ch32v30x_dac.o
 .text.DAC_DMACmd
                0x0000000000000000       0x2c ./Peripheral/src/ch32v30x_dac.o
 .text.DAC_SoftwareTriggerCmd
                0x0000000000000000       0x22 ./Peripheral/src/ch32v30x_dac.o
 .text.DAC_DualSoftwareTriggerCmd
                0x0000000000000000       0x18 ./Peripheral/src/ch32v30x_dac.o
 .text.DAC_WaveGenerationCmd
                0x0000000000000000       0x1e ./Peripheral/src/ch32v30x_dac.o
 .text.DAC_SetChannel1Data
                0x0000000000000000       0x1e ./Peripheral/src/ch32v30x_dac.o
 .text.DAC_SetChannel2Data
                0x0000000000000000       0x1e ./Peripheral/src/ch32v30x_dac.o
 .text.DAC_SetDualChannelData
                0x0000000000000000       0x1c ./Peripheral/src/ch32v30x_dac.o
 .text.DAC_GetDataOutputValue
                0x0000000000000000       0x26 ./Peripheral/src/ch32v30x_dac.o
 .debug_info    0x0000000000000000      0xdbd ./Peripheral/src/ch32v30x_dac.o
 .debug_abbrev  0x0000000000000000      0x2fe ./Peripheral/src/ch32v30x_dac.o
 .debug_loc     0x0000000000000000      0x23b ./Peripheral/src/ch32v30x_dac.o
 .debug_aranges
                0x0000000000000000       0x78 ./Peripheral/src/ch32v30x_dac.o
 .debug_ranges  0x0000000000000000       0x68 ./Peripheral/src/ch32v30x_dac.o
 .debug_line    0x0000000000000000      0x806 ./Peripheral/src/ch32v30x_dac.o
 .debug_str     0x0000000000000000      0x805 ./Peripheral/src/ch32v30x_dac.o
 .comment       0x0000000000000000       0x34 ./Peripheral/src/ch32v30x_dac.o
 .debug_frame   0x0000000000000000       0xf4 ./Peripheral/src/ch32v30x_dac.o
 .text          0x0000000000000000        0x0 ./Peripheral/src/ch32v30x_dbgmcu.o
 .data          0x0000000000000000        0x0 ./Peripheral/src/ch32v30x_dbgmcu.o
 .bss           0x0000000000000000        0x0 ./Peripheral/src/ch32v30x_dbgmcu.o
 .text.DBGMCU_GetREVID
                0x0000000000000000        0xa ./Peripheral/src/ch32v30x_dbgmcu.o
 .text.DBGMCU_GetDEVID
                0x0000000000000000        0xa ./Peripheral/src/ch32v30x_dbgmcu.o
 .text.__get_DEBUG_CR
                0x0000000000000000        0x6 ./Peripheral/src/ch32v30x_dbgmcu.o
 .text.__set_DEBUG_CR
                0x0000000000000000        0x6 ./Peripheral/src/ch32v30x_dbgmcu.o
 .text.DBGMCU_Config
                0x0000000000000000       0x14 ./Peripheral/src/ch32v30x_dbgmcu.o
 .text.DBGMCU_GetCHIPID
                0x0000000000000000        0xa ./Peripheral/src/ch32v30x_dbgmcu.o
 .debug_info    0x0000000000000000      0xa94 ./Peripheral/src/ch32v30x_dbgmcu.o
 .debug_abbrev  0x0000000000000000      0x2f7 ./Peripheral/src/ch32v30x_dbgmcu.o
 .debug_loc     0x0000000000000000       0x7c ./Peripheral/src/ch32v30x_dbgmcu.o
 .debug_aranges
                0x0000000000000000       0x48 ./Peripheral/src/ch32v30x_dbgmcu.o
 .debug_ranges  0x0000000000000000       0x50 ./Peripheral/src/ch32v30x_dbgmcu.o
 .debug_line    0x0000000000000000      0x391 ./Peripheral/src/ch32v30x_dbgmcu.o
 .debug_str     0x0000000000000000      0x64c ./Peripheral/src/ch32v30x_dbgmcu.o
 .comment       0x0000000000000000       0x34 ./Peripheral/src/ch32v30x_dbgmcu.o
 .debug_frame   0x0000000000000000       0x70 ./Peripheral/src/ch32v30x_dbgmcu.o
 .text          0x0000000000000000        0x0 ./Peripheral/src/ch32v30x_dma.o
 .data          0x0000000000000000        0x0 ./Peripheral/src/ch32v30x_dma.o
 .bss           0x0000000000000000        0x0 ./Peripheral/src/ch32v30x_dma.o
 .text.DMA_DeInit
                0x0000000000000000      0x16c ./Peripheral/src/ch32v30x_dma.o
 .text.DMA_Init
                0x0000000000000000       0x38 ./Peripheral/src/ch32v30x_dma.o
 .text.DMA_StructInit
                0x0000000000000000       0x2e ./Peripheral/src/ch32v30x_dma.o
 .text.DMA_Cmd  0x0000000000000000       0x14 ./Peripheral/src/ch32v30x_dma.o
 .text.DMA_ITConfig
                0x0000000000000000       0x12 ./Peripheral/src/ch32v30x_dma.o
 .text.DMA_SetCurrDataCounter
                0x0000000000000000        0x4 ./Peripheral/src/ch32v30x_dma.o
 .text.DMA_GetCurrDataCounter
                0x0000000000000000        0x8 ./Peripheral/src/ch32v30x_dma.o
 .text.DMA_GetFlagStatus
                0x0000000000000000       0x32 ./Peripheral/src/ch32v30x_dma.o
 .text.DMA_ClearFlag
                0x0000000000000000       0x2c ./Peripheral/src/ch32v30x_dma.o
 .text.DMA_GetITStatus
                0x0000000000000000       0x18 ./Peripheral/src/ch32v30x_dma.o
 .text.DMA_ClearITPendingBit
                0x0000000000000000       0x18 ./Peripheral/src/ch32v30x_dma.o
 .debug_info    0x0000000000000000      0xd16 ./Peripheral/src/ch32v30x_dma.o
 .debug_abbrev  0x0000000000000000      0x2fd ./Peripheral/src/ch32v30x_dma.o
 .debug_loc     0x0000000000000000      0x19a ./Peripheral/src/ch32v30x_dma.o
 .debug_aranges
                0x0000000000000000       0x60 ./Peripheral/src/ch32v30x_dma.o
 .debug_ranges  0x0000000000000000       0x50 ./Peripheral/src/ch32v30x_dma.o
 .debug_line    0x0000000000000000      0x9ed ./Peripheral/src/ch32v30x_dma.o
 .debug_str     0x0000000000000000      0x7f9 ./Peripheral/src/ch32v30x_dma.o
 .comment       0x0000000000000000       0x34 ./Peripheral/src/ch32v30x_dma.o
 .debug_frame   0x0000000000000000       0xd8 ./Peripheral/src/ch32v30x_dma.o
 .text          0x0000000000000000        0x0 ./Peripheral/src/ch32v30x_dvp.o
 .data          0x0000000000000000        0x0 ./Peripheral/src/ch32v30x_dvp.o
 .bss           0x0000000000000000        0x0 ./Peripheral/src/ch32v30x_dvp.o
 .text.DVP_INTCfg
                0x0000000000000000       0x16 ./Peripheral/src/ch32v30x_dvp.o
 .text.DVP_Mode
                0x0000000000000000       0x32 ./Peripheral/src/ch32v30x_dvp.o
 .text.DVP_Cfg  0x0000000000000000       0x62 ./Peripheral/src/ch32v30x_dvp.o
 .debug_info    0x0000000000000000      0xbc5 ./Peripheral/src/ch32v30x_dvp.o
 .debug_abbrev  0x0000000000000000      0x241 ./Peripheral/src/ch32v30x_dvp.o
 .debug_loc     0x0000000000000000       0x74 ./Peripheral/src/ch32v30x_dvp.o
 .debug_aranges
                0x0000000000000000       0x30 ./Peripheral/src/ch32v30x_dvp.o
 .debug_ranges  0x0000000000000000       0x20 ./Peripheral/src/ch32v30x_dvp.o
 .debug_line    0x0000000000000000      0x441 ./Peripheral/src/ch32v30x_dvp.o
 .debug_str     0x0000000000000000      0x742 ./Peripheral/src/ch32v30x_dvp.o
 .comment       0x0000000000000000       0x34 ./Peripheral/src/ch32v30x_dvp.o
 .debug_frame   0x0000000000000000       0x40 ./Peripheral/src/ch32v30x_dvp.o
 .text          0x0000000000000000        0x0 ./Peripheral/src/ch32v30x_eth.o
 .data          0x0000000000000000        0x0 ./Peripheral/src/ch32v30x_eth.o
 .bss           0x0000000000000000        0x0 ./Peripheral/src/ch32v30x_eth.o
 .text.ETH_DeInit
                0x0000000000000000       0x28 ./Peripheral/src/ch32v30x_eth.o
 .text.ETH_StructInit
                0x0000000000000000       0xd8 ./Peripheral/src/ch32v30x_eth.o
 .text.ETH_HandleTxPkt
                0x0000000000000000       0x8c ./Peripheral/src/ch32v30x_eth.o
 .text.ETH_HandleRxPkt
                0x0000000000000000       0x9e ./Peripheral/src/ch32v30x_eth.o
 .text.ETH_GetRxPktSize
                0x0000000000000000       0x32 ./Peripheral/src/ch32v30x_eth.o
 .text.ETH_DropRxPkt
                0x0000000000000000       0x3c ./Peripheral/src/ch32v30x_eth.o
 .text.ETH_ReadPHYRegister
                0x0000000000000000       0x58 ./Peripheral/src/ch32v30x_eth.o
 .text.ETH_WritePHYRegister
                0x0000000000000000       0x52 ./Peripheral/src/ch32v30x_eth.o
 .text.ETH_PHYLoopBackCmd
                0x0000000000000000       0x40 ./Peripheral/src/ch32v30x_eth.o
 .text.ETH_MACTransmissionCmd
                0x0000000000000000       0x14 ./Peripheral/src/ch32v30x_eth.o
 .text.ETH_MACReceptionCmd
                0x0000000000000000       0x14 ./Peripheral/src/ch32v30x_eth.o
 .text.ETH_GetFlowControlBusyStatus
                0x0000000000000000        0xa ./Peripheral/src/ch32v30x_eth.o
 .text.ETH_InitiatePauseControlFrame
                0x0000000000000000        0xe ./Peripheral/src/ch32v30x_eth.o
 .text.ETH_BackPressureActivationCmd
                0x0000000000000000       0x14 ./Peripheral/src/ch32v30x_eth.o
 .text.ETH_GetMACFlagStatus
                0x0000000000000000        0xe ./Peripheral/src/ch32v30x_eth.o
 .text.ETH_GetMACITStatus
                0x0000000000000000       0x18 ./Peripheral/src/ch32v30x_eth.o
 .text.ETH_MACITConfig
                0x0000000000000000       0x1e ./Peripheral/src/ch32v30x_eth.o
 .text.ETH_MACAddressConfig
                0x0000000000000000       0x32 ./Peripheral/src/ch32v30x_eth.o
 .text.ETH_GetMACAddress
                0x0000000000000000       0x32 ./Peripheral/src/ch32v30x_eth.o
 .text.ETH_MACAddressPerfectFilterCmd
                0x0000000000000000       0x1e ./Peripheral/src/ch32v30x_eth.o
 .text.ETH_MACAddressFilterConfig
                0x0000000000000000       0x28 ./Peripheral/src/ch32v30x_eth.o
 .text.ETH_MACAddressMaskBytesFilterConfig
                0x0000000000000000       0x1e ./Peripheral/src/ch32v30x_eth.o
 .text.ETH_DMATxDescChainInit
                0x0000000000000000       0x46 ./Peripheral/src/ch32v30x_eth.o
 .text.ETH_DMATxDescRingInit
                0x0000000000000000       0x44 ./Peripheral/src/ch32v30x_eth.o
 .text.ETH_GetDMATxDescFlagStatus
                0x0000000000000000        0xa ./Peripheral/src/ch32v30x_eth.o
 .text.ETH_GetDMATxDescCollisionCount
                0x0000000000000000        0x8 ./Peripheral/src/ch32v30x_eth.o
 .text.ETH_SetDMATxDescOwnBit
                0x0000000000000000        0xc ./Peripheral/src/ch32v30x_eth.o
 .text.ETH_DMATxDescTransmitITConfig
                0x0000000000000000       0x18 ./Peripheral/src/ch32v30x_eth.o
 .text.ETH_DMATxDescFrameSegmentConfig
                0x0000000000000000        0x8 ./Peripheral/src/ch32v30x_eth.o
 .text.ETH_DMATxDescChecksumInsertionConfig
                0x0000000000000000        0x8 ./Peripheral/src/ch32v30x_eth.o
 .text.ETH_DMATxDescCRCCmd
                0x0000000000000000       0x18 ./Peripheral/src/ch32v30x_eth.o
 .text.ETH_DMATxDescEndOfRingCmd
                0x0000000000000000       0x18 ./Peripheral/src/ch32v30x_eth.o
 .text.ETH_DMATxDescSecondAddressChainedCmd
                0x0000000000000000       0x18 ./Peripheral/src/ch32v30x_eth.o
 .text.ETH_DMATxDescShortFramePaddingCmd
                0x0000000000000000       0x18 ./Peripheral/src/ch32v30x_eth.o
 .text.ETH_DMATxDescTimeStampCmd
                0x0000000000000000       0x18 ./Peripheral/src/ch32v30x_eth.o
 .text.ETH_DMATxDescBufferSizeConfig
                0x0000000000000000        0xc ./Peripheral/src/ch32v30x_eth.o
 .text.ETH_DMARxDescChainInit
                0x0000000000000000       0x50 ./Peripheral/src/ch32v30x_eth.o
 .text.ETH_DMARxDescRingInit
                0x0000000000000000       0x52 ./Peripheral/src/ch32v30x_eth.o
 .text.ETH_GetDMARxDescFlagStatus
                0x0000000000000000        0xa ./Peripheral/src/ch32v30x_eth.o
 .text.ETH_SetDMARxDescOwnBit
                0x0000000000000000        0xc ./Peripheral/src/ch32v30x_eth.o
 .text.ETH_GetDMARxDescFrameLength
                0x0000000000000000        0x8 ./Peripheral/src/ch32v30x_eth.o
 .text.ETH_DMARxDescReceiveITConfig
                0x0000000000000000       0x14 ./Peripheral/src/ch32v30x_eth.o
 .text.ETH_DMARxDescEndOfRingCmd
                0x0000000000000000       0x14 ./Peripheral/src/ch32v30x_eth.o
 .text.ETH_DMARxDescSecondAddressChainedCmd
                0x0000000000000000       0x14 ./Peripheral/src/ch32v30x_eth.o
 .text.ETH_GetDMARxDescBufferSize
                0x0000000000000000        0xe ./Peripheral/src/ch32v30x_eth.o
 .text.ETH_SoftwareReset
                0x0000000000000000        0xe ./Peripheral/src/ch32v30x_eth.o
 .text.ETH_GetSoftwareResetStatus
                0x0000000000000000        0xa ./Peripheral/src/ch32v30x_eth.o
 .text.ETH_GetlinkStaus
                0x0000000000000000        0xa ./Peripheral/src/ch32v30x_eth.o
 .text.ETH_GetDMAFlagStatus
                0x0000000000000000        0xe ./Peripheral/src/ch32v30x_eth.o
 .text.ETH_DMAClearFlag
                0x0000000000000000        0x8 ./Peripheral/src/ch32v30x_eth.o
 .text.ETH_GetDMAITStatus
                0x0000000000000000       0x18 ./Peripheral/src/ch32v30x_eth.o
 .text.ETH_DMAClearITPendingBit
                0x0000000000000000        0x8 ./Peripheral/src/ch32v30x_eth.o
 .text.ETH_GetTransmitProcessState
                0x0000000000000000        0xa ./Peripheral/src/ch32v30x_eth.o
 .text.ETH_GetReceiveProcessState
                0x0000000000000000        0xc ./Peripheral/src/ch32v30x_eth.o
 .text.ETH_FlushTransmitFIFO
                0x0000000000000000       0x10 ./Peripheral/src/ch32v30x_eth.o
 .text.ETH_Start
                0x0000000000000000       0x40 ./Peripheral/src/ch32v30x_eth.o
 .text.ETH_GetFlushTransmitFIFOStatus
                0x0000000000000000        0xc ./Peripheral/src/ch32v30x_eth.o
 .text.ETH_DMATransmissionCmd
                0x0000000000000000       0x20 ./Peripheral/src/ch32v30x_eth.o
 .text.ETH_DMAReceptionCmd
                0x0000000000000000       0x14 ./Peripheral/src/ch32v30x_eth.o
 .text.ETH_DMAITConfig
                0x0000000000000000       0x1e ./Peripheral/src/ch32v30x_eth.o
 .text.ETH_GetDMAOverflowStatus
                0x0000000000000000        0xe ./Peripheral/src/ch32v30x_eth.o
 .text.ETH_GetRxOverflowMissedFrameCounter
                0x0000000000000000        0xe ./Peripheral/src/ch32v30x_eth.o
 .text.ETH_GetBufferUnavailableMissedFrameCounter
                0x0000000000000000        0xc ./Peripheral/src/ch32v30x_eth.o
 .text.ETH_GetCurrentTxDescStartAddress
                0x0000000000000000        0x8 ./Peripheral/src/ch32v30x_eth.o
 .text.ETH_GetCurrentRxDescStartAddress
                0x0000000000000000        0x8 ./Peripheral/src/ch32v30x_eth.o
 .text.ETH_GetCurrentTxBufferAddress
                0x0000000000000000        0xc ./Peripheral/src/ch32v30x_eth.o
 .text.ETH_GetCurrentRxBufferAddress
                0x0000000000000000        0x8 ./Peripheral/src/ch32v30x_eth.o
 .text.ETH_ResumeDMATransmission
                0x0000000000000000        0xa ./Peripheral/src/ch32v30x_eth.o
 .text.ETH_ResumeDMAReception
                0x0000000000000000        0xa ./Peripheral/src/ch32v30x_eth.o
 .text.ETH_ResetWakeUpFrameFilterRegisterPointer
                0x0000000000000000       0x10 ./Peripheral/src/ch32v30x_eth.o
 .text.ETH_SetWakeUpFrameFilterRegister
                0x0000000000000000       0x14 ./Peripheral/src/ch32v30x_eth.o
 .text.ETH_GlobalUnicastWakeUpCmd
                0x0000000000000000       0x16 ./Peripheral/src/ch32v30x_eth.o
 .text.ETH_GetPMTFlagStatus
                0x0000000000000000        0xe ./Peripheral/src/ch32v30x_eth.o
 .text.ETH_WakeUpFrameDetectionCmd
                0x0000000000000000       0x14 ./Peripheral/src/ch32v30x_eth.o
 .text.ETH_MagicPacketDetectionCmd
                0x0000000000000000       0x14 ./Peripheral/src/ch32v30x_eth.o
 .text.ETH_PowerDownCmd
                0x0000000000000000       0x14 ./Peripheral/src/ch32v30x_eth.o
 .text.ETH_MMCCounterFreezeCmd
                0x0000000000000000       0x18 ./Peripheral/src/ch32v30x_eth.o
 .text.ETH_MMCResetOnReadCmd
                0x0000000000000000       0x18 ./Peripheral/src/ch32v30x_eth.o
 .text.ETH_MMCCounterRolloverCmd
                0x0000000000000000       0x18 ./Peripheral/src/ch32v30x_eth.o
 .text.ETH_MMCCountersReset
                0x0000000000000000       0x12 ./Peripheral/src/ch32v30x_eth.o
 .text.ETH_MMCITConfig
                0x0000000000000000       0x5c ./Peripheral/src/ch32v30x_eth.o
 .text.ETH_GetMMCITStatus
                0x0000000000000000       0x3a ./Peripheral/src/ch32v30x_eth.o
 .text.ETH_GetMMCRegister
                0x0000000000000000        0xa ./Peripheral/src/ch32v30x_eth.o
 .text.ETH_EnablePTPTimeStampAddend
                0x0000000000000000       0x12 ./Peripheral/src/ch32v30x_eth.o
 .text.ETH_EnablePTPTimeStampInterruptTrigger
                0x0000000000000000       0x12 ./Peripheral/src/ch32v30x_eth.o
 .text.ETH_EnablePTPTimeStampUpdate
                0x0000000000000000       0x12 ./Peripheral/src/ch32v30x_eth.o
 .text.ETH_InitializePTPTimeStamp
                0x0000000000000000       0x12 ./Peripheral/src/ch32v30x_eth.o
 .text.ETH_PTPUpdateMethodConfig
                0x0000000000000000       0x18 ./Peripheral/src/ch32v30x_eth.o
 .text.ETH_PTPTimeStampCmd
                0x0000000000000000       0x18 ./Peripheral/src/ch32v30x_eth.o
 .text.ETH_GetPTPFlagStatus
                0x0000000000000000       0x10 ./Peripheral/src/ch32v30x_eth.o
 .text.ETH_SetPTPSubSecondIncrement
                0x0000000000000000        0xa ./Peripheral/src/ch32v30x_eth.o
 .text.ETH_SetPTPTimeStampUpdate
                0x0000000000000000       0x10 ./Peripheral/src/ch32v30x_eth.o
 .text.ETH_SetPTPTimeStampAddend
                0x0000000000000000        0xa ./Peripheral/src/ch32v30x_eth.o
 .text.ETH_SetPTPTargetTime
                0x0000000000000000        0xe ./Peripheral/src/ch32v30x_eth.o
 .text.ETH_GetPTPRegister
                0x0000000000000000        0xa ./Peripheral/src/ch32v30x_eth.o
 .text.ETH_DMAPTPTxDescChainInit
                0x0000000000000000       0x66 ./Peripheral/src/ch32v30x_eth.o
 .text.ETH_DMAPTPRxDescChainInit
                0x0000000000000000       0x70 ./Peripheral/src/ch32v30x_eth.o
 .text.ETH_HandlePTPTxPkt
                0x0000000000000000       0xe6 ./Peripheral/src/ch32v30x_eth.o
 .text.ETH_HandlePTPRxPkt
                0x0000000000000000       0xd0 ./Peripheral/src/ch32v30x_eth.o
 .text.RGMII_TXC_Delay
                0x0000000000000000       0x26 ./Peripheral/src/ch32v30x_eth.o
 .sbss.DMAPTPRxDescToGet
                0x0000000000000000        0x4 ./Peripheral/src/ch32v30x_eth.o
 .sbss.DMAPTPTxDescToSet
                0x0000000000000000        0x4 ./Peripheral/src/ch32v30x_eth.o
 .sbss.DMARxDescToGet
                0x0000000000000000        0x4 ./Peripheral/src/ch32v30x_eth.o
 .sbss.DMATxDescToSet
                0x0000000000000000        0x4 ./Peripheral/src/ch32v30x_eth.o
 .debug_info    0x0000000000000000     0x26f0 ./Peripheral/src/ch32v30x_eth.o
 .debug_abbrev  0x0000000000000000      0x47b ./Peripheral/src/ch32v30x_eth.o
 .debug_loc     0x0000000000000000      0xef1 ./Peripheral/src/ch32v30x_eth.o
 .debug_aranges
                0x0000000000000000      0x300 ./Peripheral/src/ch32v30x_eth.o
 .debug_ranges  0x0000000000000000      0x368 ./Peripheral/src/ch32v30x_eth.o
 .debug_line    0x0000000000000000     0x323a ./Peripheral/src/ch32v30x_eth.o
 .debug_str     0x0000000000000000     0x1903 ./Peripheral/src/ch32v30x_eth.o
 .comment       0x0000000000000000       0x34 ./Peripheral/src/ch32v30x_eth.o
 .debug_frame   0x0000000000000000      0x6a4 ./Peripheral/src/ch32v30x_eth.o
 .text          0x0000000000000000        0x0 ./Peripheral/src/ch32v30x_exti.o
 .data          0x0000000000000000        0x0 ./Peripheral/src/ch32v30x_exti.o
 .bss           0x0000000000000000        0x0 ./Peripheral/src/ch32v30x_exti.o
 .text.EXTI_DeInit
                0x0000000000000000       0x22 ./Peripheral/src/ch32v30x_exti.o
 .text.EXTI_StructInit
                0x0000000000000000       0x12 ./Peripheral/src/ch32v30x_exti.o
 .text.EXTI_GenerateSWInterrupt
                0x0000000000000000       0x10 ./Peripheral/src/ch32v30x_exti.o
 .text.EXTI_GetFlagStatus
                0x0000000000000000       0x12 ./Peripheral/src/ch32v30x_exti.o
 .text.EXTI_ClearFlag
                0x0000000000000000        0xa ./Peripheral/src/ch32v30x_exti.o
 .text          0x0000000000000000        0x0 ./Peripheral/src/ch32v30x_flash.o
 .data          0x0000000000000000        0x0 ./Peripheral/src/ch32v30x_flash.o
 .bss           0x0000000000000000        0x0 ./Peripheral/src/ch32v30x_flash.o
 .text.FLASH_Unlock
                0x0000000000000000       0x1a ./Peripheral/src/ch32v30x_flash.o
 .text.FLASH_UnlockBank1
                0x0000000000000000       0x18 ./Peripheral/src/ch32v30x_flash.o
 .text.FLASH_Lock
                0x0000000000000000        0xe ./Peripheral/src/ch32v30x_flash.o
 .text.FLASH_LockBank1
                0x0000000000000000       0x18 ./Peripheral/src/ch32v30x_flash.o
 .text.FLASH_GetUserOptionByte
                0x0000000000000000        0xa ./Peripheral/src/ch32v30x_flash.o
 .text.FLASH_GetWriteProtectionOptionByte
                0x0000000000000000        0x8 ./Peripheral/src/ch32v30x_flash.o
 .text.FLASH_GetReadOutProtectionStatus
                0x0000000000000000        0xc ./Peripheral/src/ch32v30x_flash.o
 .text.FLASH_ITConfig
                0x0000000000000000       0x1e ./Peripheral/src/ch32v30x_flash.o
 .text.FLASH_GetFlagStatus
                0x0000000000000000       0x1e ./Peripheral/src/ch32v30x_flash.o
 .text.FLASH_ClearFlag
                0x0000000000000000        0x8 ./Peripheral/src/ch32v30x_flash.o
 .text.FLASH_GetStatus
                0x0000000000000000       0x18 ./Peripheral/src/ch32v30x_flash.o
 .text.FLASH_GetBank1Status
                0x0000000000000000       0x18 ./Peripheral/src/ch32v30x_flash.o
 .text.FLASH_WaitForLastOperation
                0x0000000000000000       0x34 ./Peripheral/src/ch32v30x_flash.o
 .text.FLASH_ErasePage
                0x0000000000000000       0x4c ./Peripheral/src/ch32v30x_flash.o
 .text.FLASH_EraseAllPages
                0x0000000000000000       0x48 ./Peripheral/src/ch32v30x_flash.o
 .text.FLASH_EraseAllBank1Pages
                0x0000000000000000       0x18 ./Peripheral/src/ch32v30x_flash.o
 .text.FLASH_EraseOptionBytes
                0x0000000000000000       0xe6 ./Peripheral/src/ch32v30x_flash.o
 .text.FLASH_ProgramWord
                0x0000000000000000       0x68 ./Peripheral/src/ch32v30x_flash.o
 .text.FLASH_ProgramHalfWord
                0x0000000000000000       0x48 ./Peripheral/src/ch32v30x_flash.o
 .text.FLASH_ProgramOptionByteData
                0x0000000000000000      0x11a ./Peripheral/src/ch32v30x_flash.o
 .text.FLASH_EnableWriteProtection
                0x0000000000000000      0x106 ./Peripheral/src/ch32v30x_flash.o
 .text.FLASH_ReadOutProtection
                0x0000000000000000       0xf4 ./Peripheral/src/ch32v30x_flash.o
 .text.FLASH_UserOptionByteConfig
                0x0000000000000000      0x108 ./Peripheral/src/ch32v30x_flash.o
 .text.FLASH_WaitForLastBank1Operation
                0x0000000000000000       0x18 ./Peripheral/src/ch32v30x_flash.o
 .text.FLASH_Unlock_Fast
                0x0000000000000000       0x1e ./Peripheral/src/ch32v30x_flash.o
 .text.FLASH_Lock_Fast
                0x0000000000000000        0xe ./Peripheral/src/ch32v30x_flash.o
 .text.FLASH_ErasePage_Fast
                0x0000000000000000       0x2e ./Peripheral/src/ch32v30x_flash.o
 .text.FLASH_EraseBlock_32K_Fast
                0x0000000000000000       0x30 ./Peripheral/src/ch32v30x_flash.o
 .text.FLASH_EraseBlock_64K_Fast
                0x0000000000000000       0x30 ./Peripheral/src/ch32v30x_flash.o
 .text.FLASH_ProgramPage_Fast
                0x0000000000000000       0x64 ./Peripheral/src/ch32v30x_flash.o
 .text.FLASH_Access_Clock_Cfg
                0x0000000000000000       0x18 ./Peripheral/src/ch32v30x_flash.o
 .text.FLASH_Enhance_Mode
                0x0000000000000000       0x2e ./Peripheral/src/ch32v30x_flash.o
 .debug_info    0x0000000000000000     0x1382 ./Peripheral/src/ch32v30x_flash.o
 .debug_abbrev  0x0000000000000000      0x42c ./Peripheral/src/ch32v30x_flash.o
 .debug_loc     0x0000000000000000      0x7f2 ./Peripheral/src/ch32v30x_flash.o
 .debug_aranges
                0x0000000000000000       0xf8 ./Peripheral/src/ch32v30x_flash.o
 .debug_ranges  0x0000000000000000       0xe8 ./Peripheral/src/ch32v30x_flash.o
 .debug_line    0x0000000000000000     0x1c3c ./Peripheral/src/ch32v30x_flash.o
 .debug_str     0x0000000000000000      0xa7a ./Peripheral/src/ch32v30x_flash.o
 .comment       0x0000000000000000       0x34 ./Peripheral/src/ch32v30x_flash.o
 .debug_frame   0x0000000000000000      0x320 ./Peripheral/src/ch32v30x_flash.o
 .text          0x0000000000000000        0x0 ./Peripheral/src/ch32v30x_fsmc.o
 .data          0x0000000000000000        0x0 ./Peripheral/src/ch32v30x_fsmc.o
 .bss           0x0000000000000000        0x0 ./Peripheral/src/ch32v30x_fsmc.o
 .text.FSMC_NORSRAMDeInit
                0x0000000000000000       0x3c ./Peripheral/src/ch32v30x_fsmc.o
 .text.FSMC_NANDDeInit
                0x0000000000000000       0x26 ./Peripheral/src/ch32v30x_fsmc.o
 .text.FSMC_NORSRAMInit
                0x0000000000000000       0xba ./Peripheral/src/ch32v30x_fsmc.o
 .text.FSMC_NANDInit
                0x0000000000000000       0x84 ./Peripheral/src/ch32v30x_fsmc.o
 .text.FSMC_NORSRAMStructInit
                0x0000000000000000       0x60 ./Peripheral/src/ch32v30x_fsmc.o
 .text.FSMC_NANDStructInit
                0x0000000000000000       0x36 ./Peripheral/src/ch32v30x_fsmc.o
 .text.FSMC_NORSRAMCmd
                0x0000000000000000       0x1e ./Peripheral/src/ch32v30x_fsmc.o
 .text.FSMC_NANDCmd
                0x0000000000000000       0x2c ./Peripheral/src/ch32v30x_fsmc.o
 .text.FSMC_NANDECCCmd
                0x0000000000000000       0x2e ./Peripheral/src/ch32v30x_fsmc.o
 .text.FSMC_GetECC
                0x0000000000000000       0x12 ./Peripheral/src/ch32v30x_fsmc.o
 .text.FSMC_ITConfig
                0x0000000000000000       0x26 ./Peripheral/src/ch32v30x_fsmc.o
 .text.FSMC_GetFlagStatus
                0x0000000000000000       0x18 ./Peripheral/src/ch32v30x_fsmc.o
 .text.FSMC_ClearFlag
                0x0000000000000000       0x16 ./Peripheral/src/ch32v30x_fsmc.o
 .text.FSMC_GetITStatus
                0x0000000000000000       0x28 ./Peripheral/src/ch32v30x_fsmc.o
 .text.FSMC_ClearITPendingBit
                0x0000000000000000       0x18 ./Peripheral/src/ch32v30x_fsmc.o
 .debug_info    0x0000000000000000     0x104d ./Peripheral/src/ch32v30x_fsmc.o
 .debug_abbrev  0x0000000000000000      0x2d9 ./Peripheral/src/ch32v30x_fsmc.o
 .debug_loc     0x0000000000000000      0x454 ./Peripheral/src/ch32v30x_fsmc.o
 .debug_aranges
                0x0000000000000000       0x90 ./Peripheral/src/ch32v30x_fsmc.o
 .debug_ranges  0x0000000000000000       0x80 ./Peripheral/src/ch32v30x_fsmc.o
 .debug_line    0x0000000000000000      0xe4e ./Peripheral/src/ch32v30x_fsmc.o
 .debug_str     0x0000000000000000      0xace ./Peripheral/src/ch32v30x_fsmc.o
 .comment       0x0000000000000000       0x34 ./Peripheral/src/ch32v30x_fsmc.o
 .debug_frame   0x0000000000000000      0x100 ./Peripheral/src/ch32v30x_fsmc.o
 .text          0x0000000000000000        0x0 ./Peripheral/src/ch32v30x_gpio.o
 .data          0x0000000000000000        0x0 ./Peripheral/src/ch32v30x_gpio.o
 .bss           0x0000000000000000        0x0 ./Peripheral/src/ch32v30x_gpio.o
 .text.GPIO_DeInit
                0x0000000000000000       0xa4 ./Peripheral/src/ch32v30x_gpio.o
 .text.GPIO_AFIODeInit
                0x0000000000000000       0x28 ./Peripheral/src/ch32v30x_gpio.o
 .text.GPIO_StructInit
                0x0000000000000000        0xe ./Peripheral/src/ch32v30x_gpio.o
 .text.GPIO_ReadInputData
                0x0000000000000000        0x8 ./Peripheral/src/ch32v30x_gpio.o
 .text.GPIO_ReadOutputDataBit
                0x0000000000000000        0xa ./Peripheral/src/ch32v30x_gpio.o
 .text.GPIO_ReadOutputData
                0x0000000000000000        0x8 ./Peripheral/src/ch32v30x_gpio.o
 .text.GPIO_WriteBit
                0x0000000000000000        0xa ./Peripheral/src/ch32v30x_gpio.o
 .text.GPIO_Write
                0x0000000000000000        0x4 ./Peripheral/src/ch32v30x_gpio.o
 .text.GPIO_PinLockConfig
                0x0000000000000000       0x10 ./Peripheral/src/ch32v30x_gpio.o
 .text.GPIO_EventOutputConfig
                0x0000000000000000       0x18 ./Peripheral/src/ch32v30x_gpio.o
 .text.GPIO_EventOutputCmd
                0x0000000000000000       0x16 ./Peripheral/src/ch32v30x_gpio.o
 .text.GPIO_ETH_MediaInterfaceConfig
                0x0000000000000000       0x24 ./Peripheral/src/ch32v30x_gpio.o
 .text          0x0000000000000000        0x0 ./Peripheral/src/ch32v30x_i2c.o
 .data          0x0000000000000000        0x0 ./Peripheral/src/ch32v30x_i2c.o
 .bss           0x0000000000000000        0x0 ./Peripheral/src/ch32v30x_i2c.o
 .text.I2C_DeInit
                0x0000000000000000       0x4c ./Peripheral/src/ch32v30x_i2c.o
 .text.I2C_Init
                0x0000000000000000      0x100 ./Peripheral/src/ch32v30x_i2c.o
 .text.I2C_StructInit
                0x0000000000000000       0x18 ./Peripheral/src/ch32v30x_i2c.o
 .text.I2C_Cmd  0x0000000000000000       0x18 ./Peripheral/src/ch32v30x_i2c.o
 .text.I2C_DMACmd
                0x0000000000000000       0x1e ./Peripheral/src/ch32v30x_i2c.o
 .text.I2C_DMALastTransferCmd
                0x0000000000000000       0x16 ./Peripheral/src/ch32v30x_i2c.o
 .text.I2C_GenerateSTART
                0x0000000000000000       0x1a ./Peripheral/src/ch32v30x_i2c.o
 .text.I2C_GenerateSTOP
                0x0000000000000000       0x1a ./Peripheral/src/ch32v30x_i2c.o
 .text.I2C_AcknowledgeConfig
                0x0000000000000000       0x1a ./Peripheral/src/ch32v30x_i2c.o
 .text.I2C_OwnAddress2Config
                0x0000000000000000       0x14 ./Peripheral/src/ch32v30x_i2c.o
 .text.I2C_DualAddressCmd
                0x0000000000000000       0x18 ./Peripheral/src/ch32v30x_i2c.o
 .text.I2C_GeneralCallCmd
                0x0000000000000000       0x1a ./Peripheral/src/ch32v30x_i2c.o
 .text.I2C_ITConfig
                0x0000000000000000       0x12 ./Peripheral/src/ch32v30x_i2c.o
 .text.I2C_SendData
                0x0000000000000000        0x4 ./Peripheral/src/ch32v30x_i2c.o
 .text.I2C_ReceiveData
                0x0000000000000000        0x8 ./Peripheral/src/ch32v30x_i2c.o
 .text.I2C_Send7bitAddress
                0x0000000000000000       0x12 ./Peripheral/src/ch32v30x_i2c.o
 .text.I2C_ReadRegister
                0x0000000000000000       0x14 ./Peripheral/src/ch32v30x_i2c.o
 .text.I2C_SoftwareResetCmd
                0x0000000000000000       0x12 ./Peripheral/src/ch32v30x_i2c.o
 .text.I2C_NACKPositionConfig
                0x0000000000000000       0x22 ./Peripheral/src/ch32v30x_i2c.o
 .text.I2C_SMBusAlertConfig
                0x0000000000000000       0x1a ./Peripheral/src/ch32v30x_i2c.o
 .text.I2C_TransmitPEC
                0x0000000000000000       0x16 ./Peripheral/src/ch32v30x_i2c.o
 .text.I2C_PECPositionConfig
                0x0000000000000000       0x18 ./Peripheral/src/ch32v30x_i2c.o
 .text.I2C_CalculatePEC
                0x0000000000000000       0x1a ./Peripheral/src/ch32v30x_i2c.o
 .text.I2C_GetPEC
                0x0000000000000000        0x6 ./Peripheral/src/ch32v30x_i2c.o
 .text.I2C_ARPCmd
                0x0000000000000000       0x18 ./Peripheral/src/ch32v30x_i2c.o
 .text.I2C_StretchClockCmd
                0x0000000000000000       0x1a ./Peripheral/src/ch32v30x_i2c.o
 .text.I2C_FastModeDutyCycleConfig
                0x0000000000000000       0x1a ./Peripheral/src/ch32v30x_i2c.o
 .text.I2C_CheckEvent
                0x0000000000000000       0x16 ./Peripheral/src/ch32v30x_i2c.o
 .text.I2C_GetLastEvent
                0x0000000000000000        0xe ./Peripheral/src/ch32v30x_i2c.o
 .text.I2C_GetFlagStatus
                0x0000000000000000       0x32 ./Peripheral/src/ch32v30x_i2c.o
 .text.I2C_ClearFlag
                0x0000000000000000        0xc ./Peripheral/src/ch32v30x_i2c.o
 .text.I2C_GetITStatus
                0x0000000000000000       0x20 ./Peripheral/src/ch32v30x_i2c.o
 .text.I2C_ClearITPendingBit
                0x0000000000000000        0xc ./Peripheral/src/ch32v30x_i2c.o
 .debug_info    0x0000000000000000     0x1481 ./Peripheral/src/ch32v30x_i2c.o
 .debug_abbrev  0x0000000000000000      0x3a7 ./Peripheral/src/ch32v30x_i2c.o
 .debug_loc     0x0000000000000000      0x70d ./Peripheral/src/ch32v30x_i2c.o
 .debug_aranges
                0x0000000000000000      0x110 ./Peripheral/src/ch32v30x_i2c.o
 .debug_ranges  0x0000000000000000      0x100 ./Peripheral/src/ch32v30x_i2c.o
 .debug_line    0x0000000000000000     0x1159 ./Peripheral/src/ch32v30x_i2c.o
 .debug_str     0x0000000000000000      0xae6 ./Peripheral/src/ch32v30x_i2c.o
 .comment       0x0000000000000000       0x34 ./Peripheral/src/ch32v30x_i2c.o
 .debug_frame   0x0000000000000000      0x264 ./Peripheral/src/ch32v30x_i2c.o
 .text          0x0000000000000000        0x0 ./Peripheral/src/ch32v30x_iwdg.o
 .data          0x0000000000000000        0x0 ./Peripheral/src/ch32v30x_iwdg.o
 .bss           0x0000000000000000        0x0 ./Peripheral/src/ch32v30x_iwdg.o
 .text.IWDG_WriteAccessCmd
                0x0000000000000000        0x8 ./Peripheral/src/ch32v30x_iwdg.o
 .text.IWDG_SetPrescaler
                0x0000000000000000        0x8 ./Peripheral/src/ch32v30x_iwdg.o
 .text.IWDG_SetReload
                0x0000000000000000        0x8 ./Peripheral/src/ch32v30x_iwdg.o
 .text.IWDG_ReloadCounter
                0x0000000000000000        0xe ./Peripheral/src/ch32v30x_iwdg.o
 .text.IWDG_Enable
                0x0000000000000000        0xe ./Peripheral/src/ch32v30x_iwdg.o
 .text.IWDG_GetFlagStatus
                0x0000000000000000        0xe ./Peripheral/src/ch32v30x_iwdg.o
 .debug_info    0x0000000000000000      0xab4 ./Peripheral/src/ch32v30x_iwdg.o
 .debug_abbrev  0x0000000000000000      0x282 ./Peripheral/src/ch32v30x_iwdg.o
 .debug_loc     0x0000000000000000       0x68 ./Peripheral/src/ch32v30x_iwdg.o
 .debug_aranges
                0x0000000000000000       0x48 ./Peripheral/src/ch32v30x_iwdg.o
 .debug_ranges  0x0000000000000000       0x38 ./Peripheral/src/ch32v30x_iwdg.o
 .debug_line    0x0000000000000000      0x3cd ./Peripheral/src/ch32v30x_iwdg.o
 .debug_str     0x0000000000000000      0x6a5 ./Peripheral/src/ch32v30x_iwdg.o
 .comment       0x0000000000000000       0x34 ./Peripheral/src/ch32v30x_iwdg.o
 .debug_frame   0x0000000000000000       0x70 ./Peripheral/src/ch32v30x_iwdg.o
 .text          0x0000000000000000        0x0 ./Peripheral/src/ch32v30x_misc.o
 .data          0x0000000000000000        0x0 ./Peripheral/src/ch32v30x_misc.o
 .bss           0x0000000000000000        0x0 ./Peripheral/src/ch32v30x_misc.o
 .text          0x0000000000000000        0x0 ./Peripheral/src/ch32v30x_opa.o
 .data          0x0000000000000000        0x0 ./Peripheral/src/ch32v30x_opa.o
 .bss           0x0000000000000000        0x0 ./Peripheral/src/ch32v30x_opa.o
 .text.OPA_DeInit
                0x0000000000000000        0xa ./Peripheral/src/ch32v30x_opa.o
 .text.OPA_Init
                0x0000000000000000       0x36 ./Peripheral/src/ch32v30x_opa.o
 .text.OPA_StructInit
                0x0000000000000000       0x12 ./Peripheral/src/ch32v30x_opa.o
 .text.OPA_Cmd  0x0000000000000000       0x2c ./Peripheral/src/ch32v30x_opa.o
 .debug_info    0x0000000000000000      0xb28 ./Peripheral/src/ch32v30x_opa.o
 .debug_abbrev  0x0000000000000000      0x252 ./Peripheral/src/ch32v30x_opa.o
 .debug_loc     0x0000000000000000       0x56 ./Peripheral/src/ch32v30x_opa.o
 .debug_aranges
                0x0000000000000000       0x38 ./Peripheral/src/ch32v30x_opa.o
 .debug_ranges  0x0000000000000000       0x28 ./Peripheral/src/ch32v30x_opa.o
 .debug_line    0x0000000000000000      0x47a ./Peripheral/src/ch32v30x_opa.o
 .debug_str     0x0000000000000000      0x6c1 ./Peripheral/src/ch32v30x_opa.o
 .comment       0x0000000000000000       0x34 ./Peripheral/src/ch32v30x_opa.o
 .debug_frame   0x0000000000000000       0x50 ./Peripheral/src/ch32v30x_opa.o
 .text          0x0000000000000000        0x0 ./Peripheral/src/ch32v30x_pwr.o
 .data          0x0000000000000000        0x0 ./Peripheral/src/ch32v30x_pwr.o
 .bss           0x0000000000000000        0x0 ./Peripheral/src/ch32v30x_pwr.o
 .text.PWR_DeInit
                0x0000000000000000       0x2c ./Peripheral/src/ch32v30x_pwr.o
 .text.PWR_PVDCmd
                0x0000000000000000       0x14 ./Peripheral/src/ch32v30x_pwr.o
 .text.PWR_PVDLevelConfig
                0x0000000000000000       0x10 ./Peripheral/src/ch32v30x_pwr.o
 .text.PWR_WakeUpPinCmd
                0x0000000000000000       0x16 ./Peripheral/src/ch32v30x_pwr.o
 .text.PWR_EnterSTOPMode
                0x0000000000000000       0x68 ./Peripheral/src/ch32v30x_pwr.o
 .text.PWR_EnterSTANDBYMode
                0x0000000000000000       0x34 ./Peripheral/src/ch32v30x_pwr.o
 .text.PWR_GetFlagStatus
                0x0000000000000000        0xe ./Peripheral/src/ch32v30x_pwr.o
 .text.PWR_ClearFlag
                0x0000000000000000        0xe ./Peripheral/src/ch32v30x_pwr.o
 .text.PWR_EnterSTANDBYMode_RAM
                0x0000000000000000       0x30 ./Peripheral/src/ch32v30x_pwr.o
 .text.PWR_EnterSTANDBYMode_RAM_LV
                0x0000000000000000       0x30 ./Peripheral/src/ch32v30x_pwr.o
 .text.PWR_EnterSTANDBYMode_RAM_VBAT_EN
                0x0000000000000000       0x30 ./Peripheral/src/ch32v30x_pwr.o
 .text.PWR_EnterSTANDBYMode_RAM_LV_VBAT_EN
                0x0000000000000000       0x30 ./Peripheral/src/ch32v30x_pwr.o
 .text.PWR_EnterSTOPMode_RAM_LV
                0x0000000000000000       0x6e ./Peripheral/src/ch32v30x_pwr.o
 .text          0x0000000000000000        0x0 ./Peripheral/src/ch32v30x_rcc.o
 .data          0x0000000000000000        0x0 ./Peripheral/src/ch32v30x_rcc.o
 .bss           0x0000000000000000        0x0 ./Peripheral/src/ch32v30x_rcc.o
 .text.RCC_DeInit
                0x0000000000000000       0x52 ./Peripheral/src/ch32v30x_rcc.o
 .text.RCC_HSEConfig
                0x0000000000000000       0x3c ./Peripheral/src/ch32v30x_rcc.o
 .text.RCC_AdjustHSICalibrationValue
                0x0000000000000000       0x12 ./Peripheral/src/ch32v30x_rcc.o
 .text.RCC_HSICmd
                0x0000000000000000       0x14 ./Peripheral/src/ch32v30x_rcc.o
 .text.RCC_PLLConfig
                0x0000000000000000       0x2e ./Peripheral/src/ch32v30x_rcc.o
 .text.RCC_PLLCmd
                0x0000000000000000       0x24 ./Peripheral/src/ch32v30x_rcc.o
 .text.RCC_SYSCLKConfig
                0x0000000000000000        0xe ./Peripheral/src/ch32v30x_rcc.o
 .text.RCC_GetSYSCLKSource
                0x0000000000000000        0xa ./Peripheral/src/ch32v30x_rcc.o
 .text.RCC_HCLKConfig
                0x0000000000000000       0x10 ./Peripheral/src/ch32v30x_rcc.o
 .text.RCC_PCLK1Config
                0x0000000000000000       0x10 ./Peripheral/src/ch32v30x_rcc.o
 .text.RCC_PCLK2Config
                0x0000000000000000       0x16 ./Peripheral/src/ch32v30x_rcc.o
 .text.RCC_ITConfig
                0x0000000000000000       0x16 ./Peripheral/src/ch32v30x_rcc.o
 .text.RCC_LSICmd
                0x0000000000000000       0x14 ./Peripheral/src/ch32v30x_rcc.o
 .text.RCC_AHBPeriphClockCmd
                0x0000000000000000       0x1e ./Peripheral/src/ch32v30x_rcc.o
 .text.RCC_APB1PeriphResetCmd
                0x0000000000000000       0x1e ./Peripheral/src/ch32v30x_rcc.o
 .text.RCC_ClockSecuritySystemCmd
                0x0000000000000000       0x24 ./Peripheral/src/ch32v30x_rcc.o
 .text.RCC_MCOConfig
                0x0000000000000000        0x8 ./Peripheral/src/ch32v30x_rcc.o
 .text.RCC_WaitForHSEStartUp
                0x0000000000000000       0x42 ./Peripheral/src/ch32v30x_rcc.o
 .text.RCC_ClearFlag
                0x0000000000000000       0x12 ./Peripheral/src/ch32v30x_rcc.o
 .text.RCC_GetITStatus
                0x0000000000000000        0xe ./Peripheral/src/ch32v30x_rcc.o
 .text.RCC_ClearITPendingBit
                0x0000000000000000        0x8 ./Peripheral/src/ch32v30x_rcc.o
 .text.RCC_PREDIV1Config
                0x0000000000000000       0x14 ./Peripheral/src/ch32v30x_rcc.o
 .text.RCC_PREDIV2Config
                0x0000000000000000       0x10 ./Peripheral/src/ch32v30x_rcc.o
 .text.RCC_PLL2Config
                0x0000000000000000       0x14 ./Peripheral/src/ch32v30x_rcc.o
 .text.RCC_PLL2Cmd
                0x0000000000000000       0x24 ./Peripheral/src/ch32v30x_rcc.o
 .text.RCC_PLL3Config
                0x0000000000000000       0x12 ./Peripheral/src/ch32v30x_rcc.o
 .text.RCC_PLL3Cmd
                0x0000000000000000       0x24 ./Peripheral/src/ch32v30x_rcc.o
 .text.RCC_OTGFSCLKConfig
                0x0000000000000000       0x1a ./Peripheral/src/ch32v30x_rcc.o
 .text.RCC_I2S2CLKConfig
                0x0000000000000000       0x18 ./Peripheral/src/ch32v30x_rcc.o
 .text.RCC_I2S3CLKConfig
                0x0000000000000000       0x1a ./Peripheral/src/ch32v30x_rcc.o
 .text.RCC_AHBPeriphResetCmd
                0x0000000000000000       0x1e ./Peripheral/src/ch32v30x_rcc.o
 .text.RCC_ADCCLKADJcmd
                0x0000000000000000       0x18 ./Peripheral/src/ch32v30x_rcc.o
 .text.RCC_RNGCLKConfig
                0x0000000000000000       0x1a ./Peripheral/src/ch32v30x_rcc.o
 .text.RCC_ETH1GCLKConfig
                0x0000000000000000       0x1a ./Peripheral/src/ch32v30x_rcc.o
 .text.RCC_ETH1G_125Mcmd
                0x0000000000000000       0x24 ./Peripheral/src/ch32v30x_rcc.o
 .text.RCC_USBHSConfig
                0x0000000000000000       0x1a ./Peripheral/src/ch32v30x_rcc.o
 .text.RCC_USBHSPLLCLKConfig
                0x0000000000000000       0x1a ./Peripheral/src/ch32v30x_rcc.o
 .text.RCC_USBHSPLLCKREFCLKConfig
                0x0000000000000000       0x1a ./Peripheral/src/ch32v30x_rcc.o
 .text.RCC_USBHSPHYPLLALIVEcmd
                0x0000000000000000       0x24 ./Peripheral/src/ch32v30x_rcc.o
 .text.RCC_USBCLK48MConfig
                0x0000000000000000       0x16 ./Peripheral/src/ch32v30x_rcc.o
 .text          0x0000000000000000        0x0 ./Peripheral/src/ch32v30x_rng.o
 .data          0x0000000000000000        0x0 ./Peripheral/src/ch32v30x_rng.o
 .bss           0x0000000000000000        0x0 ./Peripheral/src/ch32v30x_rng.o
 .text.RNG_Cmd  0x0000000000000000       0x18 ./Peripheral/src/ch32v30x_rng.o
 .text.RNG_GetRandomNumber
                0x0000000000000000        0xa ./Peripheral/src/ch32v30x_rng.o
 .text.RNG_ITConfig
                0x0000000000000000       0x18 ./Peripheral/src/ch32v30x_rng.o
 .text.RNG_GetFlagStatus
                0x0000000000000000       0x12 ./Peripheral/src/ch32v30x_rng.o
 .text.RNG_ClearFlag
                0x0000000000000000       0x10 ./Peripheral/src/ch32v30x_rng.o
 .text.RNG_GetITStatus
                0x0000000000000000       0x18 ./Peripheral/src/ch32v30x_rng.o
 .text.RNG_ClearITPendingBit
                0x0000000000000000       0x12 ./Peripheral/src/ch32v30x_rng.o
 .debug_info    0x0000000000000000      0xb02 ./Peripheral/src/ch32v30x_rng.o
 .debug_abbrev  0x0000000000000000      0x2c8 ./Peripheral/src/ch32v30x_rng.o
 .debug_loc     0x0000000000000000       0xa8 ./Peripheral/src/ch32v30x_rng.o
 .debug_aranges
                0x0000000000000000       0x48 ./Peripheral/src/ch32v30x_rng.o
 .debug_ranges  0x0000000000000000       0x38 ./Peripheral/src/ch32v30x_rng.o
 .debug_line    0x0000000000000000      0x447 ./Peripheral/src/ch32v30x_rng.o
 .debug_str     0x0000000000000000      0x692 ./Peripheral/src/ch32v30x_rng.o
 .comment       0x0000000000000000       0x34 ./Peripheral/src/ch32v30x_rng.o
 .debug_frame   0x0000000000000000       0x8c ./Peripheral/src/ch32v30x_rng.o
 .text          0x0000000000000000        0x0 ./Peripheral/src/ch32v30x_rtc.o
 .data          0x0000000000000000        0x0 ./Peripheral/src/ch32v30x_rtc.o
 .bss           0x0000000000000000        0x0 ./Peripheral/src/ch32v30x_rtc.o
 .text.RTC_SetAlarm
                0x0000000000000000       0x3c ./Peripheral/src/ch32v30x_rtc.o
 .text.RTC_GetDivider
                0x0000000000000000       0x18 ./Peripheral/src/ch32v30x_rtc.o
 .text.RTC_GetFlagStatus
                0x0000000000000000       0x12 ./Peripheral/src/ch32v30x_rtc.o
 .text          0x0000000000000000        0x0 ./Peripheral/src/ch32v30x_sdio.o
 .data          0x0000000000000000        0x0 ./Peripheral/src/ch32v30x_sdio.o
 .bss           0x0000000000000000        0x0 ./Peripheral/src/ch32v30x_sdio.o
 .text.SDIO_DeInit
                0x0000000000000000       0x30 ./Peripheral/src/ch32v30x_sdio.o
 .text.SDIO_Init
                0x0000000000000000       0x2a ./Peripheral/src/ch32v30x_sdio.o
 .text.SDIO_StructInit
                0x0000000000000000       0x1a ./Peripheral/src/ch32v30x_sdio.o
 .text.SDIO_ClockCmd
                0x0000000000000000       0x16 ./Peripheral/src/ch32v30x_sdio.o
 .text.SDIO_SetPowerState
                0x0000000000000000       0x12 ./Peripheral/src/ch32v30x_sdio.o
 .text.SDIO_GetPowerState
                0x0000000000000000        0xa ./Peripheral/src/ch32v30x_sdio.o
 .text.SDIO_ITConfig
                0x0000000000000000       0x1e ./Peripheral/src/ch32v30x_sdio.o
 .text.SDIO_DMACmd
                0x0000000000000000       0x14 ./Peripheral/src/ch32v30x_sdio.o
 .text.SDIO_SendCommand
                0x0000000000000000       0x22 ./Peripheral/src/ch32v30x_sdio.o
 .text.SDIO_CmdStructInit
                0x0000000000000000       0x16 ./Peripheral/src/ch32v30x_sdio.o
 .text.SDIO_GetCommandResponse
                0x0000000000000000        0xc ./Peripheral/src/ch32v30x_sdio.o
 .text.SDIO_GetResponse
                0x0000000000000000       0x16 ./Peripheral/src/ch32v30x_sdio.o
 .text.SDIO_DataConfig
                0x0000000000000000       0x26 ./Peripheral/src/ch32v30x_sdio.o
 .text.SDIO_DataStructInit
                0x0000000000000000       0x1a ./Peripheral/src/ch32v30x_sdio.o
 .text.SDIO_GetDataCounter
                0x0000000000000000        0x8 ./Peripheral/src/ch32v30x_sdio.o
 .text.SDIO_ReadData
                0x0000000000000000        0xa ./Peripheral/src/ch32v30x_sdio.o
 .text.SDIO_WriteData
                0x0000000000000000        0xa ./Peripheral/src/ch32v30x_sdio.o
 .text.SDIO_GetFIFOCount
                0x0000000000000000        0x8 ./Peripheral/src/ch32v30x_sdio.o
 .text.SDIO_StartSDIOReadWait
                0x0000000000000000       0x16 ./Peripheral/src/ch32v30x_sdio.o
 .text.SDIO_StopSDIOReadWait
                0x0000000000000000       0x16 ./Peripheral/src/ch32v30x_sdio.o
 .text.SDIO_SetSDIOReadWaitMode
                0x0000000000000000       0x16 ./Peripheral/src/ch32v30x_sdio.o
 .text.SDIO_SetSDIOOperation
                0x0000000000000000       0x1e ./Peripheral/src/ch32v30x_sdio.o
 .text.SDIO_SendSDIOSuspendCmd
                0x0000000000000000       0x1e ./Peripheral/src/ch32v30x_sdio.o
 .text.SDIO_CommandCompletionCmd
                0x0000000000000000       0x20 ./Peripheral/src/ch32v30x_sdio.o
 .text.SDIO_CEATAITCmd
                0x0000000000000000       0x20 ./Peripheral/src/ch32v30x_sdio.o
 .text.SDIO_SendCEATACmd
                0x0000000000000000       0x20 ./Peripheral/src/ch32v30x_sdio.o
 .text.SDIO_GetFlagStatus
                0x0000000000000000        0xe ./Peripheral/src/ch32v30x_sdio.o
 .text.SDIO_ClearFlag
                0x0000000000000000        0x8 ./Peripheral/src/ch32v30x_sdio.o
 .text.SDIO_GetITStatus
                0x0000000000000000       0x18 ./Peripheral/src/ch32v30x_sdio.o
 .text.SDIO_ClearITPendingBit
                0x0000000000000000        0x8 ./Peripheral/src/ch32v30x_sdio.o
 .debug_info    0x0000000000000000     0x10d1 ./Peripheral/src/ch32v30x_sdio.o
 .debug_abbrev  0x0000000000000000      0x385 ./Peripheral/src/ch32v30x_sdio.o
 .debug_loc     0x0000000000000000      0x1bb ./Peripheral/src/ch32v30x_sdio.o
 .debug_aranges
                0x0000000000000000       0xf8 ./Peripheral/src/ch32v30x_sdio.o
 .debug_ranges  0x0000000000000000       0xe8 ./Peripheral/src/ch32v30x_sdio.o
 .debug_line    0x0000000000000000      0xcb7 ./Peripheral/src/ch32v30x_sdio.o
 .debug_str     0x0000000000000000      0xa64 ./Peripheral/src/ch32v30x_sdio.o
 .comment       0x0000000000000000       0x34 ./Peripheral/src/ch32v30x_sdio.o
 .debug_frame   0x0000000000000000      0x204 ./Peripheral/src/ch32v30x_sdio.o
 .text          0x0000000000000000        0x0 ./Peripheral/src/ch32v30x_spi.o
 .data          0x0000000000000000        0x0 ./Peripheral/src/ch32v30x_spi.o
 .bss           0x0000000000000000        0x0 ./Peripheral/src/ch32v30x_spi.o
 .text.SPI_I2S_DeInit
                0x0000000000000000       0x70 ./Peripheral/src/ch32v30x_spi.o
 .text.SPI_Init
                0x0000000000000000       0x3e ./Peripheral/src/ch32v30x_spi.o
 .text.I2S_Init
                0x0000000000000000       0xc6 ./Peripheral/src/ch32v30x_spi.o
 .text.SPI_StructInit
                0x0000000000000000       0x22 ./Peripheral/src/ch32v30x_spi.o
 .text.I2S_StructInit
                0x0000000000000000       0x12 ./Peripheral/src/ch32v30x_spi.o
 .text.SPI_Cmd  0x0000000000000000       0x1a ./Peripheral/src/ch32v30x_spi.o
 .text.I2S_Cmd  0x0000000000000000       0x1a ./Peripheral/src/ch32v30x_spi.o
 .text.SPI_I2S_ITConfig
                0x0000000000000000       0x1e ./Peripheral/src/ch32v30x_spi.o
 .text.SPI_I2S_DMACmd
                0x0000000000000000       0x12 ./Peripheral/src/ch32v30x_spi.o
 .text.SPI_I2S_SendData
                0x0000000000000000        0x4 ./Peripheral/src/ch32v30x_spi.o
 .text.SPI_I2S_ReceiveData
                0x0000000000000000        0x4 ./Peripheral/src/ch32v30x_spi.o
 .text.SPI_NSSInternalSoftwareConfig
                0x0000000000000000       0x24 ./Peripheral/src/ch32v30x_spi.o
 .text.SPI_SSOutputCmd
                0x0000000000000000       0x18 ./Peripheral/src/ch32v30x_spi.o
 .text.SPI_DataSizeConfig
                0x0000000000000000       0x14 ./Peripheral/src/ch32v30x_spi.o
 .text.SPI_TransmitCRC
                0x0000000000000000        0xa ./Peripheral/src/ch32v30x_spi.o
 .text.SPI_CalculateCRC
                0x0000000000000000       0x16 ./Peripheral/src/ch32v30x_spi.o
 .text.SPI_GetCRC
                0x0000000000000000       0x12 ./Peripheral/src/ch32v30x_spi.o
 .text.SPI_GetCRCPolynomial
                0x0000000000000000        0x4 ./Peripheral/src/ch32v30x_spi.o
 .text.SPI_BiDirectionalLineConfig
                0x0000000000000000       0x1a ./Peripheral/src/ch32v30x_spi.o
 .text.SPI_I2S_GetFlagStatus
                0x0000000000000000        0xa ./Peripheral/src/ch32v30x_spi.o
 .text.SPI_I2S_ClearFlag
                0x0000000000000000        0xc ./Peripheral/src/ch32v30x_spi.o
 .text.SPI_I2S_GetITStatus
                0x0000000000000000       0x28 ./Peripheral/src/ch32v30x_spi.o
 .text.SPI_I2S_ClearITPendingBit
                0x0000000000000000       0x14 ./Peripheral/src/ch32v30x_spi.o
 .debug_info    0x0000000000000000     0x12cd ./Peripheral/src/ch32v30x_spi.o
 .debug_abbrev  0x0000000000000000      0x312 ./Peripheral/src/ch32v30x_spi.o
 .debug_loc     0x0000000000000000      0x598 ./Peripheral/src/ch32v30x_spi.o
 .debug_aranges
                0x0000000000000000       0xd0 ./Peripheral/src/ch32v30x_spi.o
 .debug_ranges  0x0000000000000000       0xc0 ./Peripheral/src/ch32v30x_spi.o
 .debug_line    0x0000000000000000      0xd4c ./Peripheral/src/ch32v30x_spi.o
 .debug_str     0x0000000000000000      0xa95 ./Peripheral/src/ch32v30x_spi.o
 .comment       0x0000000000000000       0x34 ./Peripheral/src/ch32v30x_spi.o
 .debug_frame   0x0000000000000000      0x1a8 ./Peripheral/src/ch32v30x_spi.o
 .text          0x0000000000000000        0x0 ./Peripheral/src/ch32v30x_tim.o
 .data          0x0000000000000000        0x0 ./Peripheral/src/ch32v30x_tim.o
 .bss           0x0000000000000000        0x0 ./Peripheral/src/ch32v30x_tim.o
 .text.TI1_Config
                0x0000000000000000       0x82 ./Peripheral/src/ch32v30x_tim.o
 .text.TI2_Config
                0x0000000000000000       0x9a ./Peripheral/src/ch32v30x_tim.o
 .text.TIM_DeInit
                0x0000000000000000      0x138 ./Peripheral/src/ch32v30x_tim.o
 .text.TIM_OC1Init
                0x0000000000000000       0x82 ./Peripheral/src/ch32v30x_tim.o
 .text.TIM_OC3Init
                0x0000000000000000       0xac ./Peripheral/src/ch32v30x_tim.o
 .text.TIM_OC4Init
                0x0000000000000000       0x88 ./Peripheral/src/ch32v30x_tim.o
 .text.TIM_BDTRConfig
                0x0000000000000000       0x20 ./Peripheral/src/ch32v30x_tim.o
 .text.TIM_TimeBaseStructInit
                0x0000000000000000       0x16 ./Peripheral/src/ch32v30x_tim.o
 .text.TIM_OCStructInit
                0x0000000000000000       0x22 ./Peripheral/src/ch32v30x_tim.o
 .text.TIM_ICStructInit
                0x0000000000000000       0x16 ./Peripheral/src/ch32v30x_tim.o
 .text.TIM_BDTRStructInit
                0x0000000000000000       0x1e ./Peripheral/src/ch32v30x_tim.o
 .text.TIM_CtrlPWMOutputs
                0x0000000000000000       0x16 ./Peripheral/src/ch32v30x_tim.o
 .text.TIM_GenerateEvent
                0x0000000000000000        0x4 ./Peripheral/src/ch32v30x_tim.o
 .text.TIM_DMAConfig
                0x0000000000000000        0x8 ./Peripheral/src/ch32v30x_tim.o
 .text.TIM_DMACmd
                0x0000000000000000       0x18 ./Peripheral/src/ch32v30x_tim.o
 .text.TIM_InternalClockConfig
                0x0000000000000000       0x10 ./Peripheral/src/ch32v30x_tim.o
 .text.TIM_ITRxExternalClockConfig
                0x0000000000000000       0x18 ./Peripheral/src/ch32v30x_tim.o
 .text.TIM_TIxExternalClockConfig
                0x0000000000000000       0x48 ./Peripheral/src/ch32v30x_tim.o
 .text.TIM_ETRConfig
                0x0000000000000000       0x16 ./Peripheral/src/ch32v30x_tim.o
 .text.TIM_ETRClockMode1Config
                0x0000000000000000       0x2a ./Peripheral/src/ch32v30x_tim.o
 .text.TIM_ETRClockMode2Config
                0x0000000000000000       0x22 ./Peripheral/src/ch32v30x_tim.o
 .text.TIM_PrescalerConfig
                0x0000000000000000        0x6 ./Peripheral/src/ch32v30x_tim.o
 .text.TIM_CounterModeConfig
                0x0000000000000000       0x10 ./Peripheral/src/ch32v30x_tim.o
 .text.TIM_SelectInputTrigger
                0x0000000000000000       0x10 ./Peripheral/src/ch32v30x_tim.o
 .text.TIM_EncoderInterfaceConfig
                0x0000000000000000       0x3c ./Peripheral/src/ch32v30x_tim.o
 .text.TIM_ForcedOC1Config
                0x0000000000000000       0x10 ./Peripheral/src/ch32v30x_tim.o
 .text.TIM_ForcedOC2Config
                0x0000000000000000       0x14 ./Peripheral/src/ch32v30x_tim.o
 .text.TIM_ForcedOC3Config
                0x0000000000000000       0x10 ./Peripheral/src/ch32v30x_tim.o
 .text.TIM_ForcedOC4Config
                0x0000000000000000       0x14 ./Peripheral/src/ch32v30x_tim.o
 .text.TIM_ARRPreloadConfig
                0x0000000000000000       0x1a ./Peripheral/src/ch32v30x_tim.o
 .text.TIM_SelectCOM
                0x0000000000000000       0x18 ./Peripheral/src/ch32v30x_tim.o
 .text.TIM_SelectCCDMA
                0x0000000000000000       0x18 ./Peripheral/src/ch32v30x_tim.o
 .text.TIM_CCPreloadControl
                0x0000000000000000       0x18 ./Peripheral/src/ch32v30x_tim.o
 .text.TIM_OC1PreloadConfig
                0x0000000000000000        0xe ./Peripheral/src/ch32v30x_tim.o
 .text.TIM_OC3PreloadConfig
                0x0000000000000000        0xe ./Peripheral/src/ch32v30x_tim.o
 .text.TIM_OC4PreloadConfig
                0x0000000000000000       0x16 ./Peripheral/src/ch32v30x_tim.o
 .text.TIM_OC1FastConfig
                0x0000000000000000        0xe ./Peripheral/src/ch32v30x_tim.o
 .text.TIM_OC2FastConfig
                0x0000000000000000       0x16 ./Peripheral/src/ch32v30x_tim.o
 .text.TIM_OC3FastConfig
                0x0000000000000000        0xe ./Peripheral/src/ch32v30x_tim.o
 .text.TIM_OC4FastConfig
                0x0000000000000000       0x16 ./Peripheral/src/ch32v30x_tim.o
 .text.TIM_ClearOC1Ref
                0x0000000000000000       0x10 ./Peripheral/src/ch32v30x_tim.o
 .text.TIM_ClearOC2Ref
                0x0000000000000000       0x12 ./Peripheral/src/ch32v30x_tim.o
 .text.TIM_ClearOC3Ref
                0x0000000000000000       0x10 ./Peripheral/src/ch32v30x_tim.o
 .text.TIM_ClearOC4Ref
                0x0000000000000000       0x12 ./Peripheral/src/ch32v30x_tim.o
 .text.TIM_OC1PolarityConfig
                0x0000000000000000        0xe ./Peripheral/src/ch32v30x_tim.o
 .text.TIM_OC1NPolarityConfig
                0x0000000000000000        0xe ./Peripheral/src/ch32v30x_tim.o
 .text.TIM_OC2PolarityConfig
                0x0000000000000000       0x16 ./Peripheral/src/ch32v30x_tim.o
 .text.TIM_OC2NPolarityConfig
                0x0000000000000000       0x16 ./Peripheral/src/ch32v30x_tim.o
 .text.TIM_OC3PolarityConfig
                0x0000000000000000       0x16 ./Peripheral/src/ch32v30x_tim.o
 .text.TIM_OC3NPolarityConfig
                0x0000000000000000       0x16 ./Peripheral/src/ch32v30x_tim.o
 .text.TIM_OC4PolarityConfig
                0x0000000000000000       0x14 ./Peripheral/src/ch32v30x_tim.o
 .text.TIM_CCxCmd
                0x0000000000000000       0x20 ./Peripheral/src/ch32v30x_tim.o
 .text.TIM_CCxNCmd
                0x0000000000000000       0x20 ./Peripheral/src/ch32v30x_tim.o
 .text.TIM_SelectOCxM
                0x0000000000000000       0x4c ./Peripheral/src/ch32v30x_tim.o
 .text.TIM_UpdateDisableConfig
                0x0000000000000000       0x18 ./Peripheral/src/ch32v30x_tim.o
 .text.TIM_UpdateRequestConfig
                0x0000000000000000       0x18 ./Peripheral/src/ch32v30x_tim.o
 .text.TIM_SelectHallSensor
                0x0000000000000000       0x1a ./Peripheral/src/ch32v30x_tim.o
 .text.TIM_SelectOnePulseMode
                0x0000000000000000       0x16 ./Peripheral/src/ch32v30x_tim.o
 .text.TIM_SelectOutputTrigger
                0x0000000000000000       0x18 ./Peripheral/src/ch32v30x_tim.o
 .text.TIM_SelectSlaveMode
                0x0000000000000000       0x16 ./Peripheral/src/ch32v30x_tim.o
 .text.TIM_SelectMasterSlaveMode
                0x0000000000000000       0x18 ./Peripheral/src/ch32v30x_tim.o
 .text.TIM_SetAutoreload
                0x0000000000000000        0x4 ./Peripheral/src/ch32v30x_tim.o
 .text.TIM_SetCompare1
                0x0000000000000000        0x4 ./Peripheral/src/ch32v30x_tim.o
 .text.TIM_SetCompare3
                0x0000000000000000        0x4 ./Peripheral/src/ch32v30x_tim.o
 .text.TIM_SetCompare4
                0x0000000000000000        0x6 ./Peripheral/src/ch32v30x_tim.o
 .text.TIM_SetIC1Prescaler
                0x0000000000000000       0x16 ./Peripheral/src/ch32v30x_tim.o
 .text.TIM_SetIC2Prescaler
                0x0000000000000000       0x1a ./Peripheral/src/ch32v30x_tim.o
 .text.TIM_PWMIConfig
                0x0000000000000000       0x92 ./Peripheral/src/ch32v30x_tim.o
 .text.TIM_SetIC3Prescaler
                0x0000000000000000       0x16 ./Peripheral/src/ch32v30x_tim.o
 .text.TIM_SetIC4Prescaler
                0x0000000000000000       0x1a ./Peripheral/src/ch32v30x_tim.o
 .text.TIM_ICInit
                0x0000000000000000      0x1c0 ./Peripheral/src/ch32v30x_tim.o
 .text.TIM_SetClockDivision
                0x0000000000000000       0x18 ./Peripheral/src/ch32v30x_tim.o
 .text.TIM_GetCapture1
                0x0000000000000000        0x4 ./Peripheral/src/ch32v30x_tim.o
 .text.TIM_GetCapture2
                0x0000000000000000        0x4 ./Peripheral/src/ch32v30x_tim.o
 .text.TIM_GetCapture3
                0x0000000000000000        0x4 ./Peripheral/src/ch32v30x_tim.o
 .text.TIM_GetCapture4
                0x0000000000000000        0x6 ./Peripheral/src/ch32v30x_tim.o
 .text.TIM_GetPrescaler
                0x0000000000000000        0x4 ./Peripheral/src/ch32v30x_tim.o
 .text.TIM_GetFlagStatus
                0x0000000000000000        0xa ./Peripheral/src/ch32v30x_tim.o
 .text.TIM_ClearFlag
                0x0000000000000000        0xc ./Peripheral/src/ch32v30x_tim.o
 .text          0x0000000000000000        0x0 ./Peripheral/src/ch32v30x_usart.o
 .data          0x0000000000000000        0x0 ./Peripheral/src/ch32v30x_usart.o
 .bss           0x0000000000000000        0x0 ./Peripheral/src/ch32v30x_usart.o
 .text.USART_DeInit
                0x0000000000000000      0x112 ./Peripheral/src/ch32v30x_usart.o
 .text.USART_StructInit
                0x0000000000000000       0x18 ./Peripheral/src/ch32v30x_usart.o
 .text.USART_ClockInit
                0x0000000000000000       0x1e ./Peripheral/src/ch32v30x_usart.o
 .text.USART_ClockStructInit
                0x0000000000000000       0x12 ./Peripheral/src/ch32v30x_usart.o
 .text.USART_DMACmd
                0x0000000000000000       0x12 ./Peripheral/src/ch32v30x_usart.o
 .text.USART_SetAddress
                0x0000000000000000       0x16 ./Peripheral/src/ch32v30x_usart.o
 .text.USART_WakeUpConfig
                0x0000000000000000       0x14 ./Peripheral/src/ch32v30x_usart.o
 .text.USART_ReceiverWakeUpCmd
                0x0000000000000000       0x18 ./Peripheral/src/ch32v30x_usart.o
 .text.USART_LINBreakDetectLengthConfig
                0x0000000000000000       0x18 ./Peripheral/src/ch32v30x_usart.o
 .text.USART_LINCmd
                0x0000000000000000       0x16 ./Peripheral/src/ch32v30x_usart.o
 .text.USART_SendBreak
                0x0000000000000000        0xa ./Peripheral/src/ch32v30x_usart.o
 .text.USART_SetGuardTime
                0x0000000000000000       0x12 ./Peripheral/src/ch32v30x_usart.o
 .text.USART_SetPrescaler
                0x0000000000000000       0x18 ./Peripheral/src/ch32v30x_usart.o
 .text.USART_SmartCardCmd
                0x0000000000000000       0x1a ./Peripheral/src/ch32v30x_usart.o
 .text.USART_SmartCardNACKCmd
                0x0000000000000000       0x18 ./Peripheral/src/ch32v30x_usart.o
 .text.USART_HalfDuplexCmd
                0x0000000000000000       0x18 ./Peripheral/src/ch32v30x_usart.o
 .text.USART_OverSampling8Cmd
                0x0000000000000000       0x12 ./Peripheral/src/ch32v30x_usart.o
 .text.USART_OneBitMethodCmd
                0x0000000000000000       0x1e ./Peripheral/src/ch32v30x_usart.o
 .text.USART_IrDAConfig
                0x0000000000000000       0x16 ./Peripheral/src/ch32v30x_usart.o
 .text.USART_IrDACmd
                0x0000000000000000       0x18 ./Peripheral/src/ch32v30x_usart.o
 .text.USART_ClearFlag
                0x0000000000000000        0xc ./Peripheral/src/ch32v30x_usart.o
 .text.USART_ClearITPendingBit
                0x0000000000000000       0x14 ./Peripheral/src/ch32v30x_usart.o
 .text          0x0000000000000000        0x0 ./Peripheral/src/ch32v30x_wwdg.o
 .data          0x0000000000000000        0x0 ./Peripheral/src/ch32v30x_wwdg.o
 .bss           0x0000000000000000        0x0 ./Peripheral/src/ch32v30x_wwdg.o
 .text.WWDG_DeInit
                0x0000000000000000       0x2e ./Peripheral/src/ch32v30x_wwdg.o
 .text.WWDG_SetPrescaler
                0x0000000000000000       0x14 ./Peripheral/src/ch32v30x_wwdg.o
 .text.WWDG_SetWindowValue
                0x0000000000000000       0x26 ./Peripheral/src/ch32v30x_wwdg.o
 .text.WWDG_EnableIT
                0x0000000000000000       0x12 ./Peripheral/src/ch32v30x_wwdg.o
 .text.WWDG_SetCounter
                0x0000000000000000        0xe ./Peripheral/src/ch32v30x_wwdg.o
 .text.WWDG_Enable
                0x0000000000000000        0xe ./Peripheral/src/ch32v30x_wwdg.o
 .text.WWDG_GetFlagStatus
                0x0000000000000000        0xa ./Peripheral/src/ch32v30x_wwdg.o
 .text.WWDG_ClearFlag
                0x0000000000000000        0xa ./Peripheral/src/ch32v30x_wwdg.o
 .debug_info    0x0000000000000000      0xb28 ./Peripheral/src/ch32v30x_wwdg.o
 .debug_abbrev  0x0000000000000000      0x29d ./Peripheral/src/ch32v30x_wwdg.o
 .debug_loc     0x0000000000000000       0xae ./Peripheral/src/ch32v30x_wwdg.o
 .debug_aranges
                0x0000000000000000       0x58 ./Peripheral/src/ch32v30x_wwdg.o
 .debug_ranges  0x0000000000000000       0x48 ./Peripheral/src/ch32v30x_wwdg.o
 .debug_line    0x0000000000000000      0x4b5 ./Peripheral/src/ch32v30x_wwdg.o
 .debug_str     0x0000000000000000      0x6b8 ./Peripheral/src/ch32v30x_wwdg.o
 .comment       0x0000000000000000       0x34 ./Peripheral/src/ch32v30x_wwdg.o
 .debug_frame   0x0000000000000000       0xa4 ./Peripheral/src/ch32v30x_wwdg.o
 .text          0x0000000000000000        0x0 ./Debug/debug.o
 .data          0x0000000000000000        0x0 ./Debug/debug.o
 .bss           0x0000000000000000        0x0 ./Debug/debug.o
 .text._write   0x0000000000000000       0x4e ./Debug/debug.o
 .text          0x0000000000000000        0x0 ./Core/core_riscv.o
 .data          0x0000000000000000        0x0 ./Core/core_riscv.o
 .bss           0x0000000000000000        0x0 ./Core/core_riscv.o
 .text.__get_FFLAGS
                0x0000000000000000        0x6 ./Core/core_riscv.o
 .text.__set_FFLAGS
                0x0000000000000000        0x6 ./Core/core_riscv.o
 .text.__get_FRM
                0x0000000000000000        0x6 ./Core/core_riscv.o
 .text.__set_FRM
                0x0000000000000000        0x6 ./Core/core_riscv.o
 .text.__get_FCSR
                0x0000000000000000        0x6 ./Core/core_riscv.o
 .text.__set_FCSR
                0x0000000000000000        0x6 ./Core/core_riscv.o
 .text.__get_MSTATUS
                0x0000000000000000        0x6 ./Core/core_riscv.o
 .text.__set_MSTATUS
                0x0000000000000000        0x6 ./Core/core_riscv.o
 .text.__get_MISA
                0x0000000000000000        0x6 ./Core/core_riscv.o
 .text.__set_MISA
                0x0000000000000000        0x6 ./Core/core_riscv.o
 .text.__get_MTVEC
                0x0000000000000000        0x6 ./Core/core_riscv.o
 .text.__set_MTVEC
                0x0000000000000000        0x6 ./Core/core_riscv.o
 .text.__get_MSCRATCH
                0x0000000000000000        0x6 ./Core/core_riscv.o
 .text.__set_MSCRATCH
                0x0000000000000000        0x6 ./Core/core_riscv.o
 .text.__get_MEPC
                0x0000000000000000        0x6 ./Core/core_riscv.o
 .text.__set_MEPC
                0x0000000000000000        0x6 ./Core/core_riscv.o
 .text.__get_MCAUSE
                0x0000000000000000        0x6 ./Core/core_riscv.o
 .text.__set_MCAUSE
                0x0000000000000000        0x6 ./Core/core_riscv.o
 .text.__get_MTVAL
                0x0000000000000000        0x6 ./Core/core_riscv.o
 .text.__set_MTVAL
                0x0000000000000000        0x6 ./Core/core_riscv.o
 .text.__get_MVENDORID
                0x0000000000000000        0x6 ./Core/core_riscv.o
 .text.__get_MARCHID
                0x0000000000000000        0x6 ./Core/core_riscv.o
 .text.__get_MIMPID
                0x0000000000000000        0x6 ./Core/core_riscv.o
 .text.__get_MHARTID
                0x0000000000000000        0x6 ./Core/core_riscv.o
 .text.__get_SP
                0x0000000000000000        0x4 ./Core/core_riscv.o
 .debug_info    0x0000000000000000      0x46d ./Core/core_riscv.o
 .debug_abbrev  0x0000000000000000      0x10d ./Core/core_riscv.o
 .debug_aranges
                0x0000000000000000       0xe0 ./Core/core_riscv.o
 .debug_ranges  0x0000000000000000       0xd0 ./Core/core_riscv.o
 .debug_line    0x0000000000000000      0x542 ./Core/core_riscv.o
 .debug_str     0x0000000000000000      0x2e8 ./Core/core_riscv.o
 .comment       0x0000000000000000       0x34 ./Core/core_riscv.o
 .debug_frame   0x0000000000000000      0x1a0 ./Core/core_riscv.o
 .text          0x0000000000000000        0x0 c:/mounriver/mounriver_studio/toolchain/risc-v embedded gcc/bin/../lib/gcc/riscv-none-embed/8.2.0/rv32imacxw/ilp32\libgcc.a(ledf2.o)
 .data          0x0000000000000000        0x0 c:/mounriver/mounriver_studio/toolchain/risc-v embedded gcc/bin/../lib/gcc/riscv-none-embed/8.2.0/rv32imacxw/ilp32\libgcc.a(ledf2.o)
 .bss           0x0000000000000000        0x0 c:/mounriver/mounriver_studio/toolchain/risc-v embedded gcc/bin/../lib/gcc/riscv-none-embed/8.2.0/rv32imacxw/ilp32\libgcc.a(ledf2.o)
 .text          0x0000000000000000        0x0 c:/mounriver/mounriver_studio/toolchain/risc-v embedded gcc/bin/../lib/gcc/riscv-none-embed/8.2.0/rv32imacxw/ilp32\libgcc.a(muldf3.o)
 .data          0x0000000000000000        0x0 c:/mounriver/mounriver_studio/toolchain/risc-v embedded gcc/bin/../lib/gcc/riscv-none-embed/8.2.0/rv32imacxw/ilp32\libgcc.a(muldf3.o)
 .bss           0x0000000000000000        0x0 c:/mounriver/mounriver_studio/toolchain/risc-v embedded gcc/bin/../lib/gcc/riscv-none-embed/8.2.0/rv32imacxw/ilp32\libgcc.a(muldf3.o)
 .text          0x0000000000000000        0x0 c:/mounriver/mounriver_studio/toolchain/risc-v embedded gcc/bin/../lib/gcc/riscv-none-embed/8.2.0/rv32imacxw/ilp32\libgcc.a(subdf3.o)
 .data          0x0000000000000000        0x0 c:/mounriver/mounriver_studio/toolchain/risc-v embedded gcc/bin/../lib/gcc/riscv-none-embed/8.2.0/rv32imacxw/ilp32\libgcc.a(subdf3.o)
 .bss           0x0000000000000000        0x0 c:/mounriver/mounriver_studio/toolchain/risc-v embedded gcc/bin/../lib/gcc/riscv-none-embed/8.2.0/rv32imacxw/ilp32\libgcc.a(subdf3.o)
 .text          0x0000000000000000        0x0 c:/mounriver/mounriver_studio/toolchain/risc-v embedded gcc/bin/../lib/gcc/riscv-none-embed/8.2.0/rv32imacxw/ilp32\libgcc.a(floatsidf.o)
 .data          0x0000000000000000        0x0 c:/mounriver/mounriver_studio/toolchain/risc-v embedded gcc/bin/../lib/gcc/riscv-none-embed/8.2.0/rv32imacxw/ilp32\libgcc.a(floatsidf.o)
 .bss           0x0000000000000000        0x0 c:/mounriver/mounriver_studio/toolchain/risc-v embedded gcc/bin/../lib/gcc/riscv-none-embed/8.2.0/rv32imacxw/ilp32\libgcc.a(floatsidf.o)
 .text          0x0000000000000000        0x0 c:/mounriver/mounriver_studio/toolchain/risc-v embedded gcc/bin/../lib/gcc/riscv-none-embed/8.2.0/rv32imacxw/ilp32\libgcc.a(addsf3.o)
 .data          0x0000000000000000        0x0 c:/mounriver/mounriver_studio/toolchain/risc-v embedded gcc/bin/../lib/gcc/riscv-none-embed/8.2.0/rv32imacxw/ilp32\libgcc.a(addsf3.o)
 .bss           0x0000000000000000        0x0 c:/mounriver/mounriver_studio/toolchain/risc-v embedded gcc/bin/../lib/gcc/riscv-none-embed/8.2.0/rv32imacxw/ilp32\libgcc.a(addsf3.o)
 .text          0x0000000000000000        0x0 c:/mounriver/mounriver_studio/toolchain/risc-v embedded gcc/bin/../lib/gcc/riscv-none-embed/8.2.0/rv32imacxw/ilp32\libgcc.a(divsf3.o)
 .data          0x0000000000000000        0x0 c:/mounriver/mounriver_studio/toolchain/risc-v embedded gcc/bin/../lib/gcc/riscv-none-embed/8.2.0/rv32imacxw/ilp32\libgcc.a(divsf3.o)
 .bss           0x0000000000000000        0x0 c:/mounriver/mounriver_studio/toolchain/risc-v embedded gcc/bin/../lib/gcc/riscv-none-embed/8.2.0/rv32imacxw/ilp32\libgcc.a(divsf3.o)
 .text          0x0000000000000000        0x0 c:/mounriver/mounriver_studio/toolchain/risc-v embedded gcc/bin/../lib/gcc/riscv-none-embed/8.2.0/rv32imacxw/ilp32\libgcc.a(eqsf2.o)
 .data          0x0000000000000000        0x0 c:/mounriver/mounriver_studio/toolchain/risc-v embedded gcc/bin/../lib/gcc/riscv-none-embed/8.2.0/rv32imacxw/ilp32\libgcc.a(eqsf2.o)
 .bss           0x0000000000000000        0x0 c:/mounriver/mounriver_studio/toolchain/risc-v embedded gcc/bin/../lib/gcc/riscv-none-embed/8.2.0/rv32imacxw/ilp32\libgcc.a(eqsf2.o)
 .text          0x0000000000000000        0x0 c:/mounriver/mounriver_studio/toolchain/risc-v embedded gcc/bin/../lib/gcc/riscv-none-embed/8.2.0/rv32imacxw/ilp32\libgcc.a(gesf2.o)
 .data          0x0000000000000000        0x0 c:/mounriver/mounriver_studio/toolchain/risc-v embedded gcc/bin/../lib/gcc/riscv-none-embed/8.2.0/rv32imacxw/ilp32\libgcc.a(gesf2.o)
 .bss           0x0000000000000000        0x0 c:/mounriver/mounriver_studio/toolchain/risc-v embedded gcc/bin/../lib/gcc/riscv-none-embed/8.2.0/rv32imacxw/ilp32\libgcc.a(gesf2.o)
 .text          0x0000000000000000        0x0 c:/mounriver/mounriver_studio/toolchain/risc-v embedded gcc/bin/../lib/gcc/riscv-none-embed/8.2.0/rv32imacxw/ilp32\libgcc.a(lesf2.o)
 .data          0x0000000000000000        0x0 c:/mounriver/mounriver_studio/toolchain/risc-v embedded gcc/bin/../lib/gcc/riscv-none-embed/8.2.0/rv32imacxw/ilp32\libgcc.a(lesf2.o)
 .bss           0x0000000000000000        0x0 c:/mounriver/mounriver_studio/toolchain/risc-v embedded gcc/bin/../lib/gcc/riscv-none-embed/8.2.0/rv32imacxw/ilp32\libgcc.a(lesf2.o)
 .text          0x0000000000000000        0x0 c:/mounriver/mounriver_studio/toolchain/risc-v embedded gcc/bin/../lib/gcc/riscv-none-embed/8.2.0/rv32imacxw/ilp32\libgcc.a(mulsf3.o)
 .data          0x0000000000000000        0x0 c:/mounriver/mounriver_studio/toolchain/risc-v embedded gcc/bin/../lib/gcc/riscv-none-embed/8.2.0/rv32imacxw/ilp32\libgcc.a(mulsf3.o)
 .bss           0x0000000000000000        0x0 c:/mounriver/mounriver_studio/toolchain/risc-v embedded gcc/bin/../lib/gcc/riscv-none-embed/8.2.0/rv32imacxw/ilp32\libgcc.a(mulsf3.o)
 .text          0x0000000000000000        0x0 c:/mounriver/mounriver_studio/toolchain/risc-v embedded gcc/bin/../lib/gcc/riscv-none-embed/8.2.0/rv32imacxw/ilp32\libgcc.a(subsf3.o)
 .data          0x0000000000000000        0x0 c:/mounriver/mounriver_studio/toolchain/risc-v embedded gcc/bin/../lib/gcc/riscv-none-embed/8.2.0/rv32imacxw/ilp32\libgcc.a(subsf3.o)
 .bss           0x0000000000000000        0x0 c:/mounriver/mounriver_studio/toolchain/risc-v embedded gcc/bin/../lib/gcc/riscv-none-embed/8.2.0/rv32imacxw/ilp32\libgcc.a(subsf3.o)
 .text          0x0000000000000000        0x0 c:/mounriver/mounriver_studio/toolchain/risc-v embedded gcc/bin/../lib/gcc/riscv-none-embed/8.2.0/rv32imacxw/ilp32\libgcc.a(fixsfsi.o)
 .data          0x0000000000000000        0x0 c:/mounriver/mounriver_studio/toolchain/risc-v embedded gcc/bin/../lib/gcc/riscv-none-embed/8.2.0/rv32imacxw/ilp32\libgcc.a(fixsfsi.o)
 .bss           0x0000000000000000        0x0 c:/mounriver/mounriver_studio/toolchain/risc-v embedded gcc/bin/../lib/gcc/riscv-none-embed/8.2.0/rv32imacxw/ilp32\libgcc.a(fixsfsi.o)
 .text          0x0000000000000000        0x0 c:/mounriver/mounriver_studio/toolchain/risc-v embedded gcc/bin/../lib/gcc/riscv-none-embed/8.2.0/rv32imacxw/ilp32\libgcc.a(fixunssfsi.o)
 .data          0x0000000000000000        0x0 c:/mounriver/mounriver_studio/toolchain/risc-v embedded gcc/bin/../lib/gcc/riscv-none-embed/8.2.0/rv32imacxw/ilp32\libgcc.a(fixunssfsi.o)
 .bss           0x0000000000000000        0x0 c:/mounriver/mounriver_studio/toolchain/risc-v embedded gcc/bin/../lib/gcc/riscv-none-embed/8.2.0/rv32imacxw/ilp32\libgcc.a(fixunssfsi.o)
 .text          0x0000000000000000        0x0 c:/mounriver/mounriver_studio/toolchain/risc-v embedded gcc/bin/../lib/gcc/riscv-none-embed/8.2.0/rv32imacxw/ilp32\libgcc.a(floatsisf.o)
 .data          0x0000000000000000        0x0 c:/mounriver/mounriver_studio/toolchain/risc-v embedded gcc/bin/../lib/gcc/riscv-none-embed/8.2.0/rv32imacxw/ilp32\libgcc.a(floatsisf.o)
 .bss           0x0000000000000000        0x0 c:/mounriver/mounriver_studio/toolchain/risc-v embedded gcc/bin/../lib/gcc/riscv-none-embed/8.2.0/rv32imacxw/ilp32\libgcc.a(floatsisf.o)
 .text          0x0000000000000000        0x0 c:/mounriver/mounriver_studio/toolchain/risc-v embedded gcc/bin/../lib/gcc/riscv-none-embed/8.2.0/rv32imacxw/ilp32\libgcc.a(floatunsisf.o)
 .data          0x0000000000000000        0x0 c:/mounriver/mounriver_studio/toolchain/risc-v embedded gcc/bin/../lib/gcc/riscv-none-embed/8.2.0/rv32imacxw/ilp32\libgcc.a(floatunsisf.o)
 .bss           0x0000000000000000        0x0 c:/mounriver/mounriver_studio/toolchain/risc-v embedded gcc/bin/../lib/gcc/riscv-none-embed/8.2.0/rv32imacxw/ilp32\libgcc.a(floatunsisf.o)
 .text          0x0000000000000000        0x0 c:/mounriver/mounriver_studio/toolchain/risc-v embedded gcc/bin/../lib/gcc/riscv-none-embed/8.2.0/rv32imacxw/ilp32\libgcc.a(extendsfdf2.o)
 .data          0x0000000000000000        0x0 c:/mounriver/mounriver_studio/toolchain/risc-v embedded gcc/bin/../lib/gcc/riscv-none-embed/8.2.0/rv32imacxw/ilp32\libgcc.a(extendsfdf2.o)
 .bss           0x0000000000000000        0x0 c:/mounriver/mounriver_studio/toolchain/risc-v embedded gcc/bin/../lib/gcc/riscv-none-embed/8.2.0/rv32imacxw/ilp32\libgcc.a(extendsfdf2.o)
 .text          0x0000000000000000        0x0 c:/mounriver/mounriver_studio/toolchain/risc-v embedded gcc/bin/../lib/gcc/riscv-none-embed/8.2.0/rv32imacxw/ilp32\libgcc.a(truncdfsf2.o)
 .data          0x0000000000000000        0x0 c:/mounriver/mounriver_studio/toolchain/risc-v embedded gcc/bin/../lib/gcc/riscv-none-embed/8.2.0/rv32imacxw/ilp32\libgcc.a(truncdfsf2.o)
 .bss           0x0000000000000000        0x0 c:/mounriver/mounriver_studio/toolchain/risc-v embedded gcc/bin/../lib/gcc/riscv-none-embed/8.2.0/rv32imacxw/ilp32\libgcc.a(truncdfsf2.o)
 .data          0x0000000000000000        0x0 c:/mounriver/mounriver_studio/toolchain/risc-v embedded gcc/bin/../lib/gcc/riscv-none-embed/8.2.0/rv32imacxw/ilp32\libgcc.a(save-restore.o)
 .bss           0x0000000000000000        0x0 c:/mounriver/mounriver_studio/toolchain/risc-v embedded gcc/bin/../lib/gcc/riscv-none-embed/8.2.0/rv32imacxw/ilp32\libgcc.a(save-restore.o)
 .eh_frame      0x0000000000000000       0xf8 c:/mounriver/mounriver_studio/toolchain/risc-v embedded gcc/bin/../lib/gcc/riscv-none-embed/8.2.0/rv32imacxw/ilp32\libgcc.a(save-restore.o)
 .text          0x0000000000000000        0x0 c:/mounriver/mounriver_studio/toolchain/risc-v embedded gcc/bin/../lib/gcc/riscv-none-embed/8.2.0/rv32imacxw/ilp32\libgcc.a(_clzsi2.o)
 .data          0x0000000000000000        0x0 c:/mounriver/mounriver_studio/toolchain/risc-v embedded gcc/bin/../lib/gcc/riscv-none-embed/8.2.0/rv32imacxw/ilp32\libgcc.a(_clzsi2.o)
 .bss           0x0000000000000000        0x0 c:/mounriver/mounriver_studio/toolchain/risc-v embedded gcc/bin/../lib/gcc/riscv-none-embed/8.2.0/rv32imacxw/ilp32\libgcc.a(_clzsi2.o)
 .text          0x0000000000000000        0x0 c:/mounriver/mounriver_studio/toolchain/risc-v embedded gcc/bin/../lib/gcc/riscv-none-embed/8.2.0/rv32imacxw/ilp32\libgcc.a(_clz.o)
 .data          0x0000000000000000        0x0 c:/mounriver/mounriver_studio/toolchain/risc-v embedded gcc/bin/../lib/gcc/riscv-none-embed/8.2.0/rv32imacxw/ilp32\libgcc.a(_clz.o)
 .bss           0x0000000000000000        0x0 c:/mounriver/mounriver_studio/toolchain/risc-v embedded gcc/bin/../lib/gcc/riscv-none-embed/8.2.0/rv32imacxw/ilp32\libgcc.a(_clz.o)
 .data          0x0000000000000000        0x0 c:/mounriver/mounriver_studio/toolchain/risc-v embedded gcc/bin/../lib/gcc/riscv-none-embed/8.2.0/../../../../riscv-none-embed/lib/rv32imacxw/ilp32\libg_nano.a(lib_a-memset.o)
 .bss           0x0000000000000000        0x0 c:/mounriver/mounriver_studio/toolchain/risc-v embedded gcc/bin/../lib/gcc/riscv-none-embed/8.2.0/../../../../riscv-none-embed/lib/rv32imacxw/ilp32\libg_nano.a(lib_a-memset.o)
 .text          0x0000000000000000        0x0 c:/mounriver/mounriver_studio/toolchain/risc-v embedded gcc/bin/../lib/gcc/riscv-none-embed/8.2.0/../../../../riscv-none-embed/lib/rv32imacxw/ilp32\libg_nano.a(lib_a-nano-vfprintf_float.o)
 .data          0x0000000000000000        0x0 c:/mounriver/mounriver_studio/toolchain/risc-v embedded gcc/bin/../lib/gcc/riscv-none-embed/8.2.0/../../../../riscv-none-embed/lib/rv32imacxw/ilp32\libg_nano.a(lib_a-nano-vfprintf_float.o)
 .bss           0x0000000000000000        0x0 c:/mounriver/mounriver_studio/toolchain/risc-v embedded gcc/bin/../lib/gcc/riscv-none-embed/8.2.0/../../../../riscv-none-embed/lib/rv32imacxw/ilp32\libg_nano.a(lib_a-nano-vfprintf_float.o)
 .text          0x0000000000000000        0x0 c:/mounriver/mounriver_studio/toolchain/risc-v embedded gcc/bin/../lib/gcc/riscv-none-embed/8.2.0/../../../../riscv-none-embed/lib/rv32imacxw/ilp32\libg_nano.a(lib_a-nano-vfprintf_i.o)
 .data          0x0000000000000000        0x0 c:/mounriver/mounriver_studio/toolchain/risc-v embedded gcc/bin/../lib/gcc/riscv-none-embed/8.2.0/../../../../riscv-none-embed/lib/rv32imacxw/ilp32\libg_nano.a(lib_a-nano-vfprintf_i.o)
 .bss           0x0000000000000000        0x0 c:/mounriver/mounriver_studio/toolchain/risc-v embedded gcc/bin/../lib/gcc/riscv-none-embed/8.2.0/../../../../riscv-none-embed/lib/rv32imacxw/ilp32\libg_nano.a(lib_a-nano-vfprintf_i.o)
 .text          0x0000000000000000        0x0 c:/mounriver/mounriver_studio/toolchain/risc-v embedded gcc/bin/../lib/gcc/riscv-none-embed/8.2.0/../../../../riscv-none-embed/lib/rv32imacxw/ilp32\libg_nano.a(lib_a-nano-vfscanf_float.o)
 .data          0x0000000000000000        0x0 c:/mounriver/mounriver_studio/toolchain/risc-v embedded gcc/bin/../lib/gcc/riscv-none-embed/8.2.0/../../../../riscv-none-embed/lib/rv32imacxw/ilp32\libg_nano.a(lib_a-nano-vfscanf_float.o)
 .bss           0x0000000000000000        0x0 c:/mounriver/mounriver_studio/toolchain/risc-v embedded gcc/bin/../lib/gcc/riscv-none-embed/8.2.0/../../../../riscv-none-embed/lib/rv32imacxw/ilp32\libg_nano.a(lib_a-nano-vfscanf_float.o)
 .text          0x0000000000000000        0x0 c:/mounriver/mounriver_studio/toolchain/risc-v embedded gcc/bin/../lib/gcc/riscv-none-embed/8.2.0/../../../../riscv-none-embed/lib/rv32imacxw/ilp32\libg_nano.a(lib_a-sf_nan.o)
 .data          0x0000000000000000        0x0 c:/mounriver/mounriver_studio/toolchain/risc-v embedded gcc/bin/../lib/gcc/riscv-none-embed/8.2.0/../../../../riscv-none-embed/lib/rv32imacxw/ilp32\libg_nano.a(lib_a-sf_nan.o)
 .bss           0x0000000000000000        0x0 c:/mounriver/mounriver_studio/toolchain/risc-v embedded gcc/bin/../lib/gcc/riscv-none-embed/8.2.0/../../../../riscv-none-embed/lib/rv32imacxw/ilp32\libg_nano.a(lib_a-sf_nan.o)
 .text          0x0000000000000000        0x0 c:/mounriver/mounriver_studio/toolchain/risc-v embedded gcc/bin/../lib/gcc/riscv-none-embed/8.2.0/../../../../riscv-none-embed/lib/rv32imacxw/ilp32\libg_nano.a(lib_a-sprintf.o)
 .data          0x0000000000000000        0x0 c:/mounriver/mounriver_studio/toolchain/risc-v embedded gcc/bin/../lib/gcc/riscv-none-embed/8.2.0/../../../../riscv-none-embed/lib/rv32imacxw/ilp32\libg_nano.a(lib_a-sprintf.o)
 .bss           0x0000000000000000        0x0 c:/mounriver/mounriver_studio/toolchain/risc-v embedded gcc/bin/../lib/gcc/riscv-none-embed/8.2.0/../../../../riscv-none-embed/lib/rv32imacxw/ilp32\libg_nano.a(lib_a-sprintf.o)
 .text._sprintf_r
                0x0000000000000000       0x40 c:/mounriver/mounriver_studio/toolchain/risc-v embedded gcc/bin/../lib/gcc/riscv-none-embed/8.2.0/../../../../riscv-none-embed/lib/rv32imacxw/ilp32\libg_nano.a(lib_a-sprintf.o)
 .text          0x0000000000000000        0x0 c:/mounriver/mounriver_studio/toolchain/risc-v embedded gcc/bin/../lib/gcc/riscv-none-embed/8.2.0/../../../../riscv-none-embed/lib/rv32imacxw/ilp32\libg_nano.a(lib_a-strcpy.o)
 .data          0x0000000000000000        0x0 c:/mounriver/mounriver_studio/toolchain/risc-v embedded gcc/bin/../lib/gcc/riscv-none-embed/8.2.0/../../../../riscv-none-embed/lib/rv32imacxw/ilp32\libg_nano.a(lib_a-strcpy.o)
 .bss           0x0000000000000000        0x0 c:/mounriver/mounriver_studio/toolchain/risc-v embedded gcc/bin/../lib/gcc/riscv-none-embed/8.2.0/../../../../riscv-none-embed/lib/rv32imacxw/ilp32\libg_nano.a(lib_a-strcpy.o)
 .text          0x0000000000000000        0x0 c:/mounriver/mounriver_studio/toolchain/risc-v embedded gcc/bin/../lib/gcc/riscv-none-embed/8.2.0/../../../../riscv-none-embed/lib/rv32imacxw/ilp32\libg_nano.a(lib_a-strlen.o)
 .data          0x0000000000000000        0x0 c:/mounriver/mounriver_studio/toolchain/risc-v embedded gcc/bin/../lib/gcc/riscv-none-embed/8.2.0/../../../../riscv-none-embed/lib/rv32imacxw/ilp32\libg_nano.a(lib_a-strlen.o)
 .bss           0x0000000000000000        0x0 c:/mounriver/mounriver_studio/toolchain/risc-v embedded gcc/bin/../lib/gcc/riscv-none-embed/8.2.0/../../../../riscv-none-embed/lib/rv32imacxw/ilp32\libg_nano.a(lib_a-strlen.o)
 .text          0x0000000000000000        0x0 c:/mounriver/mounriver_studio/toolchain/risc-v embedded gcc/bin/../lib/gcc/riscv-none-embed/8.2.0/../../../../riscv-none-embed/lib/rv32imacxw/ilp32\libg_nano.a(lib_a-strtod.o)
 .data          0x0000000000000000        0x0 c:/mounriver/mounriver_studio/toolchain/risc-v embedded gcc/bin/../lib/gcc/riscv-none-embed/8.2.0/../../../../riscv-none-embed/lib/rv32imacxw/ilp32\libg_nano.a(lib_a-strtod.o)
 .bss           0x0000000000000000        0x0 c:/mounriver/mounriver_studio/toolchain/risc-v embedded gcc/bin/../lib/gcc/riscv-none-embed/8.2.0/../../../../riscv-none-embed/lib/rv32imacxw/ilp32\libg_nano.a(lib_a-strtod.o)
 .text.strtod_l
                0x0000000000000000       0x18 c:/mounriver/mounriver_studio/toolchain/risc-v embedded gcc/bin/../lib/gcc/riscv-none-embed/8.2.0/../../../../riscv-none-embed/lib/rv32imacxw/ilp32\libg_nano.a(lib_a-strtod.o)
 .text.strtod   0x0000000000000000       0x24 c:/mounriver/mounriver_studio/toolchain/risc-v embedded gcc/bin/../lib/gcc/riscv-none-embed/8.2.0/../../../../riscv-none-embed/lib/rv32imacxw/ilp32\libg_nano.a(lib_a-strtod.o)
 .text.strtof_l
                0x0000000000000000       0xfc c:/mounriver/mounriver_studio/toolchain/risc-v embedded gcc/bin/../lib/gcc/riscv-none-embed/8.2.0/../../../../riscv-none-embed/lib/rv32imacxw/ilp32\libg_nano.a(lib_a-strtod.o)
 .text.strtof   0x0000000000000000      0x108 c:/mounriver/mounriver_studio/toolchain/risc-v embedded gcc/bin/../lib/gcc/riscv-none-embed/8.2.0/../../../../riscv-none-embed/lib/rv32imacxw/ilp32\libg_nano.a(lib_a-strtod.o)
 .rodata.strtof_l.cst4
                0x0000000000000000        0x4 c:/mounriver/mounriver_studio/toolchain/risc-v embedded gcc/bin/../lib/gcc/riscv-none-embed/8.2.0/../../../../riscv-none-embed/lib/rv32imacxw/ilp32\libg_nano.a(lib_a-strtod.o)
 .rodata.strtof_l.cst8
                0x0000000000000000        0x8 c:/mounriver/mounriver_studio/toolchain/risc-v embedded gcc/bin/../lib/gcc/riscv-none-embed/8.2.0/../../../../riscv-none-embed/lib/rv32imacxw/ilp32\libg_nano.a(lib_a-strtod.o)
 .text          0x0000000000000000        0x0 c:/mounriver/mounriver_studio/toolchain/risc-v embedded gcc/bin/../lib/gcc/riscv-none-embed/8.2.0/../../../../riscv-none-embed/lib/rv32imacxw/ilp32\libg_nano.a(lib_a-strtol.o)
 .data          0x0000000000000000        0x0 c:/mounriver/mounriver_studio/toolchain/risc-v embedded gcc/bin/../lib/gcc/riscv-none-embed/8.2.0/../../../../riscv-none-embed/lib/rv32imacxw/ilp32\libg_nano.a(lib_a-strtol.o)
 .bss           0x0000000000000000        0x0 c:/mounriver/mounriver_studio/toolchain/risc-v embedded gcc/bin/../lib/gcc/riscv-none-embed/8.2.0/../../../../riscv-none-embed/lib/rv32imacxw/ilp32\libg_nano.a(lib_a-strtol.o)
 .text.strtol_l
                0x0000000000000000       0x1a c:/mounriver/mounriver_studio/toolchain/risc-v embedded gcc/bin/../lib/gcc/riscv-none-embed/8.2.0/../../../../riscv-none-embed/lib/rv32imacxw/ilp32\libg_nano.a(lib_a-strtol.o)
 .text.strtol   0x0000000000000000       0x26 c:/mounriver/mounriver_studio/toolchain/risc-v embedded gcc/bin/../lib/gcc/riscv-none-embed/8.2.0/../../../../riscv-none-embed/lib/rv32imacxw/ilp32\libg_nano.a(lib_a-strtol.o)
 .text          0x0000000000000000        0x0 c:/mounriver/mounriver_studio/toolchain/risc-v embedded gcc/bin/../lib/gcc/riscv-none-embed/8.2.0/../../../../riscv-none-embed/lib/rv32imacxw/ilp32\libg_nano.a(lib_a-dtoa.o)
 .data          0x0000000000000000        0x0 c:/mounriver/mounriver_studio/toolchain/risc-v embedded gcc/bin/../lib/gcc/riscv-none-embed/8.2.0/../../../../riscv-none-embed/lib/rv32imacxw/ilp32\libg_nano.a(lib_a-dtoa.o)
 .bss           0x0000000000000000        0x0 c:/mounriver/mounriver_studio/toolchain/risc-v embedded gcc/bin/../lib/gcc/riscv-none-embed/8.2.0/../../../../riscv-none-embed/lib/rv32imacxw/ilp32\libg_nano.a(lib_a-dtoa.o)
 .text          0x0000000000000000        0x0 c:/mounriver/mounriver_studio/toolchain/risc-v embedded gcc/bin/../lib/gcc/riscv-none-embed/8.2.0/../../../../riscv-none-embed/lib/rv32imacxw/ilp32\libg_nano.a(lib_a-gdtoa-gethex.o)
 .data          0x0000000000000000        0x0 c:/mounriver/mounriver_studio/toolchain/risc-v embedded gcc/bin/../lib/gcc/riscv-none-embed/8.2.0/../../../../riscv-none-embed/lib/rv32imacxw/ilp32\libg_nano.a(lib_a-gdtoa-gethex.o)
 .bss           0x0000000000000000        0x0 c:/mounriver/mounriver_studio/toolchain/risc-v embedded gcc/bin/../lib/gcc/riscv-none-embed/8.2.0/../../../../riscv-none-embed/lib/rv32imacxw/ilp32\libg_nano.a(lib_a-gdtoa-gethex.o)
 .text          0x0000000000000000        0x0 c:/mounriver/mounriver_studio/toolchain/risc-v embedded gcc/bin/../lib/gcc/riscv-none-embed/8.2.0/../../../../riscv-none-embed/lib/rv32imacxw/ilp32\libg_nano.a(lib_a-gdtoa-hexnan.o)
 .data          0x0000000000000000        0x0 c:/mounriver/mounriver_studio/toolchain/risc-v embedded gcc/bin/../lib/gcc/riscv-none-embed/8.2.0/../../../../riscv-none-embed/lib/rv32imacxw/ilp32\libg_nano.a(lib_a-gdtoa-hexnan.o)
 .bss           0x0000000000000000        0x0 c:/mounriver/mounriver_studio/toolchain/risc-v embedded gcc/bin/../lib/gcc/riscv-none-embed/8.2.0/../../../../riscv-none-embed/lib/rv32imacxw/ilp32\libg_nano.a(lib_a-gdtoa-hexnan.o)
 .text          0x0000000000000000        0x0 c:/mounriver/mounriver_studio/toolchain/risc-v embedded gcc/bin/../lib/gcc/riscv-none-embed/8.2.0/../../../../riscv-none-embed/lib/rv32imacxw/ilp32\libg_nano.a(lib_a-impure.o)
 .data          0x0000000000000000        0x0 c:/mounriver/mounriver_studio/toolchain/risc-v embedded gcc/bin/../lib/gcc/riscv-none-embed/8.2.0/../../../../riscv-none-embed/lib/rv32imacxw/ilp32\libg_nano.a(lib_a-impure.o)
 .bss           0x0000000000000000        0x0 c:/mounriver/mounriver_studio/toolchain/risc-v embedded gcc/bin/../lib/gcc/riscv-none-embed/8.2.0/../../../../riscv-none-embed/lib/rv32imacxw/ilp32\libg_nano.a(lib_a-impure.o)
 .sdata2._global_impure_ptr
                0x0000000000000000        0x4 c:/mounriver/mounriver_studio/toolchain/risc-v embedded gcc/bin/../lib/gcc/riscv-none-embed/8.2.0/../../../../riscv-none-embed/lib/rv32imacxw/ilp32\libg_nano.a(lib_a-impure.o)
 .text          0x0000000000000000        0x0 c:/mounriver/mounriver_studio/toolchain/risc-v embedded gcc/bin/../lib/gcc/riscv-none-embed/8.2.0/../../../../riscv-none-embed/lib/rv32imacxw/ilp32\libg_nano.a(lib_a-locale.o)
 .data          0x0000000000000000        0x0 c:/mounriver/mounriver_studio/toolchain/risc-v embedded gcc/bin/../lib/gcc/riscv-none-embed/8.2.0/../../../../riscv-none-embed/lib/rv32imacxw/ilp32\libg_nano.a(lib_a-locale.o)
 .bss           0x0000000000000000        0x0 c:/mounriver/mounriver_studio/toolchain/risc-v embedded gcc/bin/../lib/gcc/riscv-none-embed/8.2.0/../../../../riscv-none-embed/lib/rv32imacxw/ilp32\libg_nano.a(lib_a-locale.o)
 .text._setlocale_r
                0x0000000000000000       0x64 c:/mounriver/mounriver_studio/toolchain/risc-v embedded gcc/bin/../lib/gcc/riscv-none-embed/8.2.0/../../../../riscv-none-embed/lib/rv32imacxw/ilp32\libg_nano.a(lib_a-locale.o)
 .text.__locale_mb_cur_max
                0x0000000000000000       0x1c c:/mounriver/mounriver_studio/toolchain/risc-v embedded gcc/bin/../lib/gcc/riscv-none-embed/8.2.0/../../../../riscv-none-embed/lib/rv32imacxw/ilp32\libg_nano.a(lib_a-locale.o)
 .text.__locale_ctype_ptr
                0x0000000000000000       0x1c c:/mounriver/mounriver_studio/toolchain/risc-v embedded gcc/bin/../lib/gcc/riscv-none-embed/8.2.0/../../../../riscv-none-embed/lib/rv32imacxw/ilp32\libg_nano.a(lib_a-locale.o)
 .text.setlocale
                0x0000000000000000       0x16 c:/mounriver/mounriver_studio/toolchain/risc-v embedded gcc/bin/../lib/gcc/riscv-none-embed/8.2.0/../../../../riscv-none-embed/lib/rv32imacxw/ilp32\libg_nano.a(lib_a-locale.o)
 .sbss._PathLocale
                0x0000000000000000        0x4 c:/mounriver/mounriver_studio/toolchain/risc-v embedded gcc/bin/../lib/gcc/riscv-none-embed/8.2.0/../../../../riscv-none-embed/lib/rv32imacxw/ilp32\libg_nano.a(lib_a-locale.o)
 .text          0x0000000000000000        0x0 c:/mounriver/mounriver_studio/toolchain/risc-v embedded gcc/bin/../lib/gcc/riscv-none-embed/8.2.0/../../../../riscv-none-embed/lib/rv32imacxw/ilp32\libg_nano.a(lib_a-localeconv.o)
 .data          0x0000000000000000        0x0 c:/mounriver/mounriver_studio/toolchain/risc-v embedded gcc/bin/../lib/gcc/riscv-none-embed/8.2.0/../../../../riscv-none-embed/lib/rv32imacxw/ilp32\libg_nano.a(lib_a-localeconv.o)
 .bss           0x0000000000000000        0x0 c:/mounriver/mounriver_studio/toolchain/risc-v embedded gcc/bin/../lib/gcc/riscv-none-embed/8.2.0/../../../../riscv-none-embed/lib/rv32imacxw/ilp32\libg_nano.a(lib_a-localeconv.o)
 .text.localeconv
                0x0000000000000000       0x1c c:/mounriver/mounriver_studio/toolchain/risc-v embedded gcc/bin/../lib/gcc/riscv-none-embed/8.2.0/../../../../riscv-none-embed/lib/rv32imacxw/ilp32\libg_nano.a(lib_a-localeconv.o)
 .text          0x0000000000000000        0x0 c:/mounriver/mounriver_studio/toolchain/risc-v embedded gcc/bin/../lib/gcc/riscv-none-embed/8.2.0/../../../../riscv-none-embed/lib/rv32imacxw/ilp32\libg_nano.a(lib_a-malloc.o)
 .data          0x0000000000000000        0x0 c:/mounriver/mounriver_studio/toolchain/risc-v embedded gcc/bin/../lib/gcc/riscv-none-embed/8.2.0/../../../../riscv-none-embed/lib/rv32imacxw/ilp32\libg_nano.a(lib_a-malloc.o)
 .bss           0x0000000000000000        0x0 c:/mounriver/mounriver_studio/toolchain/risc-v embedded gcc/bin/../lib/gcc/riscv-none-embed/8.2.0/../../../../riscv-none-embed/lib/rv32imacxw/ilp32\libg_nano.a(lib_a-malloc.o)
 .text.free     0x0000000000000000       0x14 c:/mounriver/mounriver_studio/toolchain/risc-v embedded gcc/bin/../lib/gcc/riscv-none-embed/8.2.0/../../../../riscv-none-embed/lib/rv32imacxw/ilp32\libg_nano.a(lib_a-malloc.o)
 .text          0x0000000000000000        0x0 c:/mounriver/mounriver_studio/toolchain/risc-v embedded gcc/bin/../lib/gcc/riscv-none-embed/8.2.0/../../../../riscv-none-embed/lib/rv32imacxw/ilp32\libg_nano.a(lib_a-mbtowc_r.o)
 .data          0x0000000000000000        0x0 c:/mounriver/mounriver_studio/toolchain/risc-v embedded gcc/bin/../lib/gcc/riscv-none-embed/8.2.0/../../../../riscv-none-embed/lib/rv32imacxw/ilp32\libg_nano.a(lib_a-mbtowc_r.o)
 .bss           0x0000000000000000        0x0 c:/mounriver/mounriver_studio/toolchain/risc-v embedded gcc/bin/../lib/gcc/riscv-none-embed/8.2.0/../../../../riscv-none-embed/lib/rv32imacxw/ilp32\libg_nano.a(lib_a-mbtowc_r.o)
 .text._mbtowc_r
                0x0000000000000000       0x1c c:/mounriver/mounriver_studio/toolchain/risc-v embedded gcc/bin/../lib/gcc/riscv-none-embed/8.2.0/../../../../riscv-none-embed/lib/rv32imacxw/ilp32\libg_nano.a(lib_a-mbtowc_r.o)
 .text          0x0000000000000000        0x0 c:/mounriver/mounriver_studio/toolchain/risc-v embedded gcc/bin/../lib/gcc/riscv-none-embed/8.2.0/../../../../riscv-none-embed/lib/rv32imacxw/ilp32\libg_nano.a(lib_a-memchr.o)
 .data          0x0000000000000000        0x0 c:/mounriver/mounriver_studio/toolchain/risc-v embedded gcc/bin/../lib/gcc/riscv-none-embed/8.2.0/../../../../riscv-none-embed/lib/rv32imacxw/ilp32\libg_nano.a(lib_a-memchr.o)
 .bss           0x0000000000000000        0x0 c:/mounriver/mounriver_studio/toolchain/risc-v embedded gcc/bin/../lib/gcc/riscv-none-embed/8.2.0/../../../../riscv-none-embed/lib/rv32imacxw/ilp32\libg_nano.a(lib_a-memchr.o)
 .text          0x0000000000000000        0x0 c:/mounriver/mounriver_studio/toolchain/risc-v embedded gcc/bin/../lib/gcc/riscv-none-embed/8.2.0/../../../../riscv-none-embed/lib/rv32imacxw/ilp32\libg_nano.a(lib_a-memcpy.o)
 .data          0x0000000000000000        0x0 c:/mounriver/mounriver_studio/toolchain/risc-v embedded gcc/bin/../lib/gcc/riscv-none-embed/8.2.0/../../../../riscv-none-embed/lib/rv32imacxw/ilp32\libg_nano.a(lib_a-memcpy.o)
 .bss           0x0000000000000000        0x0 c:/mounriver/mounriver_studio/toolchain/risc-v embedded gcc/bin/../lib/gcc/riscv-none-embed/8.2.0/../../../../riscv-none-embed/lib/rv32imacxw/ilp32\libg_nano.a(lib_a-memcpy.o)
 .text          0x0000000000000000        0x0 c:/mounriver/mounriver_studio/toolchain/risc-v embedded gcc/bin/../lib/gcc/riscv-none-embed/8.2.0/../../../../riscv-none-embed/lib/rv32imacxw/ilp32\libg_nano.a(lib_a-mprec.o)
 .data          0x0000000000000000        0x0 c:/mounriver/mounriver_studio/toolchain/risc-v embedded gcc/bin/../lib/gcc/riscv-none-embed/8.2.0/../../../../riscv-none-embed/lib/rv32imacxw/ilp32\libg_nano.a(lib_a-mprec.o)
 .bss           0x0000000000000000        0x0 c:/mounriver/mounriver_studio/toolchain/risc-v embedded gcc/bin/../lib/gcc/riscv-none-embed/8.2.0/../../../../riscv-none-embed/lib/rv32imacxw/ilp32\libg_nano.a(lib_a-mprec.o)
 .text._mprec_log10
                0x0000000000000000       0x5e c:/mounriver/mounriver_studio/toolchain/risc-v embedded gcc/bin/../lib/gcc/riscv-none-embed/8.2.0/../../../../riscv-none-embed/lib/rv32imacxw/ilp32\libg_nano.a(lib_a-mprec.o)
 .rodata.__mprec_tinytens
                0x0000000000000000       0x28 c:/mounriver/mounriver_studio/toolchain/risc-v embedded gcc/bin/../lib/gcc/riscv-none-embed/8.2.0/../../../../riscv-none-embed/lib/rv32imacxw/ilp32\libg_nano.a(lib_a-mprec.o)
 .rodata._mprec_log10.cst8
                0x0000000000000000       0x10 c:/mounriver/mounriver_studio/toolchain/risc-v embedded gcc/bin/../lib/gcc/riscv-none-embed/8.2.0/../../../../riscv-none-embed/lib/rv32imacxw/ilp32\libg_nano.a(lib_a-mprec.o)
 .text          0x0000000000000000        0x0 c:/mounriver/mounriver_studio/toolchain/risc-v embedded gcc/bin/../lib/gcc/riscv-none-embed/8.2.0/../../../../riscv-none-embed/lib/rv32imacxw/ilp32\libg_nano.a(lib_a-nano-callocr.o)
 .data          0x0000000000000000        0x0 c:/mounriver/mounriver_studio/toolchain/risc-v embedded gcc/bin/../lib/gcc/riscv-none-embed/8.2.0/../../../../riscv-none-embed/lib/rv32imacxw/ilp32\libg_nano.a(lib_a-nano-callocr.o)
 .bss           0x0000000000000000        0x0 c:/mounriver/mounriver_studio/toolchain/risc-v embedded gcc/bin/../lib/gcc/riscv-none-embed/8.2.0/../../../../riscv-none-embed/lib/rv32imacxw/ilp32\libg_nano.a(lib_a-nano-callocr.o)
 .text          0x0000000000000000        0x0 c:/mounriver/mounriver_studio/toolchain/risc-v embedded gcc/bin/../lib/gcc/riscv-none-embed/8.2.0/../../../../riscv-none-embed/lib/rv32imacxw/ilp32\libg_nano.a(lib_a-nano-freer.o)
 .data          0x0000000000000000        0x0 c:/mounriver/mounriver_studio/toolchain/risc-v embedded gcc/bin/../lib/gcc/riscv-none-embed/8.2.0/../../../../riscv-none-embed/lib/rv32imacxw/ilp32\libg_nano.a(lib_a-nano-freer.o)
 .bss           0x0000000000000000        0x0 c:/mounriver/mounriver_studio/toolchain/risc-v embedded gcc/bin/../lib/gcc/riscv-none-embed/8.2.0/../../../../riscv-none-embed/lib/rv32imacxw/ilp32\libg_nano.a(lib_a-nano-freer.o)
 .text          0x0000000000000000        0x0 c:/mounriver/mounriver_studio/toolchain/risc-v embedded gcc/bin/../lib/gcc/riscv-none-embed/8.2.0/../../../../riscv-none-embed/lib/rv32imacxw/ilp32\libg_nano.a(lib_a-nano-mallocr.o)
 .data          0x0000000000000000        0x0 c:/mounriver/mounriver_studio/toolchain/risc-v embedded gcc/bin/../lib/gcc/riscv-none-embed/8.2.0/../../../../riscv-none-embed/lib/rv32imacxw/ilp32\libg_nano.a(lib_a-nano-mallocr.o)
 .bss           0x0000000000000000        0x0 c:/mounriver/mounriver_studio/toolchain/risc-v embedded gcc/bin/../lib/gcc/riscv-none-embed/8.2.0/../../../../riscv-none-embed/lib/rv32imacxw/ilp32\libg_nano.a(lib_a-nano-mallocr.o)
 .text          0x0000000000000000        0x0 c:/mounriver/mounriver_studio/toolchain/risc-v embedded gcc/bin/../lib/gcc/riscv-none-embed/8.2.0/../../../../riscv-none-embed/lib/rv32imacxw/ilp32\libg_nano.a(lib_a-nano-svfprintf.o)
 .data          0x0000000000000000        0x0 c:/mounriver/mounriver_studio/toolchain/risc-v embedded gcc/bin/../lib/gcc/riscv-none-embed/8.2.0/../../../../riscv-none-embed/lib/rv32imacxw/ilp32\libg_nano.a(lib_a-nano-svfprintf.o)
 .bss           0x0000000000000000        0x0 c:/mounriver/mounriver_studio/toolchain/risc-v embedded gcc/bin/../lib/gcc/riscv-none-embed/8.2.0/../../../../riscv-none-embed/lib/rv32imacxw/ilp32\libg_nano.a(lib_a-nano-svfprintf.o)
 .text.__ssprint_r
                0x0000000000000000      0x13e c:/mounriver/mounriver_studio/toolchain/risc-v embedded gcc/bin/../lib/gcc/riscv-none-embed/8.2.0/../../../../riscv-none-embed/lib/rv32imacxw/ilp32\libg_nano.a(lib_a-nano-svfprintf.o)
 .text          0x0000000000000000        0x0 c:/mounriver/mounriver_studio/toolchain/risc-v embedded gcc/bin/../lib/gcc/riscv-none-embed/8.2.0/../../../../riscv-none-embed/lib/rv32imacxw/ilp32\libg_nano.a(lib_a-sbrkr.o)
 .data          0x0000000000000000        0x0 c:/mounriver/mounriver_studio/toolchain/risc-v embedded gcc/bin/../lib/gcc/riscv-none-embed/8.2.0/../../../../riscv-none-embed/lib/rv32imacxw/ilp32\libg_nano.a(lib_a-sbrkr.o)
 .bss           0x0000000000000000        0x0 c:/mounriver/mounriver_studio/toolchain/risc-v embedded gcc/bin/../lib/gcc/riscv-none-embed/8.2.0/../../../../riscv-none-embed/lib/rv32imacxw/ilp32\libg_nano.a(lib_a-sbrkr.o)
 .text          0x0000000000000000      0x11a c:/mounriver/mounriver_studio/toolchain/risc-v embedded gcc/bin/../lib/gcc/riscv-none-embed/8.2.0/../../../../riscv-none-embed/lib/rv32imacxw/ilp32\libg_nano.a(lib_a-strcmp.o)
 .data          0x0000000000000000        0x0 c:/mounriver/mounriver_studio/toolchain/risc-v embedded gcc/bin/../lib/gcc/riscv-none-embed/8.2.0/../../../../riscv-none-embed/lib/rv32imacxw/ilp32\libg_nano.a(lib_a-strcmp.o)
 .bss           0x0000000000000000        0x0 c:/mounriver/mounriver_studio/toolchain/risc-v embedded gcc/bin/../lib/gcc/riscv-none-embed/8.2.0/../../../../riscv-none-embed/lib/rv32imacxw/ilp32\libg_nano.a(lib_a-strcmp.o)
 .text          0x0000000000000000        0x0 c:/mounriver/mounriver_studio/toolchain/risc-v embedded gcc/bin/../lib/gcc/riscv-none-embed/8.2.0/../../../../riscv-none-embed/lib/rv32imacxw/ilp32\libg_nano.a(lib_a-strncmp.o)
 .data          0x0000000000000000        0x0 c:/mounriver/mounriver_studio/toolchain/risc-v embedded gcc/bin/../lib/gcc/riscv-none-embed/8.2.0/../../../../riscv-none-embed/lib/rv32imacxw/ilp32\libg_nano.a(lib_a-strncmp.o)
 .bss           0x0000000000000000        0x0 c:/mounriver/mounriver_studio/toolchain/risc-v embedded gcc/bin/../lib/gcc/riscv-none-embed/8.2.0/../../../../riscv-none-embed/lib/rv32imacxw/ilp32\libg_nano.a(lib_a-strncmp.o)
 .text          0x0000000000000000        0x0 c:/mounriver/mounriver_studio/toolchain/risc-v embedded gcc/bin/../lib/gcc/riscv-none-embed/8.2.0/../../../../riscv-none-embed/lib/rv32imacxw/ilp32\libg_nano.a(lib_a-wctomb_r.o)
 .data          0x0000000000000000        0x0 c:/mounriver/mounriver_studio/toolchain/risc-v embedded gcc/bin/../lib/gcc/riscv-none-embed/8.2.0/../../../../riscv-none-embed/lib/rv32imacxw/ilp32\libg_nano.a(lib_a-wctomb_r.o)
 .bss           0x0000000000000000        0x0 c:/mounriver/mounriver_studio/toolchain/risc-v embedded gcc/bin/../lib/gcc/riscv-none-embed/8.2.0/../../../../riscv-none-embed/lib/rv32imacxw/ilp32\libg_nano.a(lib_a-wctomb_r.o)
 .text._wctomb_r
                0x0000000000000000       0x1c c:/mounriver/mounriver_studio/toolchain/risc-v embedded gcc/bin/../lib/gcc/riscv-none-embed/8.2.0/../../../../riscv-none-embed/lib/rv32imacxw/ilp32\libg_nano.a(lib_a-wctomb_r.o)
 .text          0x0000000000000000        0x0 c:/mounriver/mounriver_studio/toolchain/risc-v embedded gcc/bin/../lib/gcc/riscv-none-embed/8.2.0/../../../../riscv-none-embed/lib/rv32imacxw/ilp32\libg_nano.a(lib_a-ctype_.o)
 .data          0x0000000000000000        0x0 c:/mounriver/mounriver_studio/toolchain/risc-v embedded gcc/bin/../lib/gcc/riscv-none-embed/8.2.0/../../../../riscv-none-embed/lib/rv32imacxw/ilp32\libg_nano.a(lib_a-ctype_.o)
 .bss           0x0000000000000000        0x0 c:/mounriver/mounriver_studio/toolchain/risc-v embedded gcc/bin/../lib/gcc/riscv-none-embed/8.2.0/../../../../riscv-none-embed/lib/rv32imacxw/ilp32\libg_nano.a(lib_a-ctype_.o)
 .text          0x0000000000000000        0x0 c:/mounriver/mounriver_studio/toolchain/risc-v embedded gcc/bin/../lib/gcc/riscv-none-embed/8.2.0/../../../../riscv-none-embed/lib/rv32imacxw/ilp32\libg_nano.a(lib_a-memmove.o)
 .data          0x0000000000000000        0x0 c:/mounriver/mounriver_studio/toolchain/risc-v embedded gcc/bin/../lib/gcc/riscv-none-embed/8.2.0/../../../../riscv-none-embed/lib/rv32imacxw/ilp32\libg_nano.a(lib_a-memmove.o)
 .bss           0x0000000000000000        0x0 c:/mounriver/mounriver_studio/toolchain/risc-v embedded gcc/bin/../lib/gcc/riscv-none-embed/8.2.0/../../../../riscv-none-embed/lib/rv32imacxw/ilp32\libg_nano.a(lib_a-memmove.o)
 .text          0x0000000000000000        0x0 c:/mounriver/mounriver_studio/toolchain/risc-v embedded gcc/bin/../lib/gcc/riscv-none-embed/8.2.0/../../../../riscv-none-embed/lib/rv32imacxw/ilp32\libg_nano.a(lib_a-mlock.o)
 .data          0x0000000000000000        0x0 c:/mounriver/mounriver_studio/toolchain/risc-v embedded gcc/bin/../lib/gcc/riscv-none-embed/8.2.0/../../../../riscv-none-embed/lib/rv32imacxw/ilp32\libg_nano.a(lib_a-mlock.o)
 .bss           0x0000000000000000        0x0 c:/mounriver/mounriver_studio/toolchain/risc-v embedded gcc/bin/../lib/gcc/riscv-none-embed/8.2.0/../../../../riscv-none-embed/lib/rv32imacxw/ilp32\libg_nano.a(lib_a-mlock.o)
 .text          0x0000000000000000        0x0 c:/mounriver/mounriver_studio/toolchain/risc-v embedded gcc/bin/../lib/gcc/riscv-none-embed/8.2.0/../../../../riscv-none-embed/lib/rv32imacxw/ilp32\libg_nano.a(lib_a-nano-reallocr.o)
 .data          0x0000000000000000        0x0 c:/mounriver/mounriver_studio/toolchain/risc-v embedded gcc/bin/../lib/gcc/riscv-none-embed/8.2.0/../../../../riscv-none-embed/lib/rv32imacxw/ilp32\libg_nano.a(lib_a-nano-reallocr.o)
 .bss           0x0000000000000000        0x0 c:/mounriver/mounriver_studio/toolchain/risc-v embedded gcc/bin/../lib/gcc/riscv-none-embed/8.2.0/../../../../riscv-none-embed/lib/rv32imacxw/ilp32\libg_nano.a(lib_a-nano-reallocr.o)
 .text          0x0000000000000000        0x0 c:/mounriver/mounriver_studio/toolchain/risc-v embedded gcc/bin/../lib/gcc/riscv-none-embed/8.2.0/../../../../riscv-none-embed/lib/rv32imacxw/ilp32\libg_nano.a(lib_a-reent.o)
 .data          0x0000000000000000        0x0 c:/mounriver/mounriver_studio/toolchain/risc-v embedded gcc/bin/../lib/gcc/riscv-none-embed/8.2.0/../../../../riscv-none-embed/lib/rv32imacxw/ilp32\libg_nano.a(lib_a-reent.o)
 .bss           0x0000000000000000        0x0 c:/mounriver/mounriver_studio/toolchain/risc-v embedded gcc/bin/../lib/gcc/riscv-none-embed/8.2.0/../../../../riscv-none-embed/lib/rv32imacxw/ilp32\libg_nano.a(lib_a-reent.o)
 .text.cleanup_glue
                0x0000000000000000       0x2c c:/mounriver/mounriver_studio/toolchain/risc-v embedded gcc/bin/../lib/gcc/riscv-none-embed/8.2.0/../../../../riscv-none-embed/lib/rv32imacxw/ilp32\libg_nano.a(lib_a-reent.o)
 .text._reclaim_reent
                0x0000000000000000      0x10c c:/mounriver/mounriver_studio/toolchain/risc-v embedded gcc/bin/../lib/gcc/riscv-none-embed/8.2.0/../../../../riscv-none-embed/lib/rv32imacxw/ilp32\libg_nano.a(lib_a-reent.o)
 .text          0x0000000000000000        0x0 c:/mounriver/mounriver_studio/toolchain/risc-v embedded gcc/bin/../lib/gcc/riscv-none-embed/8.2.0/../../../../riscv-none-embed/lib/rv32imacxw/ilp32\libg_nano.a(lib_a-nano-msizer.o)
 .data          0x0000000000000000        0x0 c:/mounriver/mounriver_studio/toolchain/risc-v embedded gcc/bin/../lib/gcc/riscv-none-embed/8.2.0/../../../../riscv-none-embed/lib/rv32imacxw/ilp32\libg_nano.a(lib_a-nano-msizer.o)
 .bss           0x0000000000000000        0x0 c:/mounriver/mounriver_studio/toolchain/risc-v embedded gcc/bin/../lib/gcc/riscv-none-embed/8.2.0/../../../../riscv-none-embed/lib/rv32imacxw/ilp32\libg_nano.a(lib_a-nano-msizer.o)
 .text          0x0000000000000000        0x0 c:/mounriver/mounriver_studio/toolchain/risc-v embedded gcc/bin/../lib/gcc/riscv-none-embed/8.2.0/rv32imacxw/ilp32\libgcc.a(adddf3.o)
 .data          0x0000000000000000        0x0 c:/mounriver/mounriver_studio/toolchain/risc-v embedded gcc/bin/../lib/gcc/riscv-none-embed/8.2.0/rv32imacxw/ilp32\libgcc.a(adddf3.o)
 .bss           0x0000000000000000        0x0 c:/mounriver/mounriver_studio/toolchain/risc-v embedded gcc/bin/../lib/gcc/riscv-none-embed/8.2.0/rv32imacxw/ilp32\libgcc.a(adddf3.o)
 .text          0x0000000000000000        0x0 c:/mounriver/mounriver_studio/toolchain/risc-v embedded gcc/bin/../lib/gcc/riscv-none-embed/8.2.0/rv32imacxw/ilp32\libgcc.a(divdf3.o)
 .data          0x0000000000000000        0x0 c:/mounriver/mounriver_studio/toolchain/risc-v embedded gcc/bin/../lib/gcc/riscv-none-embed/8.2.0/rv32imacxw/ilp32\libgcc.a(divdf3.o)
 .bss           0x0000000000000000        0x0 c:/mounriver/mounriver_studio/toolchain/risc-v embedded gcc/bin/../lib/gcc/riscv-none-embed/8.2.0/rv32imacxw/ilp32\libgcc.a(divdf3.o)
 .text          0x0000000000000000        0x0 c:/mounriver/mounriver_studio/toolchain/risc-v embedded gcc/bin/../lib/gcc/riscv-none-embed/8.2.0/rv32imacxw/ilp32\libgcc.a(eqdf2.o)
 .data          0x0000000000000000        0x0 c:/mounriver/mounriver_studio/toolchain/risc-v embedded gcc/bin/../lib/gcc/riscv-none-embed/8.2.0/rv32imacxw/ilp32\libgcc.a(eqdf2.o)
 .bss           0x0000000000000000        0x0 c:/mounriver/mounriver_studio/toolchain/risc-v embedded gcc/bin/../lib/gcc/riscv-none-embed/8.2.0/rv32imacxw/ilp32\libgcc.a(eqdf2.o)
 .text          0x0000000000000000        0x0 c:/mounriver/mounriver_studio/toolchain/risc-v embedded gcc/bin/../lib/gcc/riscv-none-embed/8.2.0/rv32imacxw/ilp32\libgcc.a(gedf2.o)
 .data          0x0000000000000000        0x0 c:/mounriver/mounriver_studio/toolchain/risc-v embedded gcc/bin/../lib/gcc/riscv-none-embed/8.2.0/rv32imacxw/ilp32\libgcc.a(gedf2.o)
 .bss           0x0000000000000000        0x0 c:/mounriver/mounriver_studio/toolchain/risc-v embedded gcc/bin/../lib/gcc/riscv-none-embed/8.2.0/rv32imacxw/ilp32\libgcc.a(gedf2.o)
 .text          0x0000000000000000        0x0 c:/mounriver/mounriver_studio/toolchain/risc-v embedded gcc/bin/../lib/gcc/riscv-none-embed/8.2.0/rv32imacxw/ilp32\libgcc.a(unorddf2.o)
 .data          0x0000000000000000        0x0 c:/mounriver/mounriver_studio/toolchain/risc-v embedded gcc/bin/../lib/gcc/riscv-none-embed/8.2.0/rv32imacxw/ilp32\libgcc.a(unorddf2.o)
 .bss           0x0000000000000000        0x0 c:/mounriver/mounriver_studio/toolchain/risc-v embedded gcc/bin/../lib/gcc/riscv-none-embed/8.2.0/rv32imacxw/ilp32\libgcc.a(unorddf2.o)
 .text          0x0000000000000000        0x0 c:/mounriver/mounriver_studio/toolchain/risc-v embedded gcc/bin/../lib/gcc/riscv-none-embed/8.2.0/rv32imacxw/ilp32\libgcc.a(fixdfsi.o)
 .data          0x0000000000000000        0x0 c:/mounriver/mounriver_studio/toolchain/risc-v embedded gcc/bin/../lib/gcc/riscv-none-embed/8.2.0/rv32imacxw/ilp32\libgcc.a(fixdfsi.o)
 .bss           0x0000000000000000        0x0 c:/mounriver/mounriver_studio/toolchain/risc-v embedded gcc/bin/../lib/gcc/riscv-none-embed/8.2.0/rv32imacxw/ilp32\libgcc.a(fixdfsi.o)
 .text          0x0000000000000000        0x0 c:/mounriver/mounriver_studio/toolchain/risc-v embedded gcc/bin/../lib/gcc/riscv-none-embed/8.2.0/rv32imacxw/ilp32\libgcc.a(fixunsdfsi.o)
 .data          0x0000000000000000        0x0 c:/mounriver/mounriver_studio/toolchain/risc-v embedded gcc/bin/../lib/gcc/riscv-none-embed/8.2.0/rv32imacxw/ilp32\libgcc.a(fixunsdfsi.o)
 .bss           0x0000000000000000        0x0 c:/mounriver/mounriver_studio/toolchain/risc-v embedded gcc/bin/../lib/gcc/riscv-none-embed/8.2.0/rv32imacxw/ilp32\libgcc.a(fixunsdfsi.o)
 .text          0x0000000000000000        0x0 c:/mounriver/mounriver_studio/toolchain/risc-v embedded gcc/bin/../lib/gcc/riscv-none-embed/8.2.0/rv32imacxw/ilp32\libgcc.a(floatunsidf.o)
 .data          0x0000000000000000        0x0 c:/mounriver/mounriver_studio/toolchain/risc-v embedded gcc/bin/../lib/gcc/riscv-none-embed/8.2.0/rv32imacxw/ilp32\libgcc.a(floatunsidf.o)
 .bss           0x0000000000000000        0x0 c:/mounriver/mounriver_studio/toolchain/risc-v embedded gcc/bin/../lib/gcc/riscv-none-embed/8.2.0/rv32imacxw/ilp32\libgcc.a(floatunsidf.o)
 .text          0x0000000000000000        0x0 c:/mounriver/mounriver_studio/toolchain/risc-v embedded gcc/bin/../lib/gcc/riscv-none-embed/8.2.0/rv32imacxw/ilp32\libgcc.a(unordsf2.o)
 .data          0x0000000000000000        0x0 c:/mounriver/mounriver_studio/toolchain/risc-v embedded gcc/bin/../lib/gcc/riscv-none-embed/8.2.0/rv32imacxw/ilp32\libgcc.a(unordsf2.o)
 .bss           0x0000000000000000        0x0 c:/mounriver/mounriver_studio/toolchain/risc-v embedded gcc/bin/../lib/gcc/riscv-none-embed/8.2.0/rv32imacxw/ilp32\libgcc.a(unordsf2.o)
 .text.__unordsf2
                0x0000000000000000       0x3c c:/mounriver/mounriver_studio/toolchain/risc-v embedded gcc/bin/../lib/gcc/riscv-none-embed/8.2.0/rv32imacxw/ilp32\libgcc.a(unordsf2.o)
 .debug_frame   0x0000000000000000       0x20 c:/mounriver/mounriver_studio/toolchain/risc-v embedded gcc/bin/../lib/gcc/riscv-none-embed/8.2.0/rv32imacxw/ilp32\libgcc.a(unordsf2.o)
 .text          0x0000000000000000        0x0 c:/mounriver/mounriver_studio/toolchain/risc-v embedded gcc/bin/../lib/gcc/riscv-none-embed/8.2.0/rv32imacxw/ilp32\libgcc.a(extenddftf2.o)
 .data          0x0000000000000000        0x0 c:/mounriver/mounriver_studio/toolchain/risc-v embedded gcc/bin/../lib/gcc/riscv-none-embed/8.2.0/rv32imacxw/ilp32\libgcc.a(extenddftf2.o)
 .bss           0x0000000000000000        0x0 c:/mounriver/mounriver_studio/toolchain/risc-v embedded gcc/bin/../lib/gcc/riscv-none-embed/8.2.0/rv32imacxw/ilp32\libgcc.a(extenddftf2.o)
 .text          0x0000000000000000        0x0 c:/mounriver/mounriver_studio/toolchain/risc-v embedded gcc/bin/../lib/gcc/riscv-none-embed/8.2.0/rv32imacxw/ilp32\libgcc.a(trunctfdf2.o)
 .data          0x0000000000000000        0x0 c:/mounriver/mounriver_studio/toolchain/risc-v embedded gcc/bin/../lib/gcc/riscv-none-embed/8.2.0/rv32imacxw/ilp32\libgcc.a(trunctfdf2.o)
 .bss           0x0000000000000000        0x0 c:/mounriver/mounriver_studio/toolchain/risc-v embedded gcc/bin/../lib/gcc/riscv-none-embed/8.2.0/rv32imacxw/ilp32\libgcc.a(trunctfdf2.o)

Memory Configuration

Name             Origin             Length             Attributes
FLASH            0x0000000000000000 0x0000000000048000 xr
RAM              0x0000000020000000 0x0000000000008000 xrw
*default*        0x0000000000000000 0xffffffffffffffff

Linker script and memory map

LOAD ./hardware/USART3/USART3.o
LOAD ./hardware/USART2/USART2.o
LOAD ./hardware/UART_show/uartshow.o
LOAD ./hardware/UART4/UART4.o
LOAD ./hardware/Speed/speed.o
LOAD ./hardware/RTC/RTC.o
LOAD ./hardware/KEY_Pwm/key_pwm.o
LOAD ./hardware/HC-SR04/HC-SR04.o
LOAD ./hardware/DHT11/dht11.o
LOAD ./hardware/ADC_SMOKE/ADC.o
LOAD ./User/ch32v30x_it.o
LOAD ./User/main.o
LOAD ./User/system_ch32v30x.o
LOAD ./Startup/startup_ch32v30x_D8C.o
LOAD ./Peripheral/src/ch32v30x_adc.o
LOAD ./Peripheral/src/ch32v30x_bkp.o
LOAD ./Peripheral/src/ch32v30x_can.o
LOAD ./Peripheral/src/ch32v30x_crc.o
LOAD ./Peripheral/src/ch32v30x_dac.o
LOAD ./Peripheral/src/ch32v30x_dbgmcu.o
LOAD ./Peripheral/src/ch32v30x_dma.o
LOAD ./Peripheral/src/ch32v30x_dvp.o
LOAD ./Peripheral/src/ch32v30x_eth.o
LOAD ./Peripheral/src/ch32v30x_exti.o
LOAD ./Peripheral/src/ch32v30x_flash.o
LOAD ./Peripheral/src/ch32v30x_fsmc.o
LOAD ./Peripheral/src/ch32v30x_gpio.o
LOAD ./Peripheral/src/ch32v30x_i2c.o
LOAD ./Peripheral/src/ch32v30x_iwdg.o
LOAD ./Peripheral/src/ch32v30x_misc.o
LOAD ./Peripheral/src/ch32v30x_opa.o
LOAD ./Peripheral/src/ch32v30x_pwr.o
LOAD ./Peripheral/src/ch32v30x_rcc.o
LOAD ./Peripheral/src/ch32v30x_rng.o
LOAD ./Peripheral/src/ch32v30x_rtc.o
LOAD ./Peripheral/src/ch32v30x_sdio.o
LOAD ./Peripheral/src/ch32v30x_spi.o
LOAD ./Peripheral/src/ch32v30x_tim.o
LOAD ./Peripheral/src/ch32v30x_usart.o
LOAD ./Peripheral/src/ch32v30x_wwdg.o
LOAD ./Debug/debug.o
LOAD ./Core/core_riscv.o
LOAD c:/mounriver/mounriver_studio/toolchain/risc-v embedded gcc/bin/../lib/gcc/riscv-none-embed/8.2.0/../../../../riscv-none-embed/lib/rv32imacxw/ilp32\libm.a
LOAD c:/mounriver/mounriver_studio/toolchain/risc-v embedded gcc/bin/../lib/gcc/riscv-none-embed/8.2.0/rv32imacxw/ilp32\libgcc.a
LOAD c:/mounriver/mounriver_studio/toolchain/risc-v embedded gcc/bin/../lib/gcc/riscv-none-embed/8.2.0/../../../../riscv-none-embed/lib/rv32imacxw/ilp32\libg_nano.a
LOAD c:/mounriver/mounriver_studio/toolchain/risc-v embedded gcc/bin/../lib/gcc/riscv-none-embed/8.2.0/../../../../riscv-none-embed/lib/rv32imacxw/ilp32\libc_nano.a
LOAD c:/mounriver/mounriver_studio/toolchain/risc-v embedded gcc/bin/../lib/gcc/riscv-none-embed/8.2.0/rv32imacxw/ilp32\libgcc.a
START GROUP
LOAD c:/mounriver/mounriver_studio/toolchain/risc-v embedded gcc/bin/../lib/gcc/riscv-none-embed/8.2.0/rv32imacxw/ilp32\libgcc.a
LOAD c:/mounriver/mounriver_studio/toolchain/risc-v embedded gcc/bin/../lib/gcc/riscv-none-embed/8.2.0/../../../../riscv-none-embed/lib/rv32imacxw/ilp32\libc_nano.a
LOAD c:/mounriver/mounriver_studio/toolchain/risc-v embedded gcc/bin/../lib/gcc/riscv-none-embed/8.2.0/../../../../riscv-none-embed/lib/rv32imacxw/ilp32\libnosys.a
END GROUP
START GROUP
LOAD c:/mounriver/mounriver_studio/toolchain/risc-v embedded gcc/bin/../lib/gcc/riscv-none-embed/8.2.0/rv32imacxw/ilp32\libgcc.a
LOAD c:/mounriver/mounriver_studio/toolchain/risc-v embedded gcc/bin/../lib/gcc/riscv-none-embed/8.2.0/../../../../riscv-none-embed/lib/rv32imacxw/ilp32\libc_nano.a
LOAD c:/mounriver/mounriver_studio/toolchain/risc-v embedded gcc/bin/../lib/gcc/riscv-none-embed/8.2.0/../../../../riscv-none-embed/lib/rv32imacxw/ilp32\libnosys.a
END GROUP
                0x0000000000000800                __stack_size = 0x800
                [!provide]                        PROVIDE (_stack_size = __stack_size)

.init           0x0000000000000000       0x38
                0x0000000000000000                _sinit = .
                0x0000000000000000                . = ALIGN (0x4)
 *(SORT_NONE(.init))
 .init          0x0000000000000000       0x38 ./Startup/startup_ch32v30x_D8C.o
                0x0000000000000000                _start
                0x0000000000000038                . = ALIGN (0x4)
                0x0000000000000038                _einit = .

.vector         0x0000000000000038      0x1c8
 *(.vector)
 .vector        0x0000000000000038      0x1a0 ./Startup/startup_ch32v30x_D8C.o
                0x0000000000000200                . = ALIGN (0x40)
 *fill*         0x00000000000001d8       0x28 

.text           0x0000000000000200     0xac1c
                0x0000000000000200                . = ALIGN (0x4)
 *(.text)
 .text          0x0000000000000200       0x60 c:/mounriver/mounriver_studio/toolchain/risc-v embedded gcc/bin/../lib/gcc/riscv-none-embed/8.2.0/rv32imacxw/ilp32\libgcc.a(save-restore.o)
                0x0000000000000200                __riscv_save_12
                0x0000000000000208                __riscv_save_9
                0x0000000000000208                __riscv_save_11
                0x0000000000000208                __riscv_save_10
                0x0000000000000208                __riscv_save_8
                0x0000000000000216                __riscv_save_4
                0x0000000000000216                __riscv_save_6
                0x0000000000000216                __riscv_save_5
                0x0000000000000216                __riscv_save_7
                0x0000000000000230                __riscv_save_3
                0x0000000000000230                __riscv_save_2
                0x0000000000000230                __riscv_save_1
                0x0000000000000230                __riscv_save_0
                0x000000000000023c                __riscv_restore_12
                0x0000000000000240                __riscv_restore_11
                0x0000000000000240                __riscv_restore_9
                0x0000000000000240                __riscv_restore_10
                0x0000000000000240                __riscv_restore_8
                0x000000000000024a                __riscv_restore_5
                0x000000000000024a                __riscv_restore_7
                0x000000000000024a                __riscv_restore_6
                0x000000000000024a                __riscv_restore_4
                0x0000000000000254                __riscv_restore_3
                0x0000000000000254                __riscv_restore_0
                0x0000000000000254                __riscv_restore_2
                0x0000000000000254                __riscv_restore_1
 .text          0x0000000000000260       0xa8 c:/mounriver/mounriver_studio/toolchain/risc-v embedded gcc/bin/../lib/gcc/riscv-none-embed/8.2.0/../../../../riscv-none-embed/lib/rv32imacxw/ilp32\libg_nano.a(lib_a-memset.o)
                0x0000000000000260                memset
 *(.text.*)
 .text.uart3_init
                0x0000000000000308       0x96 ./hardware/USART3/USART3.o
                0x0000000000000308                uart3_init
 .text.USART3_IRQHandler
                0x000000000000039e       0x58 ./hardware/USART3/USART3.o
                0x000000000000039e                USART3_IRQHandler
 .text.HMISends
                0x00000000000003f6       0x3a ./hardware/USART3/USART3.o
                0x00000000000003f6                HMISends
 .text.HMISendb
                0x0000000000000430       0x3a ./hardware/USART3/USART3.o
                0x0000000000000430                HMISendb
 .text.uart2_init
                0x000000000000046a       0x90 ./hardware/USART2/USART2.o
                0x000000000000046a                uart2_init
 .text.USART2_IRQHandler
                0x00000000000004fa       0xbe ./hardware/USART2/USART2.o
                0x00000000000004fa                USART2_IRQHandler
 .text.Show_Time
                0x00000000000005b8       0xc0 ./hardware/UART_show/uartshow.o
                0x00000000000005b8                Show_Time
 .text.Show_Alcohol_Normal
                0x0000000000000678       0x3e ./hardware/UART_show/uartshow.o
                0x0000000000000678                Show_Alcohol_Normal
 .text.Show_Alcohol_Abnormal
                0x00000000000006b6       0x3e ./hardware/UART_show/uartshow.o
                0x00000000000006b6                Show_Alcohol_Abnormal
 .text.Show_Speed
                0x00000000000006f4       0xe6 ./hardware/UART_show/uartshow.o
                0x00000000000006f4                Show_Speed
 .text.Show_Speed_Error
                0x00000000000007da       0x26 ./hardware/UART_show/uartshow.o
                0x00000000000007da                Show_Speed_Error
 .text.Show_Temp_Humi
                0x0000000000000800       0xd0 ./hardware/UART_show/uartshow.o
                0x0000000000000800                Show_Temp_Humi
 .text.Show_Temp_Humi_High
                0x00000000000008d0       0x24 ./hardware/UART_show/uartshow.o
                0x00000000000008d0                Show_Temp_Humi_High
 .text.Fatigue_show
                0x00000000000008f4       0x4a ./hardware/UART_show/uartshow.o
                0x00000000000008f4                Fatigue_show
 .text.Call_show
                0x000000000000093e       0x54 ./hardware/UART_show/uartshow.o
                0x000000000000093e                Call_show
 .text.Smoking_show
                0x0000000000000992       0x50 ./hardware/UART_show/uartshow.o
                0x0000000000000992                Smoking_show
 .text.Overtimedriver_show
                0x00000000000009e2       0x2c ./hardware/UART_show/uartshow.o
                0x00000000000009e2                Overtimedriver_show
 .text.Driver_show
                0x0000000000000a0e       0xe0 ./hardware/UART_show/uartshow.o
                0x0000000000000a0e                Driver_show
 .text.GradeA_show
                0x0000000000000aee       0x28 ./hardware/UART_show/uartshow.o
                0x0000000000000aee                GradeA_show
 .text.GradeB_show
                0x0000000000000b16       0x28 ./hardware/UART_show/uartshow.o
                0x0000000000000b16                GradeB_show
 .text.GradeC_show
                0x0000000000000b3e       0x28 ./hardware/UART_show/uartshow.o
                0x0000000000000b3e                GradeC_show
 .text.Hundred_show
                0x0000000000000b66       0x2c ./hardware/UART_show/uartshow.o
                0x0000000000000b66                Hundred_show
 .text.Ten_show
                0x0000000000000b92       0x2c ./hardware/UART_show/uartshow.o
                0x0000000000000b92                Ten_show
 .text.One_show
                0x0000000000000bbe       0x2c ./hardware/UART_show/uartshow.o
                0x0000000000000bbe                One_show
 .text.uart4_Init
                0x0000000000000bea       0x94 ./hardware/UART4/UART4.o
                0x0000000000000bea                uart4_Init
 .text.MOTOR_Init
                0x0000000000000c7e       0x42 ./hardware/Speed/speed.o
                0x0000000000000c7e                MOTOR_Init
 .text.TIM3_PWM_Init
                0x0000000000000cc0       0x96 ./hardware/Speed/speed.o
                0x0000000000000cc0                TIM3_PWM_Init
 .text.TIM2_inIt
                0x0000000000000d56       0x54 ./hardware/Speed/speed.o
                0x0000000000000d56                TIM2_inIt
 .text.GD_inIt  0x0000000000000daa       0x38 ./hardware/Speed/speed.o
                0x0000000000000daa                GD_inIt
 .text.TIM2_IRQHandler
                0x0000000000000de2       0xbe ./hardware/Speed/speed.o
                0x0000000000000de2                TIM2_IRQHandler
 .text.CountSensor_Get
                0x0000000000000ea0       0x20 ./hardware/Speed/speed.o
                0x0000000000000ea0                CountSensor_Get
 .text.NVIC_Configuration
                0x0000000000000ec0       0x24 ./hardware/RTC/RTC.o
                0x0000000000000ec0                NVIC_Configuration
 .text.RCC_Configuration
                0x0000000000000ee4       0x5a ./hardware/RTC/RTC.o
                0x0000000000000ee4                RCC_Configuration
 .text.Is_Leap_Year
                0x0000000000000f3e       0x26 ./hardware/RTC/RTC.o
                0x0000000000000f3e                Is_Leap_Year
 .text.RTC_Get_Week
                0x0000000000000f64       0x4e ./hardware/RTC/RTC.o
                0x0000000000000f64                RTC_Get_Week
 .text.RTC_Get  0x0000000000000fb2       0xf2 ./hardware/RTC/RTC.o
                0x0000000000000fb2                RTC_Get
 .text.RTC_Set  0x00000000000010a4       0xcc ./hardware/RTC/RTC.o
                0x00000000000010a4                RTC_Set
 .text.RTC_Init
                0x0000000000001170       0x4c ./hardware/RTC/RTC.o
                0x0000000000001170                RTC_Init
 .text.RTC_IRQHandler
                0x00000000000011bc       0x28 ./hardware/RTC/RTC.o
                0x00000000000011bc                RTC_IRQHandler
 .text.KEY_Init
                0x00000000000011e4       0xd2 ./hardware/KEY_Pwm/key_pwm.o
                0x00000000000011e4                KEY_Init
 .text.EXTI1_IRQHandler
                0x00000000000012b6       0x34 ./hardware/KEY_Pwm/key_pwm.o
                0x00000000000012b6                EXTI1_IRQHandler
 .text.EXTI2_IRQHandler
                0x00000000000012ea       0x32 ./hardware/KEY_Pwm/key_pwm.o
                0x00000000000012ea                EXTI2_IRQHandler
 .text.EXTI3_IRQHandler
                0x000000000000131c       0x48 ./hardware/KEY_Pwm/key_pwm.o
                0x000000000000131c                EXTI3_IRQHandler
 .text.EXTI4_IRQHandler
                0x0000000000001364       0x46 ./hardware/KEY_Pwm/key_pwm.o
                0x0000000000001364                EXTI4_IRQHandler
 .text.Hcsr04_Init
                0x00000000000013aa       0xb2 ./hardware/HC-SR04/HC-SR04.o
                0x00000000000013aa                Hcsr04_Init
 .text.OpenTimer
                0x000000000000145c       0x24 ./hardware/HC-SR04/HC-SR04.o
                0x000000000000145c                OpenTimer
 .text.CloseTimer
                0x0000000000001480       0x16 ./hardware/HC-SR04/HC-SR04.o
                0x0000000000001480                CloseTimer
 .text.TIM4_IRQHandler
                0x0000000000001496       0x30 ./hardware/HC-SR04/HC-SR04.o
                0x0000000000001496                TIM4_IRQHandler
 .text.GetEchoTimer
                0x00000000000014c6       0x34 ./hardware/HC-SR04/HC-SR04.o
                0x00000000000014c6                GetEchoTimer
 .text.Hcsr04GetLength
                0x00000000000014fa       0x7a ./hardware/HC-SR04/HC-SR04.o
                0x00000000000014fa                Hcsr04GetLength
 .text.DHT11_Rst
                0x0000000000001574       0x4a ./hardware/DHT11/dht11.o
                0x0000000000001574                DHT11_Rst
 .text.DHT11_Check
                0x00000000000015be       0x96 ./hardware/DHT11/dht11.o
                0x00000000000015be                DHT11_Check
 .text.DHT11_Read_Bit
                0x0000000000001654       0x7e ./hardware/DHT11/dht11.o
                0x0000000000001654                DHT11_Read_Bit
 .text.DHT11_Read_Byte
                0x00000000000016d2       0x24 ./hardware/DHT11/dht11.o
                0x00000000000016d2                DHT11_Read_Byte
 .text.DHT11_Read_Data
                0x00000000000016f6       0x50 ./hardware/DHT11/dht11.o
                0x00000000000016f6                DHT11_Read_Data
 .text.DHT11_Init
                0x0000000000001746       0x48 ./hardware/DHT11/dht11.o
                0x0000000000001746                DHT11_Init
 .text.Adc_Init
                0x000000000000178e       0xca ./hardware/ADC_SMOKE/ADC.o
                0x000000000000178e                Adc_Init
 .text.Get_Adc  0x0000000000001858       0x3a ./hardware/ADC_SMOKE/ADC.o
                0x0000000000001858                Get_Adc
 .text.Get_Adc_Average
                0x0000000000001892       0x38 ./hardware/ADC_SMOKE/ADC.o
                0x0000000000001892                Get_Adc_Average
 .text.NMI_Handler
                0x00000000000018ca        0x4 ./User/ch32v30x_it.o
                0x00000000000018ca                NMI_Handler
 .text.HardFault_Handler
                0x00000000000018ce        0x2 ./User/ch32v30x_it.o
                0x00000000000018ce                HardFault_Handler
 .text.startup.main
                0x00000000000018d0      0x580 ./User/main.o
                0x00000000000018d0                main
 .text.SystemInit
                0x0000000000001e50       0xfa ./User/system_ch32v30x.o
                0x0000000000001e50                SystemInit
 .text.SystemCoreClockUpdate
                0x0000000000001f4a       0xba ./User/system_ch32v30x.o
                0x0000000000001f4a                SystemCoreClockUpdate
 .text.vector_handler
                0x0000000000002004       0xbe ./Startup/startup_ch32v30x_D8C.o
                0x0000000000002008                Ecall_M_Mode_Handler
                0x000000000000200a                Ecall_U_Mode_Handler
                0x000000000000200c                Break_Point_Handler
                0x000000000000200e                SysTick_Handler
                0x0000000000002010                SW_Handler
                0x0000000000002012                WWDG_IRQHandler
                0x0000000000002014                PVD_IRQHandler
                0x0000000000002016                TAMPER_IRQHandler
                0x000000000000201a                FLASH_IRQHandler
                0x000000000000201c                RCC_IRQHandler
                0x000000000000201e                EXTI0_IRQHandler
                0x0000000000002028                DMA1_Channel1_IRQHandler
                0x000000000000202a                DMA1_Channel2_IRQHandler
                0x000000000000202c                DMA1_Channel3_IRQHandler
                0x000000000000202e                DMA1_Channel4_IRQHandler
                0x0000000000002030                DMA1_Channel5_IRQHandler
                0x0000000000002032                DMA1_Channel6_IRQHandler
                0x0000000000002034                DMA1_Channel7_IRQHandler
                0x0000000000002036                ADC1_2_IRQHandler
                0x0000000000002038                USB_HP_CAN1_TX_IRQHandler
                0x000000000000203a                USB_LP_CAN1_RX0_IRQHandler
                0x000000000000203c                CAN1_RX1_IRQHandler
                0x000000000000203e                CAN1_SCE_IRQHandler
                0x0000000000002040                EXTI9_5_IRQHandler
                0x0000000000002042                TIM1_BRK_IRQHandler
                0x0000000000002044                TIM1_UP_IRQHandler
                0x0000000000002046                TIM1_TRG_COM_IRQHandler
                0x0000000000002048                TIM1_CC_IRQHandler
                0x000000000000204c                TIM3_IRQHandler
                0x0000000000002050                I2C1_EV_IRQHandler
                0x0000000000002052                I2C1_ER_IRQHandler
                0x0000000000002054                I2C2_EV_IRQHandler
                0x0000000000002056                I2C2_ER_IRQHandler
                0x0000000000002058                SPI1_IRQHandler
                0x000000000000205a                SPI2_IRQHandler
                0x000000000000205c                USART1_IRQHandler
                0x0000000000002062                EXTI15_10_IRQHandler
                0x0000000000002064                RTCAlarm_IRQHandler
                0x0000000000002066                USBWakeUp_IRQHandler
                0x0000000000002068                TIM8_BRK_IRQHandler
                0x000000000000206a                TIM8_UP_IRQHandler
                0x000000000000206c                TIM8_TRG_COM_IRQHandler
                0x000000000000206e                TIM8_CC_IRQHandler
                0x0000000000002070                RNG_IRQHandler
                0x0000000000002072                FSMC_IRQHandler
                0x0000000000002074                SDIO_IRQHandler
                0x0000000000002076                TIM5_IRQHandler
                0x0000000000002078                SPI3_IRQHandler
                0x000000000000207a                UART4_IRQHandler
                0x000000000000207c                UART5_IRQHandler
                0x000000000000207e                TIM6_IRQHandler
                0x0000000000002080                TIM7_IRQHandler
                0x0000000000002082                DMA2_Channel1_IRQHandler
                0x0000000000002084                DMA2_Channel2_IRQHandler
                0x0000000000002086                DMA2_Channel3_IRQHandler
                0x0000000000002088                DMA2_Channel4_IRQHandler
                0x000000000000208a                DMA2_Channel5_IRQHandler
                0x000000000000208c                ETH_IRQHandler
                0x000000000000208e                ETH_WKUP_IRQHandler
                0x0000000000002090                CAN2_TX_IRQHandler
                0x0000000000002092                CAN2_RX0_IRQHandler
                0x0000000000002094                CAN2_RX1_IRQHandler
                0x0000000000002096                CAN2_SCE_IRQHandler
                0x0000000000002098                OTG_FS_IRQHandler
                0x000000000000209a                USBHSWakeup_IRQHandler
                0x000000000000209c                USBHS_IRQHandler
                0x000000000000209e                DVP_IRQHandler
                0x00000000000020a0                UART6_IRQHandler
                0x00000000000020a2                UART7_IRQHandler
                0x00000000000020a4                UART8_IRQHandler
                0x00000000000020a6                TIM9_BRK_IRQHandler
                0x00000000000020a8                TIM9_UP_IRQHandler
                0x00000000000020aa                TIM9_TRG_COM_IRQHandler
                0x00000000000020ac                TIM9_CC_IRQHandler
                0x00000000000020ae                TIM10_BRK_IRQHandler
                0x00000000000020b0                TIM10_UP_IRQHandler
                0x00000000000020b2                TIM10_TRG_COM_IRQHandler
                0x00000000000020b4                TIM10_CC_IRQHandler
                0x00000000000020b6                DMA2_Channel6_IRQHandler
                0x00000000000020b8                DMA2_Channel7_IRQHandler
                0x00000000000020ba                DMA2_Channel8_IRQHandler
                0x00000000000020bc                DMA2_Channel9_IRQHandler
                0x00000000000020be                DMA2_Channel10_IRQHandler
                0x00000000000020c0                DMA2_Channel11_IRQHandler
 .text.handle_reset
                0x00000000000020c2       0x8a ./Startup/startup_ch32v30x_D8C.o
                0x00000000000020c2                handle_reset
 .text.ADC_DeInit
                0x000000000000214c       0x46 ./Peripheral/src/ch32v30x_adc.o
                0x000000000000214c                ADC_DeInit
 .text.ADC_Init
                0x0000000000002192       0x56 ./Peripheral/src/ch32v30x_adc.o
                0x0000000000002192                ADC_Init
 .text.ADC_Cmd  0x00000000000021e8       0x10 ./Peripheral/src/ch32v30x_adc.o
                0x00000000000021e8                ADC_Cmd
 .text.ADC_DMACmd
                0x00000000000021f8       0x12 ./Peripheral/src/ch32v30x_adc.o
                0x00000000000021f8                ADC_DMACmd
 .text.ADC_ResetCalibration
                0x000000000000220a        0xa ./Peripheral/src/ch32v30x_adc.o
                0x000000000000220a                ADC_ResetCalibration
 .text.ADC_GetResetCalibrationStatus
                0x0000000000002214        0x8 ./Peripheral/src/ch32v30x_adc.o
                0x0000000000002214                ADC_GetResetCalibrationStatus
 .text.ADC_StartCalibration
                0x000000000000221c        0xa ./Peripheral/src/ch32v30x_adc.o
                0x000000000000221c                ADC_StartCalibration
 .text.ADC_GetCalibrationStatus
                0x0000000000002226        0x8 ./Peripheral/src/ch32v30x_adc.o
                0x0000000000002226                ADC_GetCalibrationStatus
 .text.ADC_SoftwareStartConvCmd
                0x000000000000222e       0x18 ./Peripheral/src/ch32v30x_adc.o
                0x000000000000222e                ADC_SoftwareStartConvCmd
 .text.ADC_RegularChannelConfig
                0x0000000000002246       0xb8 ./Peripheral/src/ch32v30x_adc.o
                0x0000000000002246                ADC_RegularChannelConfig
 .text.ADC_GetConversionValue
                0x00000000000022fe        0x8 ./Peripheral/src/ch32v30x_adc.o
                0x00000000000022fe                ADC_GetConversionValue
 .text.ADC_GetFlagStatus
                0x0000000000002306        0xa ./Peripheral/src/ch32v30x_adc.o
                0x0000000000002306                ADC_GetFlagStatus
 .text.ADC_BufferCmd
                0x0000000000002310       0x18 ./Peripheral/src/ch32v30x_adc.o
                0x0000000000002310                ADC_BufferCmd
 .text.Get_CalibrationValue
                0x0000000000002328      0x134 ./Peripheral/src/ch32v30x_adc.o
                0x0000000000002328                Get_CalibrationValue
 .text.BKP_DeInit
                0x000000000000245c       0x10 ./Peripheral/src/ch32v30x_bkp.o
                0x000000000000245c                BKP_DeInit
 .text.BKP_WriteBackupRegister
                0x000000000000246c       0x1c ./Peripheral/src/ch32v30x_bkp.o
                0x000000000000246c                BKP_WriteBackupRegister
 .text.BKP_ReadBackupRegister
                0x0000000000002488       0x1c ./Peripheral/src/ch32v30x_bkp.o
                0x0000000000002488                BKP_ReadBackupRegister
 .text.EXTI_Init
                0x00000000000024a4       0x6a ./Peripheral/src/ch32v30x_exti.o
                0x00000000000024a4                EXTI_Init
 .text.EXTI_GetITStatus
                0x000000000000250e       0x1e ./Peripheral/src/ch32v30x_exti.o
                0x000000000000250e                EXTI_GetITStatus
 .text.EXTI_ClearITPendingBit
                0x000000000000252c        0xa ./Peripheral/src/ch32v30x_exti.o
                0x000000000000252c                EXTI_ClearITPendingBit
 .text.GPIO_Init
                0x0000000000002536       0xc0 ./Peripheral/src/ch32v30x_gpio.o
                0x0000000000002536                GPIO_Init
 .text.GPIO_ReadInputDataBit
                0x00000000000025f6        0xa ./Peripheral/src/ch32v30x_gpio.o
                0x00000000000025f6                GPIO_ReadInputDataBit
 .text.GPIO_SetBits
                0x0000000000002600        0x4 ./Peripheral/src/ch32v30x_gpio.o
                0x0000000000002600                GPIO_SetBits
 .text.GPIO_ResetBits
                0x0000000000002604        0x4 ./Peripheral/src/ch32v30x_gpio.o
                0x0000000000002604                GPIO_ResetBits
 .text.GPIO_PinRemapConfig
                0x0000000000002608       0xc4 ./Peripheral/src/ch32v30x_gpio.o
                0x0000000000002608                GPIO_PinRemapConfig
 .text.GPIO_EXTILineConfig
                0x00000000000026cc       0x2c ./Peripheral/src/ch32v30x_gpio.o
                0x00000000000026cc                GPIO_EXTILineConfig
 .text.NVIC_PriorityGroupConfig
                0x00000000000026f8        0x6 ./Peripheral/src/ch32v30x_misc.o
                0x00000000000026f8                NVIC_PriorityGroupConfig
 .text.NVIC_Init
                0x00000000000026fe       0xa6 ./Peripheral/src/ch32v30x_misc.o
                0x00000000000026fe                NVIC_Init
 .text.PWR_BackupAccessCmd
                0x00000000000027a4       0x16 ./Peripheral/src/ch32v30x_pwr.o
                0x00000000000027a4                PWR_BackupAccessCmd
 .text.RCC_ADCCLKConfig
                0x00000000000027ba       0x12 ./Peripheral/src/ch32v30x_rcc.o
                0x00000000000027ba                RCC_ADCCLKConfig
 .text.RCC_LSEConfig
                0x00000000000027cc       0x28 ./Peripheral/src/ch32v30x_rcc.o
                0x00000000000027cc                RCC_LSEConfig
 .text.RCC_RTCCLKConfig
                0x00000000000027f4        0xc ./Peripheral/src/ch32v30x_rcc.o
                0x00000000000027f4                RCC_RTCCLKConfig
 .text.RCC_RTCCLKCmd
                0x0000000000002800       0x20 ./Peripheral/src/ch32v30x_rcc.o
                0x0000000000002800                RCC_RTCCLKCmd
 .text.RCC_GetClocksFreq
                0x0000000000002820      0x176 ./Peripheral/src/ch32v30x_rcc.o
                0x0000000000002820                RCC_GetClocksFreq
 .text.RCC_APB2PeriphClockCmd
                0x0000000000002996       0x1e ./Peripheral/src/ch32v30x_rcc.o
                0x0000000000002996                RCC_APB2PeriphClockCmd
 .text.RCC_APB1PeriphClockCmd
                0x00000000000029b4       0x1e ./Peripheral/src/ch32v30x_rcc.o
                0x00000000000029b4                RCC_APB1PeriphClockCmd
 .text.RCC_APB2PeriphResetCmd
                0x00000000000029d2       0x1e ./Peripheral/src/ch32v30x_rcc.o
                0x00000000000029d2                RCC_APB2PeriphResetCmd
 .text.RCC_BackupResetCmd
                0x00000000000029f0       0x20 ./Peripheral/src/ch32v30x_rcc.o
                0x00000000000029f0                RCC_BackupResetCmd
 .text.RCC_GetFlagStatus
                0x0000000000002a10       0x2e ./Peripheral/src/ch32v30x_rcc.o
                0x0000000000002a10                RCC_GetFlagStatus
 .text.RTC_ITConfig
                0x0000000000002a3e       0x1a ./Peripheral/src/ch32v30x_rtc.o
                0x0000000000002a3e                RTC_ITConfig
 .text.RTC_EnterConfigMode
                0x0000000000002a58       0x12 ./Peripheral/src/ch32v30x_rtc.o
                0x0000000000002a58                RTC_EnterConfigMode
 .text.RTC_ExitConfigMode
                0x0000000000002a6a       0x18 ./Peripheral/src/ch32v30x_rtc.o
                0x0000000000002a6a                RTC_ExitConfigMode
 .text.RTC_GetCounter
                0x0000000000002a82       0x36 ./Peripheral/src/ch32v30x_rtc.o
                0x0000000000002a82                RTC_GetCounter
 .text.RTC_SetCounter
                0x0000000000002ab8       0x2c ./Peripheral/src/ch32v30x_rtc.o
                0x0000000000002ab8                RTC_SetCounter
 .text.RTC_SetPrescaler
                0x0000000000002ae4       0x2e ./Peripheral/src/ch32v30x_rtc.o
                0x0000000000002ae4                RTC_SetPrescaler
 .text.RTC_WaitForLastTask
                0x0000000000002b12       0x10 ./Peripheral/src/ch32v30x_rtc.o
                0x0000000000002b12                RTC_WaitForLastTask
 .text.RTC_WaitForSynchro
                0x0000000000002b22       0x24 ./Peripheral/src/ch32v30x_rtc.o
                0x0000000000002b22                RTC_WaitForSynchro
 .text.RTC_ClearFlag
                0x0000000000002b46       0x14 ./Peripheral/src/ch32v30x_rtc.o
                0x0000000000002b46                RTC_ClearFlag
 .text.RTC_GetITStatus
                0x0000000000002b5a       0x20 ./Peripheral/src/ch32v30x_rtc.o
                0x0000000000002b5a                RTC_GetITStatus
 .text.RTC_ClearITPendingBit
                0x0000000000002b7a        0xc ./Peripheral/src/ch32v30x_rtc.o
                0x0000000000002b7a                RTC_ClearITPendingBit
 .text.TIM_TimeBaseInit
                0x0000000000002b86       0xaa ./Peripheral/src/ch32v30x_tim.o
                0x0000000000002b86                TIM_TimeBaseInit
 .text.TIM_OC2Init
                0x0000000000002c30       0xae ./Peripheral/src/ch32v30x_tim.o
                0x0000000000002c30                TIM_OC2Init
 .text.TIM_Cmd  0x0000000000002cde       0x18 ./Peripheral/src/ch32v30x_tim.o
                0x0000000000002cde                TIM_Cmd
 .text.TIM_ITConfig
                0x0000000000002cf6       0x12 ./Peripheral/src/ch32v30x_tim.o
                0x0000000000002cf6                TIM_ITConfig
 .text.TIM_OC2PreloadConfig
                0x0000000000002d08       0x16 ./Peripheral/src/ch32v30x_tim.o
                0x0000000000002d08                TIM_OC2PreloadConfig
 .text.TIM_SetCounter
                0x0000000000002d1e        0x4 ./Peripheral/src/ch32v30x_tim.o
                0x0000000000002d1e                TIM_SetCounter
 .text.TIM_SetCompare2
                0x0000000000002d22        0x4 ./Peripheral/src/ch32v30x_tim.o
                0x0000000000002d22                TIM_SetCompare2
 .text.TIM_GetCounter
                0x0000000000002d26        0x4 ./Peripheral/src/ch32v30x_tim.o
                0x0000000000002d26                TIM_GetCounter
 .text.TIM_GetITStatus
                0x0000000000002d2a       0x18 ./Peripheral/src/ch32v30x_tim.o
                0x0000000000002d2a                TIM_GetITStatus
 .text.TIM_ClearITPendingBit
                0x0000000000002d42        0xc ./Peripheral/src/ch32v30x_tim.o
                0x0000000000002d42                TIM_ClearITPendingBit
 .text.USART_Init
                0x0000000000002d4e       0xbc ./Peripheral/src/ch32v30x_usart.o
                0x0000000000002d4e                USART_Init
 .text.USART_Cmd
                0x0000000000002e0a       0x16 ./Peripheral/src/ch32v30x_usart.o
                0x0000000000002e0a                USART_Cmd
 .text.USART_ITConfig
                0x0000000000002e20       0x36 ./Peripheral/src/ch32v30x_usart.o
                0x0000000000002e20                USART_ITConfig
 .text.USART_SendData
                0x0000000000002e56        0x8 ./Peripheral/src/ch32v30x_usart.o
                0x0000000000002e56                USART_SendData
 .text.USART_ReceiveData
                0x0000000000002e5e        0x8 ./Peripheral/src/ch32v30x_usart.o
                0x0000000000002e5e                USART_ReceiveData
 .text.USART_GetFlagStatus
                0x0000000000002e66        0xa ./Peripheral/src/ch32v30x_usart.o
                0x0000000000002e66                USART_GetFlagStatus
 .text.USART_GetITStatus
                0x0000000000002e70       0x3c ./Peripheral/src/ch32v30x_usart.o
                0x0000000000002e70                USART_GetITStatus
 .text.Delay_Init
                0x0000000000002eac       0x26 ./Debug/debug.o
                0x0000000000002eac                Delay_Init
 .text.Delay_Us
                0x0000000000002ed2       0x36 ./Debug/debug.o
                0x0000000000002ed2                Delay_Us
 .text.Delay_Ms
                0x0000000000002f08       0x36 ./Debug/debug.o
                0x0000000000002f08                Delay_Ms
 .text.USART_Printf_Init
                0x0000000000002f3e       0x5a ./Debug/debug.o
                0x0000000000002f3e                USART_Printf_Init
 .text._sbrk    0x0000000000002f98       0x26 ./Debug/debug.o
                0x0000000000002f98                _sbrk
 .text.__ledf2  0x0000000000002fbe       0xb6 c:/mounriver/mounriver_studio/toolchain/risc-v embedded gcc/bin/../lib/gcc/riscv-none-embed/8.2.0/rv32imacxw/ilp32\libgcc.a(ledf2.o)
                0x0000000000002fbe                __ledf2
                0x0000000000002fbe                __ltdf2
 .text.__muldf3
                0x0000000000003074      0x4b8 c:/mounriver/mounriver_studio/toolchain/risc-v embedded gcc/bin/../lib/gcc/riscv-none-embed/8.2.0/rv32imacxw/ilp32\libgcc.a(muldf3.o)
                0x0000000000003074                __muldf3
 .text.__subdf3
                0x000000000000352c      0x73e c:/mounriver/mounriver_studio/toolchain/risc-v embedded gcc/bin/../lib/gcc/riscv-none-embed/8.2.0/rv32imacxw/ilp32\libgcc.a(subdf3.o)
                0x000000000000352c                __subdf3
 .text.__floatsidf
                0x0000000000003c6a       0x72 c:/mounriver/mounriver_studio/toolchain/risc-v embedded gcc/bin/../lib/gcc/riscv-none-embed/8.2.0/rv32imacxw/ilp32\libgcc.a(floatsidf.o)
                0x0000000000003c6a                __floatsidf
 .text.__addsf3
                0x0000000000003cdc      0x36a c:/mounriver/mounriver_studio/toolchain/risc-v embedded gcc/bin/../lib/gcc/riscv-none-embed/8.2.0/rv32imacxw/ilp32\libgcc.a(addsf3.o)
                0x0000000000003cdc                __addsf3
 .text.__divsf3
                0x0000000000004046      0x2b2 c:/mounriver/mounriver_studio/toolchain/risc-v embedded gcc/bin/../lib/gcc/riscv-none-embed/8.2.0/rv32imacxw/ilp32\libgcc.a(divsf3.o)
                0x0000000000004046                __divsf3
 .text.__eqsf2  0x00000000000042f8       0x5c c:/mounriver/mounriver_studio/toolchain/risc-v embedded gcc/bin/../lib/gcc/riscv-none-embed/8.2.0/rv32imacxw/ilp32\libgcc.a(eqsf2.o)
                0x00000000000042f8                __eqsf2
                0x00000000000042f8                __nesf2
 .text.__gesf2  0x0000000000004354       0x86 c:/mounriver/mounriver_studio/toolchain/risc-v embedded gcc/bin/../lib/gcc/riscv-none-embed/8.2.0/rv32imacxw/ilp32\libgcc.a(gesf2.o)
                0x0000000000004354                __gesf2
                0x0000000000004354                __gtsf2
 .text.__lesf2  0x00000000000043da       0x8c c:/mounriver/mounriver_studio/toolchain/risc-v embedded gcc/bin/../lib/gcc/riscv-none-embed/8.2.0/rv32imacxw/ilp32\libgcc.a(lesf2.o)
                0x00000000000043da                __ltsf2
                0x00000000000043da                __lesf2
 .text.__mulsf3
                0x0000000000004466      0x294 c:/mounriver/mounriver_studio/toolchain/risc-v embedded gcc/bin/../lib/gcc/riscv-none-embed/8.2.0/rv32imacxw/ilp32\libgcc.a(mulsf3.o)
                0x0000000000004466                __mulsf3
 .text.__subsf3
                0x00000000000046fa      0x388 c:/mounriver/mounriver_studio/toolchain/risc-v embedded gcc/bin/../lib/gcc/riscv-none-embed/8.2.0/rv32imacxw/ilp32\libgcc.a(subsf3.o)
                0x00000000000046fa                __subsf3
 .text.__fixsfsi
                0x0000000000004a82       0x62 c:/mounriver/mounriver_studio/toolchain/risc-v embedded gcc/bin/../lib/gcc/riscv-none-embed/8.2.0/rv32imacxw/ilp32\libgcc.a(fixsfsi.o)
                0x0000000000004a82                __fixsfsi
 .text.__fixunssfsi
                0x0000000000004ae4       0x56 c:/mounriver/mounriver_studio/toolchain/risc-v embedded gcc/bin/../lib/gcc/riscv-none-embed/8.2.0/rv32imacxw/ilp32\libgcc.a(fixunssfsi.o)
                0x0000000000004ae4                __fixunssfsi
 .text.__floatsisf
                0x0000000000004b3a       0xc6 c:/mounriver/mounriver_studio/toolchain/risc-v embedded gcc/bin/../lib/gcc/riscv-none-embed/8.2.0/rv32imacxw/ilp32\libgcc.a(floatsisf.o)
                0x0000000000004b3a                __floatsisf
 .text.__floatunsisf
                0x0000000000004c00       0xce c:/mounriver/mounriver_studio/toolchain/risc-v embedded gcc/bin/../lib/gcc/riscv-none-embed/8.2.0/rv32imacxw/ilp32\libgcc.a(floatunsisf.o)
                0x0000000000004c00                __floatunsisf
 .text.__extendsfdf2
                0x0000000000004cce       0xac c:/mounriver/mounriver_studio/toolchain/risc-v embedded gcc/bin/../lib/gcc/riscv-none-embed/8.2.0/rv32imacxw/ilp32\libgcc.a(extendsfdf2.o)
                0x0000000000004cce                __extendsfdf2
 .text.__truncdfsf2
                0x0000000000004d7a      0x16a c:/mounriver/mounriver_studio/toolchain/risc-v embedded gcc/bin/../lib/gcc/riscv-none-embed/8.2.0/rv32imacxw/ilp32\libgcc.a(truncdfsf2.o)
                0x0000000000004d7a                __truncdfsf2
 .text.__clzsi2
                0x0000000000004ee4       0x6e c:/mounriver/mounriver_studio/toolchain/risc-v embedded gcc/bin/../lib/gcc/riscv-none-embed/8.2.0/rv32imacxw/ilp32\libgcc.a(_clzsi2.o)
                0x0000000000004ee4                __clzsi2
 .text.__cvt    0x0000000000004f52       0xea c:/mounriver/mounriver_studio/toolchain/risc-v embedded gcc/bin/../lib/gcc/riscv-none-embed/8.2.0/../../../../riscv-none-embed/lib/rv32imacxw/ilp32\libg_nano.a(lib_a-nano-vfprintf_float.o)
                0x0000000000004f52                __cvt
 .text.__exponent
                0x000000000000503c       0x84 c:/mounriver/mounriver_studio/toolchain/risc-v embedded gcc/bin/../lib/gcc/riscv-none-embed/8.2.0/../../../../riscv-none-embed/lib/rv32imacxw/ilp32\libg_nano.a(lib_a-nano-vfprintf_float.o)
                0x000000000000503c                __exponent
 .text._printf_float
                0x00000000000050c0      0x4c4 c:/mounriver/mounriver_studio/toolchain/risc-v embedded gcc/bin/../lib/gcc/riscv-none-embed/8.2.0/../../../../riscv-none-embed/lib/rv32imacxw/ilp32\libg_nano.a(lib_a-nano-vfprintf_float.o)
                0x00000000000050c0                _printf_float
 .text._printf_common
                0x0000000000005584      0x10c c:/mounriver/mounriver_studio/toolchain/risc-v embedded gcc/bin/../lib/gcc/riscv-none-embed/8.2.0/../../../../riscv-none-embed/lib/rv32imacxw/ilp32\libg_nano.a(lib_a-nano-vfprintf_i.o)
                0x0000000000005584                _printf_common
 .text._printf_i
                0x0000000000005690      0x2a4 c:/mounriver/mounriver_studio/toolchain/risc-v embedded gcc/bin/../lib/gcc/riscv-none-embed/8.2.0/../../../../riscv-none-embed/lib/rv32imacxw/ilp32\libg_nano.a(lib_a-nano-vfprintf_i.o)
                0x0000000000005690                _printf_i
 .text._scanf_float
                0x0000000000005934      0x46c c:/mounriver/mounriver_studio/toolchain/risc-v embedded gcc/bin/../lib/gcc/riscv-none-embed/8.2.0/../../../../riscv-none-embed/lib/rv32imacxw/ilp32\libg_nano.a(lib_a-nano-vfscanf_float.o)
                0x0000000000005934                _scanf_float
 .text.nanf     0x0000000000005da0        0xc c:/mounriver/mounriver_studio/toolchain/risc-v embedded gcc/bin/../lib/gcc/riscv-none-embed/8.2.0/../../../../riscv-none-embed/lib/rv32imacxw/ilp32\libg_nano.a(lib_a-sf_nan.o)
                0x0000000000005da0                nanf
 .text.sprintf  0x0000000000005dac       0x46 c:/mounriver/mounriver_studio/toolchain/risc-v embedded gcc/bin/../lib/gcc/riscv-none-embed/8.2.0/../../../../riscv-none-embed/lib/rv32imacxw/ilp32\libg_nano.a(lib_a-sprintf.o)
                0x0000000000005dac                siprintf
                0x0000000000005dac                sprintf
 .text.strcpy   0x0000000000005df2       0x10 c:/mounriver/mounriver_studio/toolchain/risc-v embedded gcc/bin/../lib/gcc/riscv-none-embed/8.2.0/../../../../riscv-none-embed/lib/rv32imacxw/ilp32\libg_nano.a(lib_a-strcpy.o)
                0x0000000000005df2                strcpy
 .text.strlen   0x0000000000005e02       0x12 c:/mounriver/mounriver_studio/toolchain/risc-v embedded gcc/bin/../lib/gcc/riscv-none-embed/8.2.0/../../../../riscv-none-embed/lib/rv32imacxw/ilp32\libg_nano.a(lib_a-strlen.o)
                0x0000000000005e02                strlen
 .text.sulp     0x0000000000005e14       0x4e c:/mounriver/mounriver_studio/toolchain/risc-v embedded gcc/bin/../lib/gcc/riscv-none-embed/8.2.0/../../../../riscv-none-embed/lib/rv32imacxw/ilp32\libg_nano.a(lib_a-strtod.o)
 .text._strtod_l
                0x0000000000005e62      0xc6c c:/mounriver/mounriver_studio/toolchain/risc-v embedded gcc/bin/../lib/gcc/riscv-none-embed/8.2.0/../../../../riscv-none-embed/lib/rv32imacxw/ilp32\libg_nano.a(lib_a-strtod.o)
                0x0000000000005e62                _strtod_l
 .text._strtod_r
                0x0000000000006ace       0x16 c:/mounriver/mounriver_studio/toolchain/risc-v embedded gcc/bin/../lib/gcc/riscv-none-embed/8.2.0/../../../../riscv-none-embed/lib/rv32imacxw/ilp32\libg_nano.a(lib_a-strtod.o)
                0x0000000000006ace                _strtod_r
 .text._strtol_l.isra.0
                0x0000000000006ae4      0x13a c:/mounriver/mounriver_studio/toolchain/risc-v embedded gcc/bin/../lib/gcc/riscv-none-embed/8.2.0/../../../../riscv-none-embed/lib/rv32imacxw/ilp32\libg_nano.a(lib_a-strtol.o)
 .text._strtol_r
                0x0000000000006c1e       0x16 c:/mounriver/mounriver_studio/toolchain/risc-v embedded gcc/bin/../lib/gcc/riscv-none-embed/8.2.0/../../../../riscv-none-embed/lib/rv32imacxw/ilp32\libg_nano.a(lib_a-strtol.o)
                0x0000000000006c1e                _strtol_r
 .text.quorem   0x0000000000006c34      0x13a c:/mounriver/mounriver_studio/toolchain/risc-v embedded gcc/bin/../lib/gcc/riscv-none-embed/8.2.0/../../../../riscv-none-embed/lib/rv32imacxw/ilp32\libg_nano.a(lib_a-dtoa.o)
 .text._dtoa_r  0x0000000000006d6e      0xc16 c:/mounriver/mounriver_studio/toolchain/risc-v embedded gcc/bin/../lib/gcc/riscv-none-embed/8.2.0/../../../../riscv-none-embed/lib/rv32imacxw/ilp32\libg_nano.a(lib_a-dtoa.o)
                0x0000000000006d6e                _dtoa_r
 .text.rshift   0x0000000000007984       0x76 c:/mounriver/mounriver_studio/toolchain/risc-v embedded gcc/bin/../lib/gcc/riscv-none-embed/8.2.0/../../../../riscv-none-embed/lib/rv32imacxw/ilp32\libg_nano.a(lib_a-gdtoa-gethex.o)
 .text.__hexdig_fun
                0x00000000000079fa       0x40 c:/mounriver/mounriver_studio/toolchain/risc-v embedded gcc/bin/../lib/gcc/riscv-none-embed/8.2.0/../../../../riscv-none-embed/lib/rv32imacxw/ilp32\libg_nano.a(lib_a-gdtoa-gethex.o)
                0x00000000000079fa                __hexdig_fun
 .text.__gethex
                0x0000000000007a3a      0x4ca c:/mounriver/mounriver_studio/toolchain/risc-v embedded gcc/bin/../lib/gcc/riscv-none-embed/8.2.0/../../../../riscv-none-embed/lib/rv32imacxw/ilp32\libg_nano.a(lib_a-gdtoa-gethex.o)
                0x0000000000007a3a                __gethex
 .text.L_shift  0x0000000000007f04       0x2c c:/mounriver/mounriver_studio/toolchain/risc-v embedded gcc/bin/../lib/gcc/riscv-none-embed/8.2.0/../../../../riscv-none-embed/lib/rv32imacxw/ilp32\libg_nano.a(lib_a-gdtoa-hexnan.o)
 .text.__match  0x0000000000007f30       0x2e c:/mounriver/mounriver_studio/toolchain/risc-v embedded gcc/bin/../lib/gcc/riscv-none-embed/8.2.0/../../../../riscv-none-embed/lib/rv32imacxw/ilp32\libg_nano.a(lib_a-gdtoa-hexnan.o)
                0x0000000000007f30                __match
 .text.__hexnan
                0x0000000000007f5e      0x15e c:/mounriver/mounriver_studio/toolchain/risc-v embedded gcc/bin/../lib/gcc/riscv-none-embed/8.2.0/../../../../riscv-none-embed/lib/rv32imacxw/ilp32\libg_nano.a(lib_a-gdtoa-hexnan.o)
                0x0000000000007f5e                __hexnan
 .text.__locale_ctype_ptr_l
                0x00000000000080bc        0x6 c:/mounriver/mounriver_studio/toolchain/risc-v embedded gcc/bin/../lib/gcc/riscv-none-embed/8.2.0/../../../../riscv-none-embed/lib/rv32imacxw/ilp32\libg_nano.a(lib_a-locale.o)
                0x00000000000080bc                __locale_ctype_ptr_l
 .text.__localeconv_l
                0x00000000000080c2        0x6 c:/mounriver/mounriver_studio/toolchain/risc-v embedded gcc/bin/../lib/gcc/riscv-none-embed/8.2.0/../../../../riscv-none-embed/lib/rv32imacxw/ilp32\libg_nano.a(lib_a-localeconv.o)
                0x00000000000080c2                __localeconv_l
 .text._localeconv_r
                0x00000000000080c8       0x18 c:/mounriver/mounriver_studio/toolchain/risc-v embedded gcc/bin/../lib/gcc/riscv-none-embed/8.2.0/../../../../riscv-none-embed/lib/rv32imacxw/ilp32\libg_nano.a(lib_a-localeconv.o)
                0x00000000000080c8                _localeconv_r
 .text.malloc   0x00000000000080e0        0xc c:/mounriver/mounriver_studio/toolchain/risc-v embedded gcc/bin/../lib/gcc/riscv-none-embed/8.2.0/../../../../riscv-none-embed/lib/rv32imacxw/ilp32\libg_nano.a(lib_a-malloc.o)
                0x00000000000080e0                malloc
 .text.__ascii_mbtowc
                0x00000000000080ec       0x32 c:/mounriver/mounriver_studio/toolchain/risc-v embedded gcc/bin/../lib/gcc/riscv-none-embed/8.2.0/../../../../riscv-none-embed/lib/rv32imacxw/ilp32\libg_nano.a(lib_a-mbtowc_r.o)
                0x00000000000080ec                __ascii_mbtowc
 .text.memchr   0x000000000000811e       0x18 c:/mounriver/mounriver_studio/toolchain/risc-v embedded gcc/bin/../lib/gcc/riscv-none-embed/8.2.0/../../../../riscv-none-embed/lib/rv32imacxw/ilp32\libg_nano.a(lib_a-memchr.o)
                0x000000000000811e                memchr
 .text.memcpy   0x0000000000008136       0xb2 c:/mounriver/mounriver_studio/toolchain/risc-v embedded gcc/bin/../lib/gcc/riscv-none-embed/8.2.0/../../../../riscv-none-embed/lib/rv32imacxw/ilp32\libg_nano.a(lib_a-memcpy.o)
                0x0000000000008136                memcpy
 .text._Balloc  0x00000000000081e8       0x8c c:/mounriver/mounriver_studio/toolchain/risc-v embedded gcc/bin/../lib/gcc/riscv-none-embed/8.2.0/../../../../riscv-none-embed/lib/rv32imacxw/ilp32\libg_nano.a(lib_a-mprec.o)
                0x00000000000081e8                _Balloc
 .text._Bfree   0x0000000000008274       0x44 c:/mounriver/mounriver_studio/toolchain/risc-v embedded gcc/bin/../lib/gcc/riscv-none-embed/8.2.0/../../../../riscv-none-embed/lib/rv32imacxw/ilp32\libg_nano.a(lib_a-mprec.o)
                0x0000000000008274                _Bfree
 .text.__multadd
                0x00000000000082b8       0x98 c:/mounriver/mounriver_studio/toolchain/risc-v embedded gcc/bin/../lib/gcc/riscv-none-embed/8.2.0/../../../../riscv-none-embed/lib/rv32imacxw/ilp32\libg_nano.a(lib_a-mprec.o)
                0x00000000000082b8                __multadd
 .text.__s2b    0x0000000000008350       0xa4 c:/mounriver/mounriver_studio/toolchain/risc-v embedded gcc/bin/../lib/gcc/riscv-none-embed/8.2.0/../../../../riscv-none-embed/lib/rv32imacxw/ilp32\libg_nano.a(lib_a-mprec.o)
                0x0000000000008350                __s2b
 .text.__hi0bits
                0x00000000000083f4       0x46 c:/mounriver/mounriver_studio/toolchain/risc-v embedded gcc/bin/../lib/gcc/riscv-none-embed/8.2.0/../../../../riscv-none-embed/lib/rv32imacxw/ilp32\libg_nano.a(lib_a-mprec.o)
                0x00000000000083f4                __hi0bits
 .text.__lo0bits
                0x000000000000843a       0x6a c:/mounriver/mounriver_studio/toolchain/risc-v embedded gcc/bin/../lib/gcc/riscv-none-embed/8.2.0/../../../../riscv-none-embed/lib/rv32imacxw/ilp32\libg_nano.a(lib_a-mprec.o)
                0x000000000000843a                __lo0bits
 .text.__i2b    0x00000000000084a4       0x1c c:/mounriver/mounriver_studio/toolchain/risc-v embedded gcc/bin/../lib/gcc/riscv-none-embed/8.2.0/../../../../riscv-none-embed/lib/rv32imacxw/ilp32\libg_nano.a(lib_a-mprec.o)
                0x00000000000084a4                __i2b
 .text.__multiply
                0x00000000000084c0      0x144 c:/mounriver/mounriver_studio/toolchain/risc-v embedded gcc/bin/../lib/gcc/riscv-none-embed/8.2.0/../../../../riscv-none-embed/lib/rv32imacxw/ilp32\libg_nano.a(lib_a-mprec.o)
                0x00000000000084c0                __multiply
 .text.__pow5mult
                0x0000000000008604       0xbe c:/mounriver/mounriver_studio/toolchain/risc-v embedded gcc/bin/../lib/gcc/riscv-none-embed/8.2.0/../../../../riscv-none-embed/lib/rv32imacxw/ilp32\libg_nano.a(lib_a-mprec.o)
                0x0000000000008604                __pow5mult
 .text.__lshift
                0x00000000000086c2       0xce c:/mounriver/mounriver_studio/toolchain/risc-v embedded gcc/bin/../lib/gcc/riscv-none-embed/8.2.0/../../../../riscv-none-embed/lib/rv32imacxw/ilp32\libg_nano.a(lib_a-mprec.o)
                0x00000000000086c2                __lshift
 .text.__mcmp   0x0000000000008790       0x32 c:/mounriver/mounriver_studio/toolchain/risc-v embedded gcc/bin/../lib/gcc/riscv-none-embed/8.2.0/../../../../riscv-none-embed/lib/rv32imacxw/ilp32\libg_nano.a(lib_a-mprec.o)
                0x0000000000008790                __mcmp
 .text.__mdiff  0x00000000000087c2       0xf2 c:/mounriver/mounriver_studio/toolchain/risc-v embedded gcc/bin/../lib/gcc/riscv-none-embed/8.2.0/../../../../riscv-none-embed/lib/rv32imacxw/ilp32\libg_nano.a(lib_a-mprec.o)
                0x00000000000087c2                __mdiff
 .text.__ulp    0x00000000000088b4       0x46 c:/mounriver/mounriver_studio/toolchain/risc-v embedded gcc/bin/../lib/gcc/riscv-none-embed/8.2.0/../../../../riscv-none-embed/lib/rv32imacxw/ilp32\libg_nano.a(lib_a-mprec.o)
                0x00000000000088b4                __ulp
 .text.__b2d    0x00000000000088fa       0xb4 c:/mounriver/mounriver_studio/toolchain/risc-v embedded gcc/bin/../lib/gcc/riscv-none-embed/8.2.0/../../../../riscv-none-embed/lib/rv32imacxw/ilp32\libg_nano.a(lib_a-mprec.o)
                0x00000000000088fa                __b2d
 .text.__d2b    0x00000000000089ae       0xd4 c:/mounriver/mounriver_studio/toolchain/risc-v embedded gcc/bin/../lib/gcc/riscv-none-embed/8.2.0/../../../../riscv-none-embed/lib/rv32imacxw/ilp32\libg_nano.a(lib_a-mprec.o)
                0x00000000000089ae                __d2b
 .text.__ratio  0x0000000000008a82       0x74 c:/mounriver/mounriver_studio/toolchain/risc-v embedded gcc/bin/../lib/gcc/riscv-none-embed/8.2.0/../../../../riscv-none-embed/lib/rv32imacxw/ilp32\libg_nano.a(lib_a-mprec.o)
                0x0000000000008a82                __ratio
 .text.__copybits
                0x0000000000008af6       0x36 c:/mounriver/mounriver_studio/toolchain/risc-v embedded gcc/bin/../lib/gcc/riscv-none-embed/8.2.0/../../../../riscv-none-embed/lib/rv32imacxw/ilp32\libg_nano.a(lib_a-mprec.o)
                0x0000000000008af6                __copybits
 .text.__any_on
                0x0000000000008b2c       0x46 c:/mounriver/mounriver_studio/toolchain/risc-v embedded gcc/bin/../lib/gcc/riscv-none-embed/8.2.0/../../../../riscv-none-embed/lib/rv32imacxw/ilp32\libg_nano.a(lib_a-mprec.o)
                0x0000000000008b2c                __any_on
 .text._calloc_r
                0x0000000000008b72       0x26 c:/mounriver/mounriver_studio/toolchain/risc-v embedded gcc/bin/../lib/gcc/riscv-none-embed/8.2.0/../../../../riscv-none-embed/lib/rv32imacxw/ilp32\libg_nano.a(lib_a-nano-callocr.o)
                0x0000000000008b72                _calloc_r
 .text._free_r  0x0000000000008b98       0xa4 c:/mounriver/mounriver_studio/toolchain/risc-v embedded gcc/bin/../lib/gcc/riscv-none-embed/8.2.0/../../../../riscv-none-embed/lib/rv32imacxw/ilp32\libg_nano.a(lib_a-nano-freer.o)
                0x0000000000008b98                _free_r
 .text._malloc_r
                0x0000000000008c3c       0xce c:/mounriver/mounriver_studio/toolchain/risc-v embedded gcc/bin/../lib/gcc/riscv-none-embed/8.2.0/../../../../riscv-none-embed/lib/rv32imacxw/ilp32\libg_nano.a(lib_a-nano-mallocr.o)
                0x0000000000008c3c                _malloc_r
 .text.__ssputs_r
                0x0000000000008d0a       0xe0 c:/mounriver/mounriver_studio/toolchain/risc-v embedded gcc/bin/../lib/gcc/riscv-none-embed/8.2.0/../../../../riscv-none-embed/lib/rv32imacxw/ilp32\libg_nano.a(lib_a-nano-svfprintf.o)
                0x0000000000008d0a                __ssputs_r
 .text._svfprintf_r
                0x0000000000008dea      0x268 c:/mounriver/mounriver_studio/toolchain/risc-v embedded gcc/bin/../lib/gcc/riscv-none-embed/8.2.0/../../../../riscv-none-embed/lib/rv32imacxw/ilp32\libg_nano.a(lib_a-nano-svfprintf.o)
                0x0000000000008dea                _svfiprintf_r
                0x0000000000008dea                _svfprintf_r
 .text._sbrk_r  0x0000000000009052       0x2a c:/mounriver/mounriver_studio/toolchain/risc-v embedded gcc/bin/../lib/gcc/riscv-none-embed/8.2.0/../../../../riscv-none-embed/lib/rv32imacxw/ilp32\libg_nano.a(lib_a-sbrkr.o)
                0x0000000000009052                _sbrk_r
 .text.strncmp  0x000000000000907c       0x28 c:/mounriver/mounriver_studio/toolchain/risc-v embedded gcc/bin/../lib/gcc/riscv-none-embed/8.2.0/../../../../riscv-none-embed/lib/rv32imacxw/ilp32\libg_nano.a(lib_a-strncmp.o)
                0x000000000000907c                strncmp
 .text.__ascii_wctomb
                0x00000000000090a4       0x1e c:/mounriver/mounriver_studio/toolchain/risc-v embedded gcc/bin/../lib/gcc/riscv-none-embed/8.2.0/../../../../riscv-none-embed/lib/rv32imacxw/ilp32\libg_nano.a(lib_a-wctomb_r.o)
                0x00000000000090a4                __ascii_wctomb
 .text.memmove  0x00000000000090c2       0x46 c:/mounriver/mounriver_studio/toolchain/risc-v embedded gcc/bin/../lib/gcc/riscv-none-embed/8.2.0/../../../../riscv-none-embed/lib/rv32imacxw/ilp32\libg_nano.a(lib_a-memmove.o)
                0x00000000000090c2                memmove
 .text.__malloc_lock
                0x0000000000009108        0x2 c:/mounriver/mounriver_studio/toolchain/risc-v embedded gcc/bin/../lib/gcc/riscv-none-embed/8.2.0/../../../../riscv-none-embed/lib/rv32imacxw/ilp32\libg_nano.a(lib_a-mlock.o)
                0x0000000000009108                __malloc_lock
 .text.__malloc_unlock
                0x000000000000910a        0x2 c:/mounriver/mounriver_studio/toolchain/risc-v embedded gcc/bin/../lib/gcc/riscv-none-embed/8.2.0/../../../../riscv-none-embed/lib/rv32imacxw/ilp32\libg_nano.a(lib_a-mlock.o)
                0x000000000000910a                __malloc_unlock
 .text._realloc_r
                0x000000000000910c       0x58 c:/mounriver/mounriver_studio/toolchain/risc-v embedded gcc/bin/../lib/gcc/riscv-none-embed/8.2.0/../../../../riscv-none-embed/lib/rv32imacxw/ilp32\libg_nano.a(lib_a-nano-reallocr.o)
                0x000000000000910c                _realloc_r
 .text._malloc_usable_size_r
                0x0000000000009164       0x14 c:/mounriver/mounriver_studio/toolchain/risc-v embedded gcc/bin/../lib/gcc/riscv-none-embed/8.2.0/../../../../riscv-none-embed/lib/rv32imacxw/ilp32\libg_nano.a(lib_a-nano-msizer.o)
                0x0000000000009164                _malloc_usable_size_r
 .text.__adddf3
                0x0000000000009178      0x730 c:/mounriver/mounriver_studio/toolchain/risc-v embedded gcc/bin/../lib/gcc/riscv-none-embed/8.2.0/rv32imacxw/ilp32\libgcc.a(adddf3.o)
                0x0000000000009178                __adddf3
 .text.__divdf3
                0x00000000000098a8      0x5b4 c:/mounriver/mounriver_studio/toolchain/risc-v embedded gcc/bin/../lib/gcc/riscv-none-embed/8.2.0/rv32imacxw/ilp32\libgcc.a(divdf3.o)
                0x00000000000098a8                __divdf3
 .text.__eqdf2  0x0000000000009e5c       0x6a c:/mounriver/mounriver_studio/toolchain/risc-v embedded gcc/bin/../lib/gcc/riscv-none-embed/8.2.0/rv32imacxw/ilp32\libgcc.a(eqdf2.o)
                0x0000000000009e5c                __nedf2
                0x0000000000009e5c                __eqdf2
 .text.__gedf2  0x0000000000009ec6       0xae c:/mounriver/mounriver_studio/toolchain/risc-v embedded gcc/bin/../lib/gcc/riscv-none-embed/8.2.0/rv32imacxw/ilp32\libgcc.a(gedf2.o)
                0x0000000000009ec6                __gedf2
                0x0000000000009ec6                __gtdf2
 .text.__unorddf2
                0x0000000000009f74       0x3c c:/mounriver/mounriver_studio/toolchain/risc-v embedded gcc/bin/../lib/gcc/riscv-none-embed/8.2.0/rv32imacxw/ilp32\libgcc.a(unorddf2.o)
                0x0000000000009f74                __unorddf2
 .text.__fixdfsi
                0x0000000000009fb0       0x68 c:/mounriver/mounriver_studio/toolchain/risc-v embedded gcc/bin/../lib/gcc/riscv-none-embed/8.2.0/rv32imacxw/ilp32\libgcc.a(fixdfsi.o)
                0x0000000000009fb0                __fixdfsi
 .text.__fixunsdfsi
                0x000000000000a018       0x5c c:/mounriver/mounriver_studio/toolchain/risc-v embedded gcc/bin/../lib/gcc/riscv-none-embed/8.2.0/rv32imacxw/ilp32\libgcc.a(fixunsdfsi.o)
                0x000000000000a018                __fixunsdfsi
 .text.__floatunsidf
                0x000000000000a074       0x68 c:/mounriver/mounriver_studio/toolchain/risc-v embedded gcc/bin/../lib/gcc/riscv-none-embed/8.2.0/rv32imacxw/ilp32\libgcc.a(floatunsidf.o)
                0x000000000000a074                __floatunsidf
 .text.__extenddftf2
                0x000000000000a0dc      0x1a0 c:/mounriver/mounriver_studio/toolchain/risc-v embedded gcc/bin/../lib/gcc/riscv-none-embed/8.2.0/rv32imacxw/ilp32\libgcc.a(extenddftf2.o)
                0x000000000000a0dc                __extenddftf2
 .text.__trunctfdf2
                0x000000000000a27c      0x21e c:/mounriver/mounriver_studio/toolchain/risc-v embedded gcc/bin/../lib/gcc/riscv-none-embed/8.2.0/rv32imacxw/ilp32\libgcc.a(trunctfdf2.o)
                0x000000000000a27c                __trunctfdf2
 *(.rodata)
 *(.rodata*)
 *fill*         0x000000000000a49a        0x2 
 .rodata.Call_show.str1.4
                0x000000000000a49c       0x20 ./hardware/UART_show/uartshow.o
 .rodata.Driver_show.str1.4
                0x000000000000a4bc       0x60 ./hardware/UART_show/uartshow.o
 .rodata.Fatigue_show.str1.4
                0x000000000000a51c       0x20 ./hardware/UART_show/uartshow.o
 .rodata.GradeA_show.str1.4
                0x000000000000a53c       0x15 ./hardware/UART_show/uartshow.o
 *fill*         0x000000000000a551        0x3 
 .rodata.GradeB_show.str1.4
                0x000000000000a554       0x15 ./hardware/UART_show/uartshow.o
 *fill*         0x000000000000a569        0x3 
 .rodata.GradeC_show.str1.4
                0x000000000000a56c       0x17 ./hardware/UART_show/uartshow.o
 *fill*         0x000000000000a583        0x1 
 .rodata.Hundred_show.str1.4
                0x000000000000a584       0x12 ./hardware/UART_show/uartshow.o
 *fill*         0x000000000000a596        0x2 
 .rodata.One_show.str1.4
                0x000000000000a598       0x13 ./hardware/UART_show/uartshow.o
 *fill*         0x000000000000a5ab        0x1 
 .rodata.Overtimedriver_show.str1.4
                0x000000000000a5ac       0x10 ./hardware/UART_show/uartshow.o
 .rodata.Show_Alcohol_Abnormal.str1.4
                0x000000000000a5bc       0x33 ./hardware/UART_show/uartshow.o
 *fill*         0x000000000000a5ef        0x1 
 .rodata.Show_Alcohol_Normal.str1.4
                0x000000000000a5f0       0x31 ./hardware/UART_show/uartshow.o
 *fill*         0x000000000000a621        0x3 
 .rodata.Show_Speed.str1.4
                0x000000000000a624       0x80 ./hardware/UART_show/uartshow.o
 .rodata.Show_Speed_Error.str1.4
                0x000000000000a6a4       0x10 ./hardware/UART_show/uartshow.o
 .rodata.Show_Temp_Humi.str1.4
                0x000000000000a6b4       0x70 ./hardware/UART_show/uartshow.o
 .rodata.Show_Temp_Humi_High.str1.4
                0x000000000000a724       0x14 ./hardware/UART_show/uartshow.o
 .rodata.Show_Time.str1.4
                0x000000000000a738       0x77 ./hardware/UART_show/uartshow.o
 *fill*         0x000000000000a7af        0x1 
 .rodata.Smoking_show.str1.4
                0x000000000000a7b0       0x20 ./hardware/UART_show/uartshow.o
 .rodata.Ten_show.str1.4
                0x000000000000a7d0       0x12 ./hardware/UART_show/uartshow.o
 *fill*         0x000000000000a7e2        0x2 
 .rodata.TIM2_IRQHandler.cst4
                0x000000000000a7e4        0x8 ./hardware/Speed/speed.o
 .rodata.mon_table
                0x000000000000a7ec        0xc ./hardware/RTC/RTC.o
                0x000000000000a7ec                mon_table
 .rodata.table_week
                0x000000000000a7f8        0xc ./hardware/RTC/RTC.o
                0x000000000000a7f8                table_week
 .rodata.Hcsr04GetLength.cst4
                0x000000000000a804        0x8 ./hardware/HC-SR04/HC-SR04.o
 .rodata.main.cst4
                0x000000000000a80c       0x2c ./User/main.o
                                         0x34 (size before relaxing)
 .rodata.main.cst8
                0x000000000000a838       0x38 ./User/main.o
 .rodata.__muldf3
                0x000000000000a870       0x40 c:/mounriver/mounriver_studio/toolchain/risc-v embedded gcc/bin/../lib/gcc/riscv-none-embed/8.2.0/rv32imacxw/ilp32\libgcc.a(muldf3.o)
 .rodata.__divsf3
                0x000000000000a8b0       0x80 c:/mounriver/mounriver_studio/toolchain/risc-v embedded gcc/bin/../lib/gcc/riscv-none-embed/8.2.0/rv32imacxw/ilp32\libgcc.a(divsf3.o)
 .rodata.__mulsf3
                0x000000000000a930       0x40 c:/mounriver/mounriver_studio/toolchain/risc-v embedded gcc/bin/../lib/gcc/riscv-none-embed/8.2.0/rv32imacxw/ilp32\libgcc.a(mulsf3.o)
 .rodata.__clz_tab
                0x000000000000a970      0x100 c:/mounriver/mounriver_studio/toolchain/risc-v embedded gcc/bin/../lib/gcc/riscv-none-embed/8.2.0/rv32imacxw/ilp32\libgcc.a(_clz.o)
                0x000000000000a970                __clz_tab
 .rodata._printf_float.cst8
                0x000000000000aa70        0x8 c:/mounriver/mounriver_studio/toolchain/risc-v embedded gcc/bin/../lib/gcc/riscv-none-embed/8.2.0/../../../../riscv-none-embed/lib/rv32imacxw/ilp32\libg_nano.a(lib_a-nano-vfprintf_float.o)
 .rodata._printf_float.str1.4
                0x000000000000aa78       0x12 c:/mounriver/mounriver_studio/toolchain/risc-v embedded gcc/bin/../lib/gcc/riscv-none-embed/8.2.0/../../../../riscv-none-embed/lib/rv32imacxw/ilp32\libg_nano.a(lib_a-nano-vfprintf_float.o)
 *fill*         0x000000000000aa8a        0x2 
 .rodata._printf_i.str1.4
                0x000000000000aa8c       0x25 c:/mounriver/mounriver_studio/toolchain/risc-v embedded gcc/bin/../lib/gcc/riscv-none-embed/8.2.0/../../../../riscv-none-embed/lib/rv32imacxw/ilp32\libg_nano.a(lib_a-nano-vfprintf_i.o)
 *fill*         0x000000000000aab1        0x3 
 .rodata._scanf_float.str1.4
                0x000000000000aab4        0x5 c:/mounriver/mounriver_studio/toolchain/risc-v embedded gcc/bin/../lib/gcc/riscv-none-embed/8.2.0/../../../../riscv-none-embed/lib/rv32imacxw/ilp32\libg_nano.a(lib_a-nano-vfscanf_float.o)
 *fill*         0x000000000000aab9        0x3 
 .rodata.nanf.cst4
                0x000000000000aabc        0x4 c:/mounriver/mounriver_studio/toolchain/risc-v embedded gcc/bin/../lib/gcc/riscv-none-embed/8.2.0/../../../../riscv-none-embed/lib/rv32imacxw/ilp32\libg_nano.a(lib_a-sf_nan.o)
 .rodata._strtod_l
                0x000000000000aac0       0x14 c:/mounriver/mounriver_studio/toolchain/risc-v embedded gcc/bin/../lib/gcc/riscv-none-embed/8.2.0/../../../../riscv-none-embed/lib/rv32imacxw/ilp32\libg_nano.a(lib_a-strtod.o)
 *fill*         0x000000000000aad4        0x4 
 .rodata._strtod_l.cst8
                0x000000000000aad8       0x38 c:/mounriver/mounriver_studio/toolchain/risc-v embedded gcc/bin/../lib/gcc/riscv-none-embed/8.2.0/../../../../riscv-none-embed/lib/rv32imacxw/ilp32\libg_nano.a(lib_a-strtod.o)
 .rodata._strtod_l.str1.4
                0x000000000000ab10        0xf c:/mounriver/mounriver_studio/toolchain/risc-v embedded gcc/bin/../lib/gcc/riscv-none-embed/8.2.0/../../../../riscv-none-embed/lib/rv32imacxw/ilp32\libg_nano.a(lib_a-strtod.o)
 *fill*         0x000000000000ab1f        0x1 
 .rodata.fpi.3395
                0x000000000000ab20       0x14 c:/mounriver/mounriver_studio/toolchain/risc-v embedded gcc/bin/../lib/gcc/riscv-none-embed/8.2.0/../../../../riscv-none-embed/lib/rv32imacxw/ilp32\libg_nano.a(lib_a-strtod.o)
 .rodata.fpinan.3431
                0x000000000000ab34       0x14 c:/mounriver/mounriver_studio/toolchain/risc-v embedded gcc/bin/../lib/gcc/riscv-none-embed/8.2.0/../../../../riscv-none-embed/lib/rv32imacxw/ilp32\libg_nano.a(lib_a-strtod.o)
 .rodata.tinytens
                0x000000000000ab48       0x28 c:/mounriver/mounriver_studio/toolchain/risc-v embedded gcc/bin/../lib/gcc/riscv-none-embed/8.2.0/../../../../riscv-none-embed/lib/rv32imacxw/ilp32\libg_nano.a(lib_a-strtod.o)
 .rodata._dtoa_r.cst8
                0x000000000000ab70       0x38 c:/mounriver/mounriver_studio/toolchain/risc-v embedded gcc/bin/../lib/gcc/riscv-none-embed/8.2.0/../../../../riscv-none-embed/lib/rv32imacxw/ilp32\libg_nano.a(lib_a-dtoa.o)
                                         0x48 (size before relaxing)
 .rodata._dtoa_r.str1.4
                0x000000000000aba8       0x10 c:/mounriver/mounriver_studio/toolchain/risc-v embedded gcc/bin/../lib/gcc/riscv-none-embed/8.2.0/../../../../riscv-none-embed/lib/rv32imacxw/ilp32\libg_nano.a(lib_a-dtoa.o)
                                         0x12 (size before relaxing)
 .rodata._setlocale_r.str1.4
                0x000000000000abb8        0xa c:/mounriver/mounriver_studio/toolchain/risc-v embedded gcc/bin/../lib/gcc/riscv-none-embed/8.2.0/../../../../riscv-none-embed/lib/rv32imacxw/ilp32\libg_nano.a(lib_a-locale.o)
                                          0xd (size before relaxing)
 *fill*         0x000000000000abc2        0x2 
 .rodata.str1.4
                0x000000000000abc4        0x2 c:/mounriver/mounriver_studio/toolchain/risc-v embedded gcc/bin/../lib/gcc/riscv-none-embed/8.2.0/../../../../riscv-none-embed/lib/rv32imacxw/ilp32\libg_nano.a(lib_a-locale.o)
 *fill*         0x000000000000abc6        0x2 
 .rodata.__mprec_bigtens
                0x000000000000abc8       0x28 c:/mounriver/mounriver_studio/toolchain/risc-v embedded gcc/bin/../lib/gcc/riscv-none-embed/8.2.0/../../../../riscv-none-embed/lib/rv32imacxw/ilp32\libg_nano.a(lib_a-mprec.o)
                0x000000000000abc8                __mprec_bigtens
 .rodata.__mprec_tens
                0x000000000000abf0       0xc8 c:/mounriver/mounriver_studio/toolchain/risc-v embedded gcc/bin/../lib/gcc/riscv-none-embed/8.2.0/../../../../riscv-none-embed/lib/rv32imacxw/ilp32\libg_nano.a(lib_a-mprec.o)
                0x000000000000abf0                __mprec_tens
 .rodata.p05.3319
                0x000000000000acb8        0xc c:/mounriver/mounriver_studio/toolchain/risc-v embedded gcc/bin/../lib/gcc/riscv-none-embed/8.2.0/../../../../riscv-none-embed/lib/rv32imacxw/ilp32\libg_nano.a(lib_a-mprec.o)
 .rodata._svfprintf_r.str1.4
                0x000000000000acc4       0x14 c:/mounriver/mounriver_studio/toolchain/risc-v embedded gcc/bin/../lib/gcc/riscv-none-embed/8.2.0/../../../../riscv-none-embed/lib/rv32imacxw/ilp32\libg_nano.a(lib_a-nano-svfprintf.o)
                                         0x13 (size before relaxing)
 .rodata._ctype_
                0x000000000000acd8      0x101 c:/mounriver/mounriver_studio/toolchain/risc-v embedded gcc/bin/../lib/gcc/riscv-none-embed/8.2.0/../../../../riscv-none-embed/lib/rv32imacxw/ilp32\libg_nano.a(lib_a-ctype_.o)
                0x000000000000acd8                _ctype_
 *fill*         0x000000000000add9        0x3 
 .rodata.__divdf3
                0x000000000000addc       0x40 c:/mounriver/mounriver_studio/toolchain/risc-v embedded gcc/bin/../lib/gcc/riscv-none-embed/8.2.0/rv32imacxw/ilp32\libgcc.a(divdf3.o)
 *(.gnu.linkonce.t.*)
                0x000000000000ae1c                . = ALIGN (0x4)

.rela.dyn       0x000000000000ae1c        0x0
 .rela.init     0x000000000000ae1c        0x0 ./hardware/USART3/USART3.o
 .rela.vector   0x000000000000ae1c        0x0 ./hardware/USART3/USART3.o
 .rela.text.handle_reset
                0x000000000000ae1c        0x0 ./hardware/USART3/USART3.o
 .rela.text._sbrk
                0x000000000000ae1c        0x0 ./hardware/USART3/USART3.o
 .rela.sdata.curbrk.5218
                0x000000000000ae1c        0x0 ./hardware/USART3/USART3.o
 .rela.data.impure_data
                0x000000000000ae1c        0x0 ./hardware/USART3/USART3.o
 .rela.text._svfprintf_r
                0x000000000000ae1c        0x0 ./hardware/USART3/USART3.o
 .rela.text._sbrk_r
                0x000000000000ae1c        0x0 ./hardware/USART3/USART3.o

.fini           0x000000000000ae1c        0x0
 *(SORT_NONE(.fini))
                0x000000000000ae1c                . = ALIGN (0x4)
                [!provide]                        PROVIDE (_etext = .)
                [!provide]                        PROVIDE (_eitcm = .)

.preinit_array  0x000000000000ae1c        0x0
                [!provide]                        PROVIDE (__preinit_array_start = .)
 *(.preinit_array)
                [!provide]                        PROVIDE (__preinit_array_end = .)

.init_array     0x000000000000ae1c        0x0
                [!provide]                        PROVIDE (__init_array_start = .)
 *(SORT_BY_INIT_PRIORITY(.init_array.*) SORT_BY_INIT_PRIORITY(.ctors.*))
 *(.init_array EXCLUDE_FILE(*crtend?.o *crtend.o *crtbegin?.o *crtbegin.o) .ctors)
                [!provide]                        PROVIDE (__init_array_end = .)

.fini_array     0x000000000000ae1c        0x0
                [!provide]                        PROVIDE (__fini_array_start = .)
 *(SORT_BY_INIT_PRIORITY(.fini_array.*) SORT_BY_INIT_PRIORITY(.dtors.*))
 *(.fini_array EXCLUDE_FILE(*crtend?.o *crtend.o *crtbegin?.o *crtbegin.o) .dtors)
                [!provide]                        PROVIDE (__fini_array_end = .)

.ctors
 *crtbegin.o(.ctors)
 *crtbegin?.o(.ctors)
 *(EXCLUDE_FILE(*crtend?.o *crtend.o) .ctors)
 *(SORT_BY_NAME(.ctors.*))
 *(.ctors)

.dtors
 *crtbegin.o(.dtors)
 *crtbegin?.o(.dtors)
 *(EXCLUDE_FILE(*crtend?.o *crtend.o) .dtors)
 *(SORT_BY_NAME(.dtors.*))
 *(.dtors)

.dalign         0x0000000020000000        0x0 load address 0x000000000000ae1c
                0x0000000020000000                . = ALIGN (0x4)
                0x0000000020000000                PROVIDE (_data_vma = .)

.dlalign        0x000000000000ae1c        0x0
                0x000000000000ae1c                . = ALIGN (0x4)
                0x000000000000ae1c                PROVIDE (_data_lma = .)

.data           0x0000000020000000      0x228 load address 0x000000000000ae1c
 *(.gnu.linkonce.r.*)
 *(.data .data.*)
 .data.AHBPrescTable
                0x0000000020000000       0x10 ./User/system_ch32v30x.o
                0x0000000020000000                AHBPrescTable
 .data.APBAHBPrescTable
                0x0000000020000010       0x10 ./Peripheral/src/ch32v30x_rcc.o
 .data.impure_data
                0x0000000020000020       0x60 c:/mounriver/mounriver_studio/toolchain/risc-v embedded gcc/bin/../lib/gcc/riscv-none-embed/8.2.0/../../../../riscv-none-embed/lib/rv32imacxw/ilp32\libg_nano.a(lib_a-impure.o)
 .data.__global_locale
                0x0000000020000080      0x16c c:/mounriver/mounriver_studio/toolchain/risc-v embedded gcc/bin/../lib/gcc/riscv-none-embed/8.2.0/../../../../riscv-none-embed/lib/rv32imacxw/ilp32\libg_nano.a(lib_a-locale.o)
                0x0000000020000080                __global_locale
 *(.gnu.linkonce.d.*)
                0x00000000200001f0                . = ALIGN (0x8)
 *fill*         0x00000000200001ec        0x4 
                0x00000000200009f0                PROVIDE (__global_pointer$ = (. + 0x800))
 *(.sdata .sdata.*)
 .sdata.pwm     0x00000000200001f0        0x4 ./hardware/KEY_Pwm/key_pwm.o
                0x00000000200001f0                pwm
 .sdata.Callscore
                0x00000000200001f4        0x4 ./User/main.o
                0x00000000200001f4                Callscore
 .sdata.Continuousdriving
                0x00000000200001f8        0x4 ./User/main.o
                0x00000000200001f8                Continuousdriving
 .sdata.Fatiguescore
                0x00000000200001fc        0x4 ./User/main.o
                0x00000000200001fc                Fatiguescore
 .sdata.Overspeedscore
                0x0000000020000200        0x4 ./User/main.o
                0x0000000020000200                Overspeedscore
 .sdata.Ratescore
                0x0000000020000204        0x4 ./User/main.o
                0x0000000020000204                Ratescore
 .sdata.Sharpaccelerationscore
                0x0000000020000208        0x4 ./User/main.o
                0x0000000020000208                Sharpaccelerationscore
 .sdata.Sharpslowdownscore
                0x000000002000020c        0x4 ./User/main.o
                0x000000002000020c                Sharpslowdownscore
 .sdata.Smokingscore
                0x0000000020000210        0x4 ./User/main.o
                0x0000000020000210                Smokingscore
 .sdata.SystemCoreClock
                0x0000000020000214        0x4 ./User/system_ch32v30x.o
                0x0000000020000214                SystemCoreClock
 .sdata.ADCPrescTable
                0x0000000020000218        0x4 ./Peripheral/src/ch32v30x_rcc.o
 .sdata.curbrk.5218
                0x000000002000021c        0x4 ./Debug/debug.o
 .sdata._impure_ptr
                0x0000000020000220        0x4 c:/mounriver/mounriver_studio/toolchain/risc-v embedded gcc/bin/../lib/gcc/riscv-none-embed/8.2.0/../../../../riscv-none-embed/lib/rv32imacxw/ilp32\libg_nano.a(lib_a-impure.o)
                0x0000000020000220                _impure_ptr
 *(.sdata2.*)
 *(.gnu.linkonce.s.*)
                0x0000000020000228                . = ALIGN (0x8)
 *fill*         0x0000000020000224        0x4 
 *(.srodata.cst16)
 *(.srodata.cst8)
 *(.srodata.cst4)
 *(.srodata.cst2)
 *(.srodata .srodata.*)
                0x0000000020000228                . = ALIGN (0x4)
                0x0000000020000228                PROVIDE (_edata = .)

.bss            0x0000000020000228      0x1e0 load address 0x000000000000b044
                0x0000000020000228                . = ALIGN (0x4)
                0x0000000020000228                PROVIDE (_sbss = .)
 *(.sbss*)
 .sbss.Flash_Mpde
                0x0000000020000228        0x1 ./hardware/USART3/USART3.o
                0x0000000020000228                Flash_Mpde
 .sbss.Light_Mode
                0x0000000020000229        0x1 ./hardware/USART3/USART3.o
                0x0000000020000229                Light_Mode
 .sbss.Print_Mode
                0x000000002000022a        0x1 ./hardware/USART3/USART3.o
                0x000000002000022a                Print_Mode
 .sbss.Rainbow_Mode
                0x000000002000022b        0x1 ./hardware/USART3/USART3.o
                0x000000002000022b                Rainbow_Mode
 .sbss.Callphone_State
                0x000000002000022c        0x1 ./hardware/USART2/USART2.o
                0x000000002000022c                Callphone_State
 .sbss.Fatigue_State
                0x000000002000022d        0x1 ./hardware/USART2/USART2.o
                0x000000002000022d                Fatigue_State
 .sbss.Smoking_state
                0x000000002000022e        0x1 ./hardware/USART2/USART2.o
                0x000000002000022e                Smoking_state
 *fill*         0x000000002000022f        0x1 
 .sbss.USART_RX_STA
                0x0000000020000230        0x2 ./hardware/USART2/USART2.o
                0x0000000020000230                USART_RX_STA
 *fill*         0x0000000020000232        0x2 
 .sbss.Circle   0x0000000020000234        0x4 ./hardware/Speed/speed.o
                0x0000000020000234                Circle
 .sbss.CountSensor_Count
                0x0000000020000238        0x4 ./hardware/Speed/speed.o
                0x0000000020000238                CountSensor_Count
 .sbss.flag     0x000000002000023c        0x1 ./hardware/Speed/speed.o
                0x000000002000023c                flag
 *fill*         0x000000002000023d        0x3 
 .sbss.num      0x0000000020000240        0x4 ./hardware/Speed/speed.o
                0x0000000020000240                num
 .sbss.times    0x0000000020000244        0x4 ./hardware/Speed/speed.o
                0x0000000020000244                times
 .sbss.dayCount.5242
                0x0000000020000248        0x2 ./hardware/RTC/RTC.o
 .sbss.Stop     0x000000002000024a        0x1 ./hardware/KEY_Pwm/key_pwm.o
                0x000000002000024a                Stop
 *fill*         0x000000002000024b        0x1 
 .sbss.aa       0x000000002000024c        0x4 ./hardware/KEY_Pwm/key_pwm.o
                0x000000002000024c                aa
 .sbss.star     0x0000000020000250        0x4 ./hardware/KEY_Pwm/key_pwm.o
                0x0000000020000250                star
 .sbss.msHcCount
                0x0000000020000254        0x2 ./hardware/HC-SR04/HC-SR04.o
                0x0000000020000254                msHcCount
 .sbss.Calibrattion_Val
                0x0000000020000256        0x2 ./hardware/ADC_SMOKE/ADC.o
                0x0000000020000256                Calibrattion_Val
 .sbss.Calls    0x0000000020000258        0x4 ./User/main.o
                0x0000000020000258                Calls
 .sbss.Fatigues
                0x000000002000025c        0x4 ./User/main.o
                0x000000002000025c                Fatigues
 .sbss.Hundred  0x0000000020000260        0x4 ./User/main.o
                0x0000000020000260                Hundred
 .sbss.One      0x0000000020000264        0x4 ./User/main.o
                0x0000000020000264                One
 .sbss.Overspeed
                0x0000000020000268        0x4 ./User/main.o
                0x0000000020000268                Overspeed
 .sbss.Overspeeds
                0x000000002000026c        0x4 ./User/main.o
                0x000000002000026c                Overspeeds
 .sbss.Sharpacceleration
                0x0000000020000270        0x4 ./User/main.o
                0x0000000020000270                Sharpacceleration
 .sbss.Sharpslowdown
                0x0000000020000274        0x4 ./User/main.o
                0x0000000020000274                Sharpslowdown
 .sbss.Smokings
                0x0000000020000278        0x4 ./User/main.o
                0x0000000020000278                Smokings
 .sbss.Ten      0x000000002000027c        0x4 ./User/main.o
                0x000000002000027c                Ten
 .sbss.adcx     0x0000000020000280        0x4 ./User/main.o
                0x0000000020000280                adcx
 .sbss.alcohol  0x0000000020000284        0x4 ./User/main.o
                0x0000000020000284                alcohol
 .sbss.humidity
                0x0000000020000288        0x4 ./User/main.o
                0x0000000020000288                humidity
 .sbss.laps     0x000000002000028c        0x4 ./User/main.o
                0x000000002000028c                laps
 .sbss.length   0x0000000020000290        0x4 ./User/main.o
                0x0000000020000290                length
 .sbss.mileage  0x0000000020000294        0x4 ./User/main.o
                0x0000000020000294                mileage
 .sbss.radCir   0x0000000020000298        0x4 ./User/main.o
                0x0000000020000298                radCir
 .sbss.radHumi  0x000000002000029c        0x4 ./User/main.o
                0x000000002000029c                radHumi
 .sbss.radTemp  0x00000000200002a0        0x4 ./User/main.o
                0x00000000200002a0                radTemp
 .sbss.radspeed
                0x00000000200002a4        0x4 ./User/main.o
                0x00000000200002a4                radspeed
 .sbss.rate     0x00000000200002a8        0x4 ./User/main.o
                0x00000000200002a8                rate
 .sbss.shidu    0x00000000200002ac        0x2 ./User/main.o
                0x00000000200002ac                shidu
 *fill*         0x00000000200002ae        0x2 
 .sbss.speed    0x00000000200002b0        0x4 ./User/main.o
                0x00000000200002b0                speed
 .sbss.temperature
                0x00000000200002b4        0x4 ./User/main.o
                0x00000000200002b4                temperature
 .sbss.total    0x00000000200002b8        0x4 ./User/main.o
                0x00000000200002b8                total
 .sbss.wendu    0x00000000200002bc        0x2 ./User/main.o
                0x00000000200002bc                wendu
 *fill*         0x00000000200002be        0x2 
 .sbss.NVIC_Priority_Group
                0x00000000200002c0        0x4 ./Peripheral/src/ch32v30x_misc.o
                0x00000000200002c0                NVIC_Priority_Group
 .sbss.p_ms     0x00000000200002c4        0x2 ./Debug/debug.o
 .sbss.p_us     0x00000000200002c6        0x1 ./Debug/debug.o
 *fill*         0x00000000200002c7        0x1 
 .sbss.__malloc_free_list
                0x00000000200002c8        0x4 c:/mounriver/mounriver_studio/toolchain/risc-v embedded gcc/bin/../lib/gcc/riscv-none-embed/8.2.0/../../../../riscv-none-embed/lib/rv32imacxw/ilp32\libg_nano.a(lib_a-nano-mallocr.o)
                0x00000000200002c8                __malloc_free_list
 .sbss.__malloc_sbrk_start
                0x00000000200002cc        0x4 c:/mounriver/mounriver_studio/toolchain/risc-v embedded gcc/bin/../lib/gcc/riscv-none-embed/8.2.0/../../../../riscv-none-embed/lib/rv32imacxw/ilp32\libg_nano.a(lib_a-nano-mallocr.o)
                0x00000000200002cc                __malloc_sbrk_start
 *(.gnu.linkonce.sb.*)
 *(.bss*)
 .bss.USART_RX_BUF
                0x00000000200002d0       0xc8 ./hardware/USART2/USART2.o
                0x00000000200002d0                USART_RX_BUF
 .bss.buf       0x0000000020000398       0x40 ./hardware/UART_show/uartshow.o
                0x0000000020000398                buf
 .bss.str       0x00000000200003d8       0x20 ./hardware/UART_show/uartshow.o
                0x00000000200003d8                str
 .bss.calendar  0x00000000200003f8        0xa ./hardware/RTC/RTC.o
                0x00000000200003f8                calendar
 *(.gnu.linkonce.b.*)
 *(COMMON*)
 *fill*         0x0000000020000402        0x2 
 COMMON         0x0000000020000404        0x4 c:/mounriver/mounriver_studio/toolchain/risc-v embedded gcc/bin/../lib/gcc/riscv-none-embed/8.2.0/../../../../riscv-none-embed/lib/rv32imacxw/ilp32\libg_nano.a(lib_a-reent.o)
                0x0000000020000404                errno
                0x0000000020000408                . = ALIGN (0x4)
                0x0000000020000408                PROVIDE (_ebss = .)
                0x0000000020000408                PROVIDE (_end = _ebss)
                [!provide]                        PROVIDE (end = .)

.stack          0x0000000020007800      0x800
                0x0000000020007800                PROVIDE (_heap_end = .)
                0x0000000020007800                . = ALIGN (0x4)
                [!provide]                        PROVIDE (_susrstack = .)
                0x0000000020008000                . = (. + __stack_size)
 *fill*         0x0000000020007800      0x800 
                0x0000000020008000                PROVIDE (_eusrstack = .)
OUTPUT(CH32V307VCT6_EVT.elf elf32-littleriscv)

.debug_info     0x0000000000000000    0x1ba1b
 .debug_info    0x0000000000000000     0x11dd ./hardware/USART3/USART3.o
 .debug_info    0x00000000000011dd     0x1141 ./hardware/USART2/USART2.o
 .debug_info    0x000000000000231e     0x19ba ./hardware/UART_show/uartshow.o
 .debug_info    0x0000000000003cd8     0x102d ./hardware/UART4/UART4.o
 .debug_info    0x0000000000004d05     0x154b ./hardware/Speed/speed.o
 .debug_info    0x0000000000006250     0x1358 ./hardware/RTC/RTC.o
 .debug_info    0x00000000000075a8     0x1269 ./hardware/KEY_Pwm/key_pwm.o
 .debug_info    0x0000000000008811     0x148c ./hardware/HC-SR04/HC-SR04.o
 .debug_info    0x0000000000009c9d      0xe35 ./hardware/DHT11/dht11.o
 .debug_info    0x000000000000aad2     0x1071 ./hardware/ADC_SMOKE/ADC.o
 .debug_info    0x000000000000bb43      0x962 ./User/ch32v30x_it.o
 .debug_info    0x000000000000c4a5     0x166e ./User/main.o
 .debug_info    0x000000000000db13      0xb89 ./User/system_ch32v30x.o
 .debug_info    0x000000000000e69c       0x22 ./Startup/startup_ch32v30x_D8C.o
 .debug_info    0x000000000000e6be     0x16e9 ./Peripheral/src/ch32v30x_adc.o
 .debug_info    0x000000000000fda7     0x10c2 ./Peripheral/src/ch32v30x_bkp.o
 .debug_info    0x0000000000010e69      0xc0d ./Peripheral/src/ch32v30x_exti.o
 .debug_info    0x0000000000011a76     0x1093 ./Peripheral/src/ch32v30x_gpio.o
 .debug_info    0x0000000000012b09      0xf72 ./Peripheral/src/ch32v30x_misc.o
 .debug_info    0x0000000000013a7b      0xf91 ./Peripheral/src/ch32v30x_pwr.o
 .debug_info    0x0000000000014a0c     0x156e ./Peripheral/src/ch32v30x_rcc.o
 .debug_info    0x0000000000015f7a      0xd4f ./Peripheral/src/ch32v30x_rtc.o
 .debug_info    0x0000000000016cc9     0x2a16 ./Peripheral/src/ch32v30x_tim.o
 .debug_info    0x00000000000196df     0x1420 ./Peripheral/src/ch32v30x_usart.o
 .debug_info    0x000000000001aaff      0xf1c ./Debug/debug.o

.debug_abbrev   0x0000000000000000     0x47b6
 .debug_abbrev  0x0000000000000000      0x2d3 ./hardware/USART3/USART3.o
 .debug_abbrev  0x00000000000002d3      0x2d1 ./hardware/USART2/USART2.o
 .debug_abbrev  0x00000000000005a4      0x271 ./hardware/UART_show/uartshow.o
 .debug_abbrev  0x0000000000000815      0x295 ./hardware/UART4/UART4.o
 .debug_abbrev  0x0000000000000aaa      0x316 ./hardware/Speed/speed.o
 .debug_abbrev  0x0000000000000dc0      0x3c5 ./hardware/RTC/RTC.o
 .debug_abbrev  0x0000000000001185      0x2b3 ./hardware/KEY_Pwm/key_pwm.o
 .debug_abbrev  0x0000000000001438      0x323 ./hardware/HC-SR04/HC-SR04.o
 .debug_abbrev  0x000000000000175b      0x328 ./hardware/DHT11/dht11.o
 .debug_abbrev  0x0000000000001a83      0x30f ./hardware/ADC_SMOKE/ADC.o
 .debug_abbrev  0x0000000000001d92      0x1cf ./User/ch32v30x_it.o
 .debug_abbrev  0x0000000000001f61      0x288 ./User/main.o
 .debug_abbrev  0x00000000000021e9      0x2c0 ./User/system_ch32v30x.o
 .debug_abbrev  0x00000000000024a9       0x12 ./Startup/startup_ch32v30x_D8C.o
 .debug_abbrev  0x00000000000024bb      0x3a9 ./Peripheral/src/ch32v30x_adc.o
 .debug_abbrev  0x0000000000002864      0x2cc ./Peripheral/src/ch32v30x_bkp.o
 .debug_abbrev  0x0000000000002b30      0x2da ./Peripheral/src/ch32v30x_exti.o
 .debug_abbrev  0x0000000000002e0a      0x309 ./Peripheral/src/ch32v30x_gpio.o
 .debug_abbrev  0x0000000000003113      0x2fb ./Peripheral/src/ch32v30x_misc.o
 .debug_abbrev  0x000000000000340e      0x384 ./Peripheral/src/ch32v30x_pwr.o
 .debug_abbrev  0x0000000000003792      0x351 ./Peripheral/src/ch32v30x_rcc.o
 .debug_abbrev  0x0000000000003ae3      0x2c0 ./Peripheral/src/ch32v30x_rtc.o
 .debug_abbrev  0x0000000000003da3      0x408 ./Peripheral/src/ch32v30x_tim.o
 .debug_abbrev  0x00000000000041ab      0x312 ./Peripheral/src/ch32v30x_usart.o
 .debug_abbrev  0x00000000000044bd      0x2f9 ./Debug/debug.o

.debug_loc      0x0000000000000000     0x4f6d
 .debug_loc     0x0000000000000000       0xd7 ./hardware/USART3/USART3.o
 .debug_loc     0x00000000000000d7       0x52 ./hardware/USART2/USART2.o
 .debug_loc     0x0000000000000129       0x1e ./hardware/UART4/UART4.o
 .debug_loc     0x0000000000000147       0x42 ./hardware/Speed/speed.o
 .debug_loc     0x0000000000000189      0x398 ./hardware/RTC/RTC.o
 .debug_loc     0x0000000000000521       0xe9 ./hardware/HC-SR04/HC-SR04.o
 .debug_loc     0x000000000000060a      0x13b ./hardware/DHT11/dht11.o
 .debug_loc     0x0000000000000745       0xac ./hardware/ADC_SMOKE/ADC.o
 .debug_loc     0x00000000000007f1       0xda ./User/system_ch32v30x.o
 .debug_loc     0x00000000000008cb      0xab6 ./Peripheral/src/ch32v30x_adc.o
 .debug_loc     0x0000000000001381       0xd8 ./Peripheral/src/ch32v30x_bkp.o
 .debug_loc     0x0000000000001459      0x181 ./Peripheral/src/ch32v30x_exti.o
 .debug_loc     0x00000000000015da      0x670 ./Peripheral/src/ch32v30x_gpio.o
 .debug_loc     0x0000000000001c4a       0xce ./Peripheral/src/ch32v30x_misc.o
 .debug_loc     0x0000000000001d18      0x278 ./Peripheral/src/ch32v30x_pwr.o
 .debug_loc     0x0000000000001f90      0xadb ./Peripheral/src/ch32v30x_rcc.o
 .debug_loc     0x0000000000002a6b      0x272 ./Peripheral/src/ch32v30x_rtc.o
 .debug_loc     0x0000000000002cdd     0x195e ./Peripheral/src/ch32v30x_tim.o
 .debug_loc     0x000000000000463b      0x7bb ./Peripheral/src/ch32v30x_usart.o
 .debug_loc     0x0000000000004df6      0x177 ./Debug/debug.o

.debug_aranges  0x0000000000000000      0xd28
 .debug_aranges
                0x0000000000000000       0x38 ./hardware/USART3/USART3.o
 .debug_aranges
                0x0000000000000038       0x28 ./hardware/USART2/USART2.o
 .debug_aranges
                0x0000000000000060       0xa8 ./hardware/UART_show/uartshow.o
 .debug_aranges
                0x0000000000000108       0x20 ./hardware/UART4/UART4.o
 .debug_aranges
                0x0000000000000128       0x48 ./hardware/Speed/speed.o
 .debug_aranges
                0x0000000000000170       0x58 ./hardware/RTC/RTC.o
 .debug_aranges
                0x00000000000001c8       0x50 ./hardware/KEY_Pwm/key_pwm.o
 .debug_aranges
                0x0000000000000218       0x48 ./hardware/HC-SR04/HC-SR04.o
 .debug_aranges
                0x0000000000000260       0x48 ./hardware/DHT11/dht11.o
 .debug_aranges
                0x00000000000002a8       0x30 ./hardware/ADC_SMOKE/ADC.o
 .debug_aranges
                0x00000000000002d8       0x28 ./User/ch32v30x_it.o
 .debug_aranges
                0x0000000000000300       0x20 ./User/main.o
 .debug_aranges
                0x0000000000000320       0x28 ./User/system_ch32v30x.o
 .debug_aranges
                0x0000000000000348       0x30 ./Startup/startup_ch32v30x_D8C.o
 .debug_aranges
                0x0000000000000378      0x150 ./Peripheral/src/ch32v30x_adc.o
 .debug_aranges
                0x00000000000004c8       0x78 ./Peripheral/src/ch32v30x_bkp.o
 .debug_aranges
                0x0000000000000540       0x50 ./Peripheral/src/ch32v30x_exti.o
 .debug_aranges
                0x0000000000000590       0xa8 ./Peripheral/src/ch32v30x_gpio.o
 .debug_aranges
                0x0000000000000638       0x28 ./Peripheral/src/ch32v30x_misc.o
 .debug_aranges
                0x0000000000000660       0x88 ./Peripheral/src/ch32v30x_pwr.o
 .debug_aranges
                0x00000000000006e8      0x1a8 ./Peripheral/src/ch32v30x_rcc.o
 .debug_aranges
                0x0000000000000890       0x80 ./Peripheral/src/ch32v30x_rtc.o
 .debug_aranges
                0x0000000000000910      0x2d0 ./Peripheral/src/ch32v30x_tim.o
 .debug_aranges
                0x0000000000000be0      0x100 ./Peripheral/src/ch32v30x_usart.o
 .debug_aranges
                0x0000000000000ce0       0x48 ./Debug/debug.o

.debug_ranges   0x0000000000000000      0xc68
 .debug_ranges  0x0000000000000000       0x28 ./hardware/USART3/USART3.o
 .debug_ranges  0x0000000000000028       0x18 ./hardware/USART2/USART2.o
 .debug_ranges  0x0000000000000040       0x98 ./hardware/UART_show/uartshow.o
 .debug_ranges  0x00000000000000d8       0x10 ./hardware/UART4/UART4.o
 .debug_ranges  0x00000000000000e8       0x38 ./hardware/Speed/speed.o
 .debug_ranges  0x0000000000000120       0x60 ./hardware/RTC/RTC.o
 .debug_ranges  0x0000000000000180       0x40 ./hardware/KEY_Pwm/key_pwm.o
 .debug_ranges  0x00000000000001c0       0x38 ./hardware/HC-SR04/HC-SR04.o
 .debug_ranges  0x00000000000001f8       0x38 ./hardware/DHT11/dht11.o
 .debug_ranges  0x0000000000000230       0x20 ./hardware/ADC_SMOKE/ADC.o
 .debug_ranges  0x0000000000000250       0x18 ./User/ch32v30x_it.o
 .debug_ranges  0x0000000000000268       0x10 ./User/main.o
 .debug_ranges  0x0000000000000278       0x38 ./User/system_ch32v30x.o
 .debug_ranges  0x00000000000002b0       0x28 ./Startup/startup_ch32v30x_D8C.o
 .debug_ranges  0x00000000000002d8      0x140 ./Peripheral/src/ch32v30x_adc.o
 .debug_ranges  0x0000000000000418       0x68 ./Peripheral/src/ch32v30x_bkp.o
 .debug_ranges  0x0000000000000480       0x40 ./Peripheral/src/ch32v30x_exti.o
 .debug_ranges  0x00000000000004c0       0x98 ./Peripheral/src/ch32v30x_gpio.o
 .debug_ranges  0x0000000000000558       0x48 ./Peripheral/src/ch32v30x_misc.o
 .debug_ranges  0x00000000000005a0       0xa8 ./Peripheral/src/ch32v30x_pwr.o
 .debug_ranges  0x0000000000000648      0x198 ./Peripheral/src/ch32v30x_rcc.o
 .debug_ranges  0x00000000000007e0       0x70 ./Peripheral/src/ch32v30x_rtc.o
 .debug_ranges  0x0000000000000850      0x2f0 ./Peripheral/src/ch32v30x_tim.o
 .debug_ranges  0x0000000000000b40       0xf0 ./Peripheral/src/ch32v30x_usart.o
 .debug_ranges  0x0000000000000c30       0x38 ./Debug/debug.o

.debug_line     0x0000000000000000    0x118de
 .debug_line    0x0000000000000000      0x77e ./hardware/USART3/USART3.o
 .debug_line    0x000000000000077e      0x6b1 ./hardware/USART2/USART2.o
 .debug_line    0x0000000000000e2f      0x8f9 ./hardware/UART_show/uartshow.o
 .debug_line    0x0000000000001728      0x4a8 ./hardware/UART4/UART4.o
 .debug_line    0x0000000000001bd0      0x83d ./hardware/Speed/speed.o
 .debug_line    0x000000000000240d      0xb4d ./hardware/RTC/RTC.o
 .debug_line    0x0000000000002f5a      0x9fa ./hardware/KEY_Pwm/key_pwm.o
 .debug_line    0x0000000000003954      0x75e ./hardware/HC-SR04/HC-SR04.o
 .debug_line    0x00000000000040b2      0x7b3 ./hardware/DHT11/dht11.o
 .debug_line    0x0000000000004865      0x654 ./hardware/ADC_SMOKE/ADC.o
 .debug_line    0x0000000000004eb9      0x235 ./User/ch32v30x_it.o
 .debug_line    0x00000000000050ee      0xf89 ./User/main.o
 .debug_line    0x0000000000006077      0x76f ./User/system_ch32v30x.o
 .debug_line    0x00000000000067e6      0x356 ./Startup/startup_ch32v30x_D8C.o
 .debug_line    0x0000000000006b3c     0x1889 ./Peripheral/src/ch32v30x_adc.o
 .debug_line    0x00000000000083c5      0x686 ./Peripheral/src/ch32v30x_bkp.o
 .debug_line    0x0000000000008a4b      0x5f2 ./Peripheral/src/ch32v30x_exti.o
 .debug_line    0x000000000000903d      0xd60 ./Peripheral/src/ch32v30x_gpio.o
 .debug_line    0x0000000000009d9d      0x4ed ./Peripheral/src/ch32v30x_misc.o
 .debug_line    0x000000000000a28a      0xa78 ./Peripheral/src/ch32v30x_pwr.o
 .debug_line    0x000000000000ad02     0x19a5 ./Peripheral/src/ch32v30x_rcc.o
 .debug_line    0x000000000000c6a7      0x7c3 ./Peripheral/src/ch32v30x_rtc.o
 .debug_line    0x000000000000ce6a     0x3312 ./Peripheral/src/ch32v30x_tim.o
 .debug_line    0x000000000001017c     0x1043 ./Peripheral/src/ch32v30x_usart.o
 .debug_line    0x00000000000111bf      0x71f ./Debug/debug.o

.debug_str      0x0000000000000000     0x3de6
 .debug_str     0x0000000000000000      0xe6e ./hardware/USART3/USART3.o
                                        0xefd (size before relaxing)
 .debug_str     0x0000000000000e6e       0x7f ./hardware/USART2/USART2.o
                                        0xedb (size before relaxing)
 .debug_str     0x0000000000000eed      0x27b ./hardware/UART_show/uartshow.o
                                        0x852 (size before relaxing)
 .debug_str     0x0000000000001168       0x25 ./hardware/UART4/UART4.o
                                        0xe57 (size before relaxing)
 .debug_str     0x000000000000118d      0x34a ./hardware/Speed/speed.o
                                       0x10be (size before relaxing)
 .debug_str     0x00000000000014d7      0x1f0 ./hardware/RTC/RTC.o
                                        0xde4 (size before relaxing)
 .debug_str     0x00000000000016c7      0x1c6 ./hardware/KEY_Pwm/key_pwm.o
                                        0xf20 (size before relaxing)
 .debug_str     0x000000000000188d       0xce ./hardware/HC-SR04/HC-SR04.o
                                       0x1044 (size before relaxing)
 .debug_str     0x000000000000195b       0x7a ./hardware/DHT11/dht11.o
                                        0x7e3 (size before relaxing)
 .debug_str     0x00000000000019d5      0x2ad ./hardware/ADC_SMOKE/ADC.o
                                        0xa12 (size before relaxing)
 .debug_str     0x0000000000001c82       0x34 ./User/ch32v30x_it.o
                                        0x5bc (size before relaxing)
 .debug_str     0x0000000000001cb6       0x96 ./User/main.o
                                        0xbbc (size before relaxing)
 .debug_str     0x0000000000001d4c       0xf5 ./User/system_ch32v30x.o
                                        0x6d2 (size before relaxing)
 .debug_str     0x0000000000001e41       0x72 ./Startup/startup_ch32v30x_D8C.o
 .debug_str     0x0000000000001eb3      0x3dd ./Peripheral/src/ch32v30x_adc.o
                                        0xc1d (size before relaxing)
 .debug_str     0x0000000000002290      0x376 ./Peripheral/src/ch32v30x_bkp.o
                                        0xaab (size before relaxing)
 .debug_str     0x0000000000002606       0xaf ./Peripheral/src/ch32v30x_exti.o
                                        0x793 (size before relaxing)
 .debug_str     0x00000000000026b5      0x1d2 ./Peripheral/src/ch32v30x_gpio.o
                                        0x977 (size before relaxing)
 .debug_str     0x0000000000002887       0xfa ./Peripheral/src/ch32v30x_misc.o
                                        0xcd1 (size before relaxing)
 .debug_str     0x0000000000002981      0x196 ./Peripheral/src/ch32v30x_pwr.o
                                        0x853 (size before relaxing)
 .debug_str     0x0000000000002b17      0x53a ./Peripheral/src/ch32v30x_rcc.o
                                        0xcd0 (size before relaxing)
 .debug_str     0x0000000000003051      0x10b ./Peripheral/src/ch32v30x_rtc.o
                                        0x7f2 (size before relaxing)
 .debug_str     0x000000000000315c      0x91c ./Peripheral/src/ch32v30x_tim.o
                                       0x1281 (size before relaxing)
 .debug_str     0x0000000000003a78      0x317 ./Peripheral/src/ch32v30x_usart.o
                                        0xb1d (size before relaxing)
 .debug_str     0x0000000000003d8f       0x57 ./Debug/debug.o
                                        0x905 (size before relaxing)

.comment        0x0000000000000000       0x33
 .comment       0x0000000000000000       0x33 ./hardware/USART3/USART3.o
                                         0x34 (size before relaxing)
 .comment       0x0000000000000033       0x34 ./hardware/USART2/USART2.o
 .comment       0x0000000000000033       0x34 ./hardware/UART_show/uartshow.o
 .comment       0x0000000000000033       0x34 ./hardware/UART4/UART4.o
 .comment       0x0000000000000033       0x34 ./hardware/Speed/speed.o
 .comment       0x0000000000000033       0x34 ./hardware/RTC/RTC.o
 .comment       0x0000000000000033       0x34 ./hardware/KEY_Pwm/key_pwm.o
 .comment       0x0000000000000033       0x34 ./hardware/HC-SR04/HC-SR04.o
 .comment       0x0000000000000033       0x34 ./hardware/DHT11/dht11.o
 .comment       0x0000000000000033       0x34 ./hardware/ADC_SMOKE/ADC.o
 .comment       0x0000000000000033       0x34 ./User/ch32v30x_it.o
 .comment       0x0000000000000033       0x34 ./User/main.o
 .comment       0x0000000000000033       0x34 ./User/system_ch32v30x.o
 .comment       0x0000000000000033       0x34 ./Peripheral/src/ch32v30x_adc.o
 .comment       0x0000000000000033       0x34 ./Peripheral/src/ch32v30x_bkp.o
 .comment       0x0000000000000033       0x34 ./Peripheral/src/ch32v30x_exti.o
 .comment       0x0000000000000033       0x34 ./Peripheral/src/ch32v30x_gpio.o
 .comment       0x0000000000000033       0x34 ./Peripheral/src/ch32v30x_misc.o
 .comment       0x0000000000000033       0x34 ./Peripheral/src/ch32v30x_pwr.o
 .comment       0x0000000000000033       0x34 ./Peripheral/src/ch32v30x_rcc.o
 .comment       0x0000000000000033       0x34 ./Peripheral/src/ch32v30x_rtc.o
 .comment       0x0000000000000033       0x34 ./Peripheral/src/ch32v30x_tim.o
 .comment       0x0000000000000033       0x34 ./Peripheral/src/ch32v30x_usart.o
 .comment       0x0000000000000033       0x34 ./Debug/debug.o

.debug_frame    0x0000000000000000     0x2f58
 .debug_frame   0x0000000000000000       0xa8 ./hardware/USART3/USART3.o
 .debug_frame   0x00000000000000a8       0x5c ./hardware/USART2/USART2.o
 .debug_frame   0x0000000000000104      0x244 ./hardware/UART_show/uartshow.o
 .debug_frame   0x0000000000000348       0x38 ./hardware/UART4/UART4.o
 .debug_frame   0x0000000000000380       0xdc ./hardware/Speed/speed.o
 .debug_frame   0x000000000000045c      0x114 ./hardware/RTC/RTC.o
 .debug_frame   0x0000000000000570       0x94 ./hardware/KEY_Pwm/key_pwm.o
 .debug_frame   0x0000000000000604       0xd8 ./hardware/HC-SR04/HC-SR04.o
 .debug_frame   0x00000000000006dc       0xf0 ./hardware/DHT11/dht11.o
 .debug_frame   0x00000000000007cc       0x84 ./hardware/ADC_SMOKE/ADC.o
 .debug_frame   0x0000000000000850       0x30 ./User/ch32v30x_it.o
 .debug_frame   0x0000000000000880       0x40 ./User/main.o
 .debug_frame   0x00000000000008c0       0x3c ./User/system_ch32v30x.o
 .debug_frame   0x00000000000008fc      0x2b4 ./Peripheral/src/ch32v30x_adc.o
 .debug_frame   0x0000000000000bb0       0xec ./Peripheral/src/ch32v30x_bkp.o
 .debug_frame   0x0000000000000c9c       0x90 ./Peripheral/src/ch32v30x_exti.o
 .debug_frame   0x0000000000000d2c      0x148 ./Peripheral/src/ch32v30x_gpio.o
 .debug_frame   0x0000000000000e74       0x30 ./Peripheral/src/ch32v30x_misc.o
 .debug_frame   0x0000000000000ea4       0xfc ./Peripheral/src/ch32v30x_pwr.o
 .debug_frame   0x0000000000000fa0      0x344 ./Peripheral/src/ch32v30x_rcc.o
 .debug_frame   0x00000000000012e4      0x12c ./Peripheral/src/ch32v30x_rtc.o
 .debug_frame   0x0000000000001410      0x614 ./Peripheral/src/ch32v30x_tim.o
 .debug_frame   0x0000000000001a24      0x204 ./Peripheral/src/ch32v30x_usart.o
 .debug_frame   0x0000000000001c28       0x9c ./Debug/debug.o
 .debug_frame   0x0000000000001cc4       0x20 c:/mounriver/mounriver_studio/toolchain/risc-v embedded gcc/bin/../lib/gcc/riscv-none-embed/8.2.0/rv32imacxw/ilp32\libgcc.a(ledf2.o)
 .debug_frame   0x0000000000001ce4       0x54 c:/mounriver/mounriver_studio/toolchain/risc-v embedded gcc/bin/../lib/gcc/riscv-none-embed/8.2.0/rv32imacxw/ilp32\libgcc.a(muldf3.o)
 .debug_frame   0x0000000000001d38       0x44 c:/mounriver/mounriver_studio/toolchain/risc-v embedded gcc/bin/../lib/gcc/riscv-none-embed/8.2.0/rv32imacxw/ilp32\libgcc.a(subdf3.o)
 .debug_frame   0x0000000000001d7c       0x38 c:/mounriver/mounriver_studio/toolchain/risc-v embedded gcc/bin/../lib/gcc/riscv-none-embed/8.2.0/rv32imacxw/ilp32\libgcc.a(floatsidf.o)
 .debug_frame   0x0000000000001db4       0x40 c:/mounriver/mounriver_studio/toolchain/risc-v embedded gcc/bin/../lib/gcc/riscv-none-embed/8.2.0/rv32imacxw/ilp32\libgcc.a(addsf3.o)
 .debug_frame   0x0000000000001df4       0x50 c:/mounriver/mounriver_studio/toolchain/risc-v embedded gcc/bin/../lib/gcc/riscv-none-embed/8.2.0/rv32imacxw/ilp32\libgcc.a(divsf3.o)
 .debug_frame   0x0000000000001e44       0x20 c:/mounriver/mounriver_studio/toolchain/risc-v embedded gcc/bin/../lib/gcc/riscv-none-embed/8.2.0/rv32imacxw/ilp32\libgcc.a(eqsf2.o)
 .debug_frame   0x0000000000001e64       0x20 c:/mounriver/mounriver_studio/toolchain/risc-v embedded gcc/bin/../lib/gcc/riscv-none-embed/8.2.0/rv32imacxw/ilp32\libgcc.a(gesf2.o)
 .debug_frame   0x0000000000001e84       0x20 c:/mounriver/mounriver_studio/toolchain/risc-v embedded gcc/bin/../lib/gcc/riscv-none-embed/8.2.0/rv32imacxw/ilp32\libgcc.a(lesf2.o)
 .debug_frame   0x0000000000001ea4       0x50 c:/mounriver/mounriver_studio/toolchain/risc-v embedded gcc/bin/../lib/gcc/riscv-none-embed/8.2.0/rv32imacxw/ilp32\libgcc.a(mulsf3.o)
 .debug_frame   0x0000000000001ef4       0x3c c:/mounriver/mounriver_studio/toolchain/risc-v embedded gcc/bin/../lib/gcc/riscv-none-embed/8.2.0/rv32imacxw/ilp32\libgcc.a(subsf3.o)
 .debug_frame   0x0000000000001f30       0x20 c:/mounriver/mounriver_studio/toolchain/risc-v embedded gcc/bin/../lib/gcc/riscv-none-embed/8.2.0/rv32imacxw/ilp32\libgcc.a(fixsfsi.o)
 .debug_frame   0x0000000000001f50       0x20 c:/mounriver/mounriver_studio/toolchain/risc-v embedded gcc/bin/../lib/gcc/riscv-none-embed/8.2.0/rv32imacxw/ilp32\libgcc.a(fixunssfsi.o)
 .debug_frame   0x0000000000001f70       0x38 c:/mounriver/mounriver_studio/toolchain/risc-v embedded gcc/bin/../lib/gcc/riscv-none-embed/8.2.0/rv32imacxw/ilp32\libgcc.a(floatsisf.o)
 .debug_frame   0x0000000000001fa8       0x44 c:/mounriver/mounriver_studio/toolchain/risc-v embedded gcc/bin/../lib/gcc/riscv-none-embed/8.2.0/rv32imacxw/ilp32\libgcc.a(floatunsisf.o)
 .debug_frame   0x0000000000001fec       0x38 c:/mounriver/mounriver_studio/toolchain/risc-v embedded gcc/bin/../lib/gcc/riscv-none-embed/8.2.0/rv32imacxw/ilp32\libgcc.a(extendsfdf2.o)
 .debug_frame   0x0000000000002024       0x20 c:/mounriver/mounriver_studio/toolchain/risc-v embedded gcc/bin/../lib/gcc/riscv-none-embed/8.2.0/rv32imacxw/ilp32\libgcc.a(truncdfsf2.o)
 .debug_frame   0x0000000000002044       0x20 c:/mounriver/mounriver_studio/toolchain/risc-v embedded gcc/bin/../lib/gcc/riscv-none-embed/8.2.0/rv32imacxw/ilp32\libgcc.a(_clzsi2.o)
 .debug_frame   0x0000000000002064       0xbc c:/mounriver/mounriver_studio/toolchain/risc-v embedded gcc/bin/../lib/gcc/riscv-none-embed/8.2.0/../../../../riscv-none-embed/lib/rv32imacxw/ilp32\libg_nano.a(lib_a-nano-vfprintf_float.o)
 .debug_frame   0x0000000000002120       0x8c c:/mounriver/mounriver_studio/toolchain/risc-v embedded gcc/bin/../lib/gcc/riscv-none-embed/8.2.0/../../../../riscv-none-embed/lib/rv32imacxw/ilp32\libg_nano.a(lib_a-nano-vfprintf_i.o)
 .debug_frame   0x00000000000021ac       0x60 c:/mounriver/mounriver_studio/toolchain/risc-v embedded gcc/bin/../lib/gcc/riscv-none-embed/8.2.0/../../../../riscv-none-embed/lib/rv32imacxw/ilp32\libg_nano.a(lib_a-nano-vfscanf_float.o)
 .debug_frame   0x000000000000220c       0x20 c:/mounriver/mounriver_studio/toolchain/risc-v embedded gcc/bin/../lib/gcc/riscv-none-embed/8.2.0/../../../../riscv-none-embed/lib/rv32imacxw/ilp32\libg_nano.a(lib_a-sf_nan.o)
 .debug_frame   0x000000000000222c       0x48 c:/mounriver/mounriver_studio/toolchain/risc-v embedded gcc/bin/../lib/gcc/riscv-none-embed/8.2.0/../../../../riscv-none-embed/lib/rv32imacxw/ilp32\libg_nano.a(lib_a-sprintf.o)
 .debug_frame   0x0000000000002274       0x20 c:/mounriver/mounriver_studio/toolchain/risc-v embedded gcc/bin/../lib/gcc/riscv-none-embed/8.2.0/../../../../riscv-none-embed/lib/rv32imacxw/ilp32\libg_nano.a(lib_a-strcpy.o)
 .debug_frame   0x0000000000002294       0x20 c:/mounriver/mounriver_studio/toolchain/risc-v embedded gcc/bin/../lib/gcc/riscv-none-embed/8.2.0/../../../../riscv-none-embed/lib/rv32imacxw/ilp32\libg_nano.a(lib_a-strlen.o)
 .debug_frame   0x00000000000022b4      0x154 c:/mounriver/mounriver_studio/toolchain/risc-v embedded gcc/bin/../lib/gcc/riscv-none-embed/8.2.0/../../../../riscv-none-embed/lib/rv32imacxw/ilp32\libg_nano.a(lib_a-strtod.o)
 .debug_frame   0x0000000000002408       0x70 c:/mounriver/mounriver_studio/toolchain/risc-v embedded gcc/bin/../lib/gcc/riscv-none-embed/8.2.0/../../../../riscv-none-embed/lib/rv32imacxw/ilp32\libg_nano.a(lib_a-strtol.o)
 .debug_frame   0x0000000000002478       0x98 c:/mounriver/mounriver_studio/toolchain/risc-v embedded gcc/bin/../lib/gcc/riscv-none-embed/8.2.0/../../../../riscv-none-embed/lib/rv32imacxw/ilp32\libg_nano.a(lib_a-dtoa.o)
 .debug_frame   0x0000000000002510       0x84 c:/mounriver/mounriver_studio/toolchain/risc-v embedded gcc/bin/../lib/gcc/riscv-none-embed/8.2.0/../../../../riscv-none-embed/lib/rv32imacxw/ilp32\libg_nano.a(lib_a-gdtoa-gethex.o)
 .debug_frame   0x0000000000002594       0x80 c:/mounriver/mounriver_studio/toolchain/risc-v embedded gcc/bin/../lib/gcc/riscv-none-embed/8.2.0/../../../../riscv-none-embed/lib/rv32imacxw/ilp32\libg_nano.a(lib_a-gdtoa-hexnan.o)
 .debug_frame   0x0000000000002614       0x78 c:/mounriver/mounriver_studio/toolchain/risc-v embedded gcc/bin/../lib/gcc/riscv-none-embed/8.2.0/../../../../riscv-none-embed/lib/rv32imacxw/ilp32\libg_nano.a(lib_a-locale.o)
 .debug_frame   0x000000000000268c       0x40 c:/mounriver/mounriver_studio/toolchain/risc-v embedded gcc/bin/../lib/gcc/riscv-none-embed/8.2.0/../../../../riscv-none-embed/lib/rv32imacxw/ilp32\libg_nano.a(lib_a-localeconv.o)
 .debug_frame   0x00000000000026cc       0x30 c:/mounriver/mounriver_studio/toolchain/risc-v embedded gcc/bin/../lib/gcc/riscv-none-embed/8.2.0/../../../../riscv-none-embed/lib/rv32imacxw/ilp32\libg_nano.a(lib_a-malloc.o)
 .debug_frame   0x00000000000026fc       0x38 c:/mounriver/mounriver_studio/toolchain/risc-v embedded gcc/bin/../lib/gcc/riscv-none-embed/8.2.0/../../../../riscv-none-embed/lib/rv32imacxw/ilp32\libg_nano.a(lib_a-mbtowc_r.o)
 .debug_frame   0x0000000000002734       0x20 c:/mounriver/mounriver_studio/toolchain/risc-v embedded gcc/bin/../lib/gcc/riscv-none-embed/8.2.0/../../../../riscv-none-embed/lib/rv32imacxw/ilp32\libg_nano.a(lib_a-memchr.o)
 .debug_frame   0x0000000000002754       0x20 c:/mounriver/mounriver_studio/toolchain/risc-v embedded gcc/bin/../lib/gcc/riscv-none-embed/8.2.0/../../../../riscv-none-embed/lib/rv32imacxw/ilp32\libg_nano.a(lib_a-memcpy.o)
 .debug_frame   0x0000000000002774      0x2e0 c:/mounriver/mounriver_studio/toolchain/risc-v embedded gcc/bin/../lib/gcc/riscv-none-embed/8.2.0/../../../../riscv-none-embed/lib/rv32imacxw/ilp32\libg_nano.a(lib_a-mprec.o)
 .debug_frame   0x0000000000002a54       0x30 c:/mounriver/mounriver_studio/toolchain/risc-v embedded gcc/bin/../lib/gcc/riscv-none-embed/8.2.0/../../../../riscv-none-embed/lib/rv32imacxw/ilp32\libg_nano.a(lib_a-nano-callocr.o)
 .debug_frame   0x0000000000002a84       0x40 c:/mounriver/mounriver_studio/toolchain/risc-v embedded gcc/bin/../lib/gcc/riscv-none-embed/8.2.0/../../../../riscv-none-embed/lib/rv32imacxw/ilp32\libg_nano.a(lib_a-nano-freer.o)
 .debug_frame   0x0000000000002ac4       0x40 c:/mounriver/mounriver_studio/toolchain/risc-v embedded gcc/bin/../lib/gcc/riscv-none-embed/8.2.0/../../../../riscv-none-embed/lib/rv32imacxw/ilp32\libg_nano.a(lib_a-nano-mallocr.o)
 .debug_frame   0x0000000000002b04       0xe0 c:/mounriver/mounriver_studio/toolchain/risc-v embedded gcc/bin/../lib/gcc/riscv-none-embed/8.2.0/../../../../riscv-none-embed/lib/rv32imacxw/ilp32\libg_nano.a(lib_a-nano-svfprintf.o)
 .debug_frame   0x0000000000002be4       0x30 c:/mounriver/mounriver_studio/toolchain/risc-v embedded gcc/bin/../lib/gcc/riscv-none-embed/8.2.0/../../../../riscv-none-embed/lib/rv32imacxw/ilp32\libg_nano.a(lib_a-sbrkr.o)
 .debug_frame   0x0000000000002c14       0x20 c:/mounriver/mounriver_studio/toolchain/risc-v embedded gcc/bin/../lib/gcc/riscv-none-embed/8.2.0/../../../../riscv-none-embed/lib/rv32imacxw/ilp32\libg_nano.a(lib_a-strncmp.o)
 .debug_frame   0x0000000000002c34       0x30 c:/mounriver/mounriver_studio/toolchain/risc-v embedded gcc/bin/../lib/gcc/riscv-none-embed/8.2.0/../../../../riscv-none-embed/lib/rv32imacxw/ilp32\libg_nano.a(lib_a-wctomb_r.o)
 .debug_frame   0x0000000000002c64       0x20 c:/mounriver/mounriver_studio/toolchain/risc-v embedded gcc/bin/../lib/gcc/riscv-none-embed/8.2.0/../../../../riscv-none-embed/lib/rv32imacxw/ilp32\libg_nano.a(lib_a-memmove.o)
 .debug_frame   0x0000000000002c84       0x30 c:/mounriver/mounriver_studio/toolchain/risc-v embedded gcc/bin/../lib/gcc/riscv-none-embed/8.2.0/../../../../riscv-none-embed/lib/rv32imacxw/ilp32\libg_nano.a(lib_a-mlock.o)
 .debug_frame   0x0000000000002cb4       0x40 c:/mounriver/mounriver_studio/toolchain/risc-v embedded gcc/bin/../lib/gcc/riscv-none-embed/8.2.0/../../../../riscv-none-embed/lib/rv32imacxw/ilp32\libg_nano.a(lib_a-nano-reallocr.o)
 .debug_frame   0x0000000000002cf4       0x70 c:/mounriver/mounriver_studio/toolchain/risc-v embedded gcc/bin/../lib/gcc/riscv-none-embed/8.2.0/../../../../riscv-none-embed/lib/rv32imacxw/ilp32\libg_nano.a(lib_a-reent.o)
 .debug_frame   0x0000000000002d64       0x20 c:/mounriver/mounriver_studio/toolchain/risc-v embedded gcc/bin/../lib/gcc/riscv-none-embed/8.2.0/../../../../riscv-none-embed/lib/rv32imacxw/ilp32\libg_nano.a(lib_a-nano-msizer.o)
 .debug_frame   0x0000000000002d84       0x44 c:/mounriver/mounriver_studio/toolchain/risc-v embedded gcc/bin/../lib/gcc/riscv-none-embed/8.2.0/rv32imacxw/ilp32\libgcc.a(adddf3.o)
 .debug_frame   0x0000000000002dc8       0x50 c:/mounriver/mounriver_studio/toolchain/risc-v embedded gcc/bin/../lib/gcc/riscv-none-embed/8.2.0/rv32imacxw/ilp32\libgcc.a(divdf3.o)
 .debug_frame   0x0000000000002e18       0x20 c:/mounriver/mounriver_studio/toolchain/risc-v embedded gcc/bin/../lib/gcc/riscv-none-embed/8.2.0/rv32imacxw/ilp32\libgcc.a(eqdf2.o)
 .debug_frame   0x0000000000002e38       0x20 c:/mounriver/mounriver_studio/toolchain/risc-v embedded gcc/bin/../lib/gcc/riscv-none-embed/8.2.0/rv32imacxw/ilp32\libgcc.a(gedf2.o)
 .debug_frame   0x0000000000002e58       0x20 c:/mounriver/mounriver_studio/toolchain/risc-v embedded gcc/bin/../lib/gcc/riscv-none-embed/8.2.0/rv32imacxw/ilp32\libgcc.a(unorddf2.o)
 .debug_frame   0x0000000000002e78       0x20 c:/mounriver/mounriver_studio/toolchain/risc-v embedded gcc/bin/../lib/gcc/riscv-none-embed/8.2.0/rv32imacxw/ilp32\libgcc.a(fixdfsi.o)
 .debug_frame   0x0000000000002e98       0x20 c:/mounriver/mounriver_studio/toolchain/risc-v embedded gcc/bin/../lib/gcc/riscv-none-embed/8.2.0/rv32imacxw/ilp32\libgcc.a(fixunsdfsi.o)
 .debug_frame   0x0000000000002eb8       0x38 c:/mounriver/mounriver_studio/toolchain/risc-v embedded gcc/bin/../lib/gcc/riscv-none-embed/8.2.0/rv32imacxw/ilp32\libgcc.a(floatunsidf.o)
 .debug_frame   0x0000000000002ef0       0x3c c:/mounriver/mounriver_studio/toolchain/risc-v embedded gcc/bin/../lib/gcc/riscv-none-embed/8.2.0/rv32imacxw/ilp32\libgcc.a(extenddftf2.o)
 .debug_frame   0x0000000000002f2c       0x2c c:/mounriver/mounriver_studio/toolchain/risc-v embedded gcc/bin/../lib/gcc/riscv-none-embed/8.2.0/rv32imacxw/ilp32\libgcc.a(trunctfdf2.o)
