
CH32V307VCT6_EVT_test.elf:     file format elf32-littleriscv
CH32V307VCT6_EVT_test.elf
architecture: riscv:rv32, flags 0x00000112:
EXEC_P, HAS_SYMS, D_PAGED
start address 0x00000000

Program Header:
    LOAD off    0x00001000 vaddr 0x00000000 paddr 0x00000000 align 2**12
         filesz 0x0000c3c4 memsz 0x0000c3c4 flags r-x
    LOAD off    0x0000e000 vaddr 0x20000000 paddr 0x0000c3c4 align 2**12
         filesz 0x00000208 memsz 0x000005b0 flags rw-
    LOAD off    0x0000e800 vaddr 0x20007800 paddr 0x20007800 align 2**12
         filesz 0x00000000 memsz 0x00000800 flags rw-

Sections:
Idx Name          Size      VMA       LMA       File off  Algn
  0 .init         00000038  00000000  00000000  00001000  2**1
                  CONTENTS, ALLOC, LOAD, READONLY, CODE
  1 .vector       000001c8  00000038  00000038  00001038  2**1
                  CONTENTS, ALLOC, LOAD, READONLY, CODE
  2 .text         0000c1c4  00000200  00000200  00001200  2**3
                  CONTENTS, ALLOC, LOAD, READONLY, CODE
  3 .fini         00000000  0000c3c4  0000c3c4  0000e208  2**0
                  CONTENTS, ALLOC, LOAD, CODE
  4 .dalign       00000000  20000000  20000000  0000e208  2**0
                  CONTENTS
  5 .dlalign      00000000  0000c3c4  0000c3c4  0000e208  2**0
                  CONTENTS
  6 .data         00000208  20000000  0000c3c4  0000e000  2**2
                  CONTENTS, ALLOC, LOAD, DATA
  7 .bss          000003a8  20000208  0000c5cc  0000e208  2**2
                  ALLOC
  8 .stack        00000800  20007800  20007800  0000e800  2**0
                  ALLOC
  9 .debug_info   000201f7  00000000  00000000  0000e208  2**0
                  CONTENTS, READONLY, DEBUGGING
 10 .debug_abbrev 00005551  00000000  00000000  0002e3ff  2**0
                  CONTENTS, READONLY, DEBUGGING
 11 .debug_loc    00005244  00000000  00000000  00033950  2**0
                  CONTENTS, READONLY, DEBUGGING
 12 .debug_aranges 00000e58  00000000  00000000  00038b98  2**3
                  CONTENTS, READONLY, DEBUGGING
 13 .debug_ranges 00000d48  00000000  00000000  000399f0  2**3
                  CONTENTS, READONLY, DEBUGGING
 14 .debug_line   00013550  00000000  00000000  0003a738  2**0
                  CONTENTS, READONLY, DEBUGGING
 15 .debug_str    00004393  00000000  00000000  0004dc88  2**0
                  CONTENTS, READONLY, DEBUGGING
 16 .comment      00000033  00000000  00000000  0005201b  2**0
                  CONTENTS, READONLY
 17 .debug_frame  00003898  00000000  00000000  00052050  2**2
                  CONTENTS, READONLY, DEBUGGING
 18 .stab         00000084  00000000  00000000  000558e8  2**2
                  CONTENTS, READONLY, DEBUGGING
 19 .stabstr      00000117  00000000  00000000  0005596c  2**0
                  CONTENTS, READONLY, DEBUGGING
SYMBOL TABLE:
00000000 l    d  .init	00000000 .init
00000038 l    d  .vector	00000000 .vector
00000200 l    d  .text	00000000 .text
0000c3c4 l    d  .fini	00000000 .fini
20000000 l    d  .dalign	00000000 .dalign
0000c3c4 l    d  .dlalign	00000000 .dlalign
20000000 l    d  .data	00000000 .data
20000208 l    d  .bss	00000000 .bss
20007800 l    d  .stack	00000000 .stack
00000000 l    d  .debug_info	00000000 .debug_info
00000000 l    d  .debug_abbrev	00000000 .debug_abbrev
00000000 l    d  .debug_loc	00000000 .debug_loc
00000000 l    d  .debug_aranges	00000000 .debug_aranges
00000000 l    d  .debug_ranges	00000000 .debug_ranges
00000000 l    d  .debug_line	00000000 .debug_line
00000000 l    d  .debug_str	00000000 .debug_str
00000000 l    d  .comment	00000000 .comment
00000000 l    d  .debug_frame	00000000 .debug_frame
00000000 l    d  .stab	00000000 .stab
00000000 l    d  .stabstr	00000000 .stabstr
00000000 l    df *ABS*	00000000 ./Startup/startup_ch32v30x_D8C.o
00000038 l       .vector	00000000 _vector_base
00000000 l    df *ABS*	00000000 USART3.c
00000000 l    df *ABS*	00000000 USART2.c
00000000 l    df *ABS*	00000000 uartshow.c
00000000 l    df *ABS*	00000000 UART6.c
00000000 l    df *ABS*	00000000 uart5.c
00000000 l    df *ABS*	00000000 UART4.c
00000000 l    df *ABS*	00000000 speed.c
00000000 l    df *ABS*	00000000 RTC.c
20000238 l     O .bss	00000002 dayCount.5242
00000000 l    df *ABS*	00000000 key_pwm.c
00000000 l    df *ABS*	00000000 IWDG.c
00000000 l    df *ABS*	00000000 HC-SR04.c
00000000 l    df *ABS*	00000000 dht11.c
00000000 l    df *ABS*	00000000 ADC.c
00000000 l    df *ABS*	00000000 ch32v30x_it.c
00000000 l    df *ABS*	00000000 main.c
00000000 l    df *ABS*	00000000 system_ch32v30x.c
00000000 l    df *ABS*	00000000 ch32v30x_adc.c
00000000 l    df *ABS*	00000000 ch32v30x_bkp.c
00000000 l    df *ABS*	00000000 ch32v30x_dma.c
00000000 l    df *ABS*	00000000 ch32v30x_exti.c
00000000 l    df *ABS*	00000000 ch32v30x_gpio.c
00000000 l    df *ABS*	00000000 ch32v30x_iwdg.c
00000000 l    df *ABS*	00000000 ch32v30x_misc.c
00000000 l    df *ABS*	00000000 ch32v30x_pwr.c
00000000 l    df *ABS*	00000000 ch32v30x_rcc.c
20000010 l     O .data	00000010 APBAHBPrescTable
200001f8 l     O .data	00000004 ADCPrescTable
00000000 l    df *ABS*	00000000 ch32v30x_rtc.c
00000000 l    df *ABS*	00000000 ch32v30x_tim.c
00000000 l    df *ABS*	00000000 ch32v30x_usart.c
00000000 l    df *ABS*	00000000 debug.c
200002e0 l     O .bss	00000002 p_ms
200002e2 l     O .bss	00000001 p_us
200001fc l     O .data	00000004 curbrk.5218
00000000 l    df *ABS*	00000000 divdf3.c
00000000 l    df *ABS*	00000000 gedf2.c
00000000 l    df *ABS*	00000000 ledf2.c
00000000 l    df *ABS*	00000000 muldf3.c
00000000 l    df *ABS*	00000000 subdf3.c
00000000 l    df *ABS*	00000000 floatsidf.c
00000000 l    df *ABS*	00000000 addsf3.c
00000000 l    df *ABS*	00000000 divsf3.c
00000000 l    df *ABS*	00000000 eqsf2.c
00000000 l    df *ABS*	00000000 gesf2.c
00000000 l    df *ABS*	00000000 lesf2.c
00000000 l    df *ABS*	00000000 mulsf3.c
00000000 l    df *ABS*	00000000 subsf3.c
00000000 l    df *ABS*	00000000 fixsfsi.c
00000000 l    df *ABS*	00000000 fixunssfsi.c
00000000 l    df *ABS*	00000000 floatsisf.c
00000000 l    df *ABS*	00000000 floatunsisf.c
00000000 l    df *ABS*	00000000 extendsfdf2.c
00000000 l    df *ABS*	00000000 truncdfsf2.c
00000000 l    df *ABS*	00000000 libgcc2.c
00000000 l    df *ABS*	00000000 memcpy.c
00000000 l    df *ABS*	00000000 nano-vfprintf_float.c
00000000 l    df *ABS*	00000000 nano-vfprintf_i.c
00000000 l    df *ABS*	00000000 nano-vfscanf_float.c
00000000 l    df *ABS*	00000000 printf.c
00000000 l    df *ABS*	00000000 sf_nan.c
00000000 l    df *ABS*	00000000 sprintf.c
00000000 l    df *ABS*	00000000 strcpy.c
00000000 l    df *ABS*	00000000 strlen.c
00000000 l    df *ABS*	00000000 strtod.c
00006ed0 l     F .text	0000004e sulp
0000c0a8 l     O .text	00000014 fpi.3395
0000c0bc l     O .text	00000014 fpinan.3431
0000c0d0 l     O .text	00000028 tinytens
00000000 l    df *ABS*	00000000 strtol.c
00007ba0 l     F .text	0000013a _strtol_l.isra.0
00000000 l    df *ABS*	00000000 dtoa.c
00007cf0 l     F .text	0000013a quorem
00000000 l    df *ABS*	00000000 findfp.c
00008a40 l     F .text	00000066 std
00000000 l    df *ABS*	00000000 fwalk.c
00000000 l    df *ABS*	00000000 gdtoa-gethex.c
00008c6e l     F .text	00000076 rshift
00000000 l    df *ABS*	00000000 gdtoa-hexnan.c
000091ee l     F .text	0000002c L_shift
00000000 l    df *ABS*	00000000 locale.c
00000000 l    df *ABS*	00000000 localeconv.c
00000000 l    df *ABS*	00000000 malloc.c
00000000 l    df *ABS*	00000000 mbtowc_r.c
00000000 l    df *ABS*	00000000 memchr.c
00000000 l    df *ABS*	00000000 mprec.c
0000c2a0 l     O .text	0000000c p05.3319
00000000 l    df *ABS*	00000000 nano-mallocr.c
00000000 l    df *ABS*	00000000 nano-mallocr.c
00000000 l    df *ABS*	00000000 nano-mallocr.c
00000000 l    df *ABS*	00000000 nano-vfprintf.c
00000000 l    df *ABS*	00000000 nano-vfprintf.c
0000a298 l     F .text	00000026 __sfputc_r
00000000 l    df *ABS*	00000000 sbrkr.c
00000000 l    df *ABS*	00000000 stdio.c
00000000 l    df *ABS*	00000000 strncmp.c
00000000 l    df *ABS*	00000000 wbuf.c
00000000 l    df *ABS*	00000000 wctomb_r.c
00000000 l    df *ABS*	00000000 writer.c
00000000 l    df *ABS*	00000000 wsetup.c
00000000 l    df *ABS*	00000000 closer.c
00000000 l    df *ABS*	00000000 fflush.c
00000000 l    df *ABS*	00000000 lseekr.c
00000000 l    df *ABS*	00000000 makebuf.c
00000000 l    df *ABS*	00000000 memmove.c
00000000 l    df *ABS*	00000000 mlock.c
00000000 l    df *ABS*	00000000 nano-mallocr.c
00000000 l    df *ABS*	00000000 readr.c
00000000 l    df *ABS*	00000000 fstatr.c
00000000 l    df *ABS*	00000000 isattyr.c
00000000 l    df *ABS*	00000000 nano-mallocr.c
00000000 l    df *ABS*	00000000 adddf3.c
00000000 l    df *ABS*	00000000 eqdf2.c
00000000 l    df *ABS*	00000000 unorddf2.c
00000000 l    df *ABS*	00000000 fixdfsi.c
00000000 l    df *ABS*	00000000 fixunsdfsi.c
00000000 l    df *ABS*	00000000 floatunsidf.c
00000000 l    df *ABS*	00000000 extenddftf2.c
00000000 l    df *ABS*	00000000 trunctfdf2.c
00000000 l    df *ABS*	00000000 close.c
00000000 l    df *ABS*	00000000 fstat.c
00000000 l    df *ABS*	00000000 isatty.c
00000000 l    df *ABS*	00000000 lseek.c
00000000 l    df *ABS*	00000000 read.c
00000000 l    df *ABS*	00000000 libgcc2.c
00000000 l    df *ABS*	00000000 ctype_.c
00000000 l    df *ABS*	00000000 impure.c
20000020 l     O .data	00000060 impure_data
00000000 l    df *ABS*	00000000 reent.c
0000ac90 g     F .text	00000014 _malloc_usable_size_r
20000222 g     O .bss	00000002 Angle_Mode
00005fcc g     F .text	000000ea __cvt
000017a6 g     F .text	00000028 EXTI2_IRQHandler
00002720  w      .text	00000000 TIM8_TRG_COM_IRQHandler
20000290 g     O .bss	00000004 Ten
00002722  w      .text	00000000 TIM8_CC_IRQHandler
00001c3e g     F .text	00000048 DHT11_Init
00009d64 g     F .text	00000046 __any_on
0000ac66 g     F .text	0000002a _isatty_r
00006eae g     F .text	00000010 strcpy
0000aa54 g     F .text	0000002e _lseek_r
00003634 g     F .text	00000004 TIM_SetCompare2
00002cee g     F .text	00000014 DMA_Cmd
2000021e g     O .bss	00000002 UART6_RX_STA
00002758  w      .text	00000000 UART8_IRQHandler
0000b3d4 g     F .text	0000006a .hidden __eqdf2
20000254 g     O .bss	00000001 Fatigue_score
20000249 g     O .bss	00000001 Call_score
00006e1a g     F .text	00000042 printf
200009f0 g       .data	00000000 __global_pointer$
00000208 g     F .text	00000028 .hidden __riscv_save_8
200002c4 g     O .bss	00000004 rate
2000025c g     O .bss	00000004 Hundred
000026fc  w      .text	00000000 TIM1_CC_IRQHandler
2000024c g     O .bss	00000004 Calls
0000a628 g     F .text	00000030 __sseek
00008af8 g     F .text	0000006c __sinit
0000a686 g     F .text	000000be __swbuf_r
00001dbc g     F .text	00000002 HardFault_Handler
0000336a g     F .text	00000012 RTC_EnterConfigMode
00008ab0 g     F .text	00000048 __sfmoreglue
0000abb2 g     F .text	00000002 __malloc_unlock
00003458 g     F .text	00000014 RTC_ClearFlag
00000254 g     F .text	0000000c .hidden __riscv_restore_3
00002732  w      .text	00000000 TIM6_IRQHandler
00007b8a g     F .text	00000016 _strtod_r
0000500e g     F .text	000002b2 .hidden __divsf3
000026c2  w      .text	00000000 SysTick_Handler
00008ce4 g     F .text	00000040 __hexdig_fun
000028be g     F .text	0000000a ADC_StartCalibration
00002ff2 g     F .text	000000a6 NVIC_Init
2000020c g     O .bss	00000002 Light_Mode
000026c8  w      .text	00000000 PVD_IRQHandler
00002728  w      .text	00000000 SDIO_IRQHandler
0000ab6a g     F .text	00000046 memmove
0000275a  w      .text	00000000 TIM9_BRK_IRQHandler
00000240 g     F .text	00000020 .hidden __riscv_restore_10
0000276e  w      .text	00000000 DMA2_Channel8_IRQHandler
00001db8 g     F .text	00000004 NMI_Handler
20000242 g     O .bss	00000002 msHcCount
00009420 g     F .text	0000008c _Balloc
00005a4a g     F .text	00000062 .hidden __fixsfsi
00002748  w      .text	00000000 CAN2_RX1_IRQHandler
20000268 g     O .bss	00000001 Overspeed_score
000017ce g     F .text	0000003c EXTI3_IRQHandler
00000208 g     F .text	00000028 .hidden __riscv_save_11
00003ed8 g     F .text	000000ae .hidden __gtdf2
00001a6c g     F .text	0000004a DHT11_Rst
20000234 g     O .bss	00000004 times
20000284 g     O .bss	00000004 Sharpturns
000093ac g     F .text	00000006 __localeconv_l
00002750  w      .text	00000000 USBHS_IRQHandler
20000216 g     O .bss	00000002 Fatigue_Flag
00000ef4 g     F .text	00000056 DMA_send
000009ae g     F .text	00000050 Call_show
00003394 g     F .text	00000036 RTC_GetCounter
0000378a g     F .text	0000000a USART_GetFlagStatus
00002770  w      .text	00000000 DMA2_Channel9_IRQHandler
0000ac3a g     F .text	0000002c _fstat_r
20000279 g     O .bss	00000001 Sharpacceleration_score_show
20000255 g     O .bss	00000001 Fatigue_score_show
00002768  w      .text	00000000 TIM10_CC_IRQHandler
200005ac g     O .bss	00000004 errno
2000023f g     O .bss	00000001 star
20000208 g       .bss	00000000 _sbss
200002a4 g     O .bss	00000004 is_ratedown
00000800 g       *ABS*	00000000 __stack_size
000029a8 g     F .text	0000000a ADC_GetFlagStatus
00003866 g     F .text	0000005a USART_Printf_Init
20000271 g     O .bss	00000001 Rate_score_show
00002cb6 g     F .text	00000038 DMA_Init
20000208 g     O .bss	00000002 Close_Mode
000056c2 g     F .text	00000388 .hidden __subsf3
00000254 g     F .text	0000000c .hidden __riscv_restore_2
00001046 g     F .text	0000007e uart4_Init
00003302 g     F .text	00000020 RCC_BackupResetCmd
00001bee g     F .text	00000050 DHT11_Read_Data
0000075c g     F .text	000000e6 Show_Speed
00002fc8 g     F .text	00000008 IWDG_SetReload
00005f1a g     F .text	000000b2 memcpy
00009248 g     F .text	0000015e __hexnan
00000bc6 g     F .text	00000028 GradeA_show
0000289c g     F .text	00000010 ADC_Cmd
00001952 g     F .text	00000024 OpenTimer
00002b12 g     F .text	0000001c BKP_WriteBackupRegister
00008aa6 g     F .text	0000000a _cleanup_r
00002ec8 g     F .text	000000c4 GPIO_PinRemapConfig
0000a030 g     F .text	00000268 _svfprintf_r
00004c32 g     F .text	00000072 .hidden __floatsidf
20000280 g     O .bss	00000001 Sharpslowdown_score
00003f86 g     F .text	000000b6 .hidden __ltdf2
0000093a g     F .text	00000024 Show_Temp_Humi_High
00001760 g     F .text	0000001e EXTI0_IRQHandler
00002708  w      .text	00000000 I2C2_EV_IRQHandler
00002766  w      .text	00000000 TIM10_TRG_COM_IRQHandler
20000228 g     O .bss	00000004 CountSensor_Count
20000244 g     O .bss	00000002 Calibrattion_Val
000035f0 g     F .text	00000018 TIM_Cmd
200001f4 g     O .data	00000004 SystemCoreClock
00009cba g     F .text	00000074 __ratio
0000110a g     F .text	00000042 MOTOR_Init
00003782 g     F .text	00000008 USART_ReceiveData
000093ca g     F .text	0000000c malloc
000004d2 g     F .text	00000090 usart2_start
0000b970 g     F .text	0000000c _fstat
20000282 g     O .bss	00000001 Sharpturn_score
0000c1d8 g     O .text	000000c8 __mprec_tens
00000038 g       .init	00000000 _einit
00003654 g     F .text	0000000c TIM_ClearITPendingBit
00002d02 g     F .text	00000004 DMA_SetCurrDataCounter
00003638 g     F .text	00000004 TIM_GetCounter
000053a2 g     F .text	0000008c .hidden __lesf2
200002b0 g     O .bss	00000004 mileage
000032a8 g     F .text	0000001e RCC_APB2PeriphClockCmd
0000b4e2 g     F .text	0000005c .hidden __fixunsdfsi
00000200 g     F .text	00000030 .hidden __riscv_save_12
0000274a  w      .text	00000000 CAN2_SCE_IRQHandler
2000020e g     O .bss	00000002 Print_Mode
000026ea  w      .text	00000000 ADC1_2_IRQHandler
2000022c g     O .bss	00000001 flag
00002df6 g     F .text	000000c0 GPIO_Init
000030ae g     F .text	00000012 RCC_ADCCLKConfig
000026c0  w      .text	00000000 Break_Point_Handler
2000023c g     O .bss	00000001 Sharpadd_flag
20000288 g     O .bss	00000001 Smoking_score
00000e7e g     F .text	00000076 UART5_DMA_Tx_Configuration
20000212 g     O .bss	00000001 alarm_state
000093b2 g     F .text	00000018 _localeconv_r
200002ac g     O .bss	00000004 length
000096dc g     F .text	0000001c __i2b
2000021a g     O .bss	00000002 USART2_RX_STA
00000240 g     F .text	00000020 .hidden __riscv_restore_11
200002dc g     O .bss	00000004 NVIC_Priority_Group
0000270c  w      .text	00000000 SPI1_IRQHandler
000028ac g     F .text	0000000a ADC_ResetCalibration
0000371c g     F .text	00000016 USART_Cmd
0000a58a g     F .text	0000002a _sbrk_r
000026ca  w      .text	00000000 TAMPER_IRQHandler
00000230 g     F .text	0000000c .hidden __riscv_save_1
0000143e g     F .text	000000f8 RTC_Get
00000254 g     F .text	0000000c .hidden __riscv_restore_0
0000ac0c g     F .text	0000002e _read_r
000030c0 g     F .text	00000028 RCC_LSEConfig
00000216 g     F .text	0000001a .hidden __riscv_save_7
000013ca g     F .text	00000026 Is_Leap_Year
00002746  w      .text	00000000 CAN2_RX0_IRQHandler
000030f4 g     F .text	00000020 RCC_RTCCLKCmd
200002a8 g     O .bss	00000004 laps
2000023d g     O .bss	00000001 Sharpslowdown_flag
00005c96 g     F .text	000000ac .hidden __extendsfdf2
0000271e  w      .text	00000000 TIM8_UP_IRQHandler
200002d0 g     O .bss	00000004 temperature
000032c6 g     F .text	0000001e RCC_APB1PeriphClockCmd
0000aca4 g     F .text	00000730 .hidden __adddf3
000052c0 g     F .text	0000005c .hidden __nesf2
000026bc  w      .text	00000000 Ecall_M_Mode_Handler
20007800 g       .stack	00000000 _heap_end
00009b32 g     F .text	000000b4 __b2d
20000294 g     O .bss	00000004 adcx
0000b97c g     F .text	0000000c _isatty
000037fa g     F .text	00000036 Delay_Us
20000204 g     O .data	00000004 _global_impure_ptr
0000024a g     F .text	00000016 .hidden __riscv_restore_5
0000abb4 g     F .text	00000058 _realloc_r
000011e2 g     F .text	00000054 TIM2_inIt
00002738  w      .text	00000000 DMA2_Channel2_IRQHandler
0000328a g     F .text	0000001e RCC_AHBPeriphClockCmd
000026e2  w      .text	00000000 DMA1_Channel4_IRQHandler
000028e8 g     F .text	000000b8 ADC_RegularChannelConfig
0000c1b0 g     O .text	00000028 __mprec_bigtens
00009588 g     F .text	000000a4 __s2b
0000b53e g     F .text	00000068 .hidden __floatunsidf
000038fe g     F .text	00000026 _sbrk
00000cc2 g     F .text	00000092 Init_uart6
000099c8 g     F .text	00000032 __mcmp
000029a0 g     F .text	00000008 ADC_GetConversionValue
20000246 g     O .bss	00000002 Alarm_Flag
000033f6 g     F .text	0000002e RTC_SetPrescaler
00002fd0 g     F .text	0000000e IWDG_ReloadCounter
0000275c  w      .text	00000000 TIM9_UP_IRQHandler
00002d06 g     F .text	00000032 DMA_GetFlagStatus
0000024a g     F .text	00000016 .hidden __riscv_restore_6
20000253 g     O .bss	00000001 Continuousdriving_score_show
000003a4 g     F .text	000000ba USART3_IRQHandler
00002dec g     F .text	0000000a EXTI_ClearITPendingBit
00001606 g     F .text	00000050 RTC_Init
00003098 g     F .text	00000016 PWR_BackupAccessCmd
00001656 g     F .text	00000028 RTC_IRQHandler
00006f1e g     F .text	00000c6c _strtod_l
0000921a g     F .text	0000002e __match
000028c8 g     F .text	00000008 ADC_GetCalibrationStatus
200005b0 g       .bss	00000000 _ebss
00003794 g     F .text	0000003c USART_GetITStatus
0000bd30 g     O .text	0000000c mon_table
000026e8  w      .text	00000000 DMA1_Channel7_IRQHandler
000028d0 g     F .text	00000018 ADC_SoftwareStartConvCmd
00001bca g     F .text	00000024 DHT11_Read_Byte
000028b6 g     F .text	00000008 ADC_GetResetCalibrationStatus
0000962c g     F .text	00000046 __hi0bits
000026f0  w      .text	00000000 CAN1_RX1_IRQHandler
20000210 g     O .bss	00000002 Rainbow_Mode
0000b47a g     F .text	00000068 .hidden __fixdfsi
000037d0 g     F .text	0000002a Delay_Init
00003434 g     F .text	00000024 RTC_WaitForSynchro
00002752  w      .text	00000000 DVP_IRQHandler
00002730  w      .text	00000000 UART5_IRQHandler
00003322 g     F .text	0000002e RCC_GetFlagStatus
00002afe g     F .text	00000014 BKP_DeInit
0000189c g     F .text	000000b6 Hcsr04_Init
0000531c g     F .text	00000086 .hidden __gtsf2
20000274 g     O .bss	00000004 Sharpacceleration
00002ec0 g     F .text	00000004 GPIO_SetBits
0000198c g     F .text	00000030 TIM4_IRQHandler
00003f86 g     F .text	000000b6 .hidden __ledf2
00000208 g     F .text	00000028 .hidden __riscv_save_9
000033ca g     F .text	0000002c RTC_SetCounter
00002736  w      .text	00000000 DMA2_Channel1_IRQHandler
0000983c g     F .text	000000be __pow5mult
20000240 g     O .bss	00000001 star_flag
20000258 g     O .bss	00000004 Fatigues
0000c140 g     O .text	00000020 __sf_fake_stderr
00000216 g     F .text	0000001a .hidden __riscv_save_4
0000bd3c g     O .text	0000000c table_week
00002704  w      .text	00000000 I2C1_EV_IRQHandler
2000029c g     O .bss	00000004 humidity
200002ec g     O .bss	000000c8 USART2_RX_BUF
00009f4c g     F .text	000000e4 __ssputs_r
2000021c g     O .bss	00000002 Red_Flag
0000363c g     F .text	00000018 TIM_GetITStatus
00003114 g     F .text	00000176 RCC_GetClocksFreq
2000028c g     O .bss	00000004 Smokings
000026e6  w      .text	00000000 DMA1_Channel6_IRQHandler
00005eac g     F .text	0000006e .hidden __clzsi2
0000a2be g     F .text	00000042 __sfputs_r
000010c4 g     F .text	00000046 UART4_IRQHandler
0000273c  w      .text	00000000 DMA2_Channel4_IRQHandler
00009408 g     F .text	00000018 memchr
00000a4e g     F .text	0000002c Overtimedriver_show
0000613a  w    F .text	000004c4 _printf_float
00003660 g     F .text	000000bc USART_Init
20000281 g     O .bss	00000001 Sharpslowdown_score_show
00009dd0 g     F .text	000000a8 _free_r
00002700  w      .text	00000000 TIM3_IRQHandler
000026d0  w      .text	00000000 RCC_IRQHandler
00000230 g     F .text	0000000c .hidden __riscv_save_3
000026fa  w      .text	00000000 TIM1_TRG_COM_IRQHandler
000026dc  w      .text	00000000 DMA1_Channel1_IRQHandler
00002fb8 g     F .text	00000008 IWDG_WriteAccessCmd
00000000 g       .init	00000000 _start
0000276c  w      .text	00000000 DMA2_Channel7_IRQHandler
20000000 g     O .data	00000010 AHBPrescTable
00000498 g     F .text	0000003a HMISendb
0000167e g     F .text	000000e2 KEY_Init
00000c6a g     F .text	0000002c Ten_show
000013f0 g     F .text	0000004e RTC_Get_Week
0000b988 g     F .text	0000000c _lseek
20000264 g     O .bss	00000004 Overspeed
000098fa g     F .text	000000ce __lshift
20000283 g     O .bss	00000001 Sharpturn_score_show
000030e8 g     F .text	0000000c RCC_RTCCLKConfig
0000361a g     F .text	00000016 TIM_OC2PreloadConfig
00005b02 g     F .text	000000c6 .hidden __floatsisf
00002716  w      .text	00000000 EXTI15_10_IRQHandler
00003608 g     F .text	00000012 TIM_ITConfig
00003542 g     F .text	000000ae TIM_OC2Init
0000a65e g     F .text	00000028 strncmp
200002b4 g     O .bss	00000004 radCir
00002fde g     F .text	0000000e IWDG_Enable
00003732 g     F .text	00000036 USART_ITConfig
00002d64 g     F .text	0000006a EXTI_Init
20000218 g     O .bss	00000002 Smoking_Flag
000096f8 g     F .text	00000144 __multiply
00000c16 g     F .text	00000028 GradeC_show
00000c96 g     F .text	0000002c One_show
20000269 g     O .bss	00000001 Overspeed_score_show
000052c0 g     F .text	0000005c .hidden __eqsf2
00009be6 g     F .text	000000d4 __d2b
20000220 g     O .bss	00000002 Yellow_Flag
0000045e g     F .text	0000003a HMISends
0000346c g     F .text	00000020 RTC_GetITStatus
00002ec4 g     F .text	00000004 GPIO_ResetBits
00002734  w      .text	00000000 TIM7_IRQHandler
0000b5a6 g     F .text	000001a0 .hidden __extenddftf2
0000a890 g     F .text	0000002a _close_r
00002744  w      .text	00000000 CAN2_TX_IRQHandler
20000000 g       .dalign	00000000 _data_vma
0000272a  w      .text	00000000 TIM5_IRQHandler
20000214 g     O .bss	00000002 Callphone_Flag
0000a790 g     F .text	00000100 __swsetup_r
00001838 g     F .text	00000032 EXTI9_5_IRQHandler
00003924 g     F .text	000005b4 .hidden __divdf3
00008b64 g     F .text	000000a0 __sfp
00009d2e g     F .text	00000036 __copybits
200002c0 g     O .bss	00000004 radspeed
00001d80 g     F .text	00000038 Get_Adc_Average
00002f8c g     F .text	0000002c GPIO_EXTILineConfig
0000403c g     F .text	000004b8 .hidden __muldf3
00000208 g     F .text	00000028 .hidden __riscv_save_10
00000a7a g     F .text	0000014c Driver_show
0000a5b4 g     F .text	0000002c __sread
00002742  w      .text	00000000 ETH_WKUP_IRQHandler
0000abb0 g     F .text	00000002 __malloc_lock
0000134c g     F .text	00000024 NVIC_Configuration
0000024a g     F .text	00000016 .hidden __riscv_restore_4
20000230 g     O .bss	00000004 num
00000240 g     F .text	00000020 .hidden __riscv_restore_8
0000a9ec g     F .text	00000068 _fflush_r
00000216 g     F .text	0000001a .hidden __riscv_save_6
00009daa g     F .text	00000026 _calloc_r
00002dce g     F .text	0000001e EXTI_GetITStatus
0000270e  w      .text	00000000 SPI2_IRQHandler
000019f0 g     F .text	0000007c Hcsr04GetLength
2000026c g     O .bss	00000004 Rate_Flag
0000c160 g     O .text	00000020 __sf_fake_stdin
0000114c g     F .text	00000096 TIM3_PWM_Init
20000298 g     O .bss	00000004 alcohol
20000568 g     O .bss	00000036 data
20000224 g     O .bss	00000004 Circle
00000260 g     F .text	000000a8 memset
00000240 g     F .text	00000020 .hidden __riscv_restore_9
0000024a g     F .text	00000016 .hidden __riscv_restore_7
00001dbe g     F .text	00000746 main
0000186a g     F .text	00000032 IWDG_Feed_Init
00001ab6 g     F .text	00000096 DHT11_Check
00002762  w      .text	00000000 TIM10_BRK_IRQHandler
00002760  w      .text	00000000 TIM9_CC_IRQHandler
000053a2 g     F .text	0000008c .hidden __ltsf2
0000a658 g     F .text	00000006 __sclose
0000273e  w      .text	00000000 DMA2_Channel5_IRQHandler
00007cda g     F .text	00000016 _strtol_r
00005d42 g     F .text	0000016a .hidden __truncdfsf2
00007e2a g     F .text	00000c16 _dtoa_r
00009e78 g     F .text	000000d4 _malloc_r
0000a744 g     F .text	0000001e __ascii_wctomb
0000086a g     F .text	000000d0 Show_Temp_Humi
000029ca g     F .text	00000134 Get_CalibrationValue
00001536 g     F .text	000000d0 RTC_Set
000026e4  w      .text	00000000 DMA1_Channel5_IRQHandler
00003630 g     F .text	00000004 TIM_SetCounter
0000180a g     F .text	0000002e EXTI4_IRQHandler
00003830 g     F .text	00000036 Delay_Ms
000026ee  w      .text	00000000 USB_LP_CAN1_RX0_IRQHandler
0000542e g     F .text	00000294 .hidden __mulsf3
000029b2 g     F .text	00000018 ADC_BufferCmd
00002504 g     F .text	000000fa SystemInit
00002724  w      .text	00000000 RNG_IRQHandler
0000b3d4 g     F .text	0000006a .hidden __nedf2
00006e1a g     F .text	00000042 iprintf
00001370 g     F .text	0000005a RCC_Configuration
20000278 g     O .bss	00000001 Sharpacceleration_score
000026ec  w      .text	00000000 USB_HP_CAN1_TX_IRQHandler
00006e68 g     F .text	00000046 sprintf
0000bef8 g     O .text	00000100 .hidden __clz_tab
000060b6 g     F .text	00000084 __exponent
00001c86 g     F .text	000000c0 Adc_Init
00000000 g       .init	00000000 _sinit
00001976 g     F .text	00000016 CloseTimer
0000531c g     F .text	00000086 .hidden __gesf2
0000a762 g     F .text	0000002e _write_r
000026e0  w      .text	00000000 DMA1_Channel3_IRQHandler
000006e0 g     F .text	0000003e Show_Alcohol_Normal
00002726  w      .text	00000000 FSMC_IRQHandler
20000434 g     O .bss	000000c8 UART6_RX_BUF
00002740  w      .text	00000000 ETH_IRQHandler
00006e5c g     F .text	0000000c nanf
000065fe g     F .text	0000010c _printf_common
20000200 g     O .data	00000004 _impure_ptr
200002d8 g     O .bss	00000002 wendu
000026f8  w      .text	00000000 TIM1_UP_IRQHandler
0000a8ba g     F .text	00000132 __sflush_r
000019bc g     F .text	00000034 GetEchoTimer
0000a030 g     F .text	00000268 _svfiprintf_r
000026c6  w      .text	00000000 WWDG_IRQHandler
200003b4 g     O .bss	00000040 buf
0000274e  w      .text	00000000 USBHSWakeup_IRQHandler
00002b2e g     F .text	0000001c BKP_ReadBackupRegister
200002cc g     O .bss	00000004 speed
00000bee g     F .text	00000028 GradeB_show
00002774  w      .text	00000000 DMA2_Channel11_IRQHandler
000093d6 g     F .text	00000032 __ascii_mbtowc
00000308 g     F .text	0000009c uart3_init
20000270 g     O .bss	00000001 Rate_score
000026be  w      .text	00000000 Ecall_U_Mode_Handler
00009aec g     F .text	00000046 __ulp
200001f0 g     O .data	00000004 pwm
0000276a  w      .text	00000000 DMA2_Channel6_IRQHandler
0000126e g     F .text	000000be TIM2_IRQHandler
00000e02 g     F .text	0000007c Init_UART5
20008000 g       .stack	00000000 _eusrstack
00000230 g     F .text	0000000c .hidden __riscv_save_2
000026c4  w      .text	00000000 SW_Handler
0000095e g     F .text	00000050 Fatigue_show
00002800 g     F .text	00000046 ADC_DeInit
00001d46 g     F .text	0000003a Get_Adc
000026f6  w      .text	00000000 TIM1_BRK_IRQHandler
0000aa82 g     F .text	00000056 __swhatbuf_r
00002846 g     F .text	00000056 ADC_Init
0000377a g     F .text	00000008 USART_SendData
00002772  w      .text	00000000 DMA2_Channel10_IRQHandler
200002c8 g     O .bss	00000002 shidu
0000177e g     F .text	00000028 EXTI1_IRQHandler
00003424 g     F .text	00000010 RTC_WaitForLastTask
200005a0 g     O .bss	0000000a calendar
00000216 g     F .text	0000001a .hidden __riscv_save_5
000038c0 g     F .text	0000003e _write
20000208 g       .data	00000000 _edata
2000023e g     O .bss	00000001 Stop
200005b0 g       .bss	00000000 _end
20000260 g     O .bss	00000004 One
200002b8 g     O .bss	00000004 radHumi
00003498 g     F .text	000000aa TIM_TimeBaseInit
200003f4 g     O .bss	00000040 str
00002718  w      .text	00000000 RTCAlarm_IRQHandler
20000252 g     O .bss	00000001 Continuousdriving_score
0000c3c4 g       .dlalign	00000000 _data_lma
00002764  w      .text	00000000 TIM10_UP_IRQHandler
00001236 g     F .text	00000038 GD_inIt
0000275e  w      .text	00000000 TIM9_TRG_COM_IRQHandler
00002756  w      .text	00000000 UART7_IRQHandler
200002d4 g     O .bss	00000004 total
00000562 g     F .text	000000be USART2_IRQHandler
00000d54 g     F .text	000000ae UART6_IRQHandler
0000a5e0 g     F .text	00000048 __swrite
2000023a g     O .bss	00000002 ContDriveflag
0000337c g     F .text	00000018 RTC_ExitConfigMode
0000a300 g     F .text	0000028a _vfiprintf_r
00008c04 g     F .text	0000006a _fwalk_reent
000025fe g     F .text	000000ba SystemCoreClockUpdate
00005bc8 g     F .text	000000ce .hidden __floatunsisf
000099fa g     F .text	000000f2 __mdiff
0000348c g     F .text	0000000c RTC_ClearITPendingBit
0000270a  w      .text	00000000 I2C2_ER_IRQHandler
000026de  w      .text	00000000 DMA1_Channel2_IRQHandler
0000071e g     F .text	0000003e Show_Alcohol_Abnormal
0000c180 g     O .text	00000020 __sf_fake_stdout
00006e68 g     F .text	00000046 siprintf
200002bc g     O .bss	00000004 radTemp
00003350 g     F .text	0000001a RTC_ITConfig
0000023c g     F .text	00000024 .hidden __riscv_restore_12
0000271c  w      .text	00000000 TIM8_BRK_IRQHandler
0000c2c0 g     O .text	00000101 _ctype_
00002d38 g     F .text	0000002c DMA_ClearFlag
0000b994 g     F .text	0000000c _read
0000b43e g     F .text	0000003c .hidden __unorddf2
00002776  w      .text	00000000 handle_reset
00002fc0 g     F .text	00000008 IWDG_SetPrescaler
000026f2  w      .text	00000000 CAN1_SCE_IRQHandler
00005aac g     F .text	00000056 .hidden __fixunssfsi
000026ce  w      .text	00000000 FLASH_IRQHandler
00000230 g     F .text	0000000c .hidden __riscv_save_0
2000027c g     O .bss	00000004 Sharpslowdown
00001b4c g     F .text	0000007e DHT11_Read_Bit
00000620 g     F .text	000000c0 Show_Time
00002710  w      .text	00000000 USART1_IRQHandler
0000aad8 g     F .text	00000092 __smakebuf_r
00006ebe g     F .text	00000012 strlen
0000274c  w      .text	00000000 OTG_FS_IRQHandler
0000670a g     F .text	000002a4 _printf_i
200004fc g     O .bss	0000006c UART5_DMA_TX_Buffer
0000272c  w      .text	00000000 SPI3_IRQHandler
000093a6 g     F .text	00000006 __locale_ctype_ptr_l
20000248 g     O .bss	00000001 Alarm_Sec
00003ed8 g     F .text	000000ae .hidden __gedf2
200002a0 g     O .bss	00000004 is_over_speed
00008d24 g     F .text	000004ca __gethex
200002e8 g     O .bss	00000004 __malloc_sbrk_start
000032e4 g     F .text	0000001e RCC_APB2PeriphResetCmd
00002706  w      .text	00000000 I2C1_ER_IRQHandler
00002fec g     F .text	00000006 NVIC_PriorityGroupConfig
20000250 g     O .bss	00000002 Continudrives
00002b4a g     F .text	0000016c DMA_DeInit
2000020a g     O .bss	00000002 Flash_Mpde
00000c3e g     F .text	0000002c Hundred_show
20000289 g     O .bss	00000001 Smoking_score_show
200002e4 g     O .bss	00000004 __malloc_free_list
2000024a g     O .bss	00000001 Call_score_show
00000254 g     F .text	0000000c .hidden __riscv_restore_1
00000f4a g     F .text	000000fc data_switch
000044f4 g     F .text	0000073e .hidden __subdf3
0000a300 g     F .text	0000028a _vfprintf_r
00009672 g     F .text	0000006a __lo0bits
00002eb6 g     F .text	0000000a GPIO_ReadInputDataBit
00003768 g     F .text	00000012 USART_DMACmd
0000132c g     F .text	00000020 CountSensor_Get
00004ca4 g     F .text	0000036a .hidden __addsf3
20000080 g     O .data	0000016c __global_locale
000009fe g     F .text	00000050 Smoking_show
0000271a  w      .text	00000000 USBWakeUp_IRQHandler
0000b746 g     F .text	0000021e .hidden __trunctfdf2
00000842 g     F .text	00000028 Show_Speed_Error
0000b964 g     F .text	0000000c _close
000069ae  w    F .text	0000046c _scanf_float
0000273a  w      .text	00000000 DMA2_Channel3_IRQHandler
000094f0 g     F .text	00000098 __multadd
000094ac g     F .text	00000044 _Bfree



Disassembly of section .init:

00000000 <_sinit>:
   0:	7760206f          	j	2776 <handle_reset>
   4:	00000013          	nop
   8:	00000013          	nop
   c:	00000013          	nop
  10:	00000013          	nop
  14:	00000013          	nop
  18:	00000013          	nop
  1c:	00000013          	nop
  20:	00000013          	nop
  24:	00000013          	nop
  28:	00000013          	nop
  2c:	00000013          	nop
  30:	00000013          	nop
  34:	00100073          	ebreak

Disassembly of section .vector:

00000038 <_vector_base>:
	...
  40:	1db8                	addi	a4,sp,760
  42:	0000                	unimp
  44:	1dbc                	addi	a5,sp,760
  46:	0000                	unimp
  48:	0000                	unimp
  4a:	0000                	unimp
  4c:	26bc                	lbu	a5,10(a3)
	...
  56:	0000                	unimp
  58:	26be                	lhu	a5,10(a3)
  5a:	0000                	unimp
  5c:	26c0                	lbu	s0,12(a3)
	...
  66:	0000                	unimp
  68:	26c2                	lhu	s0,12(a3)
  6a:	0000                	unimp
  6c:	0000                	unimp
  6e:	0000                	unimp
  70:	26c4                	lbu	s1,12(a3)
  72:	0000                	unimp
  74:	0000                	unimp
  76:	0000                	unimp
  78:	26c6                	lhu	s1,12(a3)
  7a:	0000                	unimp
  7c:	26c8                	lbu	a0,12(a3)
  7e:	0000                	unimp
  80:	26ca                	lhu	a0,12(a3)
  82:	0000                	unimp
  84:	1656                	slli	a2,a2,0x35
  86:	0000                	unimp
  88:	26ce                	lhu	a1,12(a3)
  8a:	0000                	unimp
  8c:	26d0                	lbu	a2,12(a3)
  8e:	0000                	unimp
  90:	1760                	addi	s0,sp,940
  92:	0000                	unimp
  94:	177e                	slli	a4,a4,0x3f
  96:	0000                	unimp
  98:	17a6                	slli	a5,a5,0x29
  9a:	0000                	unimp
  9c:	17ce                	slli	a5,a5,0x33
  9e:	0000                	unimp
  a0:	180a                	slli	a6,a6,0x22
  a2:	0000                	unimp
  a4:	26dc                	lbu	a5,12(a3)
  a6:	0000                	unimp
  a8:	26de                	lhu	a5,12(a3)
  aa:	0000                	unimp
  ac:	26e0                	lbu	s0,14(a3)
  ae:	0000                	unimp
  b0:	26e2                	lhu	s0,14(a3)
  b2:	0000                	unimp
  b4:	26e4                	lbu	s1,14(a3)
  b6:	0000                	unimp
  b8:	26e6                	lhu	s1,14(a3)
  ba:	0000                	unimp
  bc:	26e8                	lbu	a0,14(a3)
  be:	0000                	unimp
  c0:	26ea                	lhu	a0,14(a3)
  c2:	0000                	unimp
  c4:	26ec                	lbu	a1,14(a3)
  c6:	0000                	unimp
  c8:	26ee                	lhu	a1,14(a3)
  ca:	0000                	unimp
  cc:	26f0                	lbu	a2,14(a3)
  ce:	0000                	unimp
  d0:	26f2                	lhu	a2,14(a3)
  d2:	0000                	unimp
  d4:	1838                	addi	a4,sp,56
  d6:	0000                	unimp
  d8:	26f6                	lhu	a3,14(a3)
  da:	0000                	unimp
  dc:	26f8                	lbu	a4,14(a3)
  de:	0000                	unimp
  e0:	26fa                	lhu	a4,14(a3)
  e2:	0000                	unimp
  e4:	26fc                	lbu	a5,14(a3)
  e6:	0000                	unimp
  e8:	126e                	slli	tp,tp,0x3b
  ea:	0000                	unimp
  ec:	2700                	lbu	s0,8(a4)
  ee:	0000                	unimp
  f0:	198c                	addi	a1,sp,240
  f2:	0000                	unimp
  f4:	2704                	lbu	s1,8(a4)
  f6:	0000                	unimp
  f8:	2706                	lhu	s1,8(a4)
  fa:	0000                	unimp
  fc:	2708                	lbu	a0,8(a4)
  fe:	0000                	unimp
 100:	270a                	lhu	a0,8(a4)
 102:	0000                	unimp
 104:	270c                	lbu	a1,8(a4)
 106:	0000                	unimp
 108:	270e                	lhu	a1,8(a4)
 10a:	0000                	unimp
 10c:	2710                	lbu	a2,8(a4)
 10e:	0000                	unimp
 110:	0562                	slli	a0,a0,0x18
 112:	0000                	unimp
 114:	03a4                	addi	s1,sp,456
 116:	0000                	unimp
 118:	2716                	lhu	a3,8(a4)
 11a:	0000                	unimp
 11c:	2718                	lbu	a4,8(a4)
 11e:	0000                	unimp
 120:	271a                	lhu	a4,8(a4)
 122:	0000                	unimp
 124:	271c                	lbu	a5,8(a4)
 126:	0000                	unimp
 128:	271e                	lhu	a5,8(a4)
 12a:	0000                	unimp
 12c:	2720                	lbu	s0,10(a4)
 12e:	0000                	unimp
 130:	2722                	lhu	s0,10(a4)
 132:	0000                	unimp
 134:	2724                	lbu	s1,10(a4)
 136:	0000                	unimp
 138:	2726                	lhu	s1,10(a4)
 13a:	0000                	unimp
 13c:	2728                	lbu	a0,10(a4)
 13e:	0000                	unimp
 140:	272a                	lhu	a0,10(a4)
 142:	0000                	unimp
 144:	272c                	lbu	a1,10(a4)
 146:	0000                	unimp
 148:	10c4                	addi	s1,sp,100
 14a:	0000                	unimp
 14c:	2730                	lbu	a2,10(a4)
 14e:	0000                	unimp
 150:	2732                	lhu	a2,10(a4)
 152:	0000                	unimp
 154:	2734                	lbu	a3,10(a4)
 156:	0000                	unimp
 158:	2736                	lhu	a3,10(a4)
 15a:	0000                	unimp
 15c:	2738                	lbu	a4,10(a4)
 15e:	0000                	unimp
 160:	273a                	lhu	a4,10(a4)
 162:	0000                	unimp
 164:	273c                	lbu	a5,10(a4)
 166:	0000                	unimp
 168:	273e                	lhu	a5,10(a4)
 16a:	0000                	unimp
 16c:	2740                	lbu	s0,12(a4)
 16e:	0000                	unimp
 170:	2742                	lhu	s0,12(a4)
 172:	0000                	unimp
 174:	2744                	lbu	s1,12(a4)
 176:	0000                	unimp
 178:	2746                	lhu	s1,12(a4)
 17a:	0000                	unimp
 17c:	2748                	lbu	a0,12(a4)
 17e:	0000                	unimp
 180:	274a                	lhu	a0,12(a4)
 182:	0000                	unimp
 184:	274c                	lbu	a1,12(a4)
 186:	0000                	unimp
 188:	274e                	lhu	a1,12(a4)
 18a:	0000                	unimp
 18c:	2750                	lbu	a2,12(a4)
 18e:	0000                	unimp
 190:	2752                	lhu	a2,12(a4)
 192:	0000                	unimp
 194:	0d54                	addi	a3,sp,660
 196:	0000                	unimp
 198:	2756                	lhu	a3,12(a4)
 19a:	0000                	unimp
 19c:	2758                	lbu	a4,12(a4)
 19e:	0000                	unimp
 1a0:	275a                	lhu	a4,12(a4)
 1a2:	0000                	unimp
 1a4:	275c                	lbu	a5,12(a4)
 1a6:	0000                	unimp
 1a8:	275e                	lhu	a5,12(a4)
 1aa:	0000                	unimp
 1ac:	2760                	lbu	s0,14(a4)
 1ae:	0000                	unimp
 1b0:	2762                	lhu	s0,14(a4)
 1b2:	0000                	unimp
 1b4:	2764                	lbu	s1,14(a4)
 1b6:	0000                	unimp
 1b8:	2766                	lhu	s1,14(a4)
 1ba:	0000                	unimp
 1bc:	2768                	lbu	a0,14(a4)
 1be:	0000                	unimp
 1c0:	276a                	lhu	a0,14(a4)
 1c2:	0000                	unimp
 1c4:	276c                	lbu	a1,14(a4)
 1c6:	0000                	unimp
 1c8:	276e                	lhu	a1,14(a4)
 1ca:	0000                	unimp
 1cc:	2770                	lbu	a2,14(a4)
 1ce:	0000                	unimp
 1d0:	2772                	lhu	a2,14(a4)
 1d2:	0000                	unimp
 1d4:	2774                	lbu	a3,14(a4)
	...

Disassembly of section .text:

00000200 <__riscv_save_12>:
     200:	7139                	addi	sp,sp,-64
     202:	4301                	li	t1,0
     204:	c66e                	sw	s11,12(sp)
     206:	a019                	j	20c <__riscv_save_10+0x4>

00000208 <__riscv_save_10>:
     208:	7139                	addi	sp,sp,-64
     20a:	5341                	li	t1,-16
     20c:	c86a                	sw	s10,16(sp)
     20e:	ca66                	sw	s9,20(sp)
     210:	cc62                	sw	s8,24(sp)
     212:	ce5e                	sw	s7,28(sp)
     214:	a019                	j	21a <__riscv_save_4+0x4>

00000216 <__riscv_save_4>:
     216:	7139                	addi	sp,sp,-64
     218:	5301                	li	t1,-32
     21a:	d05a                	sw	s6,32(sp)
     21c:	d256                	sw	s5,36(sp)
     21e:	d452                	sw	s4,40(sp)
     220:	d64e                	sw	s3,44(sp)
     222:	d84a                	sw	s2,48(sp)
     224:	da26                	sw	s1,52(sp)
     226:	dc22                	sw	s0,56(sp)
     228:	de06                	sw	ra,60(sp)
     22a:	40610133          	sub	sp,sp,t1
     22e:	8282                	jr	t0

00000230 <__riscv_save_0>:
     230:	1141                	addi	sp,sp,-16
     232:	c04a                	sw	s2,0(sp)
     234:	c226                	sw	s1,4(sp)
     236:	c422                	sw	s0,8(sp)
     238:	c606                	sw	ra,12(sp)
     23a:	8282                	jr	t0

0000023c <__riscv_restore_12>:
     23c:	4db2                	lw	s11,12(sp)
     23e:	0141                	addi	sp,sp,16

00000240 <__riscv_restore_10>:
     240:	4d02                	lw	s10,0(sp)
     242:	4c92                	lw	s9,4(sp)
     244:	4c22                	lw	s8,8(sp)
     246:	4bb2                	lw	s7,12(sp)
     248:	0141                	addi	sp,sp,16

0000024a <__riscv_restore_4>:
     24a:	4b02                	lw	s6,0(sp)
     24c:	4a92                	lw	s5,4(sp)
     24e:	4a22                	lw	s4,8(sp)
     250:	49b2                	lw	s3,12(sp)
     252:	0141                	addi	sp,sp,16

00000254 <__riscv_restore_0>:
     254:	4902                	lw	s2,0(sp)
     256:	4492                	lw	s1,4(sp)
     258:	4422                	lw	s0,8(sp)
     25a:	40b2                	lw	ra,12(sp)
     25c:	0141                	addi	sp,sp,16
     25e:	8082                	ret

00000260 <memset>:
     260:	433d                	li	t1,15
     262:	872a                	mv	a4,a0
     264:	02c37363          	bgeu	t1,a2,28a <memset+0x2a>
     268:	00f77793          	andi	a5,a4,15
     26c:	efbd                	bnez	a5,2ea <memset+0x8a>
     26e:	e5ad                	bnez	a1,2d8 <memset+0x78>
     270:	ff067693          	andi	a3,a2,-16
     274:	8a3d                	andi	a2,a2,15
     276:	96ba                	add	a3,a3,a4
     278:	c30c                	sw	a1,0(a4)
     27a:	c34c                	sw	a1,4(a4)
     27c:	c70c                	sw	a1,8(a4)
     27e:	c74c                	sw	a1,12(a4)
     280:	0741                	addi	a4,a4,16
     282:	fed76be3          	bltu	a4,a3,278 <memset+0x18>
     286:	e211                	bnez	a2,28a <memset+0x2a>
     288:	8082                	ret
     28a:	40c306b3          	sub	a3,t1,a2
     28e:	068a                	slli	a3,a3,0x2
     290:	00000297          	auipc	t0,0x0
     294:	9696                	add	a3,a3,t0
     296:	00a68067          	jr	10(a3)
     29a:	00b70723          	sb	a1,14(a4)
     29e:	00b706a3          	sb	a1,13(a4)
     2a2:	00b70623          	sb	a1,12(a4)
     2a6:	00b705a3          	sb	a1,11(a4)
     2aa:	00b70523          	sb	a1,10(a4)
     2ae:	00b704a3          	sb	a1,9(a4)
     2b2:	00b70423          	sb	a1,8(a4)
     2b6:	00b703a3          	sb	a1,7(a4)
     2ba:	00b70323          	sb	a1,6(a4)
     2be:	00b702a3          	sb	a1,5(a4)
     2c2:	00b70223          	sb	a1,4(a4)
     2c6:	00b701a3          	sb	a1,3(a4)
     2ca:	00b70123          	sb	a1,2(a4)
     2ce:	00b700a3          	sb	a1,1(a4)
     2d2:	00b70023          	sb	a1,0(a4)
     2d6:	8082                	ret
     2d8:	0ff5f593          	andi	a1,a1,255
     2dc:	00859693          	slli	a3,a1,0x8
     2e0:	8dd5                	or	a1,a1,a3
     2e2:	01059693          	slli	a3,a1,0x10
     2e6:	8dd5                	or	a1,a1,a3
     2e8:	b761                	j	270 <memset+0x10>
     2ea:	00279693          	slli	a3,a5,0x2
     2ee:	00000297          	auipc	t0,0x0
     2f2:	9696                	add	a3,a3,t0
     2f4:	8286                	mv	t0,ra
     2f6:	fa8680e7          	jalr	-88(a3)
     2fa:	8096                	mv	ra,t0
     2fc:	17c1                	addi	a5,a5,-16
     2fe:	8f1d                	sub	a4,a4,a5
     300:	963e                	add	a2,a2,a5
     302:	f8c374e3          	bgeu	t1,a2,28a <memset+0x2a>
     306:	b7a5                	j	26e <memset+0xe>

00000308 <uart3_init>:
     308:	f29ff2ef          	jal	t0,230 <__riscv_save_0>
     30c:	7179                	addi	sp,sp,-48
     30e:	4585                	li	a1,1
     310:	4521                	li	a0,8
     312:	797020ef          	jal	ra,32a8 <RCC_APB2PeriphClockCmd>
     316:	4585                	li	a1,1
     318:	00040537          	lui	a0,0x40
     31c:	7ab020ef          	jal	ra,32c6 <RCC_APB1PeriphClockCmd>
     320:	40000793          	li	a5,1024
     324:	82fc                	sh	a5,20(sp)
     326:	40011437          	lui	s0,0x40011
     32a:	478d                	li	a5,3
     32c:	cc3e                	sw	a5,24(sp)
     32e:	084c                	addi	a1,sp,20
     330:	47e1                	li	a5,24
     332:	c0040513          	addi	a0,s0,-1024 # 40010c00 <_eusrstack+0x20008c00>
     336:	ce3e                	sw	a5,28(sp)
     338:	2bf020ef          	jal	ra,2df6 <GPIO_Init>
     33c:	6785                	lui	a5,0x1
     33e:	80078793          	addi	a5,a5,-2048 # 800 <__stack_size>
     342:	084c                	addi	a1,sp,20
     344:	82fc                	sh	a5,20(sp)
     346:	c0040513          	addi	a0,s0,-1024
     34a:	4791                	li	a5,4
     34c:	ce3e                	sw	a5,28(sp)
     34e:	2a9020ef          	jal	ra,2df6 <GPIO_Init>
     352:	23700793          	li	a5,567
     356:	867c                	sh	a5,12(sp)
     358:	4789                	li	a5,2
     35a:	875c                	sb	a5,14(sp)
     35c:	0068                	addi	a0,sp,12
     35e:	4785                	li	a5,1
     360:	c83e                	sw	a5,16(sp)
     362:	491020ef          	jal	ra,2ff2 <NVIC_Init>
     366:	67f1                	lui	a5,0x1c
     368:	40005437          	lui	s0,0x40005
     36c:	20078793          	addi	a5,a5,512 # 1c200 <_data_lma+0xfe3c>
     370:	d03e                	sw	a5,32(sp)
     372:	100c                	addi	a1,sp,32
     374:	000c07b7          	lui	a5,0xc0
     378:	80040513          	addi	a0,s0,-2048 # 40004800 <_eusrstack+0x1fffc800>
     37c:	d43e                	sw	a5,40(sp)
     37e:	d202                	sw	zero,36(sp)
     380:	02011623          	sh	zero,44(sp)
     384:	2dc030ef          	jal	ra,3660 <USART_Init>
     388:	4605                	li	a2,1
     38a:	80040513          	addi	a0,s0,-2048
     38e:	52500593          	li	a1,1317
     392:	3a0030ef          	jal	ra,3732 <USART_ITConfig>
     396:	4585                	li	a1,1
     398:	80040513          	addi	a0,s0,-2048
     39c:	380030ef          	jal	ra,371c <USART_Cmd>
     3a0:	6145                	addi	sp,sp,48
     3a2:	bd4d                	j	254 <__riscv_restore_0>

000003a4 <USART3_IRQHandler>:
     3a4:	1141                	addi	sp,sp,-16
     3a6:	c622                	sw	s0,12(sp)
     3a8:	40005437          	lui	s0,0x40005
     3ac:	52500593          	li	a1,1317
     3b0:	80040513          	addi	a0,s0,-2048 # 40004800 <_eusrstack+0x1fffc800>
     3b4:	3e0030ef          	jal	ra,3794 <USART_GetITStatus>
     3b8:	c13d                	beqz	a0,41e <USART3_IRQHandler+0x7a>
     3ba:	80040513          	addi	a0,s0,-2048
     3be:	3c4030ef          	jal	ra,3782 <USART_ReceiveData>
     3c2:	0ff57513          	andi	a0,a0,255
     3c6:	47c5                	li	a5,17
     3c8:	02f51463          	bne	a0,a5,3f0 <USART3_IRQHandler+0x4c>
     3cc:	4705                	li	a4,1
     3ce:	80e19e23          	sh	a4,-2020(gp) # 2000020c <Light_Mode>
     3d2:	82019023          	sh	zero,-2016(gp) # 20000210 <Rainbow_Mode>
     3d6:	80019f23          	sh	zero,-2018(gp) # 2000020e <Print_Mode>
     3da:	80019d23          	sh	zero,-2022(gp) # 2000020a <Flash_Mpde>
     3de:	80019c23          	sh	zero,-2024(gp) # 20000208 <_edata>
     3e2:	47e1                	li	a5,24
     3e4:	02f51d63          	bne	a0,a5,41e <USART3_IRQHandler+0x7a>
     3e8:	4705                	li	a4,1
     3ea:	82e18123          	sb	a4,-2014(gp) # 20000212 <alarm_state>
     3ee:	a805                	j	41e <USART3_IRQHandler+0x7a>
     3f0:	47c9                	li	a5,18
     3f2:	00f51863          	bne	a0,a5,402 <USART3_IRQHandler+0x5e>
     3f6:	80019e23          	sh	zero,-2020(gp) # 2000020c <Light_Mode>
     3fa:	4705                	li	a4,1
     3fc:	82e19023          	sh	a4,-2016(gp) # 20000210 <Rainbow_Mode>
     400:	bfd9                	j	3d6 <USART3_IRQHandler+0x32>
     402:	47cd                	li	a5,19
     404:	02f51163          	bne	a0,a5,426 <USART3_IRQHandler+0x82>
     408:	80019e23          	sh	zero,-2020(gp) # 2000020c <Light_Mode>
     40c:	82019023          	sh	zero,-2016(gp) # 20000210 <Rainbow_Mode>
     410:	4705                	li	a4,1
     412:	80e19f23          	sh	a4,-2018(gp) # 2000020e <Print_Mode>
     416:	80019d23          	sh	zero,-2022(gp) # 2000020a <Flash_Mpde>
     41a:	80019c23          	sh	zero,-2024(gp) # 20000208 <_edata>
     41e:	4432                	lw	s0,12(sp)
     420:	0141                	addi	sp,sp,16
     422:	30200073          	mret
     426:	47d1                	li	a5,20
     428:	00f51c63          	bne	a0,a5,440 <USART3_IRQHandler+0x9c>
     42c:	80019e23          	sh	zero,-2020(gp) # 2000020c <Light_Mode>
     430:	82019023          	sh	zero,-2016(gp) # 20000210 <Rainbow_Mode>
     434:	80019f23          	sh	zero,-2018(gp) # 2000020e <Print_Mode>
     438:	4705                	li	a4,1
     43a:	80e19d23          	sh	a4,-2022(gp) # 2000020a <Flash_Mpde>
     43e:	bff1                	j	41a <USART3_IRQHandler+0x76>
     440:	47d5                	li	a5,21
     442:	faf510e3          	bne	a0,a5,3e2 <USART3_IRQHandler+0x3e>
     446:	80019e23          	sh	zero,-2020(gp) # 2000020c <Light_Mode>
     44a:	82019023          	sh	zero,-2016(gp) # 20000210 <Rainbow_Mode>
     44e:	80019f23          	sh	zero,-2018(gp) # 2000020e <Print_Mode>
     452:	80019d23          	sh	zero,-2022(gp) # 2000020a <Flash_Mpde>
     456:	4705                	li	a4,1
     458:	80e19c23          	sh	a4,-2024(gp) # 20000208 <_edata>
     45c:	b7c9                	j	41e <USART3_IRQHandler+0x7a>

0000045e <HMISends>:
     45e:	dd3ff2ef          	jal	t0,230 <__riscv_save_0>
     462:	400054b7          	lui	s1,0x40005
     466:	892a                	mv	s2,a0
     468:	4401                	li	s0,0
     46a:	80048493          	addi	s1,s1,-2048 # 40004800 <_eusrstack+0x1fffc800>
     46e:	008907b3          	add	a5,s2,s0
     472:	00078583          	lb	a1,0(a5) # c0000 <_data_lma+0xb3c3c>
     476:	c185                	beqz	a1,496 <HMISends+0x38>
     478:	05c2                	slli	a1,a1,0x10
     47a:	81c1                	srli	a1,a1,0x10
     47c:	8526                	mv	a0,s1
     47e:	2fc030ef          	jal	ra,377a <USART_SendData>
     482:	08000593          	li	a1,128
     486:	8526                	mv	a0,s1
     488:	302030ef          	jal	ra,378a <USART_GetFlagStatus>
     48c:	d97d                	beqz	a0,482 <HMISends+0x24>
     48e:	0405                	addi	s0,s0,1
     490:	0ff47413          	andi	s0,s0,255
     494:	bfe9                	j	46e <HMISends+0x10>
     496:	bb7d                	j	254 <__riscv_restore_0>

00000498 <HMISendb>:
     498:	d7fff2ef          	jal	t0,216 <__riscv_save_4>
     49c:	01051993          	slli	s3,a0,0x10
     4a0:	400054b7          	lui	s1,0x40005
     4a4:	892a                	mv	s2,a0
     4a6:	440d                	li	s0,3
     4a8:	0109d993          	srli	s3,s3,0x10
     4ac:	80048493          	addi	s1,s1,-2048 # 40004800 <_eusrstack+0x1fffc800>
     4b0:	02090063          	beqz	s2,4d0 <HMISendb+0x38>
     4b4:	85ce                	mv	a1,s3
     4b6:	8526                	mv	a0,s1
     4b8:	2c2030ef          	jal	ra,377a <USART_SendData>
     4bc:	08000593          	li	a1,128
     4c0:	8526                	mv	a0,s1
     4c2:	2c8030ef          	jal	ra,378a <USART_GetFlagStatus>
     4c6:	d97d                	beqz	a0,4bc <HMISendb+0x24>
     4c8:	147d                	addi	s0,s0,-1
     4ca:	0ff47413          	andi	s0,s0,255
     4ce:	f06d                	bnez	s0,4b0 <HMISendb+0x18>
     4d0:	bbad                	j	24a <__riscv_restore_4>

000004d2 <usart2_start>:
     4d2:	d5fff2ef          	jal	t0,230 <__riscv_save_0>
     4d6:	7179                	addi	sp,sp,-48
     4d8:	892a                	mv	s2,a0
     4da:	4585                	li	a1,1
     4dc:	4511                	li	a0,4
     4de:	5cb020ef          	jal	ra,32a8 <RCC_APB2PeriphClockCmd>
     4e2:	4585                	li	a1,1
     4e4:	00020537          	lui	a0,0x20
     4e8:	5df020ef          	jal	ra,32c6 <RCC_APB1PeriphClockCmd>
     4ec:	400114b7          	lui	s1,0x40011
     4f0:	4791                	li	a5,4
     4f2:	82fc                	sh	a5,20(sp)
     4f4:	440d                	li	s0,3
     4f6:	47e1                	li	a5,24
     4f8:	084c                	addi	a1,sp,20
     4fa:	80048513          	addi	a0,s1,-2048 # 40010800 <_eusrstack+0x20008800>
     4fe:	cc22                	sw	s0,24(sp)
     500:	ce3e                	sw	a5,28(sp)
     502:	0f5020ef          	jal	ra,2df6 <GPIO_Init>
     506:	47a1                	li	a5,8
     508:	084c                	addi	a1,sp,20
     50a:	82fc                	sh	a5,20(sp)
     50c:	80048513          	addi	a0,s1,-2048
     510:	4791                	li	a5,4
     512:	ce3e                	sw	a5,28(sp)
     514:	0e3020ef          	jal	ra,2df6 <GPIO_Init>
     518:	23600793          	li	a5,566
     51c:	867c                	sh	a5,12(sp)
     51e:	0068                	addi	a0,sp,12
     520:	4785                	li	a5,1
     522:	8740                	sb	s0,14(sp)
     524:	c83e                	sw	a5,16(sp)
     526:	40004437          	lui	s0,0x40004
     52a:	2c9020ef          	jal	ra,2ff2 <NVIC_Init>
     52e:	000c07b7          	lui	a5,0xc0
     532:	100c                	addi	a1,sp,32
     534:	40040513          	addi	a0,s0,1024 # 40004400 <_eusrstack+0x1fffc400>
     538:	d43e                	sw	a5,40(sp)
     53a:	d04a                	sw	s2,32(sp)
     53c:	d202                	sw	zero,36(sp)
     53e:	02011623          	sh	zero,44(sp)
     542:	11e030ef          	jal	ra,3660 <USART_Init>
     546:	4605                	li	a2,1
     548:	40040513          	addi	a0,s0,1024
     54c:	52500593          	li	a1,1317
     550:	1e2030ef          	jal	ra,3732 <USART_ITConfig>
     554:	4585                	li	a1,1
     556:	40040513          	addi	a0,s0,1024
     55a:	1c2030ef          	jal	ra,371c <USART_Cmd>
     55e:	6145                	addi	sp,sp,48
     560:	b9d5                	j	254 <__riscv_restore_0>

00000562 <USART2_IRQHandler>:
     562:	1141                	addi	sp,sp,-16
     564:	c622                	sw	s0,12(sp)
     566:	40004437          	lui	s0,0x40004
     56a:	52500593          	li	a1,1317
     56e:	40040513          	addi	a0,s0,1024 # 40004400 <_eusrstack+0x1fffc400>
     572:	222030ef          	jal	ra,3794 <USART_GetITStatus>
     576:	c939                	beqz	a0,5cc <USART2_IRQHandler+0x6a>
     578:	40040513          	addi	a0,s0,1024
     57c:	206030ef          	jal	ra,3782 <USART_ReceiveData>
     580:	82a1d783          	lhu	a5,-2006(gp) # 2000021a <USART2_RX_STA>
     584:	82a18713          	addi	a4,gp,-2006 # 2000021a <USART2_RX_STA>
     588:	01079693          	slli	a3,a5,0x10
     58c:	86c1                	srai	a3,a3,0x10
     58e:	0006dc63          	bgez	a3,5a6 <USART2_IRQHandler+0x44>
     592:	8fc1c783          	lbu	a5,-1796(gp) # 200002ec <USART2_RX_BUF>
     596:	04100693          	li	a3,65
     59a:	06d79363          	bne	a5,a3,600 <USART2_IRQHandler+0x9e>
     59e:	4685                	li	a3,1
     5a0:	82d19423          	sh	a3,-2008(gp) # 20000218 <Smoking_Flag>
     5a4:	a811                	j	5b8 <USART2_IRQHandler+0x56>
     5a6:	01179693          	slli	a3,a5,0x11
     5aa:	0ff57513          	andi	a0,a0,255
     5ae:	0206d363          	bgez	a3,5d4 <USART2_IRQHandler+0x72>
     5b2:	46a9                	li	a3,10
     5b4:	00d50563          	beq	a0,a3,5be <USART2_IRQHandler+0x5c>
     5b8:	00071023          	sh	zero,0(a4)
     5bc:	a801                	j	5cc <USART2_IRQHandler+0x6a>
     5be:	76e1                	lui	a3,0xffff8
     5c0:	8fd5                	or	a5,a5,a3
     5c2:	a31e                	sh	a5,0(a4)
     5c4:	00071783          	lh	a5,0(a4)
     5c8:	fc07c5e3          	bltz	a5,592 <USART2_IRQHandler+0x30>
     5cc:	4432                	lw	s0,12(sp)
     5ce:	0141                	addi	sp,sp,16
     5d0:	30200073          	mret
     5d4:	46b5                	li	a3,13
     5d6:	00d51463          	bne	a0,a3,5de <USART2_IRQHandler+0x7c>
     5da:	6691                	lui	a3,0x4
     5dc:	b7d5                	j	5c0 <USART2_IRQHandler+0x5e>
     5de:	01279693          	slli	a3,a5,0x12
     5e2:	0126d613          	srli	a2,a3,0x12
     5e6:	0785                	addi	a5,a5,1
     5e8:	8fc18693          	addi	a3,gp,-1796 # 200002ec <USART2_RX_BUF>
     5ec:	07c2                	slli	a5,a5,0x10
     5ee:	96b2                	add	a3,a3,a2
     5f0:	83c1                	srli	a5,a5,0x10
     5f2:	a288                	sb	a0,0(a3)
     5f4:	a31e                	sh	a5,0(a4)
     5f6:	0c700693          	li	a3,199
     5fa:	faf6efe3          	bltu	a3,a5,5b8 <USART2_IRQHandler+0x56>
     5fe:	b7d9                	j	5c4 <USART2_IRQHandler+0x62>
     600:	04200693          	li	a3,66
     604:	00d79663          	bne	a5,a3,610 <USART2_IRQHandler+0xae>
     608:	4685                	li	a3,1
     60a:	82d19223          	sh	a3,-2012(gp) # 20000214 <Callphone_Flag>
     60e:	b76d                	j	5b8 <USART2_IRQHandler+0x56>
     610:	04300693          	li	a3,67
     614:	fad792e3          	bne	a5,a3,5b8 <USART2_IRQHandler+0x56>
     618:	4685                	li	a3,1
     61a:	82d19323          	sh	a3,-2010(gp) # 20000216 <Fatigue_Flag>
     61e:	bf69                	j	5b8 <USART2_IRQHandler+0x56>

00000620 <Show_Time>:
     620:	c11ff2ef          	jal	t0,230 <__riscv_save_0>
     624:	bb018493          	addi	s1,gp,-1104 # 200005a0 <calendar>
     628:	20d2                	lhu	a2,4(s1)
     62a:	0000c5b7          	lui	a1,0xc
     62e:	c6c58593          	addi	a1,a1,-916 # bc6c <_read+0x2d8>
     632:	9c418513          	addi	a0,gp,-1596 # 200003b4 <buf>
     636:	033060ef          	jal	ra,6e68 <siprintf>
     63a:	9c418513          	addi	a0,gp,-1596 # 200003b4 <buf>
     63e:	3505                	jal	45e <HMISends>
     640:	0ff00513          	li	a0,255
     644:	3d91                	jal	498 <HMISendb>
     646:	20f0                	lbu	a2,6(s1)
     648:	0000c5b7          	lui	a1,0xc
     64c:	c8058593          	addi	a1,a1,-896 # bc80 <_read+0x2ec>
     650:	9c418513          	addi	a0,gp,-1596 # 200003b4 <buf>
     654:	015060ef          	jal	ra,6e68 <siprintf>
     658:	9c418513          	addi	a0,gp,-1596 # 200003b4 <buf>
     65c:	3509                	jal	45e <HMISends>
     65e:	0ff00513          	li	a0,255
     662:	3d1d                	jal	498 <HMISendb>
     664:	30f0                	lbu	a2,7(s1)
     666:	0000c5b7          	lui	a1,0xc
     66a:	c9458593          	addi	a1,a1,-876 # bc94 <_read+0x300>
     66e:	9c418513          	addi	a0,gp,-1596 # 200003b4 <buf>
     672:	7f6060ef          	jal	ra,6e68 <siprintf>
     676:	9c418513          	addi	a0,gp,-1596 # 200003b4 <buf>
     67a:	33d5                	jal	45e <HMISends>
     67c:	0ff00513          	li	a0,255
     680:	3d21                	jal	498 <HMISendb>
     682:	bb01c603          	lbu	a2,-1104(gp) # 200005a0 <calendar>
     686:	0000c5b7          	lui	a1,0xc
     68a:	ca858593          	addi	a1,a1,-856 # bca8 <_read+0x314>
     68e:	9c418513          	addi	a0,gp,-1596 # 200003b4 <buf>
     692:	7d6060ef          	jal	ra,6e68 <siprintf>
     696:	9c418513          	addi	a0,gp,-1596 # 200003b4 <buf>
     69a:	33d1                	jal	45e <HMISends>
     69c:	0ff00513          	li	a0,255
     6a0:	3be5                	jal	498 <HMISendb>
     6a2:	3090                	lbu	a2,1(s1)
     6a4:	0000c5b7          	lui	a1,0xc
     6a8:	cbc58593          	addi	a1,a1,-836 # bcbc <_read+0x328>
     6ac:	9c418513          	addi	a0,gp,-1596 # 200003b4 <buf>
     6b0:	7b8060ef          	jal	ra,6e68 <siprintf>
     6b4:	9c418513          	addi	a0,gp,-1596 # 200003b4 <buf>
     6b8:	335d                	jal	45e <HMISends>
     6ba:	0ff00513          	li	a0,255
     6be:	3be9                	jal	498 <HMISendb>
     6c0:	20b0                	lbu	a2,2(s1)
     6c2:	0000c5b7          	lui	a1,0xc
     6c6:	cd058593          	addi	a1,a1,-816 # bcd0 <_read+0x33c>
     6ca:	9c418513          	addi	a0,gp,-1596 # 200003b4 <buf>
     6ce:	79a060ef          	jal	ra,6e68 <siprintf>
     6d2:	9c418513          	addi	a0,gp,-1596 # 200003b4 <buf>
     6d6:	3361                	jal	45e <HMISends>
     6d8:	0ff00513          	li	a0,255
     6dc:	3b75                	jal	498 <HMISendb>
     6de:	be9d                	j	254 <__riscv_restore_0>

000006e0 <Show_Alcohol_Normal>:
     6e0:	b51ff2ef          	jal	t0,230 <__riscv_save_0>
     6e4:	0000c5b7          	lui	a1,0xc
     6e8:	b2458593          	addi	a1,a1,-1244 # bb24 <_read+0x190>
     6ec:	9c418513          	addi	a0,gp,-1596 # 200003b4 <buf>
     6f0:	7be060ef          	jal	ra,6eae <strcpy>
     6f4:	9c418513          	addi	a0,gp,-1596 # 200003b4 <buf>
     6f8:	339d                	jal	45e <HMISends>
     6fa:	0ff00513          	li	a0,255
     6fe:	3b69                	jal	498 <HMISendb>
     700:	0000c5b7          	lui	a1,0xc
     704:	b3858593          	addi	a1,a1,-1224 # bb38 <_read+0x1a4>
     708:	9c418513          	addi	a0,gp,-1596 # 200003b4 <buf>
     70c:	7a2060ef          	jal	ra,6eae <strcpy>
     710:	9c418513          	addi	a0,gp,-1596 # 200003b4 <buf>
     714:	33a9                	jal	45e <HMISends>
     716:	0ff00513          	li	a0,255
     71a:	3bbd                	jal	498 <HMISendb>
     71c:	be25                	j	254 <__riscv_restore_0>

0000071e <Show_Alcohol_Abnormal>:
     71e:	b13ff2ef          	jal	t0,230 <__riscv_save_0>
     722:	0000c5b7          	lui	a1,0xc
     726:	af058593          	addi	a1,a1,-1296 # baf0 <_read+0x15c>
     72a:	9c418513          	addi	a0,gp,-1596 # 200003b4 <buf>
     72e:	780060ef          	jal	ra,6eae <strcpy>
     732:	9c418513          	addi	a0,gp,-1596 # 200003b4 <buf>
     736:	3325                	jal	45e <HMISends>
     738:	0ff00513          	li	a0,255
     73c:	3bb1                	jal	498 <HMISendb>
     73e:	0000c5b7          	lui	a1,0xc
     742:	b0458593          	addi	a1,a1,-1276 # bb04 <_read+0x170>
     746:	9c418513          	addi	a0,gp,-1596 # 200003b4 <buf>
     74a:	764060ef          	jal	ra,6eae <strcpy>
     74e:	9c418513          	addi	a0,gp,-1596 # 200003b4 <buf>
     752:	3331                	jal	45e <HMISends>
     754:	0ff00513          	li	a0,255
     758:	3381                	jal	498 <HMISendb>
     75a:	bced                	j	254 <__riscv_restore_0>

0000075c <Show_Speed>:
     75c:	ad5ff2ef          	jal	t0,230 <__riscv_save_0>
     760:	8dc1a503          	lw	a0,-1828(gp) # 200002cc <speed>
     764:	532050ef          	jal	ra,5c96 <__extendsfdf2>
     768:	86ae                	mv	a3,a1
     76a:	0000c5b7          	lui	a1,0xc
     76e:	862a                	mv	a2,a0
     770:	b5858593          	addi	a1,a1,-1192 # bb58 <_read+0x1c4>
     774:	9c418513          	addi	a0,gp,-1596 # 200003b4 <buf>
     778:	6f0060ef          	jal	ra,6e68 <siprintf>
     77c:	9c418513          	addi	a0,gp,-1596 # 200003b4 <buf>
     780:	39f9                	jal	45e <HMISends>
     782:	0ff00513          	li	a0,255
     786:	3b09                	jal	498 <HMISendb>
     788:	8341a503          	lw	a0,-1996(gp) # 20000224 <Circle>
     78c:	50a050ef          	jal	ra,5c96 <__extendsfdf2>
     790:	86ae                	mv	a3,a1
     792:	0000c5b7          	lui	a1,0xc
     796:	862a                	mv	a2,a0
     798:	b7058593          	addi	a1,a1,-1168 # bb70 <_read+0x1dc>
     79c:	9c418513          	addi	a0,gp,-1596 # 200003b4 <buf>
     7a0:	6c8060ef          	jal	ra,6e68 <siprintf>
     7a4:	9c418513          	addi	a0,gp,-1596 # 200003b4 <buf>
     7a8:	395d                	jal	45e <HMISends>
     7aa:	0ff00513          	li	a0,255
     7ae:	31ed                	jal	498 <HMISendb>
     7b0:	8bc1a503          	lw	a0,-1860(gp) # 200002ac <length>
     7b4:	4e2050ef          	jal	ra,5c96 <__extendsfdf2>
     7b8:	86ae                	mv	a3,a1
     7ba:	0000c5b7          	lui	a1,0xc
     7be:	862a                	mv	a2,a0
     7c0:	b8858593          	addi	a1,a1,-1144 # bb88 <_read+0x1f4>
     7c4:	9c418513          	addi	a0,gp,-1596 # 200003b4 <buf>
     7c8:	6a0060ef          	jal	ra,6e68 <siprintf>
     7cc:	9c418513          	addi	a0,gp,-1596 # 200003b4 <buf>
     7d0:	3179                	jal	45e <HMISends>
     7d2:	0ff00513          	li	a0,255
     7d6:	31c9                	jal	498 <HMISendb>
     7d8:	8c01a503          	lw	a0,-1856(gp) # 200002b0 <mileage>
     7dc:	4ba050ef          	jal	ra,5c96 <__extendsfdf2>
     7e0:	86ae                	mv	a3,a1
     7e2:	0000c5b7          	lui	a1,0xc
     7e6:	862a                	mv	a2,a0
     7e8:	ba058593          	addi	a1,a1,-1120 # bba0 <_read+0x20c>
     7ec:	9c418513          	addi	a0,gp,-1596 # 200003b4 <buf>
     7f0:	678060ef          	jal	ra,6e68 <siprintf>
     7f4:	9c418513          	addi	a0,gp,-1596 # 200003b4 <buf>
     7f8:	319d                	jal	45e <HMISends>
     7fa:	0ff00513          	li	a0,255
     7fe:	3969                	jal	498 <HMISendb>
     800:	8c41a603          	lw	a2,-1852(gp) # 200002b4 <radCir>
     804:	0000c5b7          	lui	a1,0xc
     808:	bb858593          	addi	a1,a1,-1096 # bbb8 <_read+0x224>
     80c:	a0418513          	addi	a0,gp,-1532 # 200003f4 <str>
     810:	658060ef          	jal	ra,6e68 <siprintf>
     814:	a0418513          	addi	a0,gp,-1532 # 200003f4 <str>
     818:	3199                	jal	45e <HMISends>
     81a:	0ff00513          	li	a0,255
     81e:	39ad                	jal	498 <HMISendb>
     820:	8d01a603          	lw	a2,-1840(gp) # 200002c0 <radspeed>
     824:	0000c5b7          	lui	a1,0xc
     828:	bc858593          	addi	a1,a1,-1080 # bbc8 <_read+0x234>
     82c:	a0418513          	addi	a0,gp,-1532 # 200003f4 <str>
     830:	638060ef          	jal	ra,6e68 <siprintf>
     834:	a0418513          	addi	a0,gp,-1532 # 200003f4 <str>
     838:	311d                	jal	45e <HMISends>
     83a:	0ff00513          	li	a0,255
     83e:	39a9                	jal	498 <HMISendb>
     840:	bc11                	j	254 <__riscv_restore_0>

00000842 <Show_Speed_Error>:
     842:	9efff2ef          	jal	t0,230 <__riscv_save_0>
     846:	8811c603          	lbu	a2,-1919(gp) # 20000271 <Rate_score_show>
     84a:	0000c5b7          	lui	a1,0xc
     84e:	bd858593          	addi	a1,a1,-1064 # bbd8 <_read+0x244>
     852:	a0418513          	addi	a0,gp,-1532 # 200003f4 <str>
     856:	612060ef          	jal	ra,6e68 <siprintf>
     85a:	a0418513          	addi	a0,gp,-1532 # 200003f4 <str>
     85e:	3101                	jal	45e <HMISends>
     860:	0ff00513          	li	a0,255
     864:	3915                	jal	498 <HMISendb>
     866:	9efff06f          	j	254 <__riscv_restore_0>

0000086a <Show_Temp_Humi>:
     86a:	9c7ff2ef          	jal	t0,230 <__riscv_save_0>
     86e:	8e01a503          	lw	a0,-1824(gp) # 200002d0 <temperature>
     872:	424050ef          	jal	ra,5c96 <__extendsfdf2>
     876:	86ae                	mv	a3,a1
     878:	0000c5b7          	lui	a1,0xc
     87c:	862a                	mv	a2,a0
     87e:	be858593          	addi	a1,a1,-1048 # bbe8 <_read+0x254>
     882:	9c418513          	addi	a0,gp,-1596 # 200003b4 <buf>
     886:	5e2060ef          	jal	ra,6e68 <siprintf>
     88a:	9c418513          	addi	a0,gp,-1596 # 200003b4 <buf>
     88e:	3ec1                	jal	45e <HMISends>
     890:	0ff00513          	li	a0,255
     894:	3111                	jal	498 <HMISendb>
     896:	8ac1a503          	lw	a0,-1876(gp) # 2000029c <humidity>
     89a:	3fc050ef          	jal	ra,5c96 <__extendsfdf2>
     89e:	86ae                	mv	a3,a1
     8a0:	0000c5b7          	lui	a1,0xc
     8a4:	862a                	mv	a2,a0
     8a6:	bfc58593          	addi	a1,a1,-1028 # bbfc <_read+0x268>
     8aa:	9c418513          	addi	a0,gp,-1596 # 200003b4 <buf>
     8ae:	5ba060ef          	jal	ra,6e68 <siprintf>
     8b2:	9c418513          	addi	a0,gp,-1596 # 200003b4 <buf>
     8b6:	3665                	jal	45e <HMISends>
     8b8:	0ff00513          	li	a0,255
     8bc:	3ef1                	jal	498 <HMISendb>
     8be:	0000c5b7          	lui	a1,0xc
     8c2:	c1058593          	addi	a1,a1,-1008 # bc10 <_read+0x27c>
     8c6:	9c418513          	addi	a0,gp,-1596 # 200003b4 <buf>
     8ca:	5e4060ef          	jal	ra,6eae <strcpy>
     8ce:	9c418513          	addi	a0,gp,-1596 # 200003b4 <buf>
     8d2:	3671                	jal	45e <HMISends>
     8d4:	0ff00513          	li	a0,255
     8d8:	36c1                	jal	498 <HMISendb>
     8da:	0000c5b7          	lui	a1,0xc
     8de:	c2458593          	addi	a1,a1,-988 # bc24 <_read+0x290>
     8e2:	9c418513          	addi	a0,gp,-1596 # 200003b4 <buf>
     8e6:	5c8060ef          	jal	ra,6eae <strcpy>
     8ea:	9c418513          	addi	a0,gp,-1596 # 200003b4 <buf>
     8ee:	3e85                	jal	45e <HMISends>
     8f0:	0ff00513          	li	a0,255
     8f4:	3655                	jal	498 <HMISendb>
     8f6:	8cc1a603          	lw	a2,-1844(gp) # 200002bc <radTemp>
     8fa:	0000c5b7          	lui	a1,0xc
     8fe:	c3858593          	addi	a1,a1,-968 # bc38 <_read+0x2a4>
     902:	a0418513          	addi	a0,gp,-1532 # 200003f4 <str>
     906:	562060ef          	jal	ra,6e68 <siprintf>
     90a:	a0418513          	addi	a0,gp,-1532 # 200003f4 <str>
     90e:	3e81                	jal	45e <HMISends>
     910:	0ff00513          	li	a0,255
     914:	3651                	jal	498 <HMISendb>
     916:	8c81a603          	lw	a2,-1848(gp) # 200002b8 <radHumi>
     91a:	0000c5b7          	lui	a1,0xc
     91e:	c4858593          	addi	a1,a1,-952 # bc48 <_read+0x2b4>
     922:	a0418513          	addi	a0,gp,-1532 # 200003f4 <str>
     926:	542060ef          	jal	ra,6e68 <siprintf>
     92a:	a0418513          	addi	a0,gp,-1532 # 200003f4 <str>
     92e:	3e05                	jal	45e <HMISends>
     930:	0ff00513          	li	a0,255
     934:	3695                	jal	498 <HMISendb>
     936:	91fff06f          	j	254 <__riscv_restore_0>

0000093a <Show_Temp_Humi_High>:
     93a:	8f7ff2ef          	jal	t0,230 <__riscv_save_0>
     93e:	0000c5b7          	lui	a1,0xc
     942:	c5858593          	addi	a1,a1,-936 # bc58 <_read+0x2c4>
     946:	9c418513          	addi	a0,gp,-1596 # 200003b4 <buf>
     94a:	564060ef          	jal	ra,6eae <strcpy>
     94e:	9c418513          	addi	a0,gp,-1596 # 200003b4 <buf>
     952:	3631                	jal	45e <HMISends>
     954:	0ff00513          	li	a0,255
     958:	3681                	jal	498 <HMISendb>
     95a:	8fbff06f          	j	254 <__riscv_restore_0>

0000095e <Fatigue_show>:
     95e:	8d3ff2ef          	jal	t0,230 <__riscv_save_0>
     962:	8681a603          	lw	a2,-1944(gp) # 20000258 <Fatigues>
     966:	0000c5b7          	lui	a1,0xc
     96a:	a5058593          	addi	a1,a1,-1456 # ba50 <_read+0xbc>
     96e:	a0418513          	addi	a0,gp,-1532 # 200003f4 <str>
     972:	4f6060ef          	jal	ra,6e68 <siprintf>
     976:	a0418513          	addi	a0,gp,-1532 # 200003f4 <str>
     97a:	ae5ff0ef          	jal	ra,45e <HMISends>
     97e:	0ff00513          	li	a0,255
     982:	b17ff0ef          	jal	ra,498 <HMISendb>
     986:	8651c603          	lbu	a2,-1947(gp) # 20000255 <Fatigue_score_show>
     98a:	0000c5b7          	lui	a1,0xc
     98e:	a6058593          	addi	a1,a1,-1440 # ba60 <_read+0xcc>
     992:	a0418513          	addi	a0,gp,-1532 # 200003f4 <str>
     996:	4d2060ef          	jal	ra,6e68 <siprintf>
     99a:	a0418513          	addi	a0,gp,-1532 # 200003f4 <str>
     99e:	ac1ff0ef          	jal	ra,45e <HMISends>
     9a2:	0ff00513          	li	a0,255
     9a6:	af3ff0ef          	jal	ra,498 <HMISendb>
     9aa:	8abff06f          	j	254 <__riscv_restore_0>

000009ae <Call_show>:
     9ae:	883ff2ef          	jal	t0,230 <__riscv_save_0>
     9b2:	85c1a603          	lw	a2,-1956(gp) # 2000024c <Calls>
     9b6:	0000c5b7          	lui	a1,0xc
     9ba:	9a058593          	addi	a1,a1,-1632 # b9a0 <_read+0xc>
     9be:	a0418513          	addi	a0,gp,-1532 # 200003f4 <str>
     9c2:	4a6060ef          	jal	ra,6e68 <siprintf>
     9c6:	a0418513          	addi	a0,gp,-1532 # 200003f4 <str>
     9ca:	a95ff0ef          	jal	ra,45e <HMISends>
     9ce:	0ff00513          	li	a0,255
     9d2:	ac7ff0ef          	jal	ra,498 <HMISendb>
     9d6:	85a1c603          	lbu	a2,-1958(gp) # 2000024a <Call_score_show>
     9da:	0000c5b7          	lui	a1,0xc
     9de:	9b058593          	addi	a1,a1,-1616 # b9b0 <_read+0x1c>
     9e2:	a0418513          	addi	a0,gp,-1532 # 200003f4 <str>
     9e6:	482060ef          	jal	ra,6e68 <siprintf>
     9ea:	a0418513          	addi	a0,gp,-1532 # 200003f4 <str>
     9ee:	a71ff0ef          	jal	ra,45e <HMISends>
     9f2:	0ff00513          	li	a0,255
     9f6:	aa3ff0ef          	jal	ra,498 <HMISendb>
     9fa:	85bff06f          	j	254 <__riscv_restore_0>

000009fe <Smoking_show>:
     9fe:	833ff2ef          	jal	t0,230 <__riscv_save_0>
     a02:	89c1a603          	lw	a2,-1892(gp) # 2000028c <Smokings>
     a06:	0000c5b7          	lui	a1,0xc
     a0a:	ce458593          	addi	a1,a1,-796 # bce4 <_read+0x350>
     a0e:	a0418513          	addi	a0,gp,-1532 # 200003f4 <str>
     a12:	456060ef          	jal	ra,6e68 <siprintf>
     a16:	a0418513          	addi	a0,gp,-1532 # 200003f4 <str>
     a1a:	a45ff0ef          	jal	ra,45e <HMISends>
     a1e:	0ff00513          	li	a0,255
     a22:	a77ff0ef          	jal	ra,498 <HMISendb>
     a26:	8991c603          	lbu	a2,-1895(gp) # 20000289 <Smoking_score_show>
     a2a:	0000c5b7          	lui	a1,0xc
     a2e:	cf458593          	addi	a1,a1,-780 # bcf4 <_read+0x360>
     a32:	a0418513          	addi	a0,gp,-1532 # 200003f4 <str>
     a36:	432060ef          	jal	ra,6e68 <siprintf>
     a3a:	a0418513          	addi	a0,gp,-1532 # 200003f4 <str>
     a3e:	a21ff0ef          	jal	ra,45e <HMISends>
     a42:	0ff00513          	li	a0,255
     a46:	a53ff0ef          	jal	ra,498 <HMISendb>
     a4a:	80bff06f          	j	254 <__riscv_restore_0>

00000a4e <Overtimedriver_show>:
     a4e:	fe2ff2ef          	jal	t0,230 <__riscv_save_0>
     a52:	8631c603          	lbu	a2,-1949(gp) # 20000253 <Continuousdriving_score_show>
     a56:	0000c5b7          	lui	a1,0xc
     a5a:	ae058593          	addi	a1,a1,-1312 # bae0 <_read+0x14c>
     a5e:	a0418513          	addi	a0,gp,-1532 # 200003f4 <str>
     a62:	406060ef          	jal	ra,6e68 <siprintf>
     a66:	a0418513          	addi	a0,gp,-1532 # 200003f4 <str>
     a6a:	9f5ff0ef          	jal	ra,45e <HMISends>
     a6e:	0ff00513          	li	a0,255
     a72:	a27ff0ef          	jal	ra,498 <HMISendb>
     a76:	fdeff06f          	j	254 <__riscv_restore_0>

00000a7a <Driver_show>:
     a7a:	fb6ff2ef          	jal	t0,230 <__riscv_save_0>
     a7e:	8791c603          	lbu	a2,-1927(gp) # 20000269 <Overspeed_score_show>
     a82:	0000c5b7          	lui	a1,0xc
     a86:	9c058593          	addi	a1,a1,-1600 # b9c0 <_read+0x2c>
     a8a:	a0418513          	addi	a0,gp,-1532 # 200003f4 <str>
     a8e:	3da060ef          	jal	ra,6e68 <siprintf>
     a92:	a0418513          	addi	a0,gp,-1532 # 200003f4 <str>
     a96:	9c9ff0ef          	jal	ra,45e <HMISends>
     a9a:	0ff00513          	li	a0,255
     a9e:	9fbff0ef          	jal	ra,498 <HMISendb>
     aa2:	8891c603          	lbu	a2,-1911(gp) # 20000279 <Sharpacceleration_score_show>
     aa6:	0000c5b7          	lui	a1,0xc
     aaa:	9d058593          	addi	a1,a1,-1584 # b9d0 <_read+0x3c>
     aae:	a0418513          	addi	a0,gp,-1532 # 200003f4 <str>
     ab2:	3b6060ef          	jal	ra,6e68 <siprintf>
     ab6:	a0418513          	addi	a0,gp,-1532 # 200003f4 <str>
     aba:	9a5ff0ef          	jal	ra,45e <HMISends>
     abe:	0ff00513          	li	a0,255
     ac2:	9d7ff0ef          	jal	ra,498 <HMISendb>
     ac6:	8911c603          	lbu	a2,-1903(gp) # 20000281 <Sharpslowdown_score_show>
     aca:	0000c5b7          	lui	a1,0xc
     ace:	9e058593          	addi	a1,a1,-1568 # b9e0 <_read+0x4c>
     ad2:	a0418513          	addi	a0,gp,-1532 # 200003f4 <str>
     ad6:	392060ef          	jal	ra,6e68 <siprintf>
     ada:	a0418513          	addi	a0,gp,-1532 # 200003f4 <str>
     ade:	981ff0ef          	jal	ra,45e <HMISends>
     ae2:	0ff00513          	li	a0,255
     ae6:	9b3ff0ef          	jal	ra,498 <HMISendb>
     aea:	8931c603          	lbu	a2,-1901(gp) # 20000283 <Sharpturn_score_show>
     aee:	0000c5b7          	lui	a1,0xc
     af2:	9f058593          	addi	a1,a1,-1552 # b9f0 <_read+0x5c>
     af6:	a0418513          	addi	a0,gp,-1532 # 200003f4 <str>
     afa:	36e060ef          	jal	ra,6e68 <siprintf>
     afe:	a0418513          	addi	a0,gp,-1532 # 200003f4 <str>
     b02:	95dff0ef          	jal	ra,45e <HMISends>
     b06:	0ff00513          	li	a0,255
     b0a:	98fff0ef          	jal	ra,498 <HMISendb>
     b0e:	8741a603          	lw	a2,-1932(gp) # 20000264 <Overspeed>
     b12:	0000c5b7          	lui	a1,0xc
     b16:	a0058593          	addi	a1,a1,-1536 # ba00 <_read+0x6c>
     b1a:	a0418513          	addi	a0,gp,-1532 # 200003f4 <str>
     b1e:	34a060ef          	jal	ra,6e68 <siprintf>
     b22:	a0418513          	addi	a0,gp,-1532 # 200003f4 <str>
     b26:	939ff0ef          	jal	ra,45e <HMISends>
     b2a:	0ff00513          	li	a0,255
     b2e:	96bff0ef          	jal	ra,498 <HMISendb>
     b32:	8841a603          	lw	a2,-1916(gp) # 20000274 <Sharpacceleration>
     b36:	0000c5b7          	lui	a1,0xc
     b3a:	a1058593          	addi	a1,a1,-1520 # ba10 <_read+0x7c>
     b3e:	a0418513          	addi	a0,gp,-1532 # 200003f4 <str>
     b42:	326060ef          	jal	ra,6e68 <siprintf>
     b46:	a0418513          	addi	a0,gp,-1532 # 200003f4 <str>
     b4a:	915ff0ef          	jal	ra,45e <HMISends>
     b4e:	0ff00513          	li	a0,255
     b52:	947ff0ef          	jal	ra,498 <HMISendb>
     b56:	88c1a603          	lw	a2,-1908(gp) # 2000027c <Sharpslowdown>
     b5a:	0000c5b7          	lui	a1,0xc
     b5e:	a2058593          	addi	a1,a1,-1504 # ba20 <_read+0x8c>
     b62:	a0418513          	addi	a0,gp,-1532 # 200003f4 <str>
     b66:	302060ef          	jal	ra,6e68 <siprintf>
     b6a:	a0418513          	addi	a0,gp,-1532 # 200003f4 <str>
     b6e:	8f1ff0ef          	jal	ra,45e <HMISends>
     b72:	0ff00513          	li	a0,255
     b76:	923ff0ef          	jal	ra,498 <HMISendb>
     b7a:	8941a603          	lw	a2,-1900(gp) # 20000284 <Sharpturns>
     b7e:	0000c5b7          	lui	a1,0xc
     b82:	a3058593          	addi	a1,a1,-1488 # ba30 <_read+0x9c>
     b86:	a0418513          	addi	a0,gp,-1532 # 200003f4 <str>
     b8a:	2de060ef          	jal	ra,6e68 <siprintf>
     b8e:	a0418513          	addi	a0,gp,-1532 # 200003f4 <str>
     b92:	8cdff0ef          	jal	ra,45e <HMISends>
     b96:	0ff00513          	li	a0,255
     b9a:	8ffff0ef          	jal	ra,498 <HMISendb>
     b9e:	8601d603          	lhu	a2,-1952(gp) # 20000250 <Continudrives>
     ba2:	0000c5b7          	lui	a1,0xc
     ba6:	a4058593          	addi	a1,a1,-1472 # ba40 <_read+0xac>
     baa:	a0418513          	addi	a0,gp,-1532 # 200003f4 <str>
     bae:	2ba060ef          	jal	ra,6e68 <siprintf>
     bb2:	a0418513          	addi	a0,gp,-1532 # 200003f4 <str>
     bb6:	8a9ff0ef          	jal	ra,45e <HMISends>
     bba:	0ff00513          	li	a0,255
     bbe:	8dbff0ef          	jal	ra,498 <HMISendb>
     bc2:	e92ff06f          	j	254 <__riscv_restore_0>

00000bc6 <GradeA_show>:
     bc6:	e6aff2ef          	jal	t0,230 <__riscv_save_0>
     bca:	0000c5b7          	lui	a1,0xc
     bce:	a7058593          	addi	a1,a1,-1424 # ba70 <_read+0xdc>
     bd2:	9c418513          	addi	a0,gp,-1596 # 200003b4 <buf>
     bd6:	2d8060ef          	jal	ra,6eae <strcpy>
     bda:	9c418513          	addi	a0,gp,-1596 # 200003b4 <buf>
     bde:	881ff0ef          	jal	ra,45e <HMISends>
     be2:	0ff00513          	li	a0,255
     be6:	8b3ff0ef          	jal	ra,498 <HMISendb>
     bea:	e6aff06f          	j	254 <__riscv_restore_0>

00000bee <GradeB_show>:
     bee:	e42ff2ef          	jal	t0,230 <__riscv_save_0>
     bf2:	0000c5b7          	lui	a1,0xc
     bf6:	a8858593          	addi	a1,a1,-1400 # ba88 <_read+0xf4>
     bfa:	9c418513          	addi	a0,gp,-1596 # 200003b4 <buf>
     bfe:	2b0060ef          	jal	ra,6eae <strcpy>
     c02:	9c418513          	addi	a0,gp,-1596 # 200003b4 <buf>
     c06:	859ff0ef          	jal	ra,45e <HMISends>
     c0a:	0ff00513          	li	a0,255
     c0e:	88bff0ef          	jal	ra,498 <HMISendb>
     c12:	e42ff06f          	j	254 <__riscv_restore_0>

00000c16 <GradeC_show>:
     c16:	e1aff2ef          	jal	t0,230 <__riscv_save_0>
     c1a:	0000c5b7          	lui	a1,0xc
     c1e:	aa058593          	addi	a1,a1,-1376 # baa0 <_read+0x10c>
     c22:	9c418513          	addi	a0,gp,-1596 # 200003b4 <buf>
     c26:	288060ef          	jal	ra,6eae <strcpy>
     c2a:	9c418513          	addi	a0,gp,-1596 # 200003b4 <buf>
     c2e:	831ff0ef          	jal	ra,45e <HMISends>
     c32:	0ff00513          	li	a0,255
     c36:	863ff0ef          	jal	ra,498 <HMISendb>
     c3a:	e1aff06f          	j	254 <__riscv_restore_0>

00000c3e <Hundred_show>:
     c3e:	df2ff2ef          	jal	t0,230 <__riscv_save_0>
     c42:	86c1a603          	lw	a2,-1940(gp) # 2000025c <Hundred>
     c46:	0000c5b7          	lui	a1,0xc
     c4a:	ab858593          	addi	a1,a1,-1352 # bab8 <_read+0x124>
     c4e:	9c418513          	addi	a0,gp,-1596 # 200003b4 <buf>
     c52:	216060ef          	jal	ra,6e68 <siprintf>
     c56:	9c418513          	addi	a0,gp,-1596 # 200003b4 <buf>
     c5a:	805ff0ef          	jal	ra,45e <HMISends>
     c5e:	0ff00513          	li	a0,255
     c62:	837ff0ef          	jal	ra,498 <HMISendb>
     c66:	deeff06f          	j	254 <__riscv_restore_0>

00000c6a <Ten_show>:
     c6a:	dc6ff2ef          	jal	t0,230 <__riscv_save_0>
     c6e:	8a01a603          	lw	a2,-1888(gp) # 20000290 <Ten>
     c72:	0000c5b7          	lui	a1,0xc
     c76:	d0458593          	addi	a1,a1,-764 # bd04 <_read+0x370>
     c7a:	9c418513          	addi	a0,gp,-1596 # 200003b4 <buf>
     c7e:	1ea060ef          	jal	ra,6e68 <siprintf>
     c82:	9c418513          	addi	a0,gp,-1596 # 200003b4 <buf>
     c86:	fd8ff0ef          	jal	ra,45e <HMISends>
     c8a:	0ff00513          	li	a0,255
     c8e:	80bff0ef          	jal	ra,498 <HMISendb>
     c92:	dc2ff06f          	j	254 <__riscv_restore_0>

00000c96 <One_show>:
     c96:	d9aff2ef          	jal	t0,230 <__riscv_save_0>
     c9a:	8701a603          	lw	a2,-1936(gp) # 20000260 <One>
     c9e:	0000c5b7          	lui	a1,0xc
     ca2:	acc58593          	addi	a1,a1,-1332 # bacc <_read+0x138>
     ca6:	9c418513          	addi	a0,gp,-1596 # 200003b4 <buf>
     caa:	1be060ef          	jal	ra,6e68 <siprintf>
     cae:	9c418513          	addi	a0,gp,-1596 # 200003b4 <buf>
     cb2:	facff0ef          	jal	ra,45e <HMISends>
     cb6:	0ff00513          	li	a0,255
     cba:	fdeff0ef          	jal	ra,498 <HMISendb>
     cbe:	d96ff06f          	j	254 <__riscv_restore_0>

00000cc2 <Init_uart6>:
     cc2:	d6eff2ef          	jal	t0,230 <__riscv_save_0>
     cc6:	7179                	addi	sp,sp,-48
     cc8:	842a                	mv	s0,a0
     cca:	4585                	li	a1,1
     ccc:	04100513          	li	a0,65
     cd0:	5d8020ef          	jal	ra,32a8 <RCC_APB2PeriphClockCmd>
     cd4:	4585                	li	a1,1
     cd6:	04000513          	li	a0,64
     cda:	5ec020ef          	jal	ra,32c6 <RCC_APB1PeriphClockCmd>
     cde:	80340537          	lui	a0,0x80340
     ce2:	4585                	li	a1,1
     ce4:	02050513          	addi	a0,a0,32 # 80340020 <_eusrstack+0x60338020>
     ce8:	1e0020ef          	jal	ra,2ec8 <GPIO_PinRemapConfig>
     cec:	6785                	lui	a5,0x1
     cee:	80078793          	addi	a5,a5,-2048 # 800 <__stack_size>
     cf2:	40012537          	lui	a0,0x40012
     cf6:	084c                	addi	a1,sp,20
     cf8:	82fc                	sh	a5,20(sp)
     cfa:	80050513          	addi	a0,a0,-2048 # 40011800 <_eusrstack+0x20009800>
     cfe:	4791                	li	a5,4
     d00:	ce3e                	sw	a5,28(sp)
     d02:	0f4020ef          	jal	ra,2df6 <GPIO_Init>
     d06:	35700793          	li	a5,855
     d0a:	867c                	sh	a5,12(sp)
     d0c:	478d                	li	a5,3
     d0e:	875c                	sb	a5,14(sp)
     d10:	0068                	addi	a0,sp,12
     d12:	4785                	li	a5,1
     d14:	c83e                	sw	a5,16(sp)
     d16:	2dc020ef          	jal	ra,2ff2 <NVIC_Init>
     d1a:	d022                	sw	s0,32(sp)
     d1c:	40002437          	lui	s0,0x40002
     d20:	000407b7          	lui	a5,0x40
     d24:	100c                	addi	a1,sp,32
     d26:	80040513          	addi	a0,s0,-2048 # 40001800 <_eusrstack+0x1fff9800>
     d2a:	d43e                	sw	a5,40(sp)
     d2c:	d202                	sw	zero,36(sp)
     d2e:	02011623          	sh	zero,44(sp)
     d32:	12f020ef          	jal	ra,3660 <USART_Init>
     d36:	4605                	li	a2,1
     d38:	80040513          	addi	a0,s0,-2048
     d3c:	52500593          	li	a1,1317
     d40:	1f3020ef          	jal	ra,3732 <USART_ITConfig>
     d44:	4585                	li	a1,1
     d46:	80040513          	addi	a0,s0,-2048
     d4a:	1d3020ef          	jal	ra,371c <USART_Cmd>
     d4e:	6145                	addi	sp,sp,48
     d50:	d04ff06f          	j	254 <__riscv_restore_0>

00000d54 <UART6_IRQHandler>:
     d54:	1141                	addi	sp,sp,-16
     d56:	c622                	sw	s0,12(sp)
     d58:	40002437          	lui	s0,0x40002
     d5c:	52500593          	li	a1,1317
     d60:	80040513          	addi	a0,s0,-2048 # 40001800 <_eusrstack+0x1fff9800>
     d64:	231020ef          	jal	ra,3794 <USART_GetITStatus>
     d68:	c939                	beqz	a0,dbe <UART6_IRQHandler+0x6a>
     d6a:	80040513          	addi	a0,s0,-2048
     d6e:	215020ef          	jal	ra,3782 <USART_ReceiveData>
     d72:	82e1d783          	lhu	a5,-2002(gp) # 2000021e <UART6_RX_STA>
     d76:	82e18713          	addi	a4,gp,-2002 # 2000021e <UART6_RX_STA>
     d7a:	01079693          	slli	a3,a5,0x10
     d7e:	86c1                	srai	a3,a3,0x10
     d80:	0006dc63          	bgez	a3,d98 <UART6_IRQHandler+0x44>
     d84:	a441c783          	lbu	a5,-1468(gp) # 20000434 <UART6_RX_BUF>
     d88:	04500693          	li	a3,69
     d8c:	06d79363          	bne	a5,a3,df2 <UART6_IRQHandler+0x9e>
     d90:	4685                	li	a3,1
     d92:	82d19623          	sh	a3,-2004(gp) # 2000021c <Red_Flag>
     d96:	a811                	j	daa <UART6_IRQHandler+0x56>
     d98:	01179693          	slli	a3,a5,0x11
     d9c:	0ff57513          	andi	a0,a0,255
     da0:	0206d363          	bgez	a3,dc6 <UART6_IRQHandler+0x72>
     da4:	46a9                	li	a3,10
     da6:	00d50563          	beq	a0,a3,db0 <UART6_IRQHandler+0x5c>
     daa:	00071023          	sh	zero,0(a4)
     dae:	a801                	j	dbe <UART6_IRQHandler+0x6a>
     db0:	76e1                	lui	a3,0xffff8
     db2:	8fd5                	or	a5,a5,a3
     db4:	a31e                	sh	a5,0(a4)
     db6:	00071783          	lh	a5,0(a4)
     dba:	fc07c5e3          	bltz	a5,d84 <UART6_IRQHandler+0x30>
     dbe:	4432                	lw	s0,12(sp)
     dc0:	0141                	addi	sp,sp,16
     dc2:	30200073          	mret
     dc6:	46b5                	li	a3,13
     dc8:	00d51463          	bne	a0,a3,dd0 <UART6_IRQHandler+0x7c>
     dcc:	6691                	lui	a3,0x4
     dce:	b7d5                	j	db2 <UART6_IRQHandler+0x5e>
     dd0:	01279693          	slli	a3,a5,0x12
     dd4:	0126d613          	srli	a2,a3,0x12
     dd8:	0785                	addi	a5,a5,1
     dda:	a4418693          	addi	a3,gp,-1468 # 20000434 <UART6_RX_BUF>
     dde:	07c2                	slli	a5,a5,0x10
     de0:	96b2                	add	a3,a3,a2
     de2:	83c1                	srli	a5,a5,0x10
     de4:	a288                	sb	a0,0(a3)
     de6:	a31e                	sh	a5,0(a4)
     de8:	0c700693          	li	a3,199
     dec:	faf6efe3          	bltu	a3,a5,daa <UART6_IRQHandler+0x56>
     df0:	b7d9                	j	db6 <UART6_IRQHandler+0x62>
     df2:	04600693          	li	a3,70
     df6:	fad79ae3          	bne	a5,a3,daa <UART6_IRQHandler+0x56>
     dfa:	4685                	li	a3,1
     dfc:	82d19823          	sh	a3,-2000(gp) # 20000220 <Yellow_Flag>
     e00:	b76d                	j	daa <UART6_IRQHandler+0x56>

00000e02 <Init_UART5>:
     e02:	c2eff2ef          	jal	t0,230 <__riscv_save_0>
     e06:	1101                	addi	sp,sp,-32
     e08:	4585                	li	a1,1
     e0a:	00100537          	lui	a0,0x100
     e0e:	4b8020ef          	jal	ra,32c6 <RCC_APB1PeriphClockCmd>
     e12:	4585                	li	a1,1
     e14:	4541                	li	a0,16
     e16:	492020ef          	jal	ra,32a8 <RCC_APB2PeriphClockCmd>
     e1a:	4585                	li	a1,1
     e1c:	02000513          	li	a0,32
     e20:	488020ef          	jal	ra,32a8 <RCC_APB2PeriphClockCmd>
     e24:	6785                	lui	a5,0x1
     e26:	827c                	sh	a5,4(sp)
     e28:	47e1                	li	a5,24
     e2a:	c63e                	sw	a5,12(sp)
     e2c:	004c                	addi	a1,sp,4
     e2e:	478d                	li	a5,3
     e30:	40011537          	lui	a0,0x40011
     e34:	c43e                	sw	a5,8(sp)
     e36:	7c1010ef          	jal	ra,2df6 <GPIO_Init>
     e3a:	4791                	li	a5,4
     e3c:	40011537          	lui	a0,0x40011
     e40:	827c                	sh	a5,4(sp)
     e42:	004c                	addi	a1,sp,4
     e44:	4791                	li	a5,4
     e46:	40050513          	addi	a0,a0,1024 # 40011400 <_eusrstack+0x20009400>
     e4a:	c63e                	sw	a5,12(sp)
     e4c:	7ab010ef          	jal	ra,2df6 <GPIO_Init>
     e50:	67f1                	lui	a5,0x1c
     e52:	20078793          	addi	a5,a5,512 # 1c200 <_data_lma+0xfe3c>
     e56:	c83e                	sw	a5,16(sp)
     e58:	080c                	addi	a1,sp,16
     e5a:	000807b7          	lui	a5,0x80
     e5e:	40005537          	lui	a0,0x40005
     e62:	cc3e                	sw	a5,24(sp)
     e64:	ca02                	sw	zero,20(sp)
     e66:	00011e23          	sh	zero,28(sp)
     e6a:	7f6020ef          	jal	ra,3660 <USART_Init>
     e6e:	4585                	li	a1,1
     e70:	40005537          	lui	a0,0x40005
     e74:	0a9020ef          	jal	ra,371c <USART_Cmd>
     e78:	6105                	addi	sp,sp,32
     e7a:	bdaff06f          	j	254 <__riscv_restore_0>

00000e7e <UART5_DMA_Tx_Configuration>:
     e7e:	bb2ff2ef          	jal	t0,230 <__riscv_save_0>
     e82:	7179                	addi	sp,sp,-48
     e84:	4585                	li	a1,1
     e86:	4509                	li	a0,2
     e88:	402020ef          	jal	ra,328a <RCC_AHBPeriphClockCmd>
     e8c:	40020437          	lui	s0,0x40020
     e90:	44440513          	addi	a0,s0,1092 # 40020444 <_eusrstack+0x20018444>
     e94:	4b7010ef          	jal	ra,2b4a <DMA_DeInit>
     e98:	400057b7          	lui	a5,0x40005
     e9c:	0791                	addi	a5,a5,4
     e9e:	c23e                	sw	a5,4(sp)
     ea0:	b0c18793          	addi	a5,gp,-1268 # 200004fc <UART5_DMA_TX_Buffer>
     ea4:	c43e                	sw	a5,8(sp)
     ea6:	47c1                	li	a5,16
     ea8:	c63e                	sw	a5,12(sp)
     eaa:	03600793          	li	a5,54
     eae:	c83e                	sw	a5,16(sp)
     eb0:	08000793          	li	a5,128
     eb4:	004c                	addi	a1,sp,4
     eb6:	cc3e                	sw	a5,24(sp)
     eb8:	44440513          	addi	a0,s0,1092
     ebc:	6785                	lui	a5,0x1
     ebe:	d43e                	sw	a5,40(sp)
     ec0:	ca02                	sw	zero,20(sp)
     ec2:	ce02                	sw	zero,28(sp)
     ec4:	d002                	sw	zero,32(sp)
     ec6:	d202                	sw	zero,36(sp)
     ec8:	d602                	sw	zero,44(sp)
     eca:	5ed010ef          	jal	ra,2cb6 <DMA_Init>
     ece:	10001537          	lui	a0,0x10001
     ed2:	667010ef          	jal	ra,2d38 <DMA_ClearFlag>
     ed6:	44440513          	addi	a0,s0,1092
     eda:	4581                	li	a1,0
     edc:	613010ef          	jal	ra,2cee <DMA_Cmd>
     ee0:	4605                	li	a2,1
     ee2:	08000593          	li	a1,128
     ee6:	40005537          	lui	a0,0x40005
     eea:	07f020ef          	jal	ra,3768 <USART_DMACmd>
     eee:	6145                	addi	sp,sp,48
     ef0:	b64ff06f          	j	254 <__riscv_restore_0>

00000ef4 <DMA_send>:
     ef4:	b3cff2ef          	jal	t0,230 <__riscv_save_0>
     ef8:	06c00613          	li	a2,108
     efc:	b7818593          	addi	a1,gp,-1160 # 20000568 <data>
     f00:	b0c18513          	addi	a0,gp,-1268 # 200004fc <UART5_DMA_TX_Buffer>
     f04:	016050ef          	jal	ra,5f1a <memcpy>
     f08:	40020437          	lui	s0,0x40020
     f0c:	44440513          	addi	a0,s0,1092 # 40020444 <_eusrstack+0x20018444>
     f10:	03600593          	li	a1,54
     f14:	5ef010ef          	jal	ra,2d02 <DMA_SetCurrDataCounter>
     f18:	44440513          	addi	a0,s0,1092
     f1c:	4585                	li	a1,1
     f1e:	5d1010ef          	jal	ra,2cee <DMA_Cmd>
     f22:	4405                	li	s0,1
     f24:	10002537          	lui	a0,0x10002
     f28:	5df010ef          	jal	ra,2d06 <DMA_GetFlagStatus>
     f2c:	fe851ce3          	bne	a0,s0,f24 <DMA_send+0x30>
     f30:	40020537          	lui	a0,0x40020
     f34:	4581                	li	a1,0
     f36:	44450513          	addi	a0,a0,1092 # 40020444 <_eusrstack+0x20018444>
     f3a:	5b5010ef          	jal	ra,2cee <DMA_Cmd>
     f3e:	10002537          	lui	a0,0x10002
     f42:	5f7010ef          	jal	ra,2d38 <DMA_ClearFlag>
     f46:	b0eff06f          	j	254 <__riscv_restore_0>

00000f4a <data_switch>:
     f4a:	ae6ff2ef          	jal	t0,230 <__riscv_save_0>
     f4e:	8e01a503          	lw	a0,-1824(gp) # 200002d0 <temperature>
     f52:	06400493          	li	s1,100
     f56:	357040ef          	jal	ra,5aac <__fixunssfsi>
     f5a:	02950533          	mul	a0,a0,s1
     f5e:	b7818413          	addi	s0,gp,-1160 # 20000568 <data>
     f62:	a00a                	sh	a0,0(s0)
     f64:	8ac1a503          	lw	a0,-1876(gp) # 2000029c <humidity>
     f68:	345040ef          	jal	ra,5aac <__fixunssfsi>
     f6c:	02950533          	mul	a0,a0,s1
     f70:	a02a                	sh	a0,2(s0)
     f72:	8bc1a503          	lw	a0,-1860(gp) # 200002ac <length>
     f76:	337040ef          	jal	ra,5aac <__fixunssfsi>
     f7a:	02950533          	mul	a0,a0,s1
     f7e:	0000c7b7          	lui	a5,0xc
     f82:	d187a583          	lw	a1,-744(a5) # bd18 <_read+0x384>
     f86:	a04a                	sh	a0,4(s0)
     f88:	8a81a503          	lw	a0,-1880(gp) # 20000298 <alcohol>
     f8c:	4a2040ef          	jal	ra,542e <__mulsf3>
     f90:	31d040ef          	jal	ra,5aac <__fixunssfsi>
     f94:	a06a                	sh	a0,6(s0)
     f96:	8dc1a503          	lw	a0,-1828(gp) # 200002cc <speed>
     f9a:	313040ef          	jal	ra,5aac <__fixunssfsi>
     f9e:	02950533          	mul	a0,a0,s1
     fa2:	a40a                	sh	a0,8(s0)
     fa4:	8341a503          	lw	a0,-1996(gp) # 20000224 <Circle>
     fa8:	305040ef          	jal	ra,5aac <__fixunssfsi>
     fac:	02950533          	mul	a0,a0,s1
     fb0:	a42a                	sh	a0,10(s0)
     fb2:	8c01a503          	lw	a0,-1856(gp) # 200002b0 <mileage>
     fb6:	2f7040ef          	jal	ra,5aac <__fixunssfsi>
     fba:	02950533          	mul	a0,a0,s1
     fbe:	a44a                	sh	a0,12(s0)
     fc0:	8e41a503          	lw	a0,-1820(gp) # 200002d4 <total>
     fc4:	2e9040ef          	jal	ra,5aac <__fixunssfsi>
     fc8:	8261d783          	lhu	a5,-2010(gp) # 20000216 <Fatigue_Flag>
     fcc:	02950533          	mul	a0,a0,s1
     fd0:	a81e                	sh	a5,16(s0)
     fd2:	8241d783          	lhu	a5,-2012(gp) # 20000214 <Callphone_Flag>
     fd6:	a83e                	sh	a5,18(s0)
     fd8:	8281d783          	lhu	a5,-2008(gp) # 20000218 <Smoking_Flag>
     fdc:	a46a                	sh	a0,14(s0)
     fde:	4501                	li	a0,0
     fe0:	a85e                	sh	a5,20(s0)
     fe2:	81c1d783          	lhu	a5,-2020(gp) # 2000020c <Light_Mode>
     fe6:	a87e                	sh	a5,22(s0)
     fe8:	8201d783          	lhu	a5,-2016(gp) # 20000210 <Rainbow_Mode>
     fec:	ac1e                	sh	a5,24(s0)
     fee:	81e1d783          	lhu	a5,-2018(gp) # 2000020e <Print_Mode>
     ff2:	ac3e                	sh	a5,26(s0)
     ff4:	81a1d783          	lhu	a5,-2022(gp) # 2000020a <Flash_Mpde>
     ff8:	ac5e                	sh	a5,28(s0)
     ffa:	8181d783          	lhu	a5,-2024(gp) # 20000208 <_edata>
     ffe:	ac7e                	sh	a5,30(s0)
    1000:	84a1d783          	lhu	a5,-1974(gp) # 2000023a <ContDriveflag>
    1004:	b01e                	sh	a5,32(s0)
    1006:	88c1d783          	lhu	a5,-1908(gp) # 2000027c <Sharpslowdown>
    100a:	b03e                	sh	a5,34(s0)
    100c:	8841d783          	lhu	a5,-1916(gp) # 20000274 <Sharpacceleration>
    1010:	b05e                	sh	a5,36(s0)
    1012:	8681c783          	lbu	a5,-1944(gp) # 20000258 <Fatigues>
    1016:	b07e                	sh	a5,38(s0)
    1018:	85c1c783          	lbu	a5,-1956(gp) # 2000024c <Calls>
    101c:	b41e                	sh	a5,40(s0)
    101e:	89c1c783          	lbu	a5,-1892(gp) # 2000028c <Smokings>
    1022:	b43e                	sh	a5,42(s0)
    1024:	8561d783          	lhu	a5,-1962(gp) # 20000246 <Alarm_Flag>
    1028:	b45e                	sh	a5,44(s0)
    102a:	8321d783          	lhu	a5,-1998(gp) # 20000222 <Angle_Mode>
    102e:	b47e                	sh	a5,46(s0)
    1030:	82c1d783          	lhu	a5,-2004(gp) # 2000021c <Red_Flag>
    1034:	b81e                	sh	a5,48(s0)
    1036:	8301d783          	lhu	a5,-2000(gp) # 20000220 <Yellow_Flag>
    103a:	b83e                	sh	a5,50(s0)
    103c:	8941d783          	lhu	a5,-1900(gp) # 20000284 <Sharpturns>
    1040:	b85e                	sh	a5,52(s0)
    1042:	a12ff06f          	j	254 <__riscv_restore_0>

00001046 <uart4_Init>:
    1046:	9eaff2ef          	jal	t0,230 <__riscv_save_0>
    104a:	7179                	addi	sp,sp,-48
    104c:	842a                	mv	s0,a0
    104e:	4585                	li	a1,1
    1050:	4541                	li	a0,16
    1052:	256020ef          	jal	ra,32a8 <RCC_APB2PeriphClockCmd>
    1056:	4585                	li	a1,1
    1058:	00080537          	lui	a0,0x80
    105c:	26a020ef          	jal	ra,32c6 <RCC_APB1PeriphClockCmd>
    1060:	6785                	lui	a5,0x1
    1062:	80078793          	addi	a5,a5,-2048 # 800 <__stack_size>
    1066:	084c                	addi	a1,sp,20
    1068:	82fc                	sh	a5,20(sp)
    106a:	40011537          	lui	a0,0x40011
    106e:	4791                	li	a5,4
    1070:	ce3e                	sw	a5,28(sp)
    1072:	585010ef          	jal	ra,2df6 <GPIO_Init>
    1076:	24400793          	li	a5,580
    107a:	867c                	sh	a5,12(sp)
    107c:	4785                	li	a5,1
    107e:	875c                	sb	a5,14(sp)
    1080:	0068                	addi	a0,sp,12
    1082:	4785                	li	a5,1
    1084:	c83e                	sw	a5,16(sp)
    1086:	76d010ef          	jal	ra,2ff2 <NVIC_Init>
    108a:	d022                	sw	s0,32(sp)
    108c:	40005437          	lui	s0,0x40005
    1090:	000407b7          	lui	a5,0x40
    1094:	100c                	addi	a1,sp,32
    1096:	c0040513          	addi	a0,s0,-1024 # 40004c00 <_eusrstack+0x1fffcc00>
    109a:	d43e                	sw	a5,40(sp)
    109c:	d202                	sw	zero,36(sp)
    109e:	02011623          	sh	zero,44(sp)
    10a2:	5be020ef          	jal	ra,3660 <USART_Init>
    10a6:	4605                	li	a2,1
    10a8:	c0040513          	addi	a0,s0,-1024
    10ac:	52500593          	li	a1,1317
    10b0:	682020ef          	jal	ra,3732 <USART_ITConfig>
    10b4:	4585                	li	a1,1
    10b6:	c0040513          	addi	a0,s0,-1024
    10ba:	662020ef          	jal	ra,371c <USART_Cmd>
    10be:	6145                	addi	sp,sp,48
    10c0:	994ff06f          	j	254 <__riscv_restore_0>

000010c4 <UART4_IRQHandler>:
    10c4:	1141                	addi	sp,sp,-16
    10c6:	c622                	sw	s0,12(sp)
    10c8:	40005437          	lui	s0,0x40005
    10cc:	52500593          	li	a1,1317
    10d0:	c0040513          	addi	a0,s0,-1024 # 40004c00 <_eusrstack+0x1fffcc00>
    10d4:	6c0020ef          	jal	ra,3794 <USART_GetITStatus>
    10d8:	c50d                	beqz	a0,1102 <UART4_IRQHandler+0x3e>
    10da:	c0040513          	addi	a0,s0,-1024
    10de:	6a4020ef          	jal	ra,3782 <USART_ReceiveData>
    10e2:	0ff57413          	andi	s0,a0,255
    10e6:	0000c537          	lui	a0,0xc
    10ea:	85a2                	mv	a1,s0
    10ec:	d1c50513          	addi	a0,a0,-740 # bd1c <_read+0x388>
    10f0:	52b050ef          	jal	ra,6e1a <iprintf>
    10f4:	0aa00793          	li	a5,170
    10f8:	00f41563          	bne	s0,a5,1102 <UART4_IRQHandler+0x3e>
    10fc:	4705                	li	a4,1
    10fe:	82e19923          	sh	a4,-1998(gp) # 20000222 <Angle_Mode>
    1102:	4432                	lw	s0,12(sp)
    1104:	0141                	addi	sp,sp,16
    1106:	30200073          	mret

0000110a <MOTOR_Init>:
    110a:	926ff2ef          	jal	t0,230 <__riscv_save_0>
    110e:	1141                	addi	sp,sp,-16
    1110:	4585                	li	a1,1
    1112:	4521                	li	a0,8
    1114:	194020ef          	jal	ra,32a8 <RCC_APB2PeriphClockCmd>
    1118:	47c1                	li	a5,16
    111a:	40011437          	lui	s0,0x40011
    111e:	c63e                	sw	a5,12(sp)
    1120:	6799                	lui	a5,0x6
    1122:	827c                	sh	a5,4(sp)
    1124:	004c                	addi	a1,sp,4
    1126:	478d                	li	a5,3
    1128:	c0040513          	addi	a0,s0,-1024 # 40010c00 <_eusrstack+0x20008c00>
    112c:	c43e                	sw	a5,8(sp)
    112e:	4c9010ef          	jal	ra,2df6 <GPIO_Init>
    1132:	c0040513          	addi	a0,s0,-1024
    1136:	6589                	lui	a1,0x2
    1138:	58d010ef          	jal	ra,2ec4 <GPIO_ResetBits>
    113c:	6591                	lui	a1,0x4
    113e:	c0040513          	addi	a0,s0,-1024
    1142:	583010ef          	jal	ra,2ec4 <GPIO_ResetBits>
    1146:	0141                	addi	sp,sp,16
    1148:	90cff06f          	j	254 <__riscv_restore_0>

0000114c <TIM3_PWM_Init>:
    114c:	8e4ff2ef          	jal	t0,230 <__riscv_save_0>
    1150:	7179                	addi	sp,sp,-48
    1152:	84aa                	mv	s1,a0
    1154:	842e                	mv	s0,a1
    1156:	4509                	li	a0,2
    1158:	4585                	li	a1,1
    115a:	16c020ef          	jal	ra,32c6 <RCC_APB1PeriphClockCmd>
    115e:	4585                	li	a1,1
    1160:	4525                	li	a0,9
    1162:	146020ef          	jal	ra,32a8 <RCC_APB2PeriphClockCmd>
    1166:	001a1537          	lui	a0,0x1a1
    116a:	4585                	li	a1,1
    116c:	80050513          	addi	a0,a0,-2048 # 1a0800 <_data_lma+0x19443c>
    1170:	559010ef          	jal	ra,2ec8 <GPIO_PinRemapConfig>
    1174:	02000793          	li	a5,32
    1178:	82fc                	sh	a5,20(sp)
    117a:	40011537          	lui	a0,0x40011
    117e:	47e1                	li	a5,24
    1180:	ce3e                	sw	a5,28(sp)
    1182:	084c                	addi	a1,sp,20
    1184:	478d                	li	a5,3
    1186:	c0050513          	addi	a0,a0,-1024 # 40010c00 <_eusrstack+0x20008c00>
    118a:	cc3e                	sw	a5,24(sp)
    118c:	46b010ef          	jal	ra,2df6 <GPIO_Init>
    1190:	8460                	sh	s0,8(sp)
    1192:	40000437          	lui	s0,0x40000
    1196:	4785                	li	a5,1
    1198:	002c                	addi	a1,sp,8
    119a:	40040513          	addi	a0,s0,1024 # 40000400 <_eusrstack+0x1fff8400>
    119e:	8664                	sh	s1,12(sp)
    11a0:	877c                	sh	a5,14(sp)
    11a2:	00011523          	sh	zero,10(sp)
    11a6:	2f2020ef          	jal	ra,3498 <TIM_TimeBaseInit>
    11aa:	67c1                	lui	a5,0x10
    11ac:	07078793          	addi	a5,a5,112 # 10070 <_data_lma+0x3cac>
    11b0:	d03e                	sw	a5,32(sp)
    11b2:	100c                	addi	a1,sp,32
    11b4:	03200793          	li	a5,50
    11b8:	40040513          	addi	a0,s0,1024
    11bc:	02f11323          	sh	a5,38(sp)
    11c0:	02011423          	sh	zero,40(sp)
    11c4:	37e020ef          	jal	ra,3542 <TIM_OC2Init>
    11c8:	40040513          	addi	a0,s0,1024
    11cc:	45a1                	li	a1,8
    11ce:	44c020ef          	jal	ra,361a <TIM_OC2PreloadConfig>
    11d2:	4585                	li	a1,1
    11d4:	40040513          	addi	a0,s0,1024
    11d8:	418020ef          	jal	ra,35f0 <TIM_Cmd>
    11dc:	6145                	addi	sp,sp,48
    11de:	876ff06f          	j	254 <__riscv_restore_0>

000011e2 <TIM2_inIt>:
    11e2:	84eff2ef          	jal	t0,230 <__riscv_save_0>
    11e6:	1101                	addi	sp,sp,-32
    11e8:	4585                	li	a1,1
    11ea:	4505                	li	a0,1
    11ec:	0da020ef          	jal	ra,32c6 <RCC_APB1PeriphClockCmd>
    11f0:	12c00793          	li	a5,300
    11f4:	867c                	sh	a5,12(sp)
    11f6:	4785                	li	a5,1
    11f8:	875c                	sb	a5,14(sp)
    11fa:	0068                	addi	a0,sp,12
    11fc:	4785                	li	a5,1
    11fe:	c83e                	sw	a5,16(sp)
    1200:	5f3010ef          	jal	ra,2ff2 <NVIC_Init>
    1204:	05f00793          	li	a5,95
    1208:	ca3e                	sw	a5,20(sp)
    120a:	084c                	addi	a1,sp,20
    120c:	3e700793          	li	a5,999
    1210:	40000537          	lui	a0,0x40000
    1214:	cc3e                	sw	a5,24(sp)
    1216:	282020ef          	jal	ra,3498 <TIM_TimeBaseInit>
    121a:	4585                	li	a1,1
    121c:	40000537          	lui	a0,0x40000
    1220:	3d0020ef          	jal	ra,35f0 <TIM_Cmd>
    1224:	4605                	li	a2,1
    1226:	4585                	li	a1,1
    1228:	40000537          	lui	a0,0x40000
    122c:	3dc020ef          	jal	ra,3608 <TIM_ITConfig>
    1230:	6105                	addi	sp,sp,32
    1232:	822ff06f          	j	254 <__riscv_restore_0>

00001236 <GD_inIt>:
    1236:	ffbfe2ef          	jal	t0,230 <__riscv_save_0>
    123a:	1141                	addi	sp,sp,-16
    123c:	4585                	li	a1,1
    123e:	4521                	li	a0,8
    1240:	068020ef          	jal	ra,32a8 <RCC_APB2PeriphClockCmd>
    1244:	4585                	li	a1,1
    1246:	4505                	li	a0,1
    1248:	060020ef          	jal	ra,32a8 <RCC_APB2PeriphClockCmd>
    124c:	04800793          	li	a5,72
    1250:	c63e                	sw	a5,12(sp)
    1252:	40011537          	lui	a0,0x40011
    1256:	6785                	lui	a5,0x1
    1258:	827c                	sh	a5,4(sp)
    125a:	004c                	addi	a1,sp,4
    125c:	478d                	li	a5,3
    125e:	c0050513          	addi	a0,a0,-1024 # 40010c00 <_eusrstack+0x20008c00>
    1262:	c43e                	sw	a5,8(sp)
    1264:	393010ef          	jal	ra,2df6 <GPIO_Init>
    1268:	0141                	addi	sp,sp,16
    126a:	febfe06f          	j	254 <__riscv_restore_0>

0000126e <TIM2_IRQHandler>:
    126e:	1141                	addi	sp,sp,-16
    1270:	4585                	li	a1,1
    1272:	40000537          	lui	a0,0x40000
    1276:	c622                	sw	s0,12(sp)
    1278:	c426                	sw	s1,8(sp)
    127a:	c24a                	sw	s2,4(sp)
    127c:	3c0020ef          	jal	ra,363c <TIM_GetITStatus>
    1280:	c145                	beqz	a0,1320 <TIM2_IRQHandler+0xb2>
    1282:	4585                	li	a1,1
    1284:	40000537          	lui	a0,0x40000
    1288:	3cc020ef          	jal	ra,3654 <TIM_ClearITPendingBit>
    128c:	84418713          	addi	a4,gp,-1980 # 20000234 <times>
    1290:	431c                	lw	a5,0(a4)
    1292:	40011537          	lui	a0,0x40011
    1296:	6585                	lui	a1,0x1
    1298:	0785                	addi	a5,a5,1
    129a:	c0050513          	addi	a0,a0,-1024 # 40010c00 <_eusrstack+0x20008c00>
    129e:	c31c                	sw	a5,0(a4)
    12a0:	417010ef          	jal	ra,2eb6 <GPIO_ReadInputDataBit>
    12a4:	4785                	li	a5,1
    12a6:	84418413          	addi	s0,gp,-1980 # 20000234 <times>
    12aa:	00f51463          	bne	a0,a5,12b2 <TIM2_IRQHandler+0x44>
    12ae:	82a18e23          	sb	a0,-1988(gp) # 2000022c <flag>
    12b2:	40011537          	lui	a0,0x40011
    12b6:	6585                	lui	a1,0x1
    12b8:	c0050513          	addi	a0,a0,-1024 # 40010c00 <_eusrstack+0x20008c00>
    12bc:	3fb010ef          	jal	ra,2eb6 <GPIO_ReadInputDataBit>
    12c0:	e91d                	bnez	a0,12f6 <TIM2_IRQHandler+0x88>
    12c2:	83c18793          	addi	a5,gp,-1988 # 2000022c <flag>
    12c6:	2394                	lbu	a3,0(a5)
    12c8:	4705                	li	a4,1
    12ca:	02e69663          	bne	a3,a4,12f6 <TIM2_IRQHandler+0x88>
    12ce:	84018493          	addi	s1,gp,-1984 # 20000230 <num>
    12d2:	0000c937          	lui	s2,0xc
    12d6:	4088                	lw	a0,0(s1)
    12d8:	d2892583          	lw	a1,-728(s2) # bd28 <_read+0x394>
    12dc:	00078023          	sb	zero,0(a5) # 1000 <data_switch+0xb6>
    12e0:	1c5030ef          	jal	ra,4ca4 <__addsf3>
    12e4:	c088                	sw	a0,0(s1)
    12e6:	83818493          	addi	s1,gp,-1992 # 20000228 <CountSensor_Count>
    12ea:	4088                	lw	a0,0(s1)
    12ec:	d2892583          	lw	a1,-728(s2)
    12f0:	1b5030ef          	jal	ra,4ca4 <__addsf3>
    12f4:	c088                	sw	a0,0(s1)
    12f6:	4018                	lw	a4,0(s0)
    12f8:	3e800793          	li	a5,1000
    12fc:	02f71263          	bne	a4,a5,1320 <TIM2_IRQHandler+0xb2>
    1300:	0000c7b7          	lui	a5,0xc
    1304:	84018493          	addi	s1,gp,-1984 # 20000230 <num>
    1308:	d2c7a583          	lw	a1,-724(a5) # bd2c <_read+0x398>
    130c:	4088                	lw	a0,0(s1)
    130e:	501030ef          	jal	ra,500e <__divsf3>
    1312:	00000793          	li	a5,0
    1316:	82a1aa23          	sw	a0,-1996(gp) # 20000224 <Circle>
    131a:	00042023          	sw	zero,0(s0)
    131e:	c09c                	sw	a5,0(s1)
    1320:	4432                	lw	s0,12(sp)
    1322:	44a2                	lw	s1,8(sp)
    1324:	4912                	lw	s2,4(sp)
    1326:	0141                	addi	sp,sp,16
    1328:	30200073          	mret

0000132c <CountSensor_Get>:
    132c:	f05fe2ef          	jal	t0,230 <__riscv_save_0>
    1330:	0000c7b7          	lui	a5,0xc
    1334:	d2c7a583          	lw	a1,-724(a5) # bd2c <_read+0x398>
    1338:	8381a503          	lw	a0,-1992(gp) # 20000228 <CountSensor_Count>
    133c:	4d3030ef          	jal	ra,500e <__divsf3>
    1340:	76c040ef          	jal	ra,5aac <__fixunssfsi>
    1344:	0542                	slli	a0,a0,0x10
    1346:	8141                	srli	a0,a0,0x10
    1348:	f0dfe06f          	j	254 <__riscv_restore_0>

0000134c <NVIC_Configuration>:
    134c:	ee5fe2ef          	jal	t0,230 <__riscv_save_0>
    1350:	1141                	addi	sp,sp,-16
    1352:	4509                	li	a0,2
    1354:	499010ef          	jal	ra,2fec <NVIC_PriorityGroupConfig>
    1358:	47cd                	li	a5,19
    135a:	847c                	sh	a5,8(sp)
    135c:	0028                	addi	a0,sp,8
    135e:	4785                	li	a5,1
    1360:	c63e                	sw	a5,12(sp)
    1362:	00010523          	sb	zero,10(sp)
    1366:	48d010ef          	jal	ra,2ff2 <NVIC_Init>
    136a:	0141                	addi	sp,sp,16
    136c:	ee9fe06f          	j	254 <__riscv_restore_0>

00001370 <RCC_Configuration>:
    1370:	ec1fe2ef          	jal	t0,230 <__riscv_save_0>
    1374:	4585                	li	a1,1
    1376:	18000537          	lui	a0,0x18000
    137a:	74d010ef          	jal	ra,32c6 <RCC_APB1PeriphClockCmd>
    137e:	4505                	li	a0,1
    1380:	519010ef          	jal	ra,3098 <PWR_BackupAccessCmd>
    1384:	77a010ef          	jal	ra,2afe <BKP_DeInit>
    1388:	4505                	li	a0,1
    138a:	537010ef          	jal	ra,30c0 <RCC_LSEConfig>
    138e:	04100513          	li	a0,65
    1392:	791010ef          	jal	ra,3322 <RCC_GetFlagStatus>
    1396:	dd65                	beqz	a0,138e <RCC_Configuration+0x1e>
    1398:	10000513          	li	a0,256
    139c:	54d010ef          	jal	ra,30e8 <RCC_RTCCLKConfig>
    13a0:	4505                	li	a0,1
    13a2:	553010ef          	jal	ra,30f4 <RCC_RTCCLKCmd>
    13a6:	08e020ef          	jal	ra,3434 <RTC_WaitForSynchro>
    13aa:	07a020ef          	jal	ra,3424 <RTC_WaitForLastTask>
    13ae:	6521                	lui	a0,0x8
    13b0:	157d                	addi	a0,a0,-1
    13b2:	044020ef          	jal	ra,33f6 <RTC_SetPrescaler>
    13b6:	06e020ef          	jal	ra,3424 <RTC_WaitForLastTask>
    13ba:	4585                	li	a1,1
    13bc:	4505                	li	a0,1
    13be:	793010ef          	jal	ra,3350 <RTC_ITConfig>
    13c2:	062020ef          	jal	ra,3424 <RTC_WaitForLastTask>
    13c6:	e8ffe06f          	j	254 <__riscv_restore_0>

000013ca <Is_Leap_Year>:
    13ca:	00357793          	andi	a5,a0,3
    13ce:	ef99                	bnez	a5,13ec <Is_Leap_Year+0x22>
    13d0:	06400713          	li	a4,100
    13d4:	02e57733          	remu	a4,a0,a4
    13d8:	4785                	li	a5,1
    13da:	e719                	bnez	a4,13e8 <Is_Leap_Year+0x1e>
    13dc:	19000793          	li	a5,400
    13e0:	02f57533          	remu	a0,a0,a5
    13e4:	00153793          	seqz	a5,a0
    13e8:	853e                	mv	a0,a5
    13ea:	8082                	ret
    13ec:	4781                	li	a5,0
    13ee:	bfed                	j	13e8 <Is_Leap_Year+0x1e>

000013f0 <RTC_Get_Week>:
    13f0:	06400713          	li	a4,100
    13f4:	02e577b3          	remu	a5,a0,a4
    13f8:	02e55533          	divu	a0,a0,a4
    13fc:	474d                	li	a4,19
    13fe:	0ff57513          	andi	a0,a0,255
    1402:	00a77463          	bgeu	a4,a0,140a <RTC_Get_Week+0x1a>
    1406:	06478793          	addi	a5,a5,100
    140a:	0027d513          	srli	a0,a5,0x2
    140e:	953e                	add	a0,a0,a5
    1410:	471d                	li	a4,7
    1412:	02e57533          	remu	a0,a0,a4
    1416:	6731                	lui	a4,0xc
    1418:	d3c70713          	addi	a4,a4,-708 # bd3c <table_week>
    141c:	972e                	add	a4,a4,a1
    141e:	fff74703          	lbu	a4,-1(a4)
    1422:	8b8d                	andi	a5,a5,3
    1424:	963a                	add	a2,a2,a4
    1426:	962a                	add	a2,a2,a0
    1428:	e799                	bnez	a5,1436 <RTC_Get_Week+0x46>
    142a:	4789                	li	a5,2
    142c:	00b7e563          	bltu	a5,a1,1436 <RTC_Get_Week+0x46>
    1430:	167d                	addi	a2,a2,-1
    1432:	0642                	slli	a2,a2,0x10
    1434:	8241                	srli	a2,a2,0x10
    1436:	451d                	li	a0,7
    1438:	02a67533          	remu	a0,a2,a0
    143c:	8082                	ret

0000143e <RTC_Get>:
    143e:	dcbfe2ef          	jal	t0,208 <__riscv_save_10>
    1442:	6455                	lui	s0,0x15
    1444:	751010ef          	jal	ra,3394 <RTC_GetCounter>
    1448:	18040413          	addi	s0,s0,384 # 15180 <_data_lma+0x8dbc>
    144c:	02855433          	divu	s0,a0,s0
    1450:	84818793          	addi	a5,gp,-1976 # 20000238 <dayCount.5242>
    1454:	239a                	lhu	a4,0(a5)
    1456:	84aa                	mv	s1,a0
    1458:	04870563          	beq	a4,s0,14a2 <RTC_Get+0x64>
    145c:	a382                	sh	s0,0(a5)
    145e:	7b200993          	li	s3,1970
    1462:	16c00913          	li	s2,364
    1466:	16d00a13          	li	s4,365
    146a:	08896063          	bltu	s2,s0,14ea <RTC_Get+0xac>
    146e:	bb018793          	addi	a5,gp,-1104 # 200005a0 <calendar>
    1472:	6ab1                	lui	s5,0xc
    1474:	01379223          	sh	s3,4(a5)
    1478:	bb018913          	addi	s2,gp,-1104 # 200005a0 <calendar>
    147c:	4981                	li	s3,0
    147e:	4b6d                	li	s6,27
    1480:	d30a8a93          	addi	s5,s5,-720 # bd30 <mon_table>
    1484:	4b85                	li	s7,1
    1486:	4c71                	li	s8,28
    1488:	00198a13          	addi	s4,s3,1
    148c:	068b6f63          	bltu	s6,s0,150a <RTC_Get+0xcc>
    1490:	0ffa7a13          	andi	s4,s4,255
    1494:	0405                	addi	s0,s0,1
    1496:	01490323          	sb	s4,6(s2)
    149a:	0ff47413          	andi	s0,s0,255
    149e:	008903a3          	sb	s0,7(s2)
    14a2:	67d5                	lui	a5,0x15
    14a4:	18078793          	addi	a5,a5,384 # 15180 <_data_lma+0x8dbc>
    14a8:	02f4f4b3          	remu	s1,s1,a5
    14ac:	6785                	lui	a5,0x1
    14ae:	e1078793          	addi	a5,a5,-496 # e10 <Init_UART5+0xe>
    14b2:	bb018413          	addi	s0,gp,-1104 # 200005a0 <calendar>
    14b6:	02f4d733          	divu	a4,s1,a5
    14ba:	02f4f4b3          	remu	s1,s1,a5
    14be:	0ff77713          	andi	a4,a4,255
    14c2:	a018                	sb	a4,0(s0)
    14c4:	03c00713          	li	a4,60
    14c8:	02e4d7b3          	divu	a5,s1,a4
    14cc:	02e4f4b3          	remu	s1,s1,a4
    14d0:	0ff7f793          	andi	a5,a5,255
    14d4:	b01c                	sb	a5,1(s0)
    14d6:	a024                	sb	s1,2(s0)
    14d8:	204a                	lhu	a0,4(s0)
    14da:	206c                	lbu	a1,6(s0)
    14dc:	3070                	lbu	a2,7(s0)
    14de:	f13ff0ef          	jal	ra,13f0 <RTC_Get_Week>
    14e2:	a408                	sb	a0,8(s0)
    14e4:	4501                	li	a0,0
    14e6:	d5bfe06f          	j	240 <__riscv_restore_10>
    14ea:	854e                	mv	a0,s3
    14ec:	edfff0ef          	jal	ra,13ca <Is_Leap_Year>
    14f0:	c911                	beqz	a0,1504 <RTC_Get+0xc6>
    14f2:	f7440ee3          	beq	s0,s4,146e <RTC_Get+0x30>
    14f6:	e9240413          	addi	s0,s0,-366
    14fa:	0985                	addi	s3,s3,1
    14fc:	09c2                	slli	s3,s3,0x10
    14fe:	0109d993          	srli	s3,s3,0x10
    1502:	b7a5                	j	146a <RTC_Get+0x2c>
    1504:	e9340413          	addi	s0,s0,-365
    1508:	bfcd                	j	14fa <RTC_Get+0xbc>
    150a:	00495503          	lhu	a0,4(s2)
    150e:	ebdff0ef          	jal	ra,13ca <Is_Leap_Year>
    1512:	c919                	beqz	a0,1528 <RTC_Get+0xea>
    1514:	01799a63          	bne	s3,s7,1528 <RTC_Get+0xea>
    1518:	f7840ce3          	beq	s0,s8,1490 <RTC_Get+0x52>
    151c:	140d                	addi	s0,s0,-29
    151e:	010a1993          	slli	s3,s4,0x10
    1522:	0109d993          	srli	s3,s3,0x10
    1526:	b78d                	j	1488 <RTC_Get+0x4a>
    1528:	99d6                	add	s3,s3,s5
    152a:	0009c783          	lbu	a5,0(s3)
    152e:	f6f461e3          	bltu	s0,a5,1490 <RTC_Get+0x52>
    1532:	8c1d                	sub	s0,s0,a5
    1534:	b7ed                	j	151e <RTC_Get+0xe0>

00001536 <RTC_Set>:
    1536:	ccbfe2ef          	jal	t0,200 <__riscv_save_12>
    153a:	84e50813          	addi	a6,a0,-1970 # 784e <_strtod_l+0x930>
    153e:	0842                	slli	a6,a6,0x10
    1540:	8baa                	mv	s7,a0
    1542:	01085813          	srli	a6,a6,0x10
    1546:	08100513          	li	a0,129
    154a:	0b056c63          	bltu	a0,a6,1602 <RTC_Set+0xcc>
    154e:	01e13c37          	lui	s8,0x1e13
    1552:	01e28cb7          	lui	s9,0x1e28
    1556:	8b3e                	mv	s6,a5
    1558:	843a                	mv	s0,a4
    155a:	8ab6                	mv	s5,a3
    155c:	8932                	mv	s2,a2
    155e:	89ae                	mv	s3,a1
    1560:	4481                	li	s1,0
    1562:	7b200a13          	li	s4,1970
    1566:	380c0c13          	addi	s8,s8,896 # 1e13380 <_data_lma+0x1e06fbc>
    156a:	500c8c93          	addi	s9,s9,1280 # 1e28500 <_data_lma+0x1e1c13c>
    156e:	054b9f63          	bne	s7,s4,15cc <RTC_Set+0x96>
    1572:	19fd                	addi	s3,s3,-1
    1574:	6cb1                	lui	s9,0xc
    1576:	6c55                	lui	s8,0x15
    1578:	4a01                	li	s4,0
    157a:	0ff9f993          	andi	s3,s3,255
    157e:	d30c8c93          	addi	s9,s9,-720 # bd30 <mon_table>
    1582:	180c0c13          	addi	s8,s8,384 # 15180 <_data_lma+0x8dbc>
    1586:	4d85                	li	s11,1
    1588:	010a1d13          	slli	s10,s4,0x10
    158c:	010d5d13          	srli	s10,s10,0x10
    1590:	053d6a63          	bltu	s10,s3,15e4 <RTC_Set+0xae>
    1594:	03c00513          	li	a0,60
    1598:	6685                	lui	a3,0x1
    159a:	e1068693          	addi	a3,a3,-496 # e10 <Init_UART5+0xe>
    159e:	02a40533          	mul	a0,s0,a0
    15a2:	6655                	lui	a2,0x15
    15a4:	18060613          	addi	a2,a2,384 # 15180 <_data_lma+0x8dbc>
    15a8:	197d                	addi	s2,s2,-1
    15aa:	02da8ab3          	mul	s5,s5,a3
    15ae:	955a                	add	a0,a0,s6
    15b0:	02c90933          	mul	s2,s2,a2
    15b4:	9556                	add	a0,a0,s5
    15b6:	954a                	add	a0,a0,s2
    15b8:	9526                	add	a0,a0,s1
    15ba:	611010ef          	jal	ra,33ca <RTC_SetCounter>
    15be:	667010ef          	jal	ra,3424 <RTC_WaitForLastTask>
    15c2:	e7dff0ef          	jal	ra,143e <RTC_Get>
    15c6:	4501                	li	a0,0
    15c8:	c75fe06f          	j	23c <__riscv_restore_12>
    15cc:	8552                	mv	a0,s4
    15ce:	dfdff0ef          	jal	ra,13ca <Is_Leap_Year>
    15d2:	c519                	beqz	a0,15e0 <RTC_Set+0xaa>
    15d4:	94e6                	add	s1,s1,s9
    15d6:	0a05                	addi	s4,s4,1
    15d8:	0a42                	slli	s4,s4,0x10
    15da:	010a5a13          	srli	s4,s4,0x10
    15de:	bf41                	j	156e <RTC_Set+0x38>
    15e0:	94e2                	add	s1,s1,s8
    15e2:	bfd5                	j	15d6 <RTC_Set+0xa0>
    15e4:	014c87b3          	add	a5,s9,s4
    15e8:	239c                	lbu	a5,0(a5)
    15ea:	855e                	mv	a0,s7
    15ec:	038787b3          	mul	a5,a5,s8
    15f0:	94be                	add	s1,s1,a5
    15f2:	dd9ff0ef          	jal	ra,13ca <Is_Leap_Year>
    15f6:	c501                	beqz	a0,15fe <RTC_Set+0xc8>
    15f8:	01bd1363          	bne	s10,s11,15fe <RTC_Set+0xc8>
    15fc:	94e2                	add	s1,s1,s8
    15fe:	0a05                	addi	s4,s4,1
    1600:	b761                	j	1588 <RTC_Set+0x52>
    1602:	4505                	li	a0,1
    1604:	b7d1                	j	15c8 <RTC_Set+0x92>

00001606 <RTC_Init>:
    1606:	c2bfe2ef          	jal	t0,230 <__riscv_save_0>
    160a:	4511                	li	a0,4
    160c:	6429                	lui	s0,0xa
    160e:	520010ef          	jal	ra,2b2e <BKP_ReadBackupRegister>
    1612:	1a340413          	addi	s0,s0,419 # a1a3 <_svfiprintf_r+0x173>
    1616:	02850763          	beq	a0,s0,1644 <RTC_Init+0x3e>
    161a:	d57ff0ef          	jal	ra,1370 <RCC_Configuration>
    161e:	459d                	li	a1,7
    1620:	47f9                	li	a5,30
    1622:	4741                	li	a4,16
    1624:	46b5                	li	a3,13
    1626:	4679                	li	a2,30
    1628:	7e700513          	li	a0,2023
    162c:	f0bff0ef          	jal	ra,1536 <RTC_Set>
    1630:	85a2                	mv	a1,s0
    1632:	4511                	li	a0,4
    1634:	4de010ef          	jal	ra,2b12 <BKP_WriteBackupRegister>
    1638:	d15ff0ef          	jal	ra,134c <NVIC_Configuration>
    163c:	e03ff0ef          	jal	ra,143e <RTC_Get>
    1640:	c15fe06f          	j	254 <__riscv_restore_0>
    1644:	5f1010ef          	jal	ra,3434 <RTC_WaitForSynchro>
    1648:	4585                	li	a1,1
    164a:	4505                	li	a0,1
    164c:	505010ef          	jal	ra,3350 <RTC_ITConfig>
    1650:	5d5010ef          	jal	ra,3424 <RTC_WaitForLastTask>
    1654:	b7d5                	j	1638 <RTC_Init+0x32>

00001656 <RTC_IRQHandler>:
    1656:	4505                	li	a0,1
    1658:	615010ef          	jal	ra,346c <RTC_GetITStatus>
    165c:	c119                	beqz	a0,1662 <RTC_IRQHandler+0xc>
    165e:	de1ff0ef          	jal	ra,143e <RTC_Get>
    1662:	4509                	li	a0,2
    1664:	609010ef          	jal	ra,346c <RTC_GetITStatus>
    1668:	c501                	beqz	a0,1670 <RTC_IRQHandler+0x1a>
    166a:	4509                	li	a0,2
    166c:	621010ef          	jal	ra,348c <RTC_ClearITPendingBit>
    1670:	4515                	li	a0,5
    1672:	61b010ef          	jal	ra,348c <RTC_ClearITPendingBit>
    1676:	5af010ef          	jal	ra,3424 <RTC_WaitForLastTask>
    167a:	30200073          	mret

0000167e <KEY_Init>:
    167e:	bb3fe2ef          	jal	t0,230 <__riscv_save_0>
    1682:	7179                	addi	sp,sp,-48
    1684:	4585                	li	a1,1
    1686:	4541                	li	a0,16
    1688:	421010ef          	jal	ra,32a8 <RCC_APB2PeriphClockCmd>
    168c:	4585                	li	a1,1
    168e:	4505                	li	a0,1
    1690:	419010ef          	jal	ra,32a8 <RCC_APB2PeriphClockCmd>
    1694:	03f00793          	li	a5,63
    1698:	82fc                	sh	a5,20(sp)
    169a:	084c                	addi	a1,sp,20
    169c:	02800793          	li	a5,40
    16a0:	40011537          	lui	a0,0x40011
    16a4:	ce3e                	sw	a5,28(sp)
    16a6:	750010ef          	jal	ra,2df6 <GPIO_Init>
    16aa:	4585                	li	a1,1
    16ac:	4509                	li	a0,2
    16ae:	0df010ef          	jal	ra,2f8c <GPIO_EXTILineConfig>
    16b2:	4589                	li	a1,2
    16b4:	4509                	li	a0,2
    16b6:	0d7010ef          	jal	ra,2f8c <GPIO_EXTILineConfig>
    16ba:	458d                	li	a1,3
    16bc:	4509                	li	a0,2
    16be:	0cf010ef          	jal	ra,2f8c <GPIO_EXTILineConfig>
    16c2:	4591                	li	a1,4
    16c4:	4509                	li	a0,2
    16c6:	0c7010ef          	jal	ra,2f8c <GPIO_EXTILineConfig>
    16ca:	4595                	li	a1,5
    16cc:	4509                	li	a0,2
    16ce:	0bf010ef          	jal	ra,2f8c <GPIO_EXTILineConfig>
    16d2:	4581                	li	a1,0
    16d4:	4509                	li	a0,2
    16d6:	0b7010ef          	jal	ra,2f8c <GPIO_EXTILineConfig>
    16da:	03f00793          	li	a5,63
    16de:	4405                	li	s0,1
    16e0:	d03e                	sw	a5,32(sp)
    16e2:	1008                	addi	a0,sp,32
    16e4:	47a1                	li	a5,8
    16e6:	d43e                	sw	a5,40(sp)
    16e8:	d622                	sw	s0,44(sp)
    16ea:	d202                	sw	zero,36(sp)
    16ec:	678010ef          	jal	ra,2d64 <EXTI_Init>
    16f0:	31600793          	li	a5,790
    16f4:	0068                	addi	a0,sp,12
    16f6:	867c                	sh	a5,12(sp)
    16f8:	c822                	sw	s0,16(sp)
    16fa:	00010723          	sb	zero,14(sp)
    16fe:	0f5010ef          	jal	ra,2ff2 <NVIC_Init>
    1702:	31700793          	li	a5,791
    1706:	0068                	addi	a0,sp,12
    1708:	867c                	sh	a5,12(sp)
    170a:	8740                	sb	s0,14(sp)
    170c:	c822                	sw	s0,16(sp)
    170e:	0e5010ef          	jal	ra,2ff2 <NVIC_Init>
    1712:	31800793          	li	a5,792
    1716:	867c                	sh	a5,12(sp)
    1718:	0068                	addi	a0,sp,12
    171a:	4789                	li	a5,2
    171c:	875c                	sb	a5,14(sp)
    171e:	c822                	sw	s0,16(sp)
    1720:	0d3010ef          	jal	ra,2ff2 <NVIC_Init>
    1724:	31900793          	li	a5,793
    1728:	867c                	sh	a5,12(sp)
    172a:	0068                	addi	a0,sp,12
    172c:	478d                	li	a5,3
    172e:	875c                	sb	a5,14(sp)
    1730:	c822                	sw	s0,16(sp)
    1732:	0c1010ef          	jal	ra,2ff2 <NVIC_Init>
    1736:	31a00793          	li	a5,794
    173a:	867c                	sh	a5,12(sp)
    173c:	0068                	addi	a0,sp,12
    173e:	4791                	li	a5,4
    1740:	875c                	sb	a5,14(sp)
    1742:	c822                	sw	s0,16(sp)
    1744:	0af010ef          	jal	ra,2ff2 <NVIC_Init>
    1748:	32700793          	li	a5,807
    174c:	867c                	sh	a5,12(sp)
    174e:	0068                	addi	a0,sp,12
    1750:	4795                	li	a5,5
    1752:	875c                	sb	a5,14(sp)
    1754:	c822                	sw	s0,16(sp)
    1756:	09d010ef          	jal	ra,2ff2 <NVIC_Init>
    175a:	6145                	addi	sp,sp,48
    175c:	af9fe06f          	j	254 <__riscv_restore_0>

00001760 <EXTI0_IRQHandler>:
    1760:	4505                	li	a0,1
    1762:	66c010ef          	jal	ra,2dce <EXTI_GetITStatus>
    1766:	c911                	beqz	a0,177a <EXTI0_IRQHandler+0x1a>
    1768:	453d                	li	a0,15
    176a:	0c6020ef          	jal	ra,3830 <Delay_Ms>
    176e:	4705                	li	a4,1
    1770:	4505                	li	a0,1
    1772:	84e19523          	sh	a4,-1974(gp) # 2000023a <ContDriveflag>
    1776:	676010ef          	jal	ra,2dec <EXTI_ClearITPendingBit>
    177a:	30200073          	mret

0000177e <EXTI1_IRQHandler>:
    177e:	4509                	li	a0,2
    1780:	64e010ef          	jal	ra,2dce <EXTI_GetITStatus>
    1784:	cd19                	beqz	a0,17a2 <EXTI1_IRQHandler+0x24>
    1786:	453d                	li	a0,15
    1788:	0a8020ef          	jal	ra,3830 <Delay_Ms>
    178c:	200007b7          	lui	a5,0x20000
    1790:	1f078793          	addi	a5,a5,496 # 200001f0 <pwm>
    1794:	4398                	lw	a4,0(a5)
    1796:	4509                	li	a0,2
    1798:	06470713          	addi	a4,a4,100
    179c:	c398                	sw	a4,0(a5)
    179e:	64e010ef          	jal	ra,2dec <EXTI_ClearITPendingBit>
    17a2:	30200073          	mret

000017a6 <EXTI2_IRQHandler>:
    17a6:	4511                	li	a0,4
    17a8:	626010ef          	jal	ra,2dce <EXTI_GetITStatus>
    17ac:	cd19                	beqz	a0,17ca <EXTI2_IRQHandler+0x24>
    17ae:	453d                	li	a0,15
    17b0:	080020ef          	jal	ra,3830 <Delay_Ms>
    17b4:	200007b7          	lui	a5,0x20000
    17b8:	1f078793          	addi	a5,a5,496 # 200001f0 <pwm>
    17bc:	4398                	lw	a4,0(a5)
    17be:	4511                	li	a0,4
    17c0:	f9c70713          	addi	a4,a4,-100
    17c4:	c398                	sw	a4,0(a5)
    17c6:	626010ef          	jal	ra,2dec <EXTI_ClearITPendingBit>
    17ca:	30200073          	mret

000017ce <EXTI3_IRQHandler>:
    17ce:	4521                	li	a0,8
    17d0:	5fe010ef          	jal	ra,2dce <EXTI_GetITStatus>
    17d4:	c10d                	beqz	a0,17f6 <EXTI3_IRQHandler+0x28>
    17d6:	453d                	li	a0,15
    17d8:	058020ef          	jal	ra,3830 <Delay_Ms>
    17dc:	4705                	li	a4,1
    17de:	84e18723          	sb	a4,-1970(gp) # 2000023e <Stop>
    17e2:	85018793          	addi	a5,gp,-1968 # 20000240 <star_flag>
    17e6:	2394                	lbu	a3,0(a5)
    17e8:	ea89                	bnez	a3,17fa <EXTI3_IRQHandler+0x2c>
    17ea:	84e187a3          	sb	a4,-1969(gp) # 2000023f <star>
    17ee:	a398                	sb	a4,0(a5)
    17f0:	4521                	li	a0,8
    17f2:	5fa010ef          	jal	ra,2dec <EXTI_ClearITPendingBit>
    17f6:	30200073          	mret
    17fa:	4705                	li	a4,1
    17fc:	fee69ae3          	bne	a3,a4,17f0 <EXTI3_IRQHandler+0x22>
    1800:	840187a3          	sb	zero,-1969(gp) # 2000023f <star>
    1804:	00078023          	sb	zero,0(a5)
    1808:	b7e5                	j	17f0 <EXTI3_IRQHandler+0x22>

0000180a <EXTI4_IRQHandler>:
    180a:	4541                	li	a0,16
    180c:	5c2010ef          	jal	ra,2dce <EXTI_GetITStatus>
    1810:	c115                	beqz	a0,1834 <EXTI4_IRQHandler+0x2a>
    1812:	453d                	li	a0,15
    1814:	01c020ef          	jal	ra,3830 <Delay_Ms>
    1818:	200007b7          	lui	a5,0x20000
    181c:	1f078793          	addi	a5,a5,496 # 200001f0 <pwm>
    1820:	4398                	lw	a4,0(a5)
    1822:	4541                	li	a0,16
    1824:	f0670713          	addi	a4,a4,-250
    1828:	c398                	sw	a4,0(a5)
    182a:	4705                	li	a4,1
    182c:	84e18623          	sb	a4,-1972(gp) # 2000023c <Sharpadd_flag>
    1830:	5bc010ef          	jal	ra,2dec <EXTI_ClearITPendingBit>
    1834:	30200073          	mret

00001838 <EXTI9_5_IRQHandler>:
    1838:	02000513          	li	a0,32
    183c:	592010ef          	jal	ra,2dce <EXTI_GetITStatus>
    1840:	c11d                	beqz	a0,1866 <EXTI9_5_IRQHandler+0x2e>
    1842:	453d                	li	a0,15
    1844:	7ed010ef          	jal	ra,3830 <Delay_Ms>
    1848:	200007b7          	lui	a5,0x20000
    184c:	1f078793          	addi	a5,a5,496 # 200001f0 <pwm>
    1850:	4398                	lw	a4,0(a5)
    1852:	02000513          	li	a0,32
    1856:	0fa70713          	addi	a4,a4,250
    185a:	c398                	sw	a4,0(a5)
    185c:	4705                	li	a4,1
    185e:	84e186a3          	sb	a4,-1971(gp) # 2000023d <Sharpslowdown_flag>
    1862:	58a010ef          	jal	ra,2dec <EXTI_ClearITPendingBit>
    1866:	30200073          	mret

0000186a <IWDG_Feed_Init>:
    186a:	9c7fe2ef          	jal	t0,230 <__riscv_save_0>
    186e:	842a                	mv	s0,a0
    1870:	6515                	lui	a0,0x5
    1872:	1141                	addi	sp,sp,-16
    1874:	55550513          	addi	a0,a0,1365 # 5555 <__mulsf3+0x127>
    1878:	c62e                	sw	a1,12(sp)
    187a:	73e010ef          	jal	ra,2fb8 <IWDG_WriteAccessCmd>
    187e:	0ff47513          	andi	a0,s0,255
    1882:	73e010ef          	jal	ra,2fc0 <IWDG_SetPrescaler>
    1886:	45b2                	lw	a1,12(sp)
    1888:	852e                	mv	a0,a1
    188a:	73e010ef          	jal	ra,2fc8 <IWDG_SetReload>
    188e:	742010ef          	jal	ra,2fd0 <IWDG_ReloadCounter>
    1892:	74c010ef          	jal	ra,2fde <IWDG_Enable>
    1896:	0141                	addi	sp,sp,16
    1898:	9bdfe06f          	j	254 <__riscv_restore_0>

0000189c <Hcsr04_Init>:
    189c:	995fe2ef          	jal	t0,230 <__riscv_save_0>
    18a0:	1101                	addi	sp,sp,-32
    18a2:	4585                	li	a1,1
    18a4:	02000513          	li	a0,32
    18a8:	201010ef          	jal	ra,32a8 <RCC_APB2PeriphClockCmd>
    18ac:	40011437          	lui	s0,0x40011
    18b0:	47c1                	li	a5,16
    18b2:	82fc                	sh	a5,20(sp)
    18b4:	448d                	li	s1,3
    18b6:	47c1                	li	a5,16
    18b8:	084c                	addi	a1,sp,20
    18ba:	40040513          	addi	a0,s0,1024 # 40011400 <_eusrstack+0x20009400>
    18be:	ce3e                	sw	a5,28(sp)
    18c0:	cc26                	sw	s1,24(sp)
    18c2:	534010ef          	jal	ra,2df6 <GPIO_Init>
    18c6:	40040513          	addi	a0,s0,1024
    18ca:	45c1                	li	a1,16
    18cc:	5f8010ef          	jal	ra,2ec4 <GPIO_ResetBits>
    18d0:	47a1                	li	a5,8
    18d2:	82fc                	sh	a5,20(sp)
    18d4:	084c                	addi	a1,sp,20
    18d6:	4791                	li	a5,4
    18d8:	40040513          	addi	a0,s0,1024
    18dc:	ce3e                	sw	a5,28(sp)
    18de:	518010ef          	jal	ra,2df6 <GPIO_Init>
    18e2:	40040513          	addi	a0,s0,1024
    18e6:	45a1                	li	a1,8
    18e8:	5dc010ef          	jal	ra,2ec4 <GPIO_ResetBits>
    18ec:	4585                	li	a1,1
    18ee:	4511                	li	a0,4
    18f0:	1d7010ef          	jal	ra,32c6 <RCC_APB1PeriphClockCmd>
    18f4:	200007b7          	lui	a5,0x20000
    18f8:	1f47a783          	lw	a5,500(a5) # 200001f4 <SystemCoreClock>
    18fc:	000f4737          	lui	a4,0xf4
    1900:	24070713          	addi	a4,a4,576 # f4240 <_data_lma+0xe7e7c>
    1904:	02e7d7b3          	divu	a5,a5,a4
    1908:	40001437          	lui	s0,0x40001
    190c:	002c                	addi	a1,sp,8
    190e:	80040513          	addi	a0,s0,-2048 # 40000800 <_eusrstack+0x1fff8800>
    1912:	00011523          	sh	zero,10(sp)
    1916:	17fd                	addi	a5,a5,-1
    1918:	847c                	sh	a5,8(sp)
    191a:	3e700793          	li	a5,999
    191e:	c63e                	sw	a5,12(sp)
    1920:	379010ef          	jal	ra,3498 <TIM_TimeBaseInit>
    1924:	4605                	li	a2,1
    1926:	4585                	li	a1,1
    1928:	80040513          	addi	a0,s0,-2048
    192c:	4dd010ef          	jal	ra,3608 <TIM_ITConfig>
    1930:	02e00793          	li	a5,46
    1934:	807c                	sh	a5,0(sp)
    1936:	850a                	mv	a0,sp
    1938:	4785                	li	a5,1
    193a:	c23e                	sw	a5,4(sp)
    193c:	8144                	sb	s1,2(sp)
    193e:	6b4010ef          	jal	ra,2ff2 <NVIC_Init>
    1942:	4581                	li	a1,0
    1944:	80040513          	addi	a0,s0,-2048
    1948:	4a9010ef          	jal	ra,35f0 <TIM_Cmd>
    194c:	6105                	addi	sp,sp,32
    194e:	907fe06f          	j	254 <__riscv_restore_0>

00001952 <OpenTimer>:
    1952:	8dffe2ef          	jal	t0,230 <__riscv_save_0>
    1956:	40001437          	lui	s0,0x40001
    195a:	80040513          	addi	a0,s0,-2048 # 40000800 <_eusrstack+0x1fff8800>
    195e:	4581                	li	a1,0
    1960:	4d1010ef          	jal	ra,3630 <TIM_SetCounter>
    1964:	4585                	li	a1,1
    1966:	80040513          	addi	a0,s0,-2048
    196a:	84019923          	sh	zero,-1966(gp) # 20000242 <msHcCount>
    196e:	483010ef          	jal	ra,35f0 <TIM_Cmd>
    1972:	8e3fe06f          	j	254 <__riscv_restore_0>

00001976 <CloseTimer>:
    1976:	8bbfe2ef          	jal	t0,230 <__riscv_save_0>
    197a:	40001537          	lui	a0,0x40001
    197e:	4581                	li	a1,0
    1980:	80050513          	addi	a0,a0,-2048 # 40000800 <_eusrstack+0x1fff8800>
    1984:	46d010ef          	jal	ra,35f0 <TIM_Cmd>
    1988:	8cdfe06f          	j	254 <__riscv_restore_0>

0000198c <TIM4_IRQHandler>:
    198c:	1141                	addi	sp,sp,-16
    198e:	c622                	sw	s0,12(sp)
    1990:	40001437          	lui	s0,0x40001
    1994:	4585                	li	a1,1
    1996:	80040513          	addi	a0,s0,-2048 # 40000800 <_eusrstack+0x1fff8800>
    199a:	4a3010ef          	jal	ra,363c <TIM_GetITStatus>
    199e:	c919                	beqz	a0,19b4 <TIM4_IRQHandler+0x28>
    19a0:	4585                	li	a1,1
    19a2:	80040513          	addi	a0,s0,-2048
    19a6:	4af010ef          	jal	ra,3654 <TIM_ClearITPendingBit>
    19aa:	85218793          	addi	a5,gp,-1966 # 20000242 <msHcCount>
    19ae:	239a                	lhu	a4,0(a5)
    19b0:	0705                	addi	a4,a4,1
    19b2:	a39a                	sh	a4,0(a5)
    19b4:	4432                	lw	s0,12(sp)
    19b6:	0141                	addi	sp,sp,16
    19b8:	30200073          	mret

000019bc <GetEchoTimer>:
    19bc:	875fe2ef          	jal	t0,230 <__riscv_save_0>
    19c0:	8521d403          	lhu	s0,-1966(gp) # 20000242 <msHcCount>
    19c4:	3e800793          	li	a5,1000
    19c8:	400014b7          	lui	s1,0x40001
    19cc:	02f40433          	mul	s0,s0,a5
    19d0:	80048513          	addi	a0,s1,-2048 # 40000800 <_eusrstack+0x1fff8800>
    19d4:	465010ef          	jal	ra,3638 <TIM_GetCounter>
    19d8:	82049223          	sh	zero,-2012(s1)
    19dc:	80048493          	addi	s1,s1,-2048
    19e0:	942a                	add	s0,s0,a0
    19e2:	03200513          	li	a0,50
    19e6:	64b010ef          	jal	ra,3830 <Delay_Ms>
    19ea:	8522                	mv	a0,s0
    19ec:	869fe06f          	j	254 <__riscv_restore_0>

000019f0 <Hcsr04GetLength>:
    19f0:	827fe2ef          	jal	t0,216 <__riscv_save_4>
    19f4:	0000c7b7          	lui	a5,0xc
    19f8:	d487a983          	lw	s3,-696(a5) # bd48 <table_week+0xc>
    19fc:	40011437          	lui	s0,0x40011
    1a00:	4495                	li	s1,5
    1a02:	00000913          	li	s2,0
    1a06:	40040413          	addi	s0,s0,1024 # 40011400 <_eusrstack+0x20009400>
    1a0a:	4a05                	li	s4,1
    1a0c:	45c1                	li	a1,16
    1a0e:	8522                	mv	a0,s0
    1a10:	4b0010ef          	jal	ra,2ec0 <GPIO_SetBits>
    1a14:	4551                	li	a0,20
    1a16:	5e5010ef          	jal	ra,37fa <Delay_Us>
    1a1a:	45c1                	li	a1,16
    1a1c:	8522                	mv	a0,s0
    1a1e:	4a6010ef          	jal	ra,2ec4 <GPIO_ResetBits>
    1a22:	45a1                	li	a1,8
    1a24:	8522                	mv	a0,s0
    1a26:	490010ef          	jal	ra,2eb6 <GPIO_ReadInputDataBit>
    1a2a:	dd65                	beqz	a0,1a22 <Hcsr04GetLength+0x32>
    1a2c:	f27ff0ef          	jal	ra,1952 <OpenTimer>
    1a30:	45a1                	li	a1,8
    1a32:	8522                	mv	a0,s0
    1a34:	482010ef          	jal	ra,2eb6 <GPIO_ReadInputDataBit>
    1a38:	ff450ce3          	beq	a0,s4,1a30 <Hcsr04GetLength+0x40>
    1a3c:	f3bff0ef          	jal	ra,1976 <CloseTimer>
    1a40:	f7dff0ef          	jal	ra,19bc <GetEchoTimer>
    1a44:	184040ef          	jal	ra,5bc8 <__floatunsisf>
    1a48:	85ce                	mv	a1,s3
    1a4a:	5c4030ef          	jal	ra,500e <__divsf3>
    1a4e:	85aa                	mv	a1,a0
    1a50:	854a                	mv	a0,s2
    1a52:	252030ef          	jal	ra,4ca4 <__addsf3>
    1a56:	14fd                	addi	s1,s1,-1
    1a58:	892a                	mv	s2,a0
    1a5a:	f8cd                	bnez	s1,1a0c <Hcsr04GetLength+0x1c>
    1a5c:	0000c7b7          	lui	a5,0xc
    1a60:	d4c7a583          	lw	a1,-692(a5) # bd4c <table_week+0x10>
    1a64:	5aa030ef          	jal	ra,500e <__divsf3>
    1a68:	fe2fe06f          	j	24a <__riscv_restore_4>

00001a6c <DHT11_Rst>:
    1a6c:	fc4fe2ef          	jal	t0,230 <__riscv_save_0>
    1a70:	40011437          	lui	s0,0x40011
    1a74:	80442783          	lw	a5,-2044(s0) # 40010804 <_eusrstack+0x20008804>
    1a78:	7745                	lui	a4,0xffff1
    1a7a:	177d                	addi	a4,a4,-1
    1a7c:	8ff9                	and	a5,a5,a4
    1a7e:	80f42223          	sw	a5,-2044(s0)
    1a82:	80442783          	lw	a5,-2044(s0)
    1a86:	670d                	lui	a4,0x3
    1a88:	80040413          	addi	s0,s0,-2048
    1a8c:	8fd9                	or	a5,a5,a4
    1a8e:	c05c                	sw	a5,4(s0)
    1a90:	6485                	lui	s1,0x1
    1a92:	80048593          	addi	a1,s1,-2048 # 800 <__stack_size>
    1a96:	8522                	mv	a0,s0
    1a98:	42c010ef          	jal	ra,2ec4 <GPIO_ResetBits>
    1a9c:	4551                	li	a0,20
    1a9e:	593010ef          	jal	ra,3830 <Delay_Ms>
    1aa2:	80048593          	addi	a1,s1,-2048
    1aa6:	8522                	mv	a0,s0
    1aa8:	418010ef          	jal	ra,2ec0 <GPIO_SetBits>
    1aac:	4579                	li	a0,30
    1aae:	54d010ef          	jal	ra,37fa <Delay_Us>
    1ab2:	fa2fe06f          	j	254 <__riscv_restore_0>

00001ab6 <DHT11_Check>:
    1ab6:	f60fe2ef          	jal	t0,216 <__riscv_save_4>
    1aba:	40011537          	lui	a0,0x40011
    1abe:	80452783          	lw	a5,-2044(a0) # 40010804 <_eusrstack+0x20008804>
    1ac2:	7745                	lui	a4,0xffff1
    1ac4:	177d                	addi	a4,a4,-1
    1ac6:	8ff9                	and	a5,a5,a4
    1ac8:	80f52223          	sw	a5,-2044(a0)
    1acc:	80452783          	lw	a5,-2044(a0)
    1ad0:	6721                	lui	a4,0x8
    1ad2:	80050513          	addi	a0,a0,-2048
    1ad6:	8fd9                	or	a5,a5,a4
    1ad8:	c15c                	sw	a5,4(a0)
    1ada:	6905                	lui	s2,0x1
    1adc:	4481                	li	s1,0
    1ade:	80090913          	addi	s2,s2,-2048 # 800 <__stack_size>
    1ae2:	842a                	mv	s0,a0
    1ae4:	06400993          	li	s3,100
    1ae8:	85ca                	mv	a1,s2
    1aea:	8522                	mv	a0,s0
    1aec:	3ca010ef          	jal	ra,2eb6 <GPIO_ReadInputDataBit>
    1af0:	cd09                	beqz	a0,1b0a <DHT11_Check+0x54>
    1af2:	01349563          	bne	s1,s3,1afc <DHT11_Check+0x46>
    1af6:	4505                	li	a0,1
    1af8:	f52fe06f          	j	24a <__riscv_restore_4>
    1afc:	0485                	addi	s1,s1,1
    1afe:	4505                	li	a0,1
    1b00:	0ff4f493          	andi	s1,s1,255
    1b04:	4f7010ef          	jal	ra,37fa <Delay_Us>
    1b08:	b7c5                	j	1ae8 <DHT11_Check+0x32>
    1b0a:	06400793          	li	a5,100
    1b0e:	fef484e3          	beq	s1,a5,1af6 <DHT11_Check+0x40>
    1b12:	6485                	lui	s1,0x1
    1b14:	40011937          	lui	s2,0x40011
    1b18:	4401                	li	s0,0
    1b1a:	80048493          	addi	s1,s1,-2048 # 800 <__stack_size>
    1b1e:	80090913          	addi	s2,s2,-2048 # 40010800 <_eusrstack+0x20008800>
    1b22:	06400993          	li	s3,100
    1b26:	85a6                	mv	a1,s1
    1b28:	854a                	mv	a0,s2
    1b2a:	38c010ef          	jal	ra,2eb6 <GPIO_ReadInputDataBit>
    1b2e:	e911                	bnez	a0,1b42 <DHT11_Check+0x8c>
    1b30:	fd3403e3          	beq	s0,s3,1af6 <DHT11_Check+0x40>
    1b34:	0405                	addi	s0,s0,1
    1b36:	4505                	li	a0,1
    1b38:	0ff47413          	andi	s0,s0,255
    1b3c:	4bf010ef          	jal	ra,37fa <Delay_Us>
    1b40:	b7dd                	j	1b26 <DHT11_Check+0x70>
    1b42:	f9c40513          	addi	a0,s0,-100
    1b46:	00153513          	seqz	a0,a0
    1b4a:	b77d                	j	1af8 <DHT11_Check+0x42>

00001b4c <DHT11_Read_Bit>:
    1b4c:	ee4fe2ef          	jal	t0,230 <__riscv_save_0>
    1b50:	6485                	lui	s1,0x1
    1b52:	40011937          	lui	s2,0x40011
    1b56:	06500413          	li	s0,101
    1b5a:	80048493          	addi	s1,s1,-2048 # 800 <__stack_size>
    1b5e:	80090913          	addi	s2,s2,-2048 # 40010800 <_eusrstack+0x20008800>
    1b62:	85a6                	mv	a1,s1
    1b64:	854a                	mv	a0,s2
    1b66:	350010ef          	jal	ra,2eb6 <GPIO_ReadInputDataBit>
    1b6a:	c509                	beqz	a0,1b74 <DHT11_Read_Bit+0x28>
    1b6c:	147d                	addi	s0,s0,-1
    1b6e:	0ff47413          	andi	s0,s0,255
    1b72:	e819                	bnez	s0,1b88 <DHT11_Read_Bit+0x3c>
    1b74:	6485                	lui	s1,0x1
    1b76:	40011937          	lui	s2,0x40011
    1b7a:	06500413          	li	s0,101
    1b7e:	80048493          	addi	s1,s1,-2048 # 800 <__stack_size>
    1b82:	80090913          	addi	s2,s2,-2048 # 40010800 <_eusrstack+0x20008800>
    1b86:	a801                	j	1b96 <DHT11_Read_Bit+0x4a>
    1b88:	4505                	li	a0,1
    1b8a:	471010ef          	jal	ra,37fa <Delay_Us>
    1b8e:	bfd1                	j	1b62 <DHT11_Read_Bit+0x16>
    1b90:	4505                	li	a0,1
    1b92:	469010ef          	jal	ra,37fa <Delay_Us>
    1b96:	85a6                	mv	a1,s1
    1b98:	854a                	mv	a0,s2
    1b9a:	31c010ef          	jal	ra,2eb6 <GPIO_ReadInputDataBit>
    1b9e:	e509                	bnez	a0,1ba8 <DHT11_Read_Bit+0x5c>
    1ba0:	147d                	addi	s0,s0,-1
    1ba2:	0ff47413          	andi	s0,s0,255
    1ba6:	f46d                	bnez	s0,1b90 <DHT11_Read_Bit+0x44>
    1ba8:	02800513          	li	a0,40
    1bac:	44f010ef          	jal	ra,37fa <Delay_Us>
    1bb0:	6585                	lui	a1,0x1
    1bb2:	40011537          	lui	a0,0x40011
    1bb6:	80058593          	addi	a1,a1,-2048 # 800 <__stack_size>
    1bba:	80050513          	addi	a0,a0,-2048 # 40010800 <_eusrstack+0x20008800>
    1bbe:	2f8010ef          	jal	ra,2eb6 <GPIO_ReadInputDataBit>
    1bc2:	00a03533          	snez	a0,a0
    1bc6:	e8efe06f          	j	254 <__riscv_restore_0>

00001bca <DHT11_Read_Byte>:
    1bca:	e66fe2ef          	jal	t0,230 <__riscv_save_0>
    1bce:	44a1                	li	s1,8
    1bd0:	4501                	li	a0,0
    1bd2:	0506                	slli	a0,a0,0x1
    1bd4:	0ff57413          	andi	s0,a0,255
    1bd8:	14fd                	addi	s1,s1,-1
    1bda:	f73ff0ef          	jal	ra,1b4c <DHT11_Read_Bit>
    1bde:	8d41                	or	a0,a0,s0
    1be0:	0ff4f493          	andi	s1,s1,255
    1be4:	0ff57513          	andi	a0,a0,255
    1be8:	f4ed                	bnez	s1,1bd2 <DHT11_Read_Byte+0x8>
    1bea:	e6afe06f          	j	254 <__riscv_restore_0>

00001bee <DHT11_Read_Data>:
    1bee:	e28fe2ef          	jal	t0,216 <__riscv_save_4>
    1bf2:	1141                	addi	sp,sp,-16
    1bf4:	892a                	mv	s2,a0
    1bf6:	89ae                	mv	s3,a1
    1bf8:	e75ff0ef          	jal	ra,1a6c <DHT11_Rst>
    1bfc:	ebbff0ef          	jal	ra,1ab6 <DHT11_Check>
    1c00:	4485                	li	s1,1
    1c02:	e915                	bnez	a0,1c36 <DHT11_Read_Data+0x48>
    1c04:	84aa                	mv	s1,a0
    1c06:	4401                	li	s0,0
    1c08:	4a15                	li	s4,5
    1c0a:	fc1ff0ef          	jal	ra,1bca <DHT11_Read_Byte>
    1c0e:	003c                	addi	a5,sp,8
    1c10:	97a2                	add	a5,a5,s0
    1c12:	a388                	sb	a0,0(a5)
    1c14:	0405                	addi	s0,s0,1
    1c16:	ff441ae3          	bne	s0,s4,1c0a <DHT11_Read_Data+0x1c>
    1c1a:	8414                	lbu	a3,8(sp)
    1c1c:	849c                	lbu	a5,9(sp)
    1c1e:	8518                	lbu	a4,10(sp)
    1c20:	8590                	lbu	a2,11(sp)
    1c22:	97b6                	add	a5,a5,a3
    1c24:	97ba                	add	a5,a5,a4
    1c26:	97b2                	add	a5,a5,a2
    1c28:	8610                	lbu	a2,12(sp)
    1c2a:	00c79663          	bne	a5,a2,1c36 <DHT11_Read_Data+0x48>
    1c2e:	00d98023          	sb	a3,0(s3)
    1c32:	00e90023          	sb	a4,0(s2)
    1c36:	8526                	mv	a0,s1
    1c38:	0141                	addi	sp,sp,16
    1c3a:	e10fe06f          	j	24a <__riscv_restore_4>

00001c3e <DHT11_Init>:
    1c3e:	df2fe2ef          	jal	t0,230 <__riscv_save_0>
    1c42:	1141                	addi	sp,sp,-16
    1c44:	4585                	li	a1,1
    1c46:	4511                	li	a0,4
    1c48:	660010ef          	jal	ra,32a8 <RCC_APB2PeriphClockCmd>
    1c4c:	6785                	lui	a5,0x1
    1c4e:	80078793          	addi	a5,a5,-2048 # 800 <__stack_size>
    1c52:	40011437          	lui	s0,0x40011
    1c56:	827c                	sh	a5,4(sp)
    1c58:	47c1                	li	a5,16
    1c5a:	c63e                	sw	a5,12(sp)
    1c5c:	004c                	addi	a1,sp,4
    1c5e:	478d                	li	a5,3
    1c60:	80040513          	addi	a0,s0,-2048 # 40010800 <_eusrstack+0x20008800>
    1c64:	c43e                	sw	a5,8(sp)
    1c66:	190010ef          	jal	ra,2df6 <GPIO_Init>
    1c6a:	6585                	lui	a1,0x1
    1c6c:	80058593          	addi	a1,a1,-2048 # 800 <__stack_size>
    1c70:	80040513          	addi	a0,s0,-2048
    1c74:	24c010ef          	jal	ra,2ec0 <GPIO_SetBits>
    1c78:	df5ff0ef          	jal	ra,1a6c <DHT11_Rst>
    1c7c:	e3bff0ef          	jal	ra,1ab6 <DHT11_Check>
    1c80:	0141                	addi	sp,sp,16
    1c82:	dd2fe06f          	j	254 <__riscv_restore_0>

00001c86 <Adc_Init>:
    1c86:	daafe2ef          	jal	t0,230 <__riscv_save_0>
    1c8a:	7179                	addi	sp,sp,-48
    1c8c:	02000613          	li	a2,32
    1c90:	4581                	li	a1,0
    1c92:	0808                	addi	a0,sp,16
    1c94:	dccfe0ef          	jal	ra,260 <memset>
    1c98:	4585                	li	a1,1
    1c9a:	4511                	li	a0,4
    1c9c:	c202                	sw	zero,4(sp)
    1c9e:	c402                	sw	zero,8(sp)
    1ca0:	c602                	sw	zero,12(sp)
    1ca2:	606010ef          	jal	ra,32a8 <RCC_APB2PeriphClockCmd>
    1ca6:	4585                	li	a1,1
    1ca8:	20000513          	li	a0,512
    1cac:	5fc010ef          	jal	ra,32a8 <RCC_APB2PeriphClockCmd>
    1cb0:	6531                	lui	a0,0xc
    1cb2:	3fc010ef          	jal	ra,30ae <RCC_ADCCLKConfig>
    1cb6:	40011537          	lui	a0,0x40011
    1cba:	4789                	li	a5,2
    1cbc:	004c                	addi	a1,sp,4
    1cbe:	80050513          	addi	a0,a0,-2048 # 40010800 <_eusrstack+0x20008800>
    1cc2:	40012437          	lui	s0,0x40012
    1cc6:	827c                	sh	a5,4(sp)
    1cc8:	c602                	sw	zero,12(sp)
    1cca:	12c010ef          	jal	ra,2df6 <GPIO_Init>
    1cce:	40040513          	addi	a0,s0,1024 # 40012400 <_eusrstack+0x2000a400>
    1cd2:	32f000ef          	jal	ra,2800 <ADC_DeInit>
    1cd6:	4785                	li	a5,1
    1cd8:	000e0737          	lui	a4,0xe0
    1cdc:	080c                	addi	a1,sp,16
    1cde:	40040513          	addi	a0,s0,1024
    1ce2:	cc3e                	sw	a5,24(sp)
    1ce4:	ce3a                	sw	a4,28(sp)
    1ce6:	02f10223          	sb	a5,36(sp)
    1cea:	c802                	sw	zero,16(sp)
    1cec:	ca02                	sw	zero,20(sp)
    1cee:	d002                	sw	zero,32(sp)
    1cf0:	357000ef          	jal	ra,2846 <ADC_Init>
    1cf4:	4585                	li	a1,1
    1cf6:	40040513          	addi	a0,s0,1024
    1cfa:	3a3000ef          	jal	ra,289c <ADC_Cmd>
    1cfe:	4581                	li	a1,0
    1d00:	40040513          	addi	a0,s0,1024
    1d04:	4af000ef          	jal	ra,29b2 <ADC_BufferCmd>
    1d08:	40040513          	addi	a0,s0,1024
    1d0c:	3a1000ef          	jal	ra,28ac <ADC_ResetCalibration>
    1d10:	40040493          	addi	s1,s0,1024
    1d14:	8526                	mv	a0,s1
    1d16:	3a1000ef          	jal	ra,28b6 <ADC_GetResetCalibrationStatus>
    1d1a:	fd6d                	bnez	a0,1d14 <Adc_Init+0x8e>
    1d1c:	40040513          	addi	a0,s0,1024
    1d20:	40012437          	lui	s0,0x40012
    1d24:	39b000ef          	jal	ra,28be <ADC_StartCalibration>
    1d28:	40040493          	addi	s1,s0,1024 # 40012400 <_eusrstack+0x2000a400>
    1d2c:	8526                	mv	a0,s1
    1d2e:	39b000ef          	jal	ra,28c8 <ADC_GetCalibrationStatus>
    1d32:	fd6d                	bnez	a0,1d2c <Adc_Init+0xa6>
    1d34:	40040513          	addi	a0,s0,1024
    1d38:	493000ef          	jal	ra,29ca <Get_CalibrationValue>
    1d3c:	84a19a23          	sh	a0,-1964(gp) # 20000244 <Calibrattion_Val>
    1d40:	6145                	addi	sp,sp,48
    1d42:	d12fe06f          	j	254 <__riscv_restore_0>

00001d46 <Get_Adc>:
    1d46:	ceafe2ef          	jal	t0,230 <__riscv_save_0>
    1d4a:	40012437          	lui	s0,0x40012
    1d4e:	85aa                	mv	a1,a0
    1d50:	469d                	li	a3,7
    1d52:	4605                	li	a2,1
    1d54:	40040513          	addi	a0,s0,1024 # 40012400 <_eusrstack+0x2000a400>
    1d58:	391000ef          	jal	ra,28e8 <ADC_RegularChannelConfig>
    1d5c:	4585                	li	a1,1
    1d5e:	40040513          	addi	a0,s0,1024
    1d62:	36f000ef          	jal	ra,28d0 <ADC_SoftwareStartConvCmd>
    1d66:	40040493          	addi	s1,s0,1024
    1d6a:	4589                	li	a1,2
    1d6c:	8526                	mv	a0,s1
    1d6e:	43b000ef          	jal	ra,29a8 <ADC_GetFlagStatus>
    1d72:	dd65                	beqz	a0,1d6a <Get_Adc+0x24>
    1d74:	40040513          	addi	a0,s0,1024
    1d78:	429000ef          	jal	ra,29a0 <ADC_GetConversionValue>
    1d7c:	cd8fe06f          	j	254 <__riscv_restore_0>

00001d80 <Get_Adc_Average>:
    1d80:	cb0fe2ef          	jal	t0,230 <__riscv_save_0>
    1d84:	1141                	addi	sp,sp,-16
    1d86:	892a                	mv	s2,a0
    1d88:	4401                	li	s0,0
    1d8a:	4481                	li	s1,0
    1d8c:	00b41963          	bne	s0,a1,1d9e <Get_Adc_Average+0x1e>
    1d90:	0284d533          	divu	a0,s1,s0
    1d94:	0141                	addi	sp,sp,16
    1d96:	0542                	slli	a0,a0,0x10
    1d98:	8141                	srli	a0,a0,0x10
    1d9a:	cbafe06f          	j	254 <__riscv_restore_0>
    1d9e:	854a                	mv	a0,s2
    1da0:	c62e                	sw	a1,12(sp)
    1da2:	fa5ff0ef          	jal	ra,1d46 <Get_Adc>
    1da6:	94aa                	add	s1,s1,a0
    1da8:	4515                	li	a0,5
    1daa:	287010ef          	jal	ra,3830 <Delay_Ms>
    1dae:	0405                	addi	s0,s0,1
    1db0:	0ff47413          	andi	s0,s0,255
    1db4:	45b2                	lw	a1,12(sp)
    1db6:	bfd9                	j	1d8c <Get_Adc_Average+0xc>

00001db8 <NMI_Handler>:
    1db8:	30200073          	mret

00001dbc <HardFault_Handler>:
    1dbc:	a001                	j	1dbc <HardFault_Handler>

00001dbe <main>:
    1dbe:	c42fe2ef          	jal	t0,200 <__riscv_save_12>
    1dc2:	715d                	addi	sp,sp,-80
    1dc4:	4509                	li	a0,2
    1dc6:	226010ef          	jal	ra,2fec <NVIC_PriorityGroupConfig>
    1dca:	6471                	lui	s0,0x1c
    1dcc:	033000ef          	jal	ra,25fe <SystemCoreClockUpdate>
    1dd0:	201010ef          	jal	ra,37d0 <Delay_Init>
    1dd4:	20040513          	addi	a0,s0,512 # 1c200 <_data_lma+0xfe3c>
    1dd8:	28f010ef          	jal	ra,3866 <USART_Printf_Init>
    1ddc:	eabff0ef          	jal	ra,1c86 <Adc_Init>
    1de0:	abdff0ef          	jal	ra,189c <Hcsr04_Init>
    1de4:	e5bff0ef          	jal	ra,1c3e <DHT11_Init>
    1de8:	20040513          	addi	a0,s0,512
    1dec:	ed7fe0ef          	jal	ra,cc2 <Init_uart6>
    1df0:	20040513          	addi	a0,s0,512
    1df4:	a52ff0ef          	jal	ra,1046 <uart4_Init>
    1df8:	d10fe0ef          	jal	ra,308 <uart3_init>
    1dfc:	20040513          	addi	a0,s0,512
    1e00:	ed2fe0ef          	jal	ra,4d2 <usart2_start>
    1e04:	6405                	lui	s0,0x1
    1e06:	801ff0ef          	jal	ra,1606 <RTC_Init>
    1e0a:	b00ff0ef          	jal	ra,110a <MOTOR_Init>
    1e0e:	4581                	li	a1,0
    1e10:	bb740513          	addi	a0,s0,-1097 # bb7 <Driver_show+0x13d>
    1e14:	b38ff0ef          	jal	ra,114c <TIM3_PWM_Init>
    1e18:	bcaff0ef          	jal	ra,11e2 <TIM2_inIt>
    1e1c:	c1aff0ef          	jal	ra,1236 <GD_inIt>
    1e20:	85fff0ef          	jal	ra,167e <KEY_Init>
    1e24:	fa040593          	addi	a1,s0,-96
    1e28:	450d                	li	a0,3
    1e2a:	a41ff0ef          	jal	ra,186a <IWDG_Feed_Init>
    1e2e:	fd5fe0ef          	jal	ra,e02 <Init_UART5>
    1e32:	84cff0ef          	jal	ra,e7e <UART5_DMA_Tx_Configuration>
    1e36:	0000c7b7          	lui	a5,0xc
    1e3a:	d847a803          	lw	a6,-636(a5) # bd84 <table_week+0x48>
    1e3e:	d807a783          	lw	a5,-640(a5)
    1e42:	d242                	sw	a6,36(sp)
    1e44:	d03e                	sw	a5,32(sp)
    1e46:	0000c7b7          	lui	a5,0xc
    1e4a:	d8c7a803          	lw	a6,-628(a5) # bd8c <table_week+0x50>
    1e4e:	d887a783          	lw	a5,-632(a5)
    1e52:	d642                	sw	a6,44(sp)
    1e54:	d43e                	sw	a5,40(sp)
    1e56:	0000c7b7          	lui	a5,0xc
    1e5a:	d947a803          	lw	a6,-620(a5) # bd94 <table_week+0x58>
    1e5e:	d907a783          	lw	a5,-624(a5)
    1e62:	da42                	sw	a6,52(sp)
    1e64:	d83e                	sw	a5,48(sp)
    1e66:	0000c7b7          	lui	a5,0xc
    1e6a:	d9c7a803          	lw	a6,-612(a5) # bd9c <table_week+0x60>
    1e6e:	d987a783          	lw	a5,-616(a5)
    1e72:	de42                	sw	a6,60(sp)
    1e74:	dc3e                	sw	a5,56(sp)
    1e76:	0000c7b7          	lui	a5,0xc
    1e7a:	da47a803          	lw	a6,-604(a5) # bda4 <table_week+0x68>
    1e7e:	da07a783          	lw	a5,-608(a5)
    1e82:	c2c2                	sw	a6,68(sp)
    1e84:	c0be                	sw	a5,64(sp)
    1e86:	0000c7b7          	lui	a5,0xc
    1e8a:	db47a803          	lw	a6,-588(a5) # bdb4 <table_week+0x78>
    1e8e:	db07a783          	lw	a5,-592(a5)
    1e92:	ca42                	sw	a6,20(sp)
    1e94:	c83e                	sw	a5,16(sp)
    1e96:	8d818413          	addi	s0,gp,-1832 # 200002c8 <shidu>
    1e9a:	8e818493          	addi	s1,gp,-1816 # 200002d8 <wendu>
    1e9e:	8d818593          	addi	a1,gp,-1832 # 200002c8 <shidu>
    1ea2:	8e818513          	addi	a0,gp,-1816 # 200002d8 <wendu>
    1ea6:	d49ff0ef          	jal	ra,1bee <DHT11_Read_Data>
    1eaa:	3088                	lbu	a0,1(s1)
    1eac:	0000cab7          	lui	s5,0xc
    1eb0:	583020ef          	jal	ra,4c32 <__floatsidf>
    1eb4:	d78aa603          	lw	a2,-648(s5) # bd78 <table_week+0x3c>
    1eb8:	d7caa683          	lw	a3,-644(s5)
    1ebc:	8e018993          	addi	s3,gp,-1824 # 200002d0 <temperature>
    1ec0:	17c020ef          	jal	ra,403c <__muldf3>
    1ec4:	67f030ef          	jal	ra,5d42 <__truncdfsf2>
    1ec8:	8a2a                	mv	s4,a0
    1eca:	2088                	lbu	a0,0(s1)
    1ecc:	437030ef          	jal	ra,5b02 <__floatsisf>
    1ed0:	85aa                	mv	a1,a0
    1ed2:	8552                	mv	a0,s4
    1ed4:	5d1020ef          	jal	ra,4ca4 <__addsf3>
    1ed8:	00a9a023          	sw	a0,0(s3)
    1edc:	3008                	lbu	a0,1(s0)
    1ede:	8ac18493          	addi	s1,gp,-1876 # 2000029c <humidity>
    1ee2:	551020ef          	jal	ra,4c32 <__floatsidf>
    1ee6:	d78aa603          	lw	a2,-648(s5)
    1eea:	d7caa683          	lw	a3,-644(s5)
    1eee:	8ac18a13          	addi	s4,gp,-1876 # 2000029c <humidity>
    1ef2:	14a020ef          	jal	ra,403c <__muldf3>
    1ef6:	64d030ef          	jal	ra,5d42 <__truncdfsf2>
    1efa:	89aa                	mv	s3,a0
    1efc:	2008                	lbu	a0,0(s0)
    1efe:	405030ef          	jal	ra,5b02 <__floatsisf>
    1f02:	85aa                	mv	a1,a0
    1f04:	854e                	mv	a0,s3
    1f06:	59f020ef          	jal	ra,4ca4 <__addsf3>
    1f0a:	c088                	sw	a0,0(s1)
    1f0c:	45a9                	li	a1,10
    1f0e:	4505                	li	a0,1
    1f10:	e71ff0ef          	jal	ra,1d80 <Get_Adc_Average>
    1f14:	4b5030ef          	jal	ra,5bc8 <__floatunsisf>
    1f18:	8aa1a223          	sw	a0,-1884(gp) # 20000294 <adcx>
    1f1c:	0000c7b7          	lui	a5,0xc
    1f20:	d4c7a583          	lw	a1,-692(a5) # bd4c <table_week+0x10>
    1f24:	8a818493          	addi	s1,gp,-1880 # 20000298 <alcohol>
    1f28:	8bc18993          	addi	s3,gp,-1860 # 200002ac <length>
    1f2c:	502030ef          	jal	ra,542e <__mulsf3>
    1f30:	0000c7b7          	lui	a5,0xc
    1f34:	d507a583          	lw	a1,-688(a5) # bd50 <table_week+0x14>
    1f38:	8a818413          	addi	s0,gp,-1880 # 20000298 <alcohol>
    1f3c:	8bc18d13          	addi	s10,gp,-1860 # 200002ac <length>
    1f40:	4ee030ef          	jal	ra,542e <__mulsf3>
    1f44:	553030ef          	jal	ra,5c96 <__extendsfdf2>
    1f48:	5602                	lw	a2,32(sp)
    1f4a:	5692                	lw	a3,36(sp)
    1f4c:	0f0020ef          	jal	ra,403c <__muldf3>
    1f50:	5622                	lw	a2,40(sp)
    1f52:	56b2                	lw	a3,44(sp)
    1f54:	5a0020ef          	jal	ra,44f4 <__subdf3>
    1f58:	5eb030ef          	jal	ra,5d42 <__truncdfsf2>
    1f5c:	c088                	sw	a0,0(s1)
    1f5e:	a93ff0ef          	jal	ra,19f0 <Hcsr04GetLength>
    1f62:	00a9a023          	sw	a0,0(s3)
    1f66:	bc6ff0ef          	jal	ra,132c <CountSensor_Get>
    1f6a:	45f030ef          	jal	ra,5bc8 <__floatunsisf>
    1f6e:	8aa1ac23          	sw	a0,-1864(gp) # 200002a8 <laps>
    1f72:	525030ef          	jal	ra,5c96 <__extendsfdf2>
    1f76:	5642                	lw	a2,48(sp)
    1f78:	56d2                	lw	a3,52(sp)
    1f7a:	0c2020ef          	jal	ra,403c <__muldf3>
    1f7e:	5662                	lw	a2,56(sp)
    1f80:	56f2                	lw	a3,60(sp)
    1f82:	1a3010ef          	jal	ra,3924 <__divdf3>
    1f86:	5bd030ef          	jal	ra,5d42 <__truncdfsf2>
    1f8a:	8ca1a023          	sw	a0,-1856(gp) # 200002b0 <mileage>
    1f8e:	8341a483          	lw	s1,-1996(gp) # 20000224 <Circle>
    1f92:	85a6                	mv	a1,s1
    1f94:	8526                	mv	a0,s1
    1f96:	50f020ef          	jal	ra,4ca4 <__addsf3>
    1f9a:	4fd030ef          	jal	ra,5c96 <__extendsfdf2>
    1f9e:	4606                	lw	a2,64(sp)
    1fa0:	4696                	lw	a3,68(sp)
    1fa2:	09a020ef          	jal	ra,403c <__muldf3>
    1fa6:	0000c7b7          	lui	a5,0xc
    1faa:	da87a603          	lw	a2,-600(a5) # bda8 <table_week+0x6c>
    1fae:	dac7a683          	lw	a3,-596(a5)
    1fb2:	08a020ef          	jal	ra,403c <__muldf3>
    1fb6:	58d030ef          	jal	ra,5d42 <__truncdfsf2>
    1fba:	8ca1ae23          	sw	a0,-1828(gp) # 200002cc <speed>
    1fbe:	85aa                	mv	a1,a0
    1fc0:	8aaa                	mv	s5,a0
    1fc2:	0009a503          	lw	a0,0(s3)
    1fc6:	8dc18d93          	addi	s11,gp,-1828 # 200002cc <speed>
    1fca:	044030ef          	jal	ra,500e <__divsf3>
    1fce:	8221c683          	lbu	a3,-2014(gp) # 20000212 <alarm_state>
    1fd2:	8e018613          	addi	a2,gp,-1824 # 200002d0 <temperature>
    1fd6:	cc32                	sw	a2,24(sp)
    1fd8:	8ca1aa23          	sw	a0,-1836(gp) # 200002c4 <rate>
    1fdc:	4705                	li	a4,1
    1fde:	bb018613          	addi	a2,gp,-1104 # 200005a0 <calendar>
    1fe2:	85818913          	addi	s2,gp,-1960 # 20000248 <Alarm_Sec>
    1fe6:	00e69763          	bne	a3,a4,1ff4 <main+0x236>
    1fea:	2238                	lbu	a4,2(a2)
    1fec:	82018123          	sb	zero,-2014(gp) # 20000212 <alarm_state>
    1ff0:	00e90023          	sb	a4,0(s2)
    1ff4:	223c                	lbu	a5,2(a2)
    1ff6:	00094703          	lbu	a4,0(s2)
    1ffa:	0785                	addi	a5,a5,1
    1ffc:	85618993          	addi	s3,gp,-1962 # 20000246 <Alarm_Flag>
    2000:	00e79563          	bne	a5,a4,200a <main+0x24c>
    2004:	4785                	li	a5,1
    2006:	00f99023          	sh	a5,0(s3)
    200a:	0000c7b7          	lui	a5,0xc
    200e:	d547a583          	lw	a1,-684(a5) # bd54 <table_week+0x18>
    2012:	8526                	mv	a0,s1
    2014:	0000c4b7          	lui	s1,0xc
    2018:	7f7020ef          	jal	ra,500e <__divsf3>
    201c:	d584a583          	lw	a1,-680(s1) # bd58 <table_week+0x1c>
    2020:	40e030ef          	jal	ra,542e <__mulsf3>
    2024:	0000c7b7          	lui	a5,0xc
    2028:	d5c7a583          	lw	a1,-676(a5) # bd5c <table_week+0x20>
    202c:	696030ef          	jal	ra,56c2 <__subsf3>
    2030:	21b030ef          	jal	ra,5a4a <__fixsfsi>
    2034:	0000c7b7          	lui	a5,0xc
    2038:	d607a583          	lw	a1,-672(a5) # bd60 <table_week+0x24>
    203c:	8ca1a223          	sw	a0,-1852(gp) # 200002b4 <radCir>
    2040:	8556                	mv	a0,s5
    2042:	7cd020ef          	jal	ra,500e <__divsf3>
    2046:	d584a583          	lw	a1,-680(s1)
    204a:	0000cb37          	lui	s6,0xc
    204e:	0000cab7          	lui	s5,0xc
    2052:	3dc030ef          	jal	ra,542e <__mulsf3>
    2056:	d64b2583          	lw	a1,-668(s6) # bd64 <table_week+0x28>
    205a:	668030ef          	jal	ra,56c2 <__subsf3>
    205e:	1ed030ef          	jal	ra,5a4a <__fixsfsi>
    2062:	47e2                	lw	a5,24(sp)
    2064:	8ca1a823          	sw	a0,-1840(gp) # 200002c0 <radspeed>
    2068:	0000cbb7          	lui	s7,0xc
    206c:	4388                	lw	a0,0(a5)
    206e:	d2cba583          	lw	a1,-724(s7) # bd2c <_read+0x398>
    2072:	433020ef          	jal	ra,4ca4 <__addsf3>
    2076:	d18aa583          	lw	a1,-744(s5) # bd18 <_read+0x384>
    207a:	795020ef          	jal	ra,500e <__divsf3>
    207e:	d584a583          	lw	a1,-680(s1)
    2082:	3ac030ef          	jal	ra,542e <__mulsf3>
    2086:	d2cba583          	lw	a1,-724(s7)
    208a:	638030ef          	jal	ra,56c2 <__subsf3>
    208e:	1bd030ef          	jal	ra,5a4a <__fixsfsi>
    2092:	d18aa583          	lw	a1,-744(s5)
    2096:	8ca1a623          	sw	a0,-1844(gp) # 200002bc <radTemp>
    209a:	000a2503          	lw	a0,0(s4)
    209e:	771020ef          	jal	ra,500e <__divsf3>
    20a2:	d584a583          	lw	a1,-680(s1)
    20a6:	388030ef          	jal	ra,542e <__mulsf3>
    20aa:	0000c7b7          	lui	a5,0xc
    20ae:	d687a583          	lw	a1,-664(a5) # bd68 <table_week+0x2c>
    20b2:	610030ef          	jal	ra,56c2 <__subsf3>
    20b6:	195030ef          	jal	ra,5a4a <__fixsfsi>
    20ba:	84a1d703          	lhu	a4,-1974(gp) # 2000023a <ContDriveflag>
    20be:	86218693          	addi	a3,gp,-1950 # 20000252 <Continuousdriving_score>
    20c2:	8ca1a423          	sw	a0,-1848(gp) # 200002b8 <radHumi>
    20c6:	4785                	li	a5,1
    20c8:	ce5a                	sw	s6,28(sp)
    20ca:	c656                	sw	s5,12(sp)
    20cc:	c436                	sw	a3,8(sp)
    20ce:	00f71a63          	bne	a4,a5,20e2 <main+0x324>
    20d2:	86018793          	addi	a5,gp,-1952 # 20000250 <Continudrives>
    20d6:	239a                	lhu	a4,0(a5)
    20d8:	0705                	addi	a4,a4,1
    20da:	a39a                	sh	a4,0(a5)
    20dc:	229c                	lbu	a5,0(a3)
    20de:	07a9                	addi	a5,a5,10
    20e0:	a29c                	sb	a5,0(a3)
    20e2:	e69fe0ef          	jal	ra,f4a <data_switch>
    20e6:	e0ffe0ef          	jal	ra,ef4 <DMA_send>
    20ea:	84a1d703          	lhu	a4,-1974(gp) # 2000023a <ContDriveflag>
    20ee:	4785                	li	a5,1
    20f0:	00f71463          	bne	a4,a5,20f8 <main+0x33a>
    20f4:	84019523          	sh	zero,-1974(gp) # 2000023a <ContDriveflag>
    20f8:	20000cb7          	lui	s9,0x20000
    20fc:	1f0ca783          	lw	a5,496(s9) # 200001f0 <pwm>
    2100:	88818a13          	addi	s4,gp,-1912 # 20000278 <Sharpacceleration_score>
    2104:	89018a93          	addi	s5,gp,-1904 # 20000280 <Sharpslowdown_score>
    2108:	0207d863          	bgez	a5,2138 <main+0x37a>
    210c:	84d1c683          	lbu	a3,-1971(gp) # 2000023d <Sharpslowdown_flag>
    2110:	4705                	li	a4,1
    2112:	00e69e63          	bne	a3,a4,212e <main+0x370>
    2116:	88c18713          	addi	a4,gp,-1908 # 2000027c <Sharpslowdown>
    211a:	4314                	lw	a3,0(a4)
    211c:	840186a3          	sb	zero,-1971(gp) # 2000023d <Sharpslowdown_flag>
    2120:	0685                	addi	a3,a3,1
    2122:	c314                	sw	a3,0(a4)
    2124:	000ac703          	lbu	a4,0(s5)
    2128:	0715                	addi	a4,a4,5
    212a:	00ea8023          	sb	a4,0(s5)
    212e:	3807d863          	bgez	a5,24be <main+0x700>
    2132:	1e0ca823          	sw	zero,496(s9)
    2136:	a805                	j	2166 <main+0x3a8>
    2138:	84c1c703          	lbu	a4,-1972(gp) # 2000023c <Sharpadd_flag>
    213c:	cf09                	beqz	a4,2156 <main+0x398>
    213e:	88418713          	addi	a4,gp,-1916 # 20000274 <Sharpacceleration>
    2142:	4314                	lw	a3,0(a4)
    2144:	84018623          	sb	zero,-1972(gp) # 2000023c <Sharpadd_flag>
    2148:	0685                	addi	a3,a3,1
    214a:	c314                	sw	a3,0(a4)
    214c:	000a4703          	lbu	a4,0(s4)
    2150:	0715                	addi	a4,a4,5
    2152:	00ea0023          	sb	a4,0(s4)
    2156:	5dc00713          	li	a4,1500
    215a:	faf759e3          	bge	a4,a5,210c <main+0x34e>
    215e:	5dc00793          	li	a5,1500
    2162:	1efca823          	sw	a5,496(s9)
    2166:	0009d703          	lhu	a4,0(s3)
    216a:	4785                	li	a5,1
    216c:	00f71663          	bne	a4,a5,2178 <main+0x3ba>
    2170:	00099023          	sh	zero,0(s3)
    2174:	00090023          	sb	zero,0(s2)
    2178:	4008                	lw	a0,0(s0)
    217a:	31d030ef          	jal	ra,5c96 <__extendsfdf2>
    217e:	4642                	lw	a2,16(sp)
    2180:	46d2                	lw	a3,20(sp)
    2182:	c4aa                	sw	a0,72(sp)
    2184:	c6ae                	sw	a1,76(sp)
    2186:	601010ef          	jal	ra,3f86 <__ledf2>
    218a:	87818913          	addi	s2,gp,-1928 # 20000268 <Overspeed_score>
    218e:	88018993          	addi	s3,gp,-1920 # 20000270 <Rate_score>
    2192:	89218493          	addi	s1,gp,-1902 # 20000282 <Sharpturn_score>
    2196:	86418c13          	addi	s8,gp,-1948 # 20000254 <Fatigue_score>
    219a:	85918b93          	addi	s7,gp,-1959 # 20000249 <Call_score>
    219e:	89818b13          	addi	s6,gp,-1896 # 20000288 <Smoking_score>
    21a2:	8e418413          	addi	s0,gp,-1820 # 200002d4 <total>
    21a6:	4726                	lw	a4,72(sp)
    21a8:	47b6                	lw	a5,76(sp)
    21aa:	32055963          	bgez	a0,24dc <main+0x71e>
    21ae:	d32fe0ef          	jal	ra,6e0 <Show_Alcohol_Normal>
    21b2:	84f1c683          	lbu	a3,-1969(gp) # 2000023f <star>
    21b6:	873e                	mv	a4,a5
    21b8:	ee99                	bnez	a3,21d6 <main+0x418>
    21ba:	400117b7          	lui	a5,0x40011
    21be:	c0078513          	addi	a0,a5,-1024 # 40010c00 <_eusrstack+0x20008c00>
    21c2:	6589                	lui	a1,0x2
    21c4:	501000ef          	jal	ra,2ec4 <GPIO_ResetBits>
    21c8:	400117b7          	lui	a5,0x40011
    21cc:	6591                	lui	a1,0x4
    21ce:	c0078513          	addi	a0,a5,-1024 # 40010c00 <_eusrstack+0x20008c00>
    21d2:	4f3000ef          	jal	ra,2ec4 <GPIO_ResetBits>
    21d6:	84f1c703          	lbu	a4,-1969(gp) # 2000023f <star>
    21da:	4785                	li	a5,1
    21dc:	02f71863          	bne	a4,a5,220c <main+0x44e>
    21e0:	400117b7          	lui	a5,0x40011
    21e4:	c0078513          	addi	a0,a5,-1024 # 40010c00 <_eusrstack+0x20008c00>
    21e8:	6589                	lui	a1,0x2
    21ea:	4d7000ef          	jal	ra,2ec0 <GPIO_SetBits>
    21ee:	400117b7          	lui	a5,0x40011
    21f2:	6591                	lui	a1,0x4
    21f4:	c0078513          	addi	a0,a5,-1024 # 40010c00 <_eusrstack+0x20008c00>
    21f8:	4cd000ef          	jal	ra,2ec4 <GPIO_ResetBits>
    21fc:	1f0cd583          	lhu	a1,496(s9)
    2200:	40000537          	lui	a0,0x40000
    2204:	40050513          	addi	a0,a0,1024 # 40000400 <_eusrstack+0x1fff8400>
    2208:	42c010ef          	jal	ra,3634 <TIM_SetCompare2>
    220c:	0000c7b7          	lui	a5,0xc
    2210:	000dac83          	lw	s9,0(s11)
    2214:	d6c7a583          	lw	a1,-660(a5) # bd6c <table_week+0x30>
    2218:	8566                	mv	a0,s9
    221a:	102030ef          	jal	ra,531c <__gesf2>
    221e:	8b018793          	addi	a5,gp,-1872 # 200002a0 <is_over_speed>
    2222:	2aa05363          	blez	a0,24c8 <main+0x70a>
    2226:	4398                	lw	a4,0(a5)
    2228:	ef11                	bnez	a4,2244 <main+0x486>
    222a:	87418713          	addi	a4,gp,-1932 # 20000264 <Overspeed>
    222e:	4310                	lw	a2,0(a4)
    2230:	00094683          	lbu	a3,0(s2)
    2234:	0605                	addi	a2,a2,1
    2236:	c310                	sw	a2,0(a4)
    2238:	00568713          	addi	a4,a3,5
    223c:	00e90023          	sb	a4,0(s2)
    2240:	4705                	li	a4,1
    2242:	c398                	sw	a4,0(a5)
    2244:	000d2503          	lw	a0,0(s10)
    2248:	85e6                	mv	a1,s9
    224a:	5c5020ef          	jal	ra,500e <__divsf3>
    224e:	0000c7b7          	lui	a5,0xc
    2252:	d287a583          	lw	a1,-728(a5) # bd28 <_read+0x394>
    2256:	14c030ef          	jal	ra,53a2 <__lesf2>
    225a:	8b418793          	addi	a5,gp,-1868 # 200002a4 <is_ratedown>
    225e:	26055863          	bgez	a0,24ce <main+0x710>
    2262:	4398                	lw	a4,0(a5)
    2264:	ef11                	bnez	a4,2280 <main+0x4c2>
    2266:	87c18713          	addi	a4,gp,-1924 # 2000026c <Rate_Flag>
    226a:	4310                	lw	a2,0(a4)
    226c:	0009c683          	lbu	a3,0(s3)
    2270:	0605                	addi	a2,a2,1
    2272:	c310                	sw	a2,0(a4)
    2274:	00f68713          	addi	a4,a3,15
    2278:	00e98023          	sb	a4,0(s3)
    227c:	4705                	li	a4,1
    227e:	c398                	sw	a4,0(a5)
    2280:	0000c7b7          	lui	a5,0xc
    2284:	d707a583          	lw	a1,-656(a5) # bd70 <table_week+0x34>
    2288:	8566                	mv	a0,s9
    228a:	092030ef          	jal	ra,531c <__gesf2>
    228e:	02a05063          	blez	a0,22ae <main+0x4f0>
    2292:	8321d783          	lhu	a5,-1998(gp) # 20000222 <Angle_Mode>
    2296:	cf81                	beqz	a5,22ae <main+0x4f0>
    2298:	89418793          	addi	a5,gp,-1900 # 20000284 <Sharpturns>
    229c:	4390                	lw	a2,0(a5)
    229e:	2098                	lbu	a4,0(s1)
    22a0:	82019923          	sh	zero,-1998(gp) # 20000222 <Angle_Mode>
    22a4:	0605                	addi	a2,a2,1
    22a6:	c390                	sw	a2,0(a5)
    22a8:	00570793          	addi	a5,a4,5 # e0005 <_data_lma+0xd3c41>
    22ac:	a09c                	sb	a5,0(s1)
    22ae:	8261d783          	lhu	a5,-2010(gp) # 20000216 <Fatigue_Flag>
    22b2:	cf91                	beqz	a5,22ce <main+0x510>
    22b4:	86818793          	addi	a5,gp,-1944 # 20000258 <Fatigues>
    22b8:	4390                	lw	a2,0(a5)
    22ba:	000c4703          	lbu	a4,0(s8)
    22be:	82019323          	sh	zero,-2010(gp) # 20000216 <Fatigue_Flag>
    22c2:	0605                	addi	a2,a2,1
    22c4:	c390                	sw	a2,0(a5)
    22c6:	00a70793          	addi	a5,a4,10
    22ca:	00fc0023          	sb	a5,0(s8)
    22ce:	8241d783          	lhu	a5,-2012(gp) # 20000214 <Callphone_Flag>
    22d2:	cf91                	beqz	a5,22ee <main+0x530>
    22d4:	85c18793          	addi	a5,gp,-1956 # 2000024c <Calls>
    22d8:	4390                	lw	a2,0(a5)
    22da:	000bc703          	lbu	a4,0(s7)
    22de:	82019223          	sh	zero,-2012(gp) # 20000214 <Callphone_Flag>
    22e2:	0605                	addi	a2,a2,1
    22e4:	c390                	sw	a2,0(a5)
    22e6:	00570793          	addi	a5,a4,5
    22ea:	00fb8023          	sb	a5,0(s7)
    22ee:	8281d783          	lhu	a5,-2008(gp) # 20000218 <Smoking_Flag>
    22f2:	cf91                	beqz	a5,230e <main+0x550>
    22f4:	89c18793          	addi	a5,gp,-1892 # 2000028c <Smokings>
    22f8:	4390                	lw	a2,0(a5)
    22fa:	000b4703          	lbu	a4,0(s6)
    22fe:	82019423          	sh	zero,-2008(gp) # 20000218 <Smoking_Flag>
    2302:	0605                	addi	a2,a2,1
    2304:	c390                	sw	a2,0(a5)
    2306:	00570793          	addi	a5,a4,5
    230a:	00fb0023          	sb	a5,0(s6)
    230e:	82c1d703          	lhu	a4,-2004(gp) # 2000021c <Red_Flag>
    2312:	c319                	beqz	a4,2318 <main+0x55a>
    2314:	82019623          	sh	zero,-2004(gp) # 2000021c <Red_Flag>
    2318:	8301d703          	lhu	a4,-2000(gp) # 20000220 <Yellow_Flag>
    231c:	c319                	beqz	a4,2322 <main+0x564>
    231e:	82019823          	sh	zero,-2000(gp) # 20000220 <Yellow_Flag>
    2322:	000a4703          	lbu	a4,0(s4)
    2326:	06400793          	li	a5,100
    232a:	000bc503          	lbu	a0,0(s7)
    232e:	8f99                	sub	a5,a5,a4
    2330:	000ac703          	lbu	a4,0(s5)
    2334:	8f99                	sub	a5,a5,a4
    2336:	00094703          	lbu	a4,0(s2)
    233a:	8f99                	sub	a5,a5,a4
    233c:	4722                	lw	a4,8(sp)
    233e:	2318                	lbu	a4,0(a4)
    2340:	8f99                	sub	a5,a5,a4
    2342:	8f89                	sub	a5,a5,a0
    2344:	000b4503          	lbu	a0,0(s6)
    2348:	8f89                	sub	a5,a5,a0
    234a:	000c4503          	lbu	a0,0(s8)
    234e:	8f89                	sub	a5,a5,a0
    2350:	0009c503          	lbu	a0,0(s3)
    2354:	8f89                	sub	a5,a5,a0
    2356:	2088                	lbu	a0,0(s1)
    2358:	40a78533          	sub	a0,a5,a0
    235c:	7a6030ef          	jal	ra,5b02 <__floatsisf>
    2360:	00000593          	li	a1,0
    2364:	8caa                	mv	s9,a0
    2366:	03c030ef          	jal	ra,53a2 <__lesf2>
    236a:	16054563          	bltz	a0,24d4 <main+0x716>
    236e:	01942023          	sw	s9,0(s0)
    2372:	47b2                	lw	a5,12(sp)
    2374:	00042c83          	lw	s9,0(s0)
    2378:	d187a583          	lw	a1,-744(a5)
    237c:	8566                	mv	a0,s9
    237e:	4da9                	li	s11,10
    2380:	48f020ef          	jal	ra,500e <__divsf3>
    2384:	6c6030ef          	jal	ra,5a4a <__fixsfsi>
    2388:	0000c7b7          	lui	a5,0xc
    238c:	d747a583          	lw	a1,-652(a5) # bd74 <table_week+0x38>
    2390:	86a1a623          	sw	a0,-1940(gp) # 2000025c <Hundred>
    2394:	8566                	mv	a0,s9
    2396:	479020ef          	jal	ra,500e <__divsf3>
    239a:	6b0030ef          	jal	ra,5a4a <__fixsfsi>
    239e:	03b56533          	rem	a0,a0,s11
    23a2:	8aa1a023          	sw	a0,-1888(gp) # 20000290 <Ten>
    23a6:	8566                	mv	a0,s9
    23a8:	6a2030ef          	jal	ra,5a4a <__fixsfsi>
    23ac:	03b56533          	rem	a0,a0,s11
    23b0:	86a1a823          	sw	a0,-1936(gp) # 20000260 <One>
    23b4:	47b2                	lw	a5,12(sp)
    23b6:	4008                	lw	a0,0(s0)
    23b8:	d187a583          	lw	a1,-744(a5)
    23bc:	705020ef          	jal	ra,52c0 <__eqsf2>
    23c0:	e119                	bnez	a0,23c6 <main+0x608>
    23c2:	805fe0ef          	jal	ra,bc6 <GradeA_show>
    23c6:	47f2                	lw	a5,28(sp)
    23c8:	00042c83          	lw	s9,0(s0)
    23cc:	d647a583          	lw	a1,-668(a5)
    23d0:	8566                	mv	a0,s9
    23d2:	74b020ef          	jal	ra,531c <__gesf2>
    23d6:	00054c63          	bltz	a0,23ee <main+0x630>
    23da:	47b2                	lw	a5,12(sp)
    23dc:	8566                	mv	a0,s9
    23de:	d187a583          	lw	a1,-744(a5)
    23e2:	7c1020ef          	jal	ra,53a2 <__lesf2>
    23e6:	00055463          	bgez	a0,23ee <main+0x630>
    23ea:	805fe0ef          	jal	ra,bee <GradeB_show>
    23ee:	47f2                	lw	a5,28(sp)
    23f0:	4008                	lw	a0,0(s0)
    23f2:	d647a583          	lw	a1,-668(a5)
    23f6:	7ad020ef          	jal	ra,53a2 <__lesf2>
    23fa:	00055463          	bgez	a0,2402 <main+0x644>
    23fe:	819fe0ef          	jal	ra,c16 <GradeC_show>
    2402:	0000c7b7          	lui	a5,0xc
    2406:	d707a583          	lw	a1,-656(a5) # bd70 <table_week+0x34>
    240a:	47e2                	lw	a5,24(sp)
    240c:	4388                	lw	a0,0(a5)
    240e:	70f020ef          	jal	ra,531c <__gesf2>
    2412:	00054463          	bltz	a0,241a <main+0x65c>
    2416:	d24fe0ef          	jal	ra,93a <Show_Temp_Humi_High>
    241a:	000c4703          	lbu	a4,0(s8)
    241e:	06400793          	li	a5,100
    2422:	40e78733          	sub	a4,a5,a4
    2426:	86e182a3          	sb	a4,-1947(gp) # 20000255 <Fatigue_score_show>
    242a:	000bc703          	lbu	a4,0(s7)
    242e:	40e78733          	sub	a4,a5,a4
    2432:	84e18d23          	sb	a4,-1958(gp) # 2000024a <Call_score_show>
    2436:	000b4703          	lbu	a4,0(s6)
    243a:	40e78733          	sub	a4,a5,a4
    243e:	88e18ca3          	sb	a4,-1895(gp) # 20000289 <Smoking_score_show>
    2442:	000ac703          	lbu	a4,0(s5)
    2446:	40e78733          	sub	a4,a5,a4
    244a:	88e188a3          	sb	a4,-1903(gp) # 20000281 <Sharpslowdown_score_show>
    244e:	000a4703          	lbu	a4,0(s4)
    2452:	40e78733          	sub	a4,a5,a4
    2456:	88e184a3          	sb	a4,-1911(gp) # 20000279 <Sharpacceleration_score_show>
    245a:	0009c703          	lbu	a4,0(s3)
    245e:	40e78733          	sub	a4,a5,a4
    2462:	88e180a3          	sb	a4,-1919(gp) # 20000271 <Rate_score_show>
    2466:	4722                	lw	a4,8(sp)
    2468:	2318                	lbu	a4,0(a4)
    246a:	40e78733          	sub	a4,a5,a4
    246e:	86e181a3          	sb	a4,-1949(gp) # 20000253 <Continuousdriving_score_show>
    2472:	00094703          	lbu	a4,0(s2)
    2476:	40e78733          	sub	a4,a5,a4
    247a:	86e18ca3          	sb	a4,-1927(gp) # 20000269 <Overspeed_score_show>
    247e:	2098                	lbu	a4,0(s1)
    2480:	8f99                	sub	a5,a5,a4
    2482:	88f189a3          	sb	a5,-1901(gp) # 20000283 <Sharpturn_score_show>
    2486:	be4fe0ef          	jal	ra,86a <Show_Temp_Humi>
    248a:	996fe0ef          	jal	ra,620 <Show_Time>
    248e:	acefe0ef          	jal	ra,75c <Show_Speed>
    2492:	bb0fe0ef          	jal	ra,842 <Show_Speed_Error>
    2496:	cc8fe0ef          	jal	ra,95e <Fatigue_show>
    249a:	d14fe0ef          	jal	ra,9ae <Call_show>
    249e:	d60fe0ef          	jal	ra,9fe <Smoking_show>
    24a2:	dacfe0ef          	jal	ra,a4e <Overtimedriver_show>
    24a6:	dd4fe0ef          	jal	ra,a7a <Driver_show>
    24aa:	f94fe0ef          	jal	ra,c3e <Hundred_show>
    24ae:	fbcfe0ef          	jal	ra,c6a <Ten_show>
    24b2:	fe4fe0ef          	jal	ra,c96 <One_show>
    24b6:	31b000ef          	jal	ra,2fd0 <IWDG_ReloadCounter>
    24ba:	9ddff06f          	j	1e96 <main+0xd8>
    24be:	5dc00713          	li	a4,1500
    24c2:	caf752e3          	bge	a4,a5,2166 <main+0x3a8>
    24c6:	b961                	j	215e <main+0x3a0>
    24c8:	0007a023          	sw	zero,0(a5)
    24cc:	bba5                	j	2244 <main+0x486>
    24ce:	0007a023          	sw	zero,0(a5)
    24d2:	b37d                	j	2280 <main+0x4c2>
    24d4:	00000793          	li	a5,0
    24d8:	c01c                	sw	a5,0(s0)
    24da:	bd61                	j	2372 <main+0x5b4>
    24dc:	4642                	lw	a2,16(sp)
    24de:	46d2                	lw	a3,20(sp)
    24e0:	853a                	mv	a0,a4
    24e2:	85be                	mv	a1,a5
    24e4:	1f5010ef          	jal	ra,3ed8 <__gedf2>
    24e8:	ec0546e3          	bltz	a0,23b4 <main+0x5f6>
    24ec:	8601a623          	sw	zero,-1940(gp) # 2000025c <Hundred>
    24f0:	8a01a023          	sw	zero,-1888(gp) # 20000290 <Ten>
    24f4:	8601a823          	sw	zero,-1936(gp) # 20000260 <One>
    24f8:	00000793          	li	a5,0
    24fc:	c01c                	sw	a5,0(s0)
    24fe:	a20fe0ef          	jal	ra,71e <Show_Alcohol_Abnormal>
    2502:	bd4d                	j	23b4 <main+0x5f6>

00002504 <SystemInit>:
    2504:	400217b7          	lui	a5,0x40021
    2508:	4398                	lw	a4,0(a5)
    250a:	f8ff06b7          	lui	a3,0xf8ff0
    250e:	1141                	addi	sp,sp,-16
    2510:	00176713          	ori	a4,a4,1
    2514:	c398                	sw	a4,0(a5)
    2516:	43d8                	lw	a4,4(a5)
    2518:	00020637          	lui	a2,0x20
    251c:	8f75                	and	a4,a4,a3
    251e:	c3d8                	sw	a4,4(a5)
    2520:	4398                	lw	a4,0(a5)
    2522:	fef706b7          	lui	a3,0xfef70
    2526:	16fd                	addi	a3,a3,-1
    2528:	8f75                	and	a4,a4,a3
    252a:	c398                	sw	a4,0(a5)
    252c:	4398                	lw	a4,0(a5)
    252e:	fffc06b7          	lui	a3,0xfffc0
    2532:	16fd                	addi	a3,a3,-1
    2534:	8f75                	and	a4,a4,a3
    2536:	c398                	sw	a4,0(a5)
    2538:	43d8                	lw	a4,4(a5)
    253a:	ff8106b7          	lui	a3,0xff810
    253e:	16fd                	addi	a3,a3,-1
    2540:	8f75                	and	a4,a4,a3
    2542:	c3d8                	sw	a4,4(a5)
    2544:	4398                	lw	a4,0(a5)
    2546:	ec0006b7          	lui	a3,0xec000
    254a:	16fd                	addi	a3,a3,-1
    254c:	8f75                	and	a4,a4,a3
    254e:	c398                	sw	a4,0(a5)
    2550:	00ff0737          	lui	a4,0xff0
    2554:	c798                	sw	a4,8(a5)
    2556:	0207a623          	sw	zero,44(a5) # 4002102c <_eusrstack+0x2001902c>
    255a:	c402                	sw	zero,8(sp)
    255c:	c602                	sw	zero,12(sp)
    255e:	4398                	lw	a4,0(a5)
    2560:	66c1                	lui	a3,0x10
    2562:	8f55                	or	a4,a4,a3
    2564:	c398                	sw	a4,0(a5)
    2566:	400216b7          	lui	a3,0x40021
    256a:	6705                	lui	a4,0x1
    256c:	429c                	lw	a5,0(a3)
    256e:	8ff1                	and	a5,a5,a2
    2570:	c63e                	sw	a5,12(sp)
    2572:	47a2                	lw	a5,8(sp)
    2574:	0785                	addi	a5,a5,1
    2576:	c43e                	sw	a5,8(sp)
    2578:	47b2                	lw	a5,12(sp)
    257a:	e781                	bnez	a5,2582 <SystemInit+0x7e>
    257c:	47a2                	lw	a5,8(sp)
    257e:	fee797e3          	bne	a5,a4,256c <SystemInit+0x68>
    2582:	400217b7          	lui	a5,0x40021
    2586:	439c                	lw	a5,0(a5)
    2588:	00e79713          	slli	a4,a5,0xe
    258c:	06075763          	bgez	a4,25fa <SystemInit+0xf6>
    2590:	4785                	li	a5,1
    2592:	c63e                	sw	a5,12(sp)
    2594:	4732                	lw	a4,12(sp)
    2596:	4785                	li	a5,1
    2598:	04f71f63          	bne	a4,a5,25f6 <SystemInit+0xf2>
    259c:	400217b7          	lui	a5,0x40021
    25a0:	43d8                	lw	a4,4(a5)
    25a2:	ffc106b7          	lui	a3,0xffc10
    25a6:	16fd                	addi	a3,a3,-1
    25a8:	c3d8                	sw	a4,4(a5)
    25aa:	43d8                	lw	a4,4(a5)
    25ac:	c3d8                	sw	a4,4(a5)
    25ae:	43d8                	lw	a4,4(a5)
    25b0:	40076713          	ori	a4,a4,1024
    25b4:	c3d8                	sw	a4,4(a5)
    25b6:	43d8                	lw	a4,4(a5)
    25b8:	8f75                	and	a4,a4,a3
    25ba:	c3d8                	sw	a4,4(a5)
    25bc:	43d8                	lw	a4,4(a5)
    25be:	002906b7          	lui	a3,0x290
    25c2:	8f55                	or	a4,a4,a3
    25c4:	c3d8                	sw	a4,4(a5)
    25c6:	4398                	lw	a4,0(a5)
    25c8:	010006b7          	lui	a3,0x1000
    25cc:	8f55                	or	a4,a4,a3
    25ce:	c398                	sw	a4,0(a5)
    25d0:	4398                	lw	a4,0(a5)
    25d2:	00671693          	slli	a3,a4,0x6
    25d6:	fe06dde3          	bgez	a3,25d0 <SystemInit+0xcc>
    25da:	43d8                	lw	a4,4(a5)
    25dc:	400216b7          	lui	a3,0x40021
    25e0:	9b71                	andi	a4,a4,-4
    25e2:	c3d8                	sw	a4,4(a5)
    25e4:	43d8                	lw	a4,4(a5)
    25e6:	00276713          	ori	a4,a4,2
    25ea:	c3d8                	sw	a4,4(a5)
    25ec:	4721                	li	a4,8
    25ee:	42dc                	lw	a5,4(a3)
    25f0:	8bb1                	andi	a5,a5,12
    25f2:	fee79ee3          	bne	a5,a4,25ee <SystemInit+0xea>
    25f6:	0141                	addi	sp,sp,16
    25f8:	8082                	ret
    25fa:	c602                	sw	zero,12(sp)
    25fc:	bf61                	j	2594 <SystemInit+0x90>

000025fe <SystemCoreClockUpdate>:
    25fe:	40021637          	lui	a2,0x40021
    2602:	425c                	lw	a5,4(a2)
    2604:	4691                	li	a3,4
    2606:	8bb1                	andi	a5,a5,12
    2608:	80418713          	addi	a4,gp,-2044 # 200001f4 <SystemCoreClock>
    260c:	00d78563          	beq	a5,a3,2616 <SystemCoreClockUpdate+0x18>
    2610:	46a1                	li	a3,8
    2612:	02d78863          	beq	a5,a3,2642 <SystemCoreClockUpdate+0x44>
    2616:	007a17b7          	lui	a5,0x7a1
    261a:	20078793          	addi	a5,a5,512 # 7a1200 <_data_lma+0x794e3c>
    261e:	c31c                	sw	a5,0(a4)
    2620:	400217b7          	lui	a5,0x40021
    2624:	43dc                	lw	a5,4(a5)
    2626:	8391                	srli	a5,a5,0x4
    2628:	00f7f693          	andi	a3,a5,15
    262c:	200007b7          	lui	a5,0x20000
    2630:	00078793          	mv	a5,a5
    2634:	97b6                	add	a5,a5,a3
    2636:	2394                	lbu	a3,0(a5)
    2638:	431c                	lw	a5,0(a4)
    263a:	00d7d7b3          	srl	a5,a5,a3
    263e:	c31c                	sw	a5,0(a4)
    2640:	8082                	ret
    2642:	4254                	lw	a3,4(a2)
    2644:	4250                	lw	a2,4(a2)
    2646:	67c1                	lui	a5,0x10
    2648:	82c9                	srli	a3,a3,0x12
    264a:	8abd                	andi	a3,a3,15
    264c:	8e7d                	and	a2,a2,a5
    264e:	00268793          	addi	a5,a3,2 # 40021002 <_eusrstack+0x20019002>
    2652:	ca85                	beqz	a3,2682 <SystemCoreClockUpdate+0x84>
    2654:	46bd                	li	a3,15
    2656:	02d78963          	beq	a5,a3,2688 <SystemCoreClockUpdate+0x8a>
    265a:	46c1                	li	a3,16
    265c:	02d78963          	beq	a5,a3,268e <SystemCoreClockUpdate+0x90>
    2660:	45c5                	li	a1,17
    2662:	4681                	li	a3,0
    2664:	00b79363          	bne	a5,a1,266a <SystemCoreClockUpdate+0x6c>
    2668:	47c1                	li	a5,16
    266a:	e60d                	bnez	a2,2694 <SystemCoreClockUpdate+0x96>
    266c:	40024637          	lui	a2,0x40024
    2670:	80062603          	lw	a2,-2048(a2) # 40023800 <_eusrstack+0x2001b800>
    2674:	8a41                	andi	a2,a2,16
    2676:	c615                	beqz	a2,26a2 <SystemCoreClockUpdate+0xa4>
    2678:	007a1637          	lui	a2,0x7a1
    267c:	20060613          	addi	a2,a2,512 # 7a1200 <_data_lma+0x794e3c>
    2680:	a02d                	j	26aa <SystemCoreClockUpdate+0xac>
    2682:	4681                	li	a3,0
    2684:	47c9                	li	a5,18
    2686:	b7d5                	j	266a <SystemCoreClockUpdate+0x6c>
    2688:	4685                	li	a3,1
    268a:	47b5                	li	a5,13
    268c:	bff9                	j	266a <SystemCoreClockUpdate+0x6c>
    268e:	4681                	li	a3,0
    2690:	47bd                	li	a5,15
    2692:	bfe1                	j	266a <SystemCoreClockUpdate+0x6c>
    2694:	40021637          	lui	a2,0x40021
    2698:	4250                	lw	a2,4(a2)
    269a:	00e61593          	slli	a1,a2,0xe
    269e:	fc05dde3          	bgez	a1,2678 <SystemCoreClockUpdate+0x7a>
    26a2:	003d1637          	lui	a2,0x3d1
    26a6:	90060613          	addi	a2,a2,-1792 # 3d0900 <_data_lma+0x3c453c>
    26aa:	02c787b3          	mul	a5,a5,a2
    26ae:	c31c                	sw	a5,0(a4)
    26b0:	daa5                	beqz	a3,2620 <SystemCoreClockUpdate+0x22>
    26b2:	431c                	lw	a5,0(a4)
    26b4:	8385                	srli	a5,a5,0x1
    26b6:	b7a5                	j	261e <SystemCoreClockUpdate+0x20>
    26b8:	a001                	j	26b8 <SystemCoreClockUpdate+0xba>
    26ba:	a001                	j	26ba <SystemCoreClockUpdate+0xbc>

000026bc <Ecall_M_Mode_Handler>:
    26bc:	a001                	j	26bc <Ecall_M_Mode_Handler>

000026be <Ecall_U_Mode_Handler>:
    26be:	a001                	j	26be <Ecall_U_Mode_Handler>

000026c0 <Break_Point_Handler>:
    26c0:	a001                	j	26c0 <Break_Point_Handler>

000026c2 <SysTick_Handler>:
    26c2:	a001                	j	26c2 <SysTick_Handler>

000026c4 <SW_Handler>:
    26c4:	a001                	j	26c4 <SW_Handler>

000026c6 <WWDG_IRQHandler>:
    26c6:	a001                	j	26c6 <WWDG_IRQHandler>

000026c8 <PVD_IRQHandler>:
    26c8:	a001                	j	26c8 <PVD_IRQHandler>

000026ca <TAMPER_IRQHandler>:
    26ca:	a001                	j	26ca <TAMPER_IRQHandler>
    26cc:	a001                	j	26cc <TAMPER_IRQHandler+0x2>

000026ce <FLASH_IRQHandler>:
    26ce:	a001                	j	26ce <FLASH_IRQHandler>

000026d0 <RCC_IRQHandler>:
    26d0:	a001                	j	26d0 <RCC_IRQHandler>
    26d2:	a001                	j	26d2 <RCC_IRQHandler+0x2>
    26d4:	a001                	j	26d4 <RCC_IRQHandler+0x4>
    26d6:	a001                	j	26d6 <RCC_IRQHandler+0x6>
    26d8:	a001                	j	26d8 <RCC_IRQHandler+0x8>
    26da:	a001                	j	26da <RCC_IRQHandler+0xa>

000026dc <DMA1_Channel1_IRQHandler>:
    26dc:	a001                	j	26dc <DMA1_Channel1_IRQHandler>

000026de <DMA1_Channel2_IRQHandler>:
    26de:	a001                	j	26de <DMA1_Channel2_IRQHandler>

000026e0 <DMA1_Channel3_IRQHandler>:
    26e0:	a001                	j	26e0 <DMA1_Channel3_IRQHandler>

000026e2 <DMA1_Channel4_IRQHandler>:
    26e2:	a001                	j	26e2 <DMA1_Channel4_IRQHandler>

000026e4 <DMA1_Channel5_IRQHandler>:
    26e4:	a001                	j	26e4 <DMA1_Channel5_IRQHandler>

000026e6 <DMA1_Channel6_IRQHandler>:
    26e6:	a001                	j	26e6 <DMA1_Channel6_IRQHandler>

000026e8 <DMA1_Channel7_IRQHandler>:
    26e8:	a001                	j	26e8 <DMA1_Channel7_IRQHandler>

000026ea <ADC1_2_IRQHandler>:
    26ea:	a001                	j	26ea <ADC1_2_IRQHandler>

000026ec <USB_HP_CAN1_TX_IRQHandler>:
    26ec:	a001                	j	26ec <USB_HP_CAN1_TX_IRQHandler>

000026ee <USB_LP_CAN1_RX0_IRQHandler>:
    26ee:	a001                	j	26ee <USB_LP_CAN1_RX0_IRQHandler>

000026f0 <CAN1_RX1_IRQHandler>:
    26f0:	a001                	j	26f0 <CAN1_RX1_IRQHandler>

000026f2 <CAN1_SCE_IRQHandler>:
    26f2:	a001                	j	26f2 <CAN1_SCE_IRQHandler>
    26f4:	a001                	j	26f4 <CAN1_SCE_IRQHandler+0x2>

000026f6 <TIM1_BRK_IRQHandler>:
    26f6:	a001                	j	26f6 <TIM1_BRK_IRQHandler>

000026f8 <TIM1_UP_IRQHandler>:
    26f8:	a001                	j	26f8 <TIM1_UP_IRQHandler>

000026fa <TIM1_TRG_COM_IRQHandler>:
    26fa:	a001                	j	26fa <TIM1_TRG_COM_IRQHandler>

000026fc <TIM1_CC_IRQHandler>:
    26fc:	a001                	j	26fc <TIM1_CC_IRQHandler>
    26fe:	a001                	j	26fe <TIM1_CC_IRQHandler+0x2>

00002700 <TIM3_IRQHandler>:
    2700:	a001                	j	2700 <TIM3_IRQHandler>
    2702:	a001                	j	2702 <TIM3_IRQHandler+0x2>

00002704 <I2C1_EV_IRQHandler>:
    2704:	a001                	j	2704 <I2C1_EV_IRQHandler>

00002706 <I2C1_ER_IRQHandler>:
    2706:	a001                	j	2706 <I2C1_ER_IRQHandler>

00002708 <I2C2_EV_IRQHandler>:
    2708:	a001                	j	2708 <I2C2_EV_IRQHandler>

0000270a <I2C2_ER_IRQHandler>:
    270a:	a001                	j	270a <I2C2_ER_IRQHandler>

0000270c <SPI1_IRQHandler>:
    270c:	a001                	j	270c <SPI1_IRQHandler>

0000270e <SPI2_IRQHandler>:
    270e:	a001                	j	270e <SPI2_IRQHandler>

00002710 <USART1_IRQHandler>:
    2710:	a001                	j	2710 <USART1_IRQHandler>
    2712:	a001                	j	2712 <USART1_IRQHandler+0x2>
    2714:	a001                	j	2714 <USART1_IRQHandler+0x4>

00002716 <EXTI15_10_IRQHandler>:
    2716:	a001                	j	2716 <EXTI15_10_IRQHandler>

00002718 <RTCAlarm_IRQHandler>:
    2718:	a001                	j	2718 <RTCAlarm_IRQHandler>

0000271a <USBWakeUp_IRQHandler>:
    271a:	a001                	j	271a <USBWakeUp_IRQHandler>

0000271c <TIM8_BRK_IRQHandler>:
    271c:	a001                	j	271c <TIM8_BRK_IRQHandler>

0000271e <TIM8_UP_IRQHandler>:
    271e:	a001                	j	271e <TIM8_UP_IRQHandler>

00002720 <TIM8_TRG_COM_IRQHandler>:
    2720:	a001                	j	2720 <TIM8_TRG_COM_IRQHandler>

00002722 <TIM8_CC_IRQHandler>:
    2722:	a001                	j	2722 <TIM8_CC_IRQHandler>

00002724 <RNG_IRQHandler>:
    2724:	a001                	j	2724 <RNG_IRQHandler>

00002726 <FSMC_IRQHandler>:
    2726:	a001                	j	2726 <FSMC_IRQHandler>

00002728 <SDIO_IRQHandler>:
    2728:	a001                	j	2728 <SDIO_IRQHandler>

0000272a <TIM5_IRQHandler>:
    272a:	a001                	j	272a <TIM5_IRQHandler>

0000272c <SPI3_IRQHandler>:
    272c:	a001                	j	272c <SPI3_IRQHandler>
    272e:	a001                	j	272e <SPI3_IRQHandler+0x2>

00002730 <UART5_IRQHandler>:
    2730:	a001                	j	2730 <UART5_IRQHandler>

00002732 <TIM6_IRQHandler>:
    2732:	a001                	j	2732 <TIM6_IRQHandler>

00002734 <TIM7_IRQHandler>:
    2734:	a001                	j	2734 <TIM7_IRQHandler>

00002736 <DMA2_Channel1_IRQHandler>:
    2736:	a001                	j	2736 <DMA2_Channel1_IRQHandler>

00002738 <DMA2_Channel2_IRQHandler>:
    2738:	a001                	j	2738 <DMA2_Channel2_IRQHandler>

0000273a <DMA2_Channel3_IRQHandler>:
    273a:	a001                	j	273a <DMA2_Channel3_IRQHandler>

0000273c <DMA2_Channel4_IRQHandler>:
    273c:	a001                	j	273c <DMA2_Channel4_IRQHandler>

0000273e <DMA2_Channel5_IRQHandler>:
    273e:	a001                	j	273e <DMA2_Channel5_IRQHandler>

00002740 <ETH_IRQHandler>:
    2740:	a001                	j	2740 <ETH_IRQHandler>

00002742 <ETH_WKUP_IRQHandler>:
    2742:	a001                	j	2742 <ETH_WKUP_IRQHandler>

00002744 <CAN2_TX_IRQHandler>:
    2744:	a001                	j	2744 <CAN2_TX_IRQHandler>

00002746 <CAN2_RX0_IRQHandler>:
    2746:	a001                	j	2746 <CAN2_RX0_IRQHandler>

00002748 <CAN2_RX1_IRQHandler>:
    2748:	a001                	j	2748 <CAN2_RX1_IRQHandler>

0000274a <CAN2_SCE_IRQHandler>:
    274a:	a001                	j	274a <CAN2_SCE_IRQHandler>

0000274c <OTG_FS_IRQHandler>:
    274c:	a001                	j	274c <OTG_FS_IRQHandler>

0000274e <USBHSWakeup_IRQHandler>:
    274e:	a001                	j	274e <USBHSWakeup_IRQHandler>

00002750 <USBHS_IRQHandler>:
    2750:	a001                	j	2750 <USBHS_IRQHandler>

00002752 <DVP_IRQHandler>:
    2752:	a001                	j	2752 <DVP_IRQHandler>
    2754:	a001                	j	2754 <DVP_IRQHandler+0x2>

00002756 <UART7_IRQHandler>:
    2756:	a001                	j	2756 <UART7_IRQHandler>

00002758 <UART8_IRQHandler>:
    2758:	a001                	j	2758 <UART8_IRQHandler>

0000275a <TIM9_BRK_IRQHandler>:
    275a:	a001                	j	275a <TIM9_BRK_IRQHandler>

0000275c <TIM9_UP_IRQHandler>:
    275c:	a001                	j	275c <TIM9_UP_IRQHandler>

0000275e <TIM9_TRG_COM_IRQHandler>:
    275e:	a001                	j	275e <TIM9_TRG_COM_IRQHandler>

00002760 <TIM9_CC_IRQHandler>:
    2760:	a001                	j	2760 <TIM9_CC_IRQHandler>

00002762 <TIM10_BRK_IRQHandler>:
    2762:	a001                	j	2762 <TIM10_BRK_IRQHandler>

00002764 <TIM10_UP_IRQHandler>:
    2764:	a001                	j	2764 <TIM10_UP_IRQHandler>

00002766 <TIM10_TRG_COM_IRQHandler>:
    2766:	a001                	j	2766 <TIM10_TRG_COM_IRQHandler>

00002768 <TIM10_CC_IRQHandler>:
    2768:	a001                	j	2768 <TIM10_CC_IRQHandler>

0000276a <DMA2_Channel6_IRQHandler>:
    276a:	a001                	j	276a <DMA2_Channel6_IRQHandler>

0000276c <DMA2_Channel7_IRQHandler>:
    276c:	a001                	j	276c <DMA2_Channel7_IRQHandler>

0000276e <DMA2_Channel8_IRQHandler>:
    276e:	a001                	j	276e <DMA2_Channel8_IRQHandler>

00002770 <DMA2_Channel9_IRQHandler>:
    2770:	a001                	j	2770 <DMA2_Channel9_IRQHandler>

00002772 <DMA2_Channel10_IRQHandler>:
    2772:	a001                	j	2772 <DMA2_Channel10_IRQHandler>

00002774 <DMA2_Channel11_IRQHandler>:
    2774:	a001                	j	2774 <DMA2_Channel11_IRQHandler>

00002776 <handle_reset>:
    2776:	1fffe197          	auipc	gp,0x1fffe
    277a:	27a18193          	addi	gp,gp,634 # 200009f0 <__global_pointer$>
    277e:	20006117          	auipc	sp,0x20006
    2782:	88210113          	addi	sp,sp,-1918 # 20008000 <_eusrstack>
    2786:	0000a517          	auipc	a0,0xa
    278a:	c3e50513          	addi	a0,a0,-962 # c3c4 <_data_lma>
    278e:	1fffe597          	auipc	a1,0x1fffe
    2792:	87258593          	addi	a1,a1,-1934 # 20000000 <_data_vma>
    2796:	81818613          	addi	a2,gp,-2024 # 20000208 <_edata>
    279a:	00c5fa63          	bgeu	a1,a2,27ae <handle_reset+0x38>
    279e:	00052283          	lw	t0,0(a0)
    27a2:	0055a023          	sw	t0,0(a1)
    27a6:	0511                	addi	a0,a0,4
    27a8:	0591                	addi	a1,a1,4
    27aa:	fec5eae3          	bltu	a1,a2,279e <handle_reset+0x28>
    27ae:	81818513          	addi	a0,gp,-2024 # 20000208 <_edata>
    27b2:	bc018593          	addi	a1,gp,-1088 # 200005b0 <_ebss>
    27b6:	00b57763          	bgeu	a0,a1,27c4 <handle_reset+0x4e>
    27ba:	00052023          	sw	zero,0(a0)
    27be:	0511                	addi	a0,a0,4
    27c0:	feb56de3          	bltu	a0,a1,27ba <handle_reset+0x44>
    27c4:	42fd                	li	t0,31
    27c6:	bc029073          	csrw	0xbc0,t0
    27ca:	42ad                	li	t0,11
    27cc:	80429073          	csrw	0x804,t0
    27d0:	000062b7          	lui	t0,0x6
    27d4:	08828293          	addi	t0,t0,136 # 6088 <__cvt+0xbc>
    27d8:	3002a073          	csrs	mstatus,t0
    27dc:	ffffe297          	auipc	t0,0xffffe
    27e0:	85c28293          	addi	t0,t0,-1956 # 38 <_einit>
    27e4:	0032e293          	ori	t0,t0,3
    27e8:	30529073          	csrw	mtvec,t0
    27ec:	d19ff0ef          	jal	ra,2504 <SystemInit>
    27f0:	fffff297          	auipc	t0,0xfffff
    27f4:	5ce28293          	addi	t0,t0,1486 # 1dbe <main>
    27f8:	34129073          	csrw	mepc,t0
    27fc:	30200073          	mret

00002800 <ADC_DeInit>:
    2800:	a31fd2ef          	jal	t0,230 <__riscv_save_0>
    2804:	400127b7          	lui	a5,0x40012
    2808:	40078793          	addi	a5,a5,1024 # 40012400 <_eusrstack+0x2000a400>
    280c:	00f51e63          	bne	a0,a5,2828 <ADC_DeInit+0x28>
    2810:	4585                	li	a1,1
    2812:	20000513          	li	a0,512
    2816:	2cf000ef          	jal	ra,32e4 <RCC_APB2PeriphResetCmd>
    281a:	4581                	li	a1,0
    281c:	20000513          	li	a0,512
    2820:	2c5000ef          	jal	ra,32e4 <RCC_APB2PeriphResetCmd>
    2824:	a31fd06f          	j	254 <__riscv_restore_0>
    2828:	400137b7          	lui	a5,0x40013
    282c:	80078793          	addi	a5,a5,-2048 # 40012800 <_eusrstack+0x2000a800>
    2830:	fef51ae3          	bne	a0,a5,2824 <ADC_DeInit+0x24>
    2834:	4585                	li	a1,1
    2836:	40000513          	li	a0,1024
    283a:	2ab000ef          	jal	ra,32e4 <RCC_APB2PeriphResetCmd>
    283e:	4581                	li	a1,0
    2840:	40000513          	li	a0,1024
    2844:	bff1                	j	2820 <ADC_DeInit+0x20>

00002846 <ADC_Init>:
    2846:	415c                	lw	a5,4(a0)
    2848:	e0f10737          	lui	a4,0xe0f10
    284c:	eff70713          	addi	a4,a4,-257 # e0f0feff <_eusrstack+0xc0f07eff>
    2850:	4d94                	lw	a3,24(a1)
    2852:	8f7d                	and	a4,a4,a5
    2854:	419c                	lw	a5,0(a1)
    2856:	8fd5                	or	a5,a5,a3
    2858:	4dd4                	lw	a3,28(a1)
    285a:	8fd5                	or	a5,a5,a3
    285c:	41d4                	lw	a3,4(a1)
    285e:	06a2                	slli	a3,a3,0x8
    2860:	8fd5                	or	a5,a5,a3
    2862:	8fd9                	or	a5,a5,a4
    2864:	c15c                	sw	a5,4(a0)
    2866:	451c                	lw	a5,8(a0)
    2868:	fff1f737          	lui	a4,0xfff1f
    286c:	7fd70713          	addi	a4,a4,2045 # fff1f7fd <_eusrstack+0xdff177fd>
    2870:	45d4                	lw	a3,12(a1)
    2872:	8f7d                	and	a4,a4,a5
    2874:	499c                	lw	a5,16(a1)
    2876:	8fd5                	or	a5,a5,a3
    2878:	4594                	lw	a3,8(a1)
    287a:	0686                	slli	a3,a3,0x1
    287c:	8fd5                	or	a5,a5,a3
    287e:	8fd9                	or	a5,a5,a4
    2880:	c51c                	sw	a5,8(a0)
    2882:	555c                	lw	a5,44(a0)
    2884:	ff100737          	lui	a4,0xff100
    2888:	177d                	addi	a4,a4,-1
    288a:	8f7d                	and	a4,a4,a5
    288c:	29dc                	lbu	a5,20(a1)
    288e:	17fd                	addi	a5,a5,-1
    2890:	0ff7f793          	andi	a5,a5,255
    2894:	07d2                	slli	a5,a5,0x14
    2896:	8fd9                	or	a5,a5,a4
    2898:	d55c                	sw	a5,44(a0)
    289a:	8082                	ret

0000289c <ADC_Cmd>:
    289c:	451c                	lw	a5,8(a0)
    289e:	c589                	beqz	a1,28a8 <ADC_Cmd+0xc>
    28a0:	0017e793          	ori	a5,a5,1
    28a4:	c51c                	sw	a5,8(a0)
    28a6:	8082                	ret
    28a8:	9bf9                	andi	a5,a5,-2
    28aa:	bfed                	j	28a4 <ADC_Cmd+0x8>

000028ac <ADC_ResetCalibration>:
    28ac:	451c                	lw	a5,8(a0)
    28ae:	0087e793          	ori	a5,a5,8
    28b2:	c51c                	sw	a5,8(a0)
    28b4:	8082                	ret

000028b6 <ADC_GetResetCalibrationStatus>:
    28b6:	4508                	lw	a0,8(a0)
    28b8:	810d                	srli	a0,a0,0x3
    28ba:	8905                	andi	a0,a0,1
    28bc:	8082                	ret

000028be <ADC_StartCalibration>:
    28be:	451c                	lw	a5,8(a0)
    28c0:	0047e793          	ori	a5,a5,4
    28c4:	c51c                	sw	a5,8(a0)
    28c6:	8082                	ret

000028c8 <ADC_GetCalibrationStatus>:
    28c8:	4508                	lw	a0,8(a0)
    28ca:	8109                	srli	a0,a0,0x2
    28cc:	8905                	andi	a0,a0,1
    28ce:	8082                	ret

000028d0 <ADC_SoftwareStartConvCmd>:
    28d0:	451c                	lw	a5,8(a0)
    28d2:	c591                	beqz	a1,28de <ADC_SoftwareStartConvCmd+0xe>
    28d4:	00500737          	lui	a4,0x500
    28d8:	8fd9                	or	a5,a5,a4
    28da:	c51c                	sw	a5,8(a0)
    28dc:	8082                	ret
    28de:	ffb00737          	lui	a4,0xffb00
    28e2:	177d                	addi	a4,a4,-1
    28e4:	8ff9                	and	a5,a5,a4
    28e6:	bfd5                	j	28da <ADC_SoftwareStartConvCmd+0xa>

000028e8 <ADC_RegularChannelConfig>:
    28e8:	47a5                	li	a5,9
    28ea:	04b7f763          	bgeu	a5,a1,2938 <ADC_RegularChannelConfig+0x50>
    28ee:	478d                	li	a5,3
    28f0:	ff658713          	addi	a4,a1,-10
    28f4:	02f70733          	mul	a4,a4,a5
    28f8:	00c52803          	lw	a6,12(a0)
    28fc:	479d                	li	a5,7
    28fe:	00e797b3          	sll	a5,a5,a4
    2902:	fff7c793          	not	a5,a5
    2906:	0107f7b3          	and	a5,a5,a6
    290a:	00e696b3          	sll	a3,a3,a4
    290e:	8edd                	or	a3,a3,a5
    2910:	c554                	sw	a3,12(a0)
    2912:	4799                	li	a5,6
    2914:	04c7e363          	bltu	a5,a2,295a <ADC_RegularChannelConfig+0x72>
    2918:	4795                	li	a5,5
    291a:	167d                	addi	a2,a2,-1
    291c:	02f60633          	mul	a2,a2,a5
    2920:	5958                	lw	a4,52(a0)
    2922:	47fd                	li	a5,31
    2924:	00c797b3          	sll	a5,a5,a2
    2928:	fff7c793          	not	a5,a5
    292c:	8ff9                	and	a5,a5,a4
    292e:	00c59633          	sll	a2,a1,a2
    2932:	8e5d                	or	a2,a2,a5
    2934:	d950                	sw	a2,52(a0)
    2936:	8082                	ret
    2938:	470d                	li	a4,3
    293a:	02e58733          	mul	a4,a1,a4
    293e:	01052803          	lw	a6,16(a0)
    2942:	479d                	li	a5,7
    2944:	00e797b3          	sll	a5,a5,a4
    2948:	fff7c793          	not	a5,a5
    294c:	0107f7b3          	and	a5,a5,a6
    2950:	00e696b3          	sll	a3,a3,a4
    2954:	8edd                	or	a3,a3,a5
    2956:	c914                	sw	a3,16(a0)
    2958:	bf6d                	j	2912 <ADC_RegularChannelConfig+0x2a>
    295a:	47b1                	li	a5,12
    295c:	02c7e263          	bltu	a5,a2,2980 <ADC_RegularChannelConfig+0x98>
    2960:	4795                	li	a5,5
    2962:	1665                	addi	a2,a2,-7
    2964:	02f60633          	mul	a2,a2,a5
    2968:	5918                	lw	a4,48(a0)
    296a:	47fd                	li	a5,31
    296c:	00c797b3          	sll	a5,a5,a2
    2970:	fff7c793          	not	a5,a5
    2974:	8ff9                	and	a5,a5,a4
    2976:	00c59633          	sll	a2,a1,a2
    297a:	8e5d                	or	a2,a2,a5
    297c:	d910                	sw	a2,48(a0)
    297e:	8082                	ret
    2980:	4795                	li	a5,5
    2982:	164d                	addi	a2,a2,-13
    2984:	02f60633          	mul	a2,a2,a5
    2988:	5558                	lw	a4,44(a0)
    298a:	47fd                	li	a5,31
    298c:	00c797b3          	sll	a5,a5,a2
    2990:	fff7c793          	not	a5,a5
    2994:	8ff9                	and	a5,a5,a4
    2996:	00c595b3          	sll	a1,a1,a2
    299a:	8ddd                	or	a1,a1,a5
    299c:	d54c                	sw	a1,44(a0)
    299e:	8082                	ret

000029a0 <ADC_GetConversionValue>:
    29a0:	4568                	lw	a0,76(a0)
    29a2:	0542                	slli	a0,a0,0x10
    29a4:	8141                	srli	a0,a0,0x10
    29a6:	8082                	ret

000029a8 <ADC_GetFlagStatus>:
    29a8:	4108                	lw	a0,0(a0)
    29aa:	8d6d                	and	a0,a0,a1
    29ac:	00a03533          	snez	a0,a0
    29b0:	8082                	ret

000029b2 <ADC_BufferCmd>:
    29b2:	415c                	lw	a5,4(a0)
    29b4:	c591                	beqz	a1,29c0 <ADC_BufferCmd+0xe>
    29b6:	04000737          	lui	a4,0x4000
    29ba:	8fd9                	or	a5,a5,a4
    29bc:	c15c                	sw	a5,4(a0)
    29be:	8082                	ret
    29c0:	fc000737          	lui	a4,0xfc000
    29c4:	177d                	addi	a4,a4,-1
    29c6:	8ff9                	and	a5,a5,a4
    29c8:	bfd5                	j	29bc <ADC_BufferCmd+0xa>

000029ca <Get_CalibrationValue>:
    29ca:	867fd2ef          	jal	t0,230 <__riscv_save_0>
    29ce:	1101                	addi	sp,sp,-32
    29d0:	842a                	mv	s0,a0
    29d2:	00010423          	sb	zero,8(sp)
    29d6:	44a5                	li	s1,9
    29d8:	841c                	lbu	a5,8(sp)
    29da:	04f4f963          	bgeu	s1,a5,2a2c <Get_CalibrationValue+0x62>
    29de:	00010423          	sb	zero,8(sp)
    29e2:	46a5                	li	a3,9
    29e4:	4621                	li	a2,8
    29e6:	841c                	lbu	a5,8(sp)
    29e8:	06f6ff63          	bgeu	a3,a5,2a66 <Get_CalibrationValue+0x9c>
    29ec:	00011523          	sh	zero,10(sp)
    29f0:	00010423          	sb	zero,8(sp)
    29f4:	4695                	li	a3,5
    29f6:	841c                	lbu	a5,8(sp)
    29f8:	0ef6f163          	bgeu	a3,a5,2ada <Get_CalibrationValue+0x110>
    29fc:	8538                	lhu	a4,10(sp)
    29fe:	853c                	lhu	a5,10(sp)
    2a00:	4699                	li	a3,6
    2a02:	460d                	li	a2,3
    2a04:	02d7f7b3          	remu	a5,a5,a3
    2a08:	6505                	lui	a0,0x1
    2a0a:	80050513          	addi	a0,a0,-2048 # 800 <__stack_size>
    2a0e:	02c7d7b3          	divu	a5,a5,a2
    2a12:	02d75733          	divu	a4,a4,a3
    2a16:	97ba                	add	a5,a5,a4
    2a18:	07c2                	slli	a5,a5,0x10
    2a1a:	83c1                	srli	a5,a5,0x10
    2a1c:	857c                	sh	a5,10(sp)
    2a1e:	853c                	lhu	a5,10(sp)
    2a20:	6105                	addi	sp,sp,32
    2a22:	8d1d                	sub	a0,a0,a5
    2a24:	0542                	slli	a0,a0,0x10
    2a26:	8541                	srai	a0,a0,0x10
    2a28:	82dfd06f          	j	254 <__riscv_restore_0>
    2a2c:	441c                	lw	a5,8(s0)
    2a2e:	0087e793          	ori	a5,a5,8
    2a32:	c41c                	sw	a5,8(s0)
    2a34:	8522                	mv	a0,s0
    2a36:	e81ff0ef          	jal	ra,28b6 <ADC_GetResetCalibrationStatus>
    2a3a:	fd6d                	bnez	a0,2a34 <Get_CalibrationValue+0x6a>
    2a3c:	441c                	lw	a5,8(s0)
    2a3e:	0047e793          	ori	a5,a5,4
    2a42:	c41c                	sw	a5,8(s0)
    2a44:	8522                	mv	a0,s0
    2a46:	e83ff0ef          	jal	ra,28c8 <ADC_GetCalibrationStatus>
    2a4a:	fd6d                	bnez	a0,2a44 <Get_CalibrationValue+0x7a>
    2a4c:	4478                	lw	a4,76(s0)
    2a4e:	841c                	lbu	a5,8(sp)
    2a50:	1014                	addi	a3,sp,32
    2a52:	0786                	slli	a5,a5,0x1
    2a54:	97b6                	add	a5,a5,a3
    2a56:	fee79623          	sh	a4,-20(a5)
    2a5a:	841c                	lbu	a5,8(sp)
    2a5c:	0785                	addi	a5,a5,1
    2a5e:	0ff7f793          	andi	a5,a5,255
    2a62:	845c                	sb	a5,8(sp)
    2a64:	bf95                	j	29d8 <Get_CalibrationValue+0xe>
    2a66:	000104a3          	sb	zero,9(sp)
    2a6a:	849c                	lbu	a5,9(sp)
    2a6c:	00f67863          	bgeu	a2,a5,2a7c <Get_CalibrationValue+0xb2>
    2a70:	841c                	lbu	a5,8(sp)
    2a72:	0785                	addi	a5,a5,1
    2a74:	0ff7f793          	andi	a5,a5,255
    2a78:	845c                	sb	a5,8(sp)
    2a7a:	b7b5                	j	29e6 <Get_CalibrationValue+0x1c>
    2a7c:	8498                	lbu	a4,9(sp)
    2a7e:	849c                	lbu	a5,9(sp)
    2a80:	100c                	addi	a1,sp,32
    2a82:	0706                	slli	a4,a4,0x1
    2a84:	0785                	addi	a5,a5,1
    2a86:	0786                	slli	a5,a5,0x1
    2a88:	972e                	add	a4,a4,a1
    2a8a:	97ae                	add	a5,a5,a1
    2a8c:	fec75703          	lhu	a4,-20(a4) # fbffffec <_eusrstack+0xdbff7fec>
    2a90:	fec7d783          	lhu	a5,-20(a5)
    2a94:	02e7fd63          	bgeu	a5,a4,2ace <Get_CalibrationValue+0x104>
    2a98:	849c                	lbu	a5,9(sp)
    2a9a:	0786                	slli	a5,a5,0x1
    2a9c:	97ae                	add	a5,a5,a1
    2a9e:	fec7d783          	lhu	a5,-20(a5)
    2aa2:	857c                	sh	a5,10(sp)
    2aa4:	849c                	lbu	a5,9(sp)
    2aa6:	8498                	lbu	a4,9(sp)
    2aa8:	0785                	addi	a5,a5,1
    2aaa:	0786                	slli	a5,a5,0x1
    2aac:	97ae                	add	a5,a5,a1
    2aae:	fec7d583          	lhu	a1,-20(a5)
    2ab2:	00171793          	slli	a5,a4,0x1
    2ab6:	1018                	addi	a4,sp,32
    2ab8:	97ba                	add	a5,a5,a4
    2aba:	feb79623          	sh	a1,-20(a5)
    2abe:	849c                	lbu	a5,9(sp)
    2ac0:	8538                	lhu	a4,10(sp)
    2ac2:	100c                	addi	a1,sp,32
    2ac4:	0785                	addi	a5,a5,1
    2ac6:	0786                	slli	a5,a5,0x1
    2ac8:	97ae                	add	a5,a5,a1
    2aca:	fee79623          	sh	a4,-20(a5)
    2ace:	849c                	lbu	a5,9(sp)
    2ad0:	0785                	addi	a5,a5,1
    2ad2:	0ff7f793          	andi	a5,a5,255
    2ad6:	84dc                	sb	a5,9(sp)
    2ad8:	bf49                	j	2a6a <Get_CalibrationValue+0xa0>
    2ada:	841c                	lbu	a5,8(sp)
    2adc:	1010                	addi	a2,sp,32
    2ade:	8538                	lhu	a4,10(sp)
    2ae0:	0789                	addi	a5,a5,2
    2ae2:	0786                	slli	a5,a5,0x1
    2ae4:	97b2                	add	a5,a5,a2
    2ae6:	fec7d783          	lhu	a5,-20(a5)
    2aea:	97ba                	add	a5,a5,a4
    2aec:	07c2                	slli	a5,a5,0x10
    2aee:	83c1                	srli	a5,a5,0x10
    2af0:	857c                	sh	a5,10(sp)
    2af2:	841c                	lbu	a5,8(sp)
    2af4:	0785                	addi	a5,a5,1
    2af6:	0ff7f793          	andi	a5,a5,255
    2afa:	845c                	sb	a5,8(sp)
    2afc:	bded                	j	29f6 <Get_CalibrationValue+0x2c>

00002afe <BKP_DeInit>:
    2afe:	f32fd2ef          	jal	t0,230 <__riscv_save_0>
    2b02:	4505                	li	a0,1
    2b04:	7fe000ef          	jal	ra,3302 <RCC_BackupResetCmd>
    2b08:	4501                	li	a0,0
    2b0a:	7f8000ef          	jal	ra,3302 <RCC_BackupResetCmd>
    2b0e:	f46fd06f          	j	254 <__riscv_restore_0>

00002b12 <BKP_WriteBackupRegister>:
    2b12:	1141                	addi	sp,sp,-16
    2b14:	400077b7          	lui	a5,0x40007
    2b18:	c602                	sw	zero,12(sp)
    2b1a:	c0078793          	addi	a5,a5,-1024 # 40006c00 <_eusrstack+0x1fffec00>
    2b1e:	c63e                	sw	a5,12(sp)
    2b20:	47b2                	lw	a5,12(sp)
    2b22:	953e                	add	a0,a0,a5
    2b24:	c62a                	sw	a0,12(sp)
    2b26:	47b2                	lw	a5,12(sp)
    2b28:	c38c                	sw	a1,0(a5)
    2b2a:	0141                	addi	sp,sp,16
    2b2c:	8082                	ret

00002b2e <BKP_ReadBackupRegister>:
    2b2e:	1141                	addi	sp,sp,-16
    2b30:	400077b7          	lui	a5,0x40007
    2b34:	c602                	sw	zero,12(sp)
    2b36:	c0078793          	addi	a5,a5,-1024 # 40006c00 <_eusrstack+0x1fffec00>
    2b3a:	c63e                	sw	a5,12(sp)
    2b3c:	47b2                	lw	a5,12(sp)
    2b3e:	953e                	add	a0,a0,a5
    2b40:	c62a                	sw	a0,12(sp)
    2b42:	47b2                	lw	a5,12(sp)
    2b44:	238a                	lhu	a0,0(a5)
    2b46:	0141                	addi	sp,sp,16
    2b48:	8082                	ret

00002b4a <DMA_DeInit>:
    2b4a:	411c                	lw	a5,0(a0)
    2b4c:	6741                	lui	a4,0x10
    2b4e:	1779                	addi	a4,a4,-2
    2b50:	8ff9                	and	a5,a5,a4
    2b52:	c11c                	sw	a5,0(a0)
    2b54:	00052023          	sw	zero,0(a0)
    2b58:	00052223          	sw	zero,4(a0)
    2b5c:	00052423          	sw	zero,8(a0)
    2b60:	400207b7          	lui	a5,0x40020
    2b64:	00052623          	sw	zero,12(a0)
    2b68:	00878713          	addi	a4,a5,8 # 40020008 <_eusrstack+0x20018008>
    2b6c:	00e51763          	bne	a0,a4,2b7a <DMA_DeInit+0x30>
    2b70:	43d8                	lw	a4,4(a5)
    2b72:	00f76713          	ori	a4,a4,15
    2b76:	c3d8                	sw	a4,4(a5)
    2b78:	8082                	ret
    2b7a:	01c78713          	addi	a4,a5,28
    2b7e:	00e51663          	bne	a0,a4,2b8a <DMA_DeInit+0x40>
    2b82:	43d8                	lw	a4,4(a5)
    2b84:	0f076713          	ori	a4,a4,240
    2b88:	b7fd                	j	2b76 <DMA_DeInit+0x2c>
    2b8a:	03078713          	addi	a4,a5,48
    2b8e:	00e51863          	bne	a0,a4,2b9e <DMA_DeInit+0x54>
    2b92:	43d8                	lw	a4,4(a5)
    2b94:	6685                	lui	a3,0x1
    2b96:	f0068693          	addi	a3,a3,-256 # f00 <DMA_send+0xc>
    2b9a:	8f55                	or	a4,a4,a3
    2b9c:	bfe9                	j	2b76 <DMA_DeInit+0x2c>
    2b9e:	04478713          	addi	a4,a5,68
    2ba2:	00e51563          	bne	a0,a4,2bac <DMA_DeInit+0x62>
    2ba6:	43d8                	lw	a4,4(a5)
    2ba8:	66bd                	lui	a3,0xf
    2baa:	bfc5                	j	2b9a <DMA_DeInit+0x50>
    2bac:	05878713          	addi	a4,a5,88
    2bb0:	00e51663          	bne	a0,a4,2bbc <DMA_DeInit+0x72>
    2bb4:	43d8                	lw	a4,4(a5)
    2bb6:	000f06b7          	lui	a3,0xf0
    2bba:	b7c5                	j	2b9a <DMA_DeInit+0x50>
    2bbc:	06c78713          	addi	a4,a5,108
    2bc0:	00e51663          	bne	a0,a4,2bcc <DMA_DeInit+0x82>
    2bc4:	43d8                	lw	a4,4(a5)
    2bc6:	00f006b7          	lui	a3,0xf00
    2bca:	bfc1                	j	2b9a <DMA_DeInit+0x50>
    2bcc:	08078713          	addi	a4,a5,128
    2bd0:	00e51663          	bne	a0,a4,2bdc <DMA_DeInit+0x92>
    2bd4:	43d8                	lw	a4,4(a5)
    2bd6:	0f0006b7          	lui	a3,0xf000
    2bda:	b7c1                	j	2b9a <DMA_DeInit+0x50>
    2bdc:	40878713          	addi	a4,a5,1032
    2be0:	00e51963          	bne	a0,a4,2bf2 <DMA_DeInit+0xa8>
    2be4:	4047a703          	lw	a4,1028(a5)
    2be8:	00f76713          	ori	a4,a4,15
    2bec:	40e7a223          	sw	a4,1028(a5)
    2bf0:	8082                	ret
    2bf2:	41c78713          	addi	a4,a5,1052
    2bf6:	00e51763          	bne	a0,a4,2c04 <DMA_DeInit+0xba>
    2bfa:	4047a703          	lw	a4,1028(a5)
    2bfe:	0f076713          	ori	a4,a4,240
    2c02:	b7ed                	j	2bec <DMA_DeInit+0xa2>
    2c04:	43078793          	addi	a5,a5,1072
    2c08:	00f51b63          	bne	a0,a5,2c1e <DMA_DeInit+0xd4>
    2c0c:	400207b7          	lui	a5,0x40020
    2c10:	4047a703          	lw	a4,1028(a5) # 40020404 <_eusrstack+0x20018404>
    2c14:	6685                	lui	a3,0x1
    2c16:	f0068693          	addi	a3,a3,-256 # f00 <DMA_send+0xc>
    2c1a:	8f55                	or	a4,a4,a3
    2c1c:	bfc1                	j	2bec <DMA_DeInit+0xa2>
    2c1e:	400207b7          	lui	a5,0x40020
    2c22:	44478713          	addi	a4,a5,1092 # 40020444 <_eusrstack+0x20018444>
    2c26:	00e51663          	bne	a0,a4,2c32 <DMA_DeInit+0xe8>
    2c2a:	4047a703          	lw	a4,1028(a5)
    2c2e:	66bd                	lui	a3,0xf
    2c30:	b7ed                	j	2c1a <DMA_DeInit+0xd0>
    2c32:	45878713          	addi	a4,a5,1112
    2c36:	00e51763          	bne	a0,a4,2c44 <DMA_DeInit+0xfa>
    2c3a:	4047a703          	lw	a4,1028(a5)
    2c3e:	000f06b7          	lui	a3,0xf0
    2c42:	bfe1                	j	2c1a <DMA_DeInit+0xd0>
    2c44:	46c78713          	addi	a4,a5,1132
    2c48:	00e51763          	bne	a0,a4,2c56 <DMA_DeInit+0x10c>
    2c4c:	4047a703          	lw	a4,1028(a5)
    2c50:	00f006b7          	lui	a3,0xf00
    2c54:	b7d9                	j	2c1a <DMA_DeInit+0xd0>
    2c56:	48078713          	addi	a4,a5,1152
    2c5a:	00e51763          	bne	a0,a4,2c68 <DMA_DeInit+0x11e>
    2c5e:	4047a703          	lw	a4,1028(a5)
    2c62:	0f0006b7          	lui	a3,0xf000
    2c66:	bf55                	j	2c1a <DMA_DeInit+0xd0>
    2c68:	49078713          	addi	a4,a5,1168
    2c6c:	00e51963          	bne	a0,a4,2c7e <DMA_DeInit+0x134>
    2c70:	4d47a703          	lw	a4,1236(a5)
    2c74:	00f76713          	ori	a4,a4,15
    2c78:	4ce7aa23          	sw	a4,1236(a5)
    2c7c:	8082                	ret
    2c7e:	4a078713          	addi	a4,a5,1184
    2c82:	00e51763          	bne	a0,a4,2c90 <DMA_DeInit+0x146>
    2c86:	4d47a703          	lw	a4,1236(a5)
    2c8a:	0f076713          	ori	a4,a4,240
    2c8e:	b7ed                	j	2c78 <DMA_DeInit+0x12e>
    2c90:	4b078713          	addi	a4,a5,1200
    2c94:	00e51963          	bne	a0,a4,2ca6 <DMA_DeInit+0x15c>
    2c98:	4d47a703          	lw	a4,1236(a5)
    2c9c:	6685                	lui	a3,0x1
    2c9e:	f0068693          	addi	a3,a3,-256 # f00 <DMA_send+0xc>
    2ca2:	8f55                	or	a4,a4,a3
    2ca4:	bfd1                	j	2c78 <DMA_DeInit+0x12e>
    2ca6:	4c078713          	addi	a4,a5,1216
    2caa:	fce519e3          	bne	a0,a4,2c7c <DMA_DeInit+0x132>
    2cae:	4d47a703          	lw	a4,1236(a5)
    2cb2:	66bd                	lui	a3,0xf
    2cb4:	b7fd                	j	2ca2 <DMA_DeInit+0x158>

00002cb6 <DMA_Init>:
    2cb6:	411c                	lw	a5,0(a0)
    2cb8:	7761                	lui	a4,0xffff8
    2cba:	073d                	addi	a4,a4,15
    2cbc:	5194                	lw	a3,32(a1)
    2cbe:	8f7d                	and	a4,a4,a5
    2cc0:	459c                	lw	a5,8(a1)
    2cc2:	8fd5                	or	a5,a5,a3
    2cc4:	4994                	lw	a3,16(a1)
    2cc6:	8fd5                	or	a5,a5,a3
    2cc8:	49d4                	lw	a3,20(a1)
    2cca:	8fd5                	or	a5,a5,a3
    2ccc:	4d94                	lw	a3,24(a1)
    2cce:	8fd5                	or	a5,a5,a3
    2cd0:	4dd4                	lw	a3,28(a1)
    2cd2:	8fd5                	or	a5,a5,a3
    2cd4:	51d4                	lw	a3,36(a1)
    2cd6:	8fd5                	or	a5,a5,a3
    2cd8:	5594                	lw	a3,40(a1)
    2cda:	8fd5                	or	a5,a5,a3
    2cdc:	8fd9                	or	a5,a5,a4
    2cde:	c11c                	sw	a5,0(a0)
    2ce0:	45dc                	lw	a5,12(a1)
    2ce2:	c15c                	sw	a5,4(a0)
    2ce4:	419c                	lw	a5,0(a1)
    2ce6:	c51c                	sw	a5,8(a0)
    2ce8:	41dc                	lw	a5,4(a1)
    2cea:	c55c                	sw	a5,12(a0)
    2cec:	8082                	ret

00002cee <DMA_Cmd>:
    2cee:	411c                	lw	a5,0(a0)
    2cf0:	c589                	beqz	a1,2cfa <DMA_Cmd+0xc>
    2cf2:	0017e793          	ori	a5,a5,1
    2cf6:	c11c                	sw	a5,0(a0)
    2cf8:	8082                	ret
    2cfa:	6741                	lui	a4,0x10
    2cfc:	1779                	addi	a4,a4,-2
    2cfe:	8ff9                	and	a5,a5,a4
    2d00:	bfdd                	j	2cf6 <DMA_Cmd+0x8>

00002d02 <DMA_SetCurrDataCounter>:
    2d02:	c14c                	sw	a1,4(a0)
    2d04:	8082                	ret

00002d06 <DMA_GetFlagStatus>:
    2d06:	00351793          	slli	a5,a0,0x3
    2d0a:	0007da63          	bgez	a5,2d1e <DMA_GetFlagStatus+0x18>
    2d0e:	400207b7          	lui	a5,0x40020
    2d12:	4007a783          	lw	a5,1024(a5) # 40020400 <_eusrstack+0x20018400>
    2d16:	8d7d                	and	a0,a0,a5
    2d18:	00a03533          	snez	a0,a0
    2d1c:	8082                	ret
    2d1e:	00251793          	slli	a5,a0,0x2
    2d22:	0007d763          	bgez	a5,2d30 <DMA_GetFlagStatus+0x2a>
    2d26:	400207b7          	lui	a5,0x40020
    2d2a:	4d07a783          	lw	a5,1232(a5) # 400204d0 <_eusrstack+0x200184d0>
    2d2e:	b7e5                	j	2d16 <DMA_GetFlagStatus+0x10>
    2d30:	400207b7          	lui	a5,0x40020
    2d34:	439c                	lw	a5,0(a5)
    2d36:	b7c5                	j	2d16 <DMA_GetFlagStatus+0x10>

00002d38 <DMA_ClearFlag>:
    2d38:	00351793          	slli	a5,a0,0x3
    2d3c:	0007d763          	bgez	a5,2d4a <DMA_ClearFlag+0x12>
    2d40:	400207b7          	lui	a5,0x40020
    2d44:	40a7a223          	sw	a0,1028(a5) # 40020404 <_eusrstack+0x20018404>
    2d48:	8082                	ret
    2d4a:	00251793          	slli	a5,a0,0x2
    2d4e:	0007d763          	bgez	a5,2d5c <DMA_ClearFlag+0x24>
    2d52:	400207b7          	lui	a5,0x40020
    2d56:	4ca7aa23          	sw	a0,1236(a5) # 400204d4 <_eusrstack+0x200184d4>
    2d5a:	8082                	ret
    2d5c:	400207b7          	lui	a5,0x40020
    2d60:	c3c8                	sw	a0,4(a5)
    2d62:	8082                	ret

00002d64 <EXTI_Init>:
    2d64:	4158                	lw	a4,4(a0)
    2d66:	00052803          	lw	a6,0(a0)
    2d6a:	454c                	lw	a1,12(a0)
    2d6c:	40010637          	lui	a2,0x40010
    2d70:	40060793          	addi	a5,a2,1024 # 40010400 <_eusrstack+0x20008400>
    2d74:	973e                	add	a4,a4,a5
    2d76:	fff84693          	not	a3,a6
    2d7a:	c5b1                	beqz	a1,2dc6 <EXTI_Init+0x62>
    2d7c:	40062583          	lw	a1,1024(a2)
    2d80:	8df5                	and	a1,a1,a3
    2d82:	40b62023          	sw	a1,1024(a2)
    2d86:	43d0                	lw	a2,4(a5)
    2d88:	8ef1                	and	a3,a3,a2
    2d8a:	c3d4                	sw	a3,4(a5)
    2d8c:	4314                	lw	a3,0(a4)
    2d8e:	0106e6b3          	or	a3,a3,a6
    2d92:	c314                	sw	a3,0(a4)
    2d94:	4118                	lw	a4,0(a0)
    2d96:	4790                	lw	a2,8(a5)
    2d98:	fff74693          	not	a3,a4
    2d9c:	8e75                	and	a2,a2,a3
    2d9e:	c790                	sw	a2,8(a5)
    2da0:	47d0                	lw	a2,12(a5)
    2da2:	8ef1                	and	a3,a3,a2
    2da4:	c7d4                	sw	a3,12(a5)
    2da6:	4514                	lw	a3,8(a0)
    2da8:	4641                	li	a2,16
    2daa:	00c69963          	bne	a3,a2,2dbc <EXTI_Init+0x58>
    2dae:	4794                	lw	a3,8(a5)
    2db0:	8ed9                	or	a3,a3,a4
    2db2:	c794                	sw	a3,8(a5)
    2db4:	47d4                	lw	a3,12(a5)
    2db6:	8f55                	or	a4,a4,a3
    2db8:	c7d8                	sw	a4,12(a5)
    2dba:	8082                	ret
    2dbc:	97b6                	add	a5,a5,a3
    2dbe:	4394                	lw	a3,0(a5)
    2dc0:	8f55                	or	a4,a4,a3
    2dc2:	c398                	sw	a4,0(a5)
    2dc4:	8082                	ret
    2dc6:	431c                	lw	a5,0(a4)
    2dc8:	8ff5                	and	a5,a5,a3
    2dca:	c31c                	sw	a5,0(a4)
    2dcc:	8082                	ret

00002dce <EXTI_GetITStatus>:
    2dce:	400107b7          	lui	a5,0x40010
    2dd2:	40078713          	addi	a4,a5,1024 # 40010400 <_eusrstack+0x20008400>
    2dd6:	4007a783          	lw	a5,1024(a5)
    2dda:	4b58                	lw	a4,20(a4)
    2ddc:	8f69                	and	a4,a4,a0
    2dde:	c709                	beqz	a4,2de8 <EXTI_GetITStatus+0x1a>
    2de0:	8d7d                	and	a0,a0,a5
    2de2:	00a03533          	snez	a0,a0
    2de6:	8082                	ret
    2de8:	4501                	li	a0,0
    2dea:	8082                	ret

00002dec <EXTI_ClearITPendingBit>:
    2dec:	400107b7          	lui	a5,0x40010
    2df0:	40a7aa23          	sw	a0,1044(a5) # 40010414 <_eusrstack+0x20008414>
    2df4:	8082                	ret

00002df6 <GPIO_Init>:
    2df6:	459c                	lw	a5,8(a1)
    2df8:	0107f713          	andi	a4,a5,16
    2dfc:	00f7f813          	andi	a6,a5,15
    2e00:	c701                	beqz	a4,2e08 <GPIO_Init+0x12>
    2e02:	41d8                	lw	a4,4(a1)
    2e04:	00e86833          	or	a6,a6,a4
    2e08:	218e                	lhu	a1,0(a1)
    2e0a:	0ff5f713          	andi	a4,a1,255
    2e0e:	c339                	beqz	a4,2e54 <GPIO_Init+0x5e>
    2e10:	4118                	lw	a4,0(a0)
    2e12:	4681                	li	a3,0
    2e14:	4e85                	li	t4,1
    2e16:	4f3d                	li	t5,15
    2e18:	02800f93          	li	t6,40
    2e1c:	04800293          	li	t0,72
    2e20:	4e21                	li	t3,8
    2e22:	00de9633          	sll	a2,t4,a3
    2e26:	00c5f8b3          	and	a7,a1,a2
    2e2a:	03161163          	bne	a2,a7,2e4c <GPIO_Init+0x56>
    2e2e:	00269893          	slli	a7,a3,0x2
    2e32:	011f1333          	sll	t1,t5,a7
    2e36:	fff34313          	not	t1,t1
    2e3a:	00e37733          	and	a4,t1,a4
    2e3e:	011818b3          	sll	a7,a6,a7
    2e42:	00e8e733          	or	a4,a7,a4
    2e46:	05f79f63          	bne	a5,t6,2ea4 <GPIO_Init+0xae>
    2e4a:	c950                	sw	a2,20(a0)
    2e4c:	0685                	addi	a3,a3,1
    2e4e:	fdc69ae3          	bne	a3,t3,2e22 <GPIO_Init+0x2c>
    2e52:	c118                	sw	a4,0(a0)
    2e54:	0ff00713          	li	a4,255
    2e58:	04b77563          	bgeu	a4,a1,2ea2 <GPIO_Init+0xac>
    2e5c:	4154                	lw	a3,4(a0)
    2e5e:	4621                	li	a2,8
    2e60:	4e85                	li	t4,1
    2e62:	4f3d                	li	t5,15
    2e64:	02800f93          	li	t6,40
    2e68:	04800293          	li	t0,72
    2e6c:	4e41                	li	t3,16
    2e6e:	00ce98b3          	sll	a7,t4,a2
    2e72:	0115f733          	and	a4,a1,a7
    2e76:	02e89263          	bne	a7,a4,2e9a <GPIO_Init+0xa4>
    2e7a:	00261713          	slli	a4,a2,0x2
    2e7e:	1701                	addi	a4,a4,-32
    2e80:	00ef1333          	sll	t1,t5,a4
    2e84:	fff34313          	not	t1,t1
    2e88:	00d376b3          	and	a3,t1,a3
    2e8c:	00e81733          	sll	a4,a6,a4
    2e90:	8ed9                	or	a3,a3,a4
    2e92:	01f79d63          	bne	a5,t6,2eac <GPIO_Init+0xb6>
    2e96:	01152a23          	sw	a7,20(a0)
    2e9a:	0605                	addi	a2,a2,1
    2e9c:	fdc619e3          	bne	a2,t3,2e6e <GPIO_Init+0x78>
    2ea0:	c154                	sw	a3,4(a0)
    2ea2:	8082                	ret
    2ea4:	fa5794e3          	bne	a5,t0,2e4c <GPIO_Init+0x56>
    2ea8:	c910                	sw	a2,16(a0)
    2eaa:	b74d                	j	2e4c <GPIO_Init+0x56>
    2eac:	fe5797e3          	bne	a5,t0,2e9a <GPIO_Init+0xa4>
    2eb0:	01152823          	sw	a7,16(a0)
    2eb4:	b7dd                	j	2e9a <GPIO_Init+0xa4>

00002eb6 <GPIO_ReadInputDataBit>:
    2eb6:	4508                	lw	a0,8(a0)
    2eb8:	8d6d                	and	a0,a0,a1
    2eba:	00a03533          	snez	a0,a0
    2ebe:	8082                	ret

00002ec0 <GPIO_SetBits>:
    2ec0:	c90c                	sw	a1,16(a0)
    2ec2:	8082                	ret

00002ec4 <GPIO_ResetBits>:
    2ec4:	c94c                	sw	a1,20(a0)
    2ec6:	8082                	ret

00002ec8 <GPIO_PinRemapConfig>:
    2ec8:	400107b7          	lui	a5,0x40010
    2ecc:	04055763          	bgez	a0,2f1a <GPIO_PinRemapConfig+0x52>
    2ed0:	4fdc                	lw	a5,28(a5)
    2ed2:	01055713          	srli	a4,a0,0x10
    2ed6:	00f77693          	andi	a3,a4,15
    2eda:	01051613          	slli	a2,a0,0x10
    2ede:	00300737          	lui	a4,0x300
    2ee2:	8241                	srli	a2,a2,0x10
    2ee4:	00e57833          	and	a6,a0,a4
    2ee8:	04055c63          	bgez	a0,2f40 <GPIO_PinRemapConfig+0x78>
    2eec:	02e81963          	bne	a6,a4,2f1e <GPIO_PinRemapConfig+0x56>
    2ef0:	01068713          	addi	a4,a3,16 # f010 <_data_lma+0x2c4c>
    2ef4:	468d                	li	a3,3
    2ef6:	00e696b3          	sll	a3,a3,a4
    2efa:	fff6c693          	not	a3,a3
    2efe:	8ff5                	and	a5,a5,a3
    2f00:	c989                	beqz	a1,2f12 <GPIO_PinRemapConfig+0x4a>
    2f02:	01555713          	srli	a4,a0,0x15
    2f06:	0712                	slli	a4,a4,0x4
    2f08:	00e61733          	sll	a4,a2,a4
    2f0c:	8fd9                	or	a5,a5,a4
    2f0e:	04055763          	bgez	a0,2f5c <GPIO_PinRemapConfig+0x94>
    2f12:	40010737          	lui	a4,0x40010
    2f16:	cf5c                	sw	a5,28(a4)
    2f18:	8082                	ret
    2f1a:	43dc                	lw	a5,4(a5)
    2f1c:	bf5d                	j	2ed2 <GPIO_PinRemapConfig+0xa>
    2f1e:	00b51713          	slli	a4,a0,0xb
    2f22:	00075663          	bgez	a4,2f2e <GPIO_PinRemapConfig+0x66>
    2f26:	470d                	li	a4,3
    2f28:	00d716b3          	sll	a3,a4,a3
    2f2c:	b7f9                	j	2efa <GPIO_PinRemapConfig+0x32>
    2f2e:	01555713          	srli	a4,a0,0x15
    2f32:	0712                	slli	a4,a4,0x4
    2f34:	00e61733          	sll	a4,a2,a4
    2f38:	fff74713          	not	a4,a4
    2f3c:	8ff9                	and	a5,a5,a4
    2f3e:	b7c9                	j	2f00 <GPIO_PinRemapConfig+0x38>
    2f40:	02e81263          	bne	a6,a4,2f64 <GPIO_PinRemapConfig+0x9c>
    2f44:	40010837          	lui	a6,0x40010
    2f48:	00482683          	lw	a3,4(a6) # 40010004 <_eusrstack+0x20008004>
    2f4c:	f1000737          	lui	a4,0xf1000
    2f50:	177d                	addi	a4,a4,-1
    2f52:	8ff9                	and	a5,a5,a4
    2f54:	8f75                	and	a4,a4,a3
    2f56:	00e82223          	sw	a4,4(a6)
    2f5a:	f5c5                	bnez	a1,2f02 <GPIO_PinRemapConfig+0x3a>
    2f5c:	40010737          	lui	a4,0x40010
    2f60:	c35c                	sw	a5,4(a4)
    2f62:	8082                	ret
    2f64:	00b51713          	slli	a4,a0,0xb
    2f68:	00075c63          	bgez	a4,2f80 <GPIO_PinRemapConfig+0xb8>
    2f6c:	470d                	li	a4,3
    2f6e:	00d71733          	sll	a4,a4,a3
    2f72:	fff74713          	not	a4,a4
    2f76:	8f7d                	and	a4,a4,a5
    2f78:	0f0007b7          	lui	a5,0xf000
    2f7c:	8fd9                	or	a5,a5,a4
    2f7e:	bff1                	j	2f5a <GPIO_PinRemapConfig+0x92>
    2f80:	01555713          	srli	a4,a0,0x15
    2f84:	0712                	slli	a4,a4,0x4
    2f86:	00e61733          	sll	a4,a2,a4
    2f8a:	b7e5                	j	2f72 <GPIO_PinRemapConfig+0xaa>

00002f8c <GPIO_EXTILineConfig>:
    2f8c:	0fc5f713          	andi	a4,a1,252
    2f90:	0035f793          	andi	a5,a1,3
    2f94:	400105b7          	lui	a1,0x40010
    2f98:	95ba                	add	a1,a1,a4
    2f9a:	4594                	lw	a3,8(a1)
    2f9c:	078a                	slli	a5,a5,0x2
    2f9e:	473d                	li	a4,15
    2fa0:	00f71733          	sll	a4,a4,a5
    2fa4:	fff74713          	not	a4,a4
    2fa8:	8f75                	and	a4,a4,a3
    2faa:	c598                	sw	a4,8(a1)
    2fac:	4598                	lw	a4,8(a1)
    2fae:	00f51533          	sll	a0,a0,a5
    2fb2:	8d59                	or	a0,a0,a4
    2fb4:	c588                	sw	a0,8(a1)
    2fb6:	8082                	ret

00002fb8 <IWDG_WriteAccessCmd>:
    2fb8:	400037b7          	lui	a5,0x40003
    2fbc:	c388                	sw	a0,0(a5)
    2fbe:	8082                	ret

00002fc0 <IWDG_SetPrescaler>:
    2fc0:	400037b7          	lui	a5,0x40003
    2fc4:	c3c8                	sw	a0,4(a5)
    2fc6:	8082                	ret

00002fc8 <IWDG_SetReload>:
    2fc8:	400037b7          	lui	a5,0x40003
    2fcc:	c788                	sw	a0,8(a5)
    2fce:	8082                	ret

00002fd0 <IWDG_ReloadCounter>:
    2fd0:	67ad                	lui	a5,0xb
    2fd2:	40003737          	lui	a4,0x40003
    2fd6:	aaa78793          	addi	a5,a5,-1366 # aaaa <__swhatbuf_r+0x28>
    2fda:	c31c                	sw	a5,0(a4)
    2fdc:	8082                	ret

00002fde <IWDG_Enable>:
    2fde:	67b5                	lui	a5,0xd
    2fe0:	40003737          	lui	a4,0x40003
    2fe4:	ccc78793          	addi	a5,a5,-820 # cccc <_data_lma+0x908>
    2fe8:	c31c                	sw	a5,0(a4)
    2fea:	8082                	ret

00002fec <NVIC_PriorityGroupConfig>:
    2fec:	8ea1a623          	sw	a0,-1812(gp) # 200002dc <NVIC_Priority_Group>
    2ff0:	8082                	ret

00002ff2 <NVIC_Init>:
    2ff2:	8ec18793          	addi	a5,gp,-1812 # 200002dc <NVIC_Priority_Group>
    2ff6:	4394                	lw	a3,0(a5)
    2ff8:	2118                	lbu	a4,0(a0)
    2ffa:	e681                	bnez	a3,3002 <NVIC_Init+0x10>
    2ffc:	213c                	lbu	a5,2(a0)
    2ffe:	0792                	slli	a5,a5,0x4
    3000:	a821                	j	3018 <NVIC_Init+0x26>
    3002:	4394                	lw	a3,0(a5)
    3004:	4605                	li	a2,1
    3006:	02c69f63          	bne	a3,a2,3044 <NVIC_Init+0x52>
    300a:	213c                	lbu	a5,2(a0)
    300c:	3110                	lbu	a2,1(a0)
    300e:	0792                	slli	a5,a5,0x4
    3010:	00d61463          	bne	a2,a3,3018 <NVIC_Init+0x26>
    3014:	f807e793          	ori	a5,a5,-128
    3018:	e000e6b7          	lui	a3,0xe000e
    301c:	0ff7f793          	andi	a5,a5,255
    3020:	96ba                	add	a3,a3,a4
    3022:	40f68023          	sb	a5,1024(a3) # e000e400 <_eusrstack+0xc0006400>
    3026:	4685                	li	a3,1
    3028:	00575793          	srli	a5,a4,0x5
    302c:	00e69733          	sll	a4,a3,a4
    3030:	4154                	lw	a3,4(a0)
    3032:	c2a5                	beqz	a3,3092 <NVIC_Init+0xa0>
    3034:	04078793          	addi	a5,a5,64
    3038:	078a                	slli	a5,a5,0x2
    303a:	e000e6b7          	lui	a3,0xe000e
    303e:	97b6                	add	a5,a5,a3
    3040:	c398                	sw	a4,0(a5)
    3042:	8082                	ret
    3044:	438c                	lw	a1,0(a5)
    3046:	4689                	li	a3,2
    3048:	02d59163          	bne	a1,a3,306a <NVIC_Init+0x78>
    304c:	3114                	lbu	a3,1(a0)
    304e:	213c                	lbu	a5,2(a0)
    3050:	00d66563          	bltu	a2,a3,305a <NVIC_Init+0x68>
    3054:	068a                	slli	a3,a3,0x2
    3056:	97b6                	add	a5,a5,a3
    3058:	b75d                	j	2ffe <NVIC_Init+0xc>
    305a:	03e68693          	addi	a3,a3,62 # e000e03e <_eusrstack+0xc000603e>
    305e:	068a                	slli	a3,a3,0x2
    3060:	97b6                	add	a5,a5,a3
    3062:	0ff7f793          	andi	a5,a5,255
    3066:	0792                	slli	a5,a5,0x4
    3068:	b775                	j	3014 <NVIC_Init+0x22>
    306a:	4390                	lw	a2,0(a5)
    306c:	468d                	li	a3,3
    306e:	00d61c63          	bne	a2,a3,3086 <NVIC_Init+0x94>
    3072:	3114                	lbu	a3,1(a0)
    3074:	213c                	lbu	a5,2(a0)
    3076:	00d66463          	bltu	a2,a3,307e <NVIC_Init+0x8c>
    307a:	0686                	slli	a3,a3,0x1
    307c:	bfe9                	j	3056 <NVIC_Init+0x64>
    307e:	07c68693          	addi	a3,a3,124
    3082:	0686                	slli	a3,a3,0x1
    3084:	bff1                	j	3060 <NVIC_Init+0x6e>
    3086:	4394                	lw	a3,0(a5)
    3088:	4791                	li	a5,4
    308a:	f8f69ee3          	bne	a3,a5,3026 <NVIC_Init+0x34>
    308e:	311c                	lbu	a5,1(a0)
    3090:	b7bd                	j	2ffe <NVIC_Init+0xc>
    3092:	06078793          	addi	a5,a5,96
    3096:	b74d                	j	3038 <NVIC_Init+0x46>

00003098 <PWR_BackupAccessCmd>:
    3098:	40007737          	lui	a4,0x40007
    309c:	431c                	lw	a5,0(a4)
    309e:	c509                	beqz	a0,30a8 <PWR_BackupAccessCmd+0x10>
    30a0:	1007e793          	ori	a5,a5,256
    30a4:	c31c                	sw	a5,0(a4)
    30a6:	8082                	ret
    30a8:	eff7f793          	andi	a5,a5,-257
    30ac:	bfe5                	j	30a4 <PWR_BackupAccessCmd+0xc>

000030ae <RCC_ADCCLKConfig>:
    30ae:	400216b7          	lui	a3,0x40021
    30b2:	42dc                	lw	a5,4(a3)
    30b4:	7751                	lui	a4,0xffff4
    30b6:	177d                	addi	a4,a4,-1
    30b8:	8ff9                	and	a5,a5,a4
    30ba:	8d5d                	or	a0,a0,a5
    30bc:	c2c8                	sw	a0,4(a3)
    30be:	8082                	ret

000030c0 <RCC_LSEConfig>:
    30c0:	400217b7          	lui	a5,0x40021
    30c4:	02078023          	sb	zero,32(a5) # 40021020 <_eusrstack+0x20019020>
    30c8:	02078023          	sb	zero,32(a5)
    30cc:	4705                	li	a4,1
    30ce:	00e50663          	beq	a0,a4,30da <RCC_LSEConfig+0x1a>
    30d2:	4711                	li	a4,4
    30d4:	00e50663          	beq	a0,a4,30e0 <RCC_LSEConfig+0x20>
    30d8:	8082                	ret
    30da:	02a78023          	sb	a0,32(a5)
    30de:	8082                	ret
    30e0:	4715                	li	a4,5
    30e2:	02e78023          	sb	a4,32(a5)
    30e6:	8082                	ret

000030e8 <RCC_RTCCLKConfig>:
    30e8:	40021737          	lui	a4,0x40021
    30ec:	531c                	lw	a5,32(a4)
    30ee:	8d5d                	or	a0,a0,a5
    30f0:	d308                	sw	a0,32(a4)
    30f2:	8082                	ret

000030f4 <RCC_RTCCLKCmd>:
    30f4:	c901                	beqz	a0,3104 <RCC_RTCCLKCmd+0x10>
    30f6:	40021737          	lui	a4,0x40021
    30fa:	531c                	lw	a5,32(a4)
    30fc:	66a1                	lui	a3,0x8
    30fe:	8fd5                	or	a5,a5,a3
    3100:	d31c                	sw	a5,32(a4)
    3102:	8082                	ret
    3104:	400216b7          	lui	a3,0x40021
    3108:	529c                	lw	a5,32(a3)
    310a:	7761                	lui	a4,0xffff8
    310c:	177d                	addi	a4,a4,-1
    310e:	8ff9                	and	a5,a5,a4
    3110:	d29c                	sw	a5,32(a3)
    3112:	8082                	ret

00003114 <RCC_GetClocksFreq>:
    3114:	40021737          	lui	a4,0x40021
    3118:	435c                	lw	a5,4(a4)
    311a:	4691                	li	a3,4
    311c:	8bb1                	andi	a5,a5,12
    311e:	00d78563          	beq	a5,a3,3128 <RCC_GetClocksFreq+0x14>
    3122:	46a1                	li	a3,8
    3124:	06d78263          	beq	a5,a3,3188 <RCC_GetClocksFreq+0x74>
    3128:	007a17b7          	lui	a5,0x7a1
    312c:	20078793          	addi	a5,a5,512 # 7a1200 <_data_lma+0x794e3c>
    3130:	c11c                	sw	a5,0(a0)
    3132:	40021637          	lui	a2,0x40021
    3136:	425c                	lw	a5,4(a2)
    3138:	20000737          	lui	a4,0x20000
    313c:	01070713          	addi	a4,a4,16 # 20000010 <APBAHBPrescTable>
    3140:	8391                	srli	a5,a5,0x4
    3142:	8bbd                	andi	a5,a5,15
    3144:	97ba                	add	a5,a5,a4
    3146:	2394                	lbu	a3,0(a5)
    3148:	411c                	lw	a5,0(a0)
    314a:	00d7d7b3          	srl	a5,a5,a3
    314e:	c15c                	sw	a5,4(a0)
    3150:	4254                	lw	a3,4(a2)
    3152:	82a1                	srli	a3,a3,0x8
    3154:	8a9d                	andi	a3,a3,7
    3156:	96ba                	add	a3,a3,a4
    3158:	2294                	lbu	a3,0(a3)
    315a:	00d7d6b3          	srl	a3,a5,a3
    315e:	c514                	sw	a3,8(a0)
    3160:	4254                	lw	a3,4(a2)
    3162:	82ad                	srli	a3,a3,0xb
    3164:	8a9d                	andi	a3,a3,7
    3166:	9736                	add	a4,a4,a3
    3168:	2318                	lbu	a4,0(a4)
    316a:	00e7d7b3          	srl	a5,a5,a4
    316e:	c55c                	sw	a5,12(a0)
    3170:	4258                	lw	a4,4(a2)
    3172:	8339                	srli	a4,a4,0xe
    3174:	00377693          	andi	a3,a4,3
    3178:	80818713          	addi	a4,gp,-2040 # 200001f8 <ADCPrescTable>
    317c:	9736                	add	a4,a4,a3
    317e:	2318                	lbu	a4,0(a4)
    3180:	02e7d7b3          	divu	a5,a5,a4
    3184:	c91c                	sw	a5,16(a0)
    3186:	8082                	ret
    3188:	435c                	lw	a5,4(a4)
    318a:	4358                	lw	a4,4(a4)
    318c:	66c1                	lui	a3,0x10
    318e:	83c9                	srli	a5,a5,0x12
    3190:	8f75                	and	a4,a4,a3
    3192:	1ffff6b7          	lui	a3,0x1ffff
    3196:	70c6a683          	lw	a3,1804(a3) # 1ffff70c <_data_lma+0x1fff3348>
    319a:	8bbd                	andi	a5,a5,15
    319c:	0789                	addi	a5,a5,2
    319e:	01169613          	slli	a2,a3,0x11
    31a2:	00064863          	bltz	a2,31b2 <RCC_GetClocksFreq+0x9e>
    31a6:	46c5                	li	a3,17
    31a8:	4601                	li	a2,0
    31aa:	02d79263          	bne	a5,a3,31ce <RCC_GetClocksFreq+0xba>
    31ae:	47c9                	li	a5,18
    31b0:	a839                	j	31ce <RCC_GetClocksFreq+0xba>
    31b2:	4689                	li	a3,2
    31b4:	02d78f63          	beq	a5,a3,31f2 <RCC_GetClocksFreq+0xde>
    31b8:	46bd                	li	a3,15
    31ba:	02d78e63          	beq	a5,a3,31f6 <RCC_GetClocksFreq+0xe2>
    31be:	46c1                	li	a3,16
    31c0:	02d78e63          	beq	a5,a3,31fc <RCC_GetClocksFreq+0xe8>
    31c4:	46c5                	li	a3,17
    31c6:	4601                	li	a2,0
    31c8:	00d79363          	bne	a5,a3,31ce <RCC_GetClocksFreq+0xba>
    31cc:	47c1                	li	a5,16
    31ce:	ef1d                	bnez	a4,320c <RCC_GetClocksFreq+0xf8>
    31d0:	40024737          	lui	a4,0x40024
    31d4:	80072703          	lw	a4,-2048(a4) # 40023800 <_eusrstack+0x2001b800>
    31d8:	8b41                	andi	a4,a4,16
    31da:	c705                	beqz	a4,3202 <RCC_GetClocksFreq+0xee>
    31dc:	007a1737          	lui	a4,0x7a1
    31e0:	20070713          	addi	a4,a4,512 # 7a1200 <_data_lma+0x794e3c>
    31e4:	02f707b3          	mul	a5,a4,a5
    31e8:	c11c                	sw	a5,0(a0)
    31ea:	d621                	beqz	a2,3132 <RCC_GetClocksFreq+0x1e>
    31ec:	411c                	lw	a5,0(a0)
    31ee:	8385                	srli	a5,a5,0x1
    31f0:	b781                	j	3130 <RCC_GetClocksFreq+0x1c>
    31f2:	4601                	li	a2,0
    31f4:	bf6d                	j	31ae <RCC_GetClocksFreq+0x9a>
    31f6:	4605                	li	a2,1
    31f8:	47b5                	li	a5,13
    31fa:	bfd1                	j	31ce <RCC_GetClocksFreq+0xba>
    31fc:	4601                	li	a2,0
    31fe:	47bd                	li	a5,15
    3200:	b7f9                	j	31ce <RCC_GetClocksFreq+0xba>
    3202:	003d1737          	lui	a4,0x3d1
    3206:	90070713          	addi	a4,a4,-1792 # 3d0900 <_data_lma+0x3c453c>
    320a:	bfe9                	j	31e4 <RCC_GetClocksFreq+0xd0>
    320c:	400215b7          	lui	a1,0x40021
    3210:	55d8                	lw	a4,44(a1)
    3212:	00f71693          	slli	a3,a4,0xf
    3216:	55d8                	lw	a4,44(a1)
    3218:	0406df63          	bgez	a3,3276 <RCC_GetClocksFreq+0x162>
    321c:	8311                	srli	a4,a4,0x4
    321e:	8b3d                	andi	a4,a4,15
    3220:	00170693          	addi	a3,a4,1
    3224:	007a1737          	lui	a4,0x7a1
    3228:	20070713          	addi	a4,a4,512 # 7a1200 <_data_lma+0x794e3c>
    322c:	02d75733          	divu	a4,a4,a3
    3230:	c118                	sw	a4,0(a0)
    3232:	55d4                	lw	a3,44(a1)
    3234:	82a1                	srli	a3,a3,0x8
    3236:	8abd                	andi	a3,a3,15
    3238:	e28d                	bnez	a3,325a <RCC_GetClocksFreq+0x146>
    323a:	4695                	li	a3,5
    323c:	02d70733          	mul	a4,a4,a3
    3240:	8305                	srli	a4,a4,0x1
    3242:	c118                	sw	a4,0(a0)
    3244:	40021737          	lui	a4,0x40021
    3248:	5758                	lw	a4,44(a4)
    324a:	4114                	lw	a3,0(a0)
    324c:	8b3d                	andi	a4,a4,15
    324e:	0705                	addi	a4,a4,1
    3250:	02e6d733          	divu	a4,a3,a4
    3254:	c118                	sw	a4,0(a0)
    3256:	4118                	lw	a4,0(a0)
    3258:	b771                	j	31e4 <RCC_GetClocksFreq+0xd0>
    325a:	4585                	li	a1,1
    325c:	00b69463          	bne	a3,a1,3264 <RCC_GetClocksFreq+0x150>
    3260:	46e5                	li	a3,25
    3262:	bfe9                	j	323c <RCC_GetClocksFreq+0x128>
    3264:	45bd                	li	a1,15
    3266:	00b69663          	bne	a3,a1,3272 <RCC_GetClocksFreq+0x15e>
    326a:	46d1                	li	a3,20
    326c:	02e68733          	mul	a4,a3,a4
    3270:	bfc9                	j	3242 <RCC_GetClocksFreq+0x12e>
    3272:	0689                	addi	a3,a3,2
    3274:	bfe5                	j	326c <RCC_GetClocksFreq+0x158>
    3276:	8b3d                	andi	a4,a4,15
    3278:	00170693          	addi	a3,a4,1 # 40021001 <_eusrstack+0x20019001>
    327c:	007a1737          	lui	a4,0x7a1
    3280:	20070713          	addi	a4,a4,512 # 7a1200 <_data_lma+0x794e3c>
    3284:	02d75733          	divu	a4,a4,a3
    3288:	b7f1                	j	3254 <RCC_GetClocksFreq+0x140>

0000328a <RCC_AHBPeriphClockCmd>:
    328a:	c599                	beqz	a1,3298 <RCC_AHBPeriphClockCmd+0xe>
    328c:	40021737          	lui	a4,0x40021
    3290:	4b5c                	lw	a5,20(a4)
    3292:	8d5d                	or	a0,a0,a5
    3294:	cb48                	sw	a0,20(a4)
    3296:	8082                	ret
    3298:	400217b7          	lui	a5,0x40021
    329c:	4bd8                	lw	a4,20(a5)
    329e:	fff54513          	not	a0,a0
    32a2:	8d79                	and	a0,a0,a4
    32a4:	cbc8                	sw	a0,20(a5)
    32a6:	8082                	ret

000032a8 <RCC_APB2PeriphClockCmd>:
    32a8:	c599                	beqz	a1,32b6 <RCC_APB2PeriphClockCmd+0xe>
    32aa:	40021737          	lui	a4,0x40021
    32ae:	4f1c                	lw	a5,24(a4)
    32b0:	8d5d                	or	a0,a0,a5
    32b2:	cf08                	sw	a0,24(a4)
    32b4:	8082                	ret
    32b6:	400217b7          	lui	a5,0x40021
    32ba:	4f98                	lw	a4,24(a5)
    32bc:	fff54513          	not	a0,a0
    32c0:	8d79                	and	a0,a0,a4
    32c2:	cf88                	sw	a0,24(a5)
    32c4:	8082                	ret

000032c6 <RCC_APB1PeriphClockCmd>:
    32c6:	c599                	beqz	a1,32d4 <RCC_APB1PeriphClockCmd+0xe>
    32c8:	40021737          	lui	a4,0x40021
    32cc:	4f5c                	lw	a5,28(a4)
    32ce:	8d5d                	or	a0,a0,a5
    32d0:	cf48                	sw	a0,28(a4)
    32d2:	8082                	ret
    32d4:	400217b7          	lui	a5,0x40021
    32d8:	4fd8                	lw	a4,28(a5)
    32da:	fff54513          	not	a0,a0
    32de:	8d79                	and	a0,a0,a4
    32e0:	cfc8                	sw	a0,28(a5)
    32e2:	8082                	ret

000032e4 <RCC_APB2PeriphResetCmd>:
    32e4:	c599                	beqz	a1,32f2 <RCC_APB2PeriphResetCmd+0xe>
    32e6:	40021737          	lui	a4,0x40021
    32ea:	475c                	lw	a5,12(a4)
    32ec:	8d5d                	or	a0,a0,a5
    32ee:	c748                	sw	a0,12(a4)
    32f0:	8082                	ret
    32f2:	400217b7          	lui	a5,0x40021
    32f6:	47d8                	lw	a4,12(a5)
    32f8:	fff54513          	not	a0,a0
    32fc:	8d79                	and	a0,a0,a4
    32fe:	c7c8                	sw	a0,12(a5)
    3300:	8082                	ret

00003302 <RCC_BackupResetCmd>:
    3302:	c901                	beqz	a0,3312 <RCC_BackupResetCmd+0x10>
    3304:	40021737          	lui	a4,0x40021
    3308:	531c                	lw	a5,32(a4)
    330a:	66c1                	lui	a3,0x10
    330c:	8fd5                	or	a5,a5,a3
    330e:	d31c                	sw	a5,32(a4)
    3310:	8082                	ret
    3312:	400216b7          	lui	a3,0x40021
    3316:	529c                	lw	a5,32(a3)
    3318:	7741                	lui	a4,0xffff0
    331a:	177d                	addi	a4,a4,-1
    331c:	8ff9                	and	a5,a5,a4
    331e:	d29c                	sw	a5,32(a3)
    3320:	8082                	ret

00003322 <RCC_GetFlagStatus>:
    3322:	00555793          	srli	a5,a0,0x5
    3326:	4705                	li	a4,1
    3328:	00e79963          	bne	a5,a4,333a <RCC_GetFlagStatus+0x18>
    332c:	400217b7          	lui	a5,0x40021
    3330:	439c                	lw	a5,0(a5)
    3332:	00a7d533          	srl	a0,a5,a0
    3336:	8905                	andi	a0,a0,1
    3338:	8082                	ret
    333a:	4709                	li	a4,2
    333c:	00e79663          	bne	a5,a4,3348 <RCC_GetFlagStatus+0x26>
    3340:	400217b7          	lui	a5,0x40021
    3344:	539c                	lw	a5,32(a5)
    3346:	b7f5                	j	3332 <RCC_GetFlagStatus+0x10>
    3348:	400217b7          	lui	a5,0x40021
    334c:	53dc                	lw	a5,36(a5)
    334e:	b7d5                	j	3332 <RCC_GetFlagStatus+0x10>

00003350 <RTC_ITConfig>:
    3350:	400037b7          	lui	a5,0x40003
    3354:	8007d703          	lhu	a4,-2048(a5) # 40002800 <_eusrstack+0x1fffa800>
    3358:	c589                	beqz	a1,3362 <RTC_ITConfig+0x12>
    335a:	8d59                	or	a0,a0,a4
    335c:	80a79023          	sh	a0,-2048(a5)
    3360:	8082                	ret
    3362:	fff54513          	not	a0,a0
    3366:	8d79                	and	a0,a0,a4
    3368:	bfd5                	j	335c <RTC_ITConfig+0xc>

0000336a <RTC_EnterConfigMode>:
    336a:	400037b7          	lui	a5,0x40003
    336e:	8047d703          	lhu	a4,-2044(a5) # 40002804 <_eusrstack+0x1fffa804>
    3372:	01076713          	ori	a4,a4,16
    3376:	80e79223          	sh	a4,-2044(a5)
    337a:	8082                	ret

0000337c <RTC_ExitConfigMode>:
    337c:	40003737          	lui	a4,0x40003
    3380:	80475783          	lhu	a5,-2044(a4) # 40002804 <_eusrstack+0x1fffa804>
    3384:	07c2                	slli	a5,a5,0x10
    3386:	83c1                	srli	a5,a5,0x10
    3388:	9bbd                	andi	a5,a5,-17
    338a:	07c2                	slli	a5,a5,0x10
    338c:	83c1                	srli	a5,a5,0x10
    338e:	80f71223          	sh	a5,-2044(a4)
    3392:	8082                	ret

00003394 <RTC_GetCounter>:
    3394:	400036b7          	lui	a3,0x40003
    3398:	8186d783          	lhu	a5,-2024(a3) # 40002818 <_eusrstack+0x1fffa818>
    339c:	81c6d503          	lhu	a0,-2020(a3)
    33a0:	8186d703          	lhu	a4,-2024(a3)
    33a4:	07c2                	slli	a5,a5,0x10
    33a6:	01051613          	slli	a2,a0,0x10
    33aa:	0742                	slli	a4,a4,0x10
    33ac:	83c1                	srli	a5,a5,0x10
    33ae:	8341                	srli	a4,a4,0x10
    33b0:	8241                	srli	a2,a2,0x10
    33b2:	80068693          	addi	a3,a3,-2048
    33b6:	00e78663          	beq	a5,a4,33c2 <RTC_GetCounter+0x2e>
    33ba:	2eca                	lhu	a0,28(a3)
    33bc:	0742                	slli	a4,a4,0x10
    33be:	8d59                	or	a0,a0,a4
    33c0:	8082                	ret
    33c2:	01079513          	slli	a0,a5,0x10
    33c6:	8d51                	or	a0,a0,a2
    33c8:	8082                	ret

000033ca <RTC_SetCounter>:
    33ca:	e67fc2ef          	jal	t0,230 <__riscv_save_0>
    33ce:	1141                	addi	sp,sp,-16
    33d0:	c62a                	sw	a0,12(sp)
    33d2:	f99ff0ef          	jal	ra,336a <RTC_EnterConfigMode>
    33d6:	4532                	lw	a0,12(sp)
    33d8:	400037b7          	lui	a5,0x40003
    33dc:	01055713          	srli	a4,a0,0x10
    33e0:	0542                	slli	a0,a0,0x10
    33e2:	80e79c23          	sh	a4,-2024(a5) # 40002818 <_eusrstack+0x1fffa818>
    33e6:	8141                	srli	a0,a0,0x10
    33e8:	80a79e23          	sh	a0,-2020(a5)
    33ec:	f91ff0ef          	jal	ra,337c <RTC_ExitConfigMode>
    33f0:	0141                	addi	sp,sp,16
    33f2:	e63fc06f          	j	254 <__riscv_restore_0>

000033f6 <RTC_SetPrescaler>:
    33f6:	e3bfc2ef          	jal	t0,230 <__riscv_save_0>
    33fa:	1141                	addi	sp,sp,-16
    33fc:	c62a                	sw	a0,12(sp)
    33fe:	f6dff0ef          	jal	ra,336a <RTC_EnterConfigMode>
    3402:	4532                	lw	a0,12(sp)
    3404:	400037b7          	lui	a5,0x40003
    3408:	01055713          	srli	a4,a0,0x10
    340c:	8b3d                	andi	a4,a4,15
    340e:	0542                	slli	a0,a0,0x10
    3410:	80e79423          	sh	a4,-2040(a5) # 40002808 <_eusrstack+0x1fffa808>
    3414:	8141                	srli	a0,a0,0x10
    3416:	80a79623          	sh	a0,-2036(a5)
    341a:	f63ff0ef          	jal	ra,337c <RTC_ExitConfigMode>
    341e:	0141                	addi	sp,sp,16
    3420:	e35fc06f          	j	254 <__riscv_restore_0>

00003424 <RTC_WaitForLastTask>:
    3424:	40003737          	lui	a4,0x40003
    3428:	80475783          	lhu	a5,-2044(a4) # 40002804 <_eusrstack+0x1fffa804>
    342c:	0207f793          	andi	a5,a5,32
    3430:	dfe5                	beqz	a5,3428 <RTC_WaitForLastTask+0x4>
    3432:	8082                	ret

00003434 <RTC_WaitForSynchro>:
    3434:	40003737          	lui	a4,0x40003
    3438:	80475783          	lhu	a5,-2044(a4) # 40002804 <_eusrstack+0x1fffa804>
    343c:	07c2                	slli	a5,a5,0x10
    343e:	83c1                	srli	a5,a5,0x10
    3440:	9bdd                	andi	a5,a5,-9
    3442:	07c2                	slli	a5,a5,0x10
    3444:	83c1                	srli	a5,a5,0x10
    3446:	80f71223          	sh	a5,-2044(a4)
    344a:	40003737          	lui	a4,0x40003
    344e:	80475783          	lhu	a5,-2044(a4) # 40002804 <_eusrstack+0x1fffa804>
    3452:	8ba1                	andi	a5,a5,8
    3454:	dfed                	beqz	a5,344e <RTC_WaitForSynchro+0x1a>
    3456:	8082                	ret

00003458 <RTC_ClearFlag>:
    3458:	400037b7          	lui	a5,0x40003
    345c:	8047d703          	lhu	a4,-2044(a5) # 40002804 <_eusrstack+0x1fffa804>
    3460:	fff54513          	not	a0,a0
    3464:	8d79                	and	a0,a0,a4
    3466:	80a79223          	sh	a0,-2044(a5)
    346a:	8082                	ret

0000346c <RTC_GetITStatus>:
    346c:	40003737          	lui	a4,0x40003
    3470:	80475783          	lhu	a5,-2044(a4) # 40002804 <_eusrstack+0x1fffa804>
    3474:	80075703          	lhu	a4,-2048(a4)
    3478:	07c2                	slli	a5,a5,0x10
    347a:	8f69                	and	a4,a4,a0
    347c:	83c1                	srli	a5,a5,0x10
    347e:	c709                	beqz	a4,3488 <RTC_GetITStatus+0x1c>
    3480:	8d7d                	and	a0,a0,a5
    3482:	00a03533          	snez	a0,a0
    3486:	8082                	ret
    3488:	4501                	li	a0,0
    348a:	8082                	ret

0000348c <RTC_ClearITPendingBit>:
    348c:	da5fc2ef          	jal	t0,230 <__riscv_save_0>
    3490:	fc9ff0ef          	jal	ra,3458 <RTC_ClearFlag>
    3494:	dc1fc06f          	j	254 <__riscv_restore_0>

00003498 <TIM_TimeBaseInit>:
    3498:	211e                	lhu	a5,0(a0)
    349a:	40013737          	lui	a4,0x40013
    349e:	c0070693          	addi	a3,a4,-1024 # 40012c00 <_eusrstack+0x2000ac00>
    34a2:	07c2                	slli	a5,a5,0x10
    34a4:	83c1                	srli	a5,a5,0x10
    34a6:	04d50063          	beq	a0,a3,34e6 <TIM_TimeBaseInit+0x4e>
    34aa:	400006b7          	lui	a3,0x40000
    34ae:	02d50c63          	beq	a0,a3,34e6 <TIM_TimeBaseInit+0x4e>
    34b2:	40068693          	addi	a3,a3,1024 # 40000400 <_eusrstack+0x1fff8400>
    34b6:	02d50863          	beq	a0,a3,34e6 <TIM_TimeBaseInit+0x4e>
    34ba:	400016b7          	lui	a3,0x40001
    34be:	80068613          	addi	a2,a3,-2048 # 40000800 <_eusrstack+0x1fff8800>
    34c2:	02c50263          	beq	a0,a2,34e6 <TIM_TimeBaseInit+0x4e>
    34c6:	c0068693          	addi	a3,a3,-1024
    34ca:	00d50e63          	beq	a0,a3,34e6 <TIM_TimeBaseInit+0x4e>
    34ce:	40070713          	addi	a4,a4,1024
    34d2:	00e50a63          	beq	a0,a4,34e6 <TIM_TimeBaseInit+0x4e>
    34d6:	40015737          	lui	a4,0x40015
    34da:	c0070693          	addi	a3,a4,-1024 # 40014c00 <_eusrstack+0x2000cc00>
    34de:	00d50463          	beq	a0,a3,34e6 <TIM_TimeBaseInit+0x4e>
    34e2:	00e51663          	bne	a0,a4,34ee <TIM_TimeBaseInit+0x56>
    34e6:	21ba                	lhu	a4,2(a1)
    34e8:	f8f7f793          	andi	a5,a5,-113
    34ec:	8fd9                	or	a5,a5,a4
    34ee:	40001737          	lui	a4,0x40001
    34f2:	00e50c63          	beq	a0,a4,350a <TIM_TimeBaseInit+0x72>
    34f6:	40070713          	addi	a4,a4,1024 # 40001400 <_eusrstack+0x1fff9400>
    34fa:	00e50863          	beq	a0,a4,350a <TIM_TimeBaseInit+0x72>
    34fe:	cff7f793          	andi	a5,a5,-769
    3502:	21fa                	lhu	a4,6(a1)
    3504:	07c2                	slli	a5,a5,0x10
    3506:	83c1                	srli	a5,a5,0x10
    3508:	8fd9                	or	a5,a5,a4
    350a:	a11e                	sh	a5,0(a0)
    350c:	21de                	lhu	a5,4(a1)
    350e:	b55e                	sh	a5,44(a0)
    3510:	219e                	lhu	a5,0(a1)
    3512:	b51e                	sh	a5,40(a0)
    3514:	400137b7          	lui	a5,0x40013
    3518:	c0078713          	addi	a4,a5,-1024 # 40012c00 <_eusrstack+0x2000ac00>
    351c:	00e50e63          	beq	a0,a4,3538 <TIM_TimeBaseInit+0xa0>
    3520:	40078793          	addi	a5,a5,1024
    3524:	00f50a63          	beq	a0,a5,3538 <TIM_TimeBaseInit+0xa0>
    3528:	400157b7          	lui	a5,0x40015
    352c:	c0078713          	addi	a4,a5,-1024 # 40014c00 <_eusrstack+0x2000cc00>
    3530:	00e50463          	beq	a0,a4,3538 <TIM_TimeBaseInit+0xa0>
    3534:	00f51463          	bne	a0,a5,353c <TIM_TimeBaseInit+0xa4>
    3538:	259c                	lbu	a5,8(a1)
    353a:	b91e                	sh	a5,48(a0)
    353c:	4785                	li	a5,1
    353e:	a95e                	sh	a5,20(a0)
    3540:	8082                	ret

00003542 <TIM_OC2Init>:
    3542:	311e                	lhu	a5,32(a0)
    3544:	7765                	lui	a4,0xffff9
    3546:	cff70713          	addi	a4,a4,-769 # ffff8cff <_eusrstack+0xdfff0cff>
    354a:	07c2                	slli	a5,a5,0x10
    354c:	83c1                	srli	a5,a5,0x10
    354e:	9bbd                	andi	a5,a5,-17
    3550:	07c2                	slli	a5,a5,0x10
    3552:	83c1                	srli	a5,a5,0x10
    3554:	b11e                	sh	a5,32(a0)
    3556:	311e                	lhu	a5,32(a0)
    3558:	2156                	lhu	a3,4(a0)
    355a:	0085d803          	lhu	a6,8(a1) # 40021008 <_eusrstack+0x20019008>
    355e:	07c2                	slli	a5,a5,0x10
    3560:	01069613          	slli	a2,a3,0x10
    3564:	2d16                	lhu	a3,24(a0)
    3566:	83c1                	srli	a5,a5,0x10
    3568:	fdf7f793          	andi	a5,a5,-33
    356c:	8f75                	and	a4,a4,a3
    356e:	2196                	lhu	a3,0(a1)
    3570:	8241                	srli	a2,a2,0x10
    3572:	06a2                	slli	a3,a3,0x8
    3574:	8f55                	or	a4,a4,a3
    3576:	21b6                	lhu	a3,2(a1)
    3578:	0742                	slli	a4,a4,0x10
    357a:	8341                	srli	a4,a4,0x10
    357c:	0106e6b3          	or	a3,a3,a6
    3580:	0692                	slli	a3,a3,0x4
    3582:	8fd5                	or	a5,a5,a3
    3584:	400136b7          	lui	a3,0x40013
    3588:	07c2                	slli	a5,a5,0x10
    358a:	c0068813          	addi	a6,a3,-1024 # 40012c00 <_eusrstack+0x2000ac00>
    358e:	83c1                	srli	a5,a5,0x10
    3590:	01050e63          	beq	a0,a6,35ac <TIM_OC2Init+0x6a>
    3594:	40068693          	addi	a3,a3,1024
    3598:	00d50a63          	beq	a0,a3,35ac <TIM_OC2Init+0x6a>
    359c:	400156b7          	lui	a3,0x40015
    35a0:	c0068813          	addi	a6,a3,-1024 # 40014c00 <_eusrstack+0x2000cc00>
    35a4:	01050463          	beq	a0,a6,35ac <TIM_OC2Init+0x6a>
    35a8:	02d51e63          	bne	a0,a3,35e4 <TIM_OC2Init+0xa2>
    35ac:	25b6                	lhu	a3,10(a1)
    35ae:	f7f7f793          	andi	a5,a5,-129
    35b2:	00c5d803          	lhu	a6,12(a1)
    35b6:	0692                	slli	a3,a3,0x4
    35b8:	8fd5                	or	a5,a5,a3
    35ba:	21d6                	lhu	a3,4(a1)
    35bc:	07c2                	slli	a5,a5,0x10
    35be:	83c1                	srli	a5,a5,0x10
    35c0:	0692                	slli	a3,a3,0x4
    35c2:	fbf7f793          	andi	a5,a5,-65
    35c6:	8fd5                	or	a5,a5,a3
    35c8:	76fd                	lui	a3,0xfffff
    35ca:	3ff68693          	addi	a3,a3,1023 # fffff3ff <_eusrstack+0xdfff73ff>
    35ce:	8ef1                	and	a3,a3,a2
    35d0:	25f2                	lhu	a2,14(a1)
    35d2:	07c2                	slli	a5,a5,0x10
    35d4:	83c1                	srli	a5,a5,0x10
    35d6:	01066633          	or	a2,a2,a6
    35da:	060a                	slli	a2,a2,0x2
    35dc:	8ed1                	or	a3,a3,a2
    35de:	01069613          	slli	a2,a3,0x10
    35e2:	8241                	srli	a2,a2,0x10
    35e4:	a152                	sh	a2,4(a0)
    35e6:	ad1a                	sh	a4,24(a0)
    35e8:	21fa                	lhu	a4,6(a1)
    35ea:	bd1a                	sh	a4,56(a0)
    35ec:	b11e                	sh	a5,32(a0)
    35ee:	8082                	ret

000035f0 <TIM_Cmd>:
    35f0:	211e                	lhu	a5,0(a0)
    35f2:	c589                	beqz	a1,35fc <TIM_Cmd+0xc>
    35f4:	0017e793          	ori	a5,a5,1
    35f8:	a11e                	sh	a5,0(a0)
    35fa:	8082                	ret
    35fc:	07c2                	slli	a5,a5,0x10
    35fe:	83c1                	srli	a5,a5,0x10
    3600:	9bf9                	andi	a5,a5,-2
    3602:	07c2                	slli	a5,a5,0x10
    3604:	83c1                	srli	a5,a5,0x10
    3606:	bfcd                	j	35f8 <TIM_Cmd+0x8>

00003608 <TIM_ITConfig>:
    3608:	255e                	lhu	a5,12(a0)
    360a:	c601                	beqz	a2,3612 <TIM_ITConfig+0xa>
    360c:	8ddd                	or	a1,a1,a5
    360e:	a54e                	sh	a1,12(a0)
    3610:	8082                	ret
    3612:	fff5c593          	not	a1,a1
    3616:	8dfd                	and	a1,a1,a5
    3618:	bfdd                	j	360e <TIM_ITConfig+0x6>

0000361a <TIM_OC2PreloadConfig>:
    361a:	2d1a                	lhu	a4,24(a0)
    361c:	77fd                	lui	a5,0xfffff
    361e:	7ff78793          	addi	a5,a5,2047 # fffff7ff <_eusrstack+0xdfff77ff>
    3622:	8ff9                	and	a5,a5,a4
    3624:	05a2                	slli	a1,a1,0x8
    3626:	8fcd                	or	a5,a5,a1
    3628:	07c2                	slli	a5,a5,0x10
    362a:	83c1                	srli	a5,a5,0x10
    362c:	ad1e                	sh	a5,24(a0)
    362e:	8082                	ret

00003630 <TIM_SetCounter>:
    3630:	b14e                	sh	a1,36(a0)
    3632:	8082                	ret

00003634 <TIM_SetCompare2>:
    3634:	bd0e                	sh	a1,56(a0)
    3636:	8082                	ret

00003638 <TIM_GetCounter>:
    3638:	314a                	lhu	a0,36(a0)
    363a:	8082                	ret

0000363c <TIM_GetITStatus>:
    363c:	291e                	lhu	a5,16(a0)
    363e:	254a                	lhu	a0,12(a0)
    3640:	8fed                	and	a5,a5,a1
    3642:	0542                	slli	a0,a0,0x10
    3644:	8141                	srli	a0,a0,0x10
    3646:	c789                	beqz	a5,3650 <TIM_GetITStatus+0x14>
    3648:	8d6d                	and	a0,a0,a1
    364a:	00a03533          	snez	a0,a0
    364e:	8082                	ret
    3650:	4501                	li	a0,0
    3652:	8082                	ret

00003654 <TIM_ClearITPendingBit>:
    3654:	fff5c593          	not	a1,a1
    3658:	05c2                	slli	a1,a1,0x10
    365a:	81c1                	srli	a1,a1,0x10
    365c:	a90e                	sh	a1,16(a0)
    365e:	8082                	ret

00003660 <USART_Init>:
    3660:	bd1fc2ef          	jal	t0,230 <__riscv_save_0>
    3664:	2916                	lhu	a3,16(a0)
    3666:	77f5                	lui	a5,0xffffd
    3668:	17fd                	addi	a5,a5,-1
    366a:	8ff5                	and	a5,a5,a3
    366c:	21f6                	lhu	a3,6(a1)
    366e:	25da                	lhu	a4,12(a1)
    3670:	7179                	addi	sp,sp,-48
    3672:	8fd5                	or	a5,a5,a3
    3674:	a91e                	sh	a5,16(a0)
    3676:	2556                	lhu	a3,12(a0)
    3678:	77fd                	lui	a5,0xfffff
    367a:	9f378793          	addi	a5,a5,-1549 # ffffe9f3 <_eusrstack+0xdfff69f3>
    367e:	8ff5                	and	a5,a5,a3
    3680:	21d6                	lhu	a3,4(a1)
    3682:	842a                	mv	s0,a0
    3684:	c62e                	sw	a1,12(sp)
    3686:	8fd5                	or	a5,a5,a3
    3688:	2596                	lhu	a3,8(a1)
    368a:	8fd5                	or	a5,a5,a3
    368c:	25b6                	lhu	a3,10(a1)
    368e:	8fd5                	or	a5,a5,a3
    3690:	a55e                	sh	a5,12(a0)
    3692:	295e                	lhu	a5,20(a0)
    3694:	07c2                	slli	a5,a5,0x10
    3696:	83c1                	srli	a5,a5,0x10
    3698:	cff7f793          	andi	a5,a5,-769
    369c:	8fd9                	or	a5,a5,a4
    369e:	a95e                	sh	a5,20(a0)
    36a0:	0868                	addi	a0,sp,28
    36a2:	a73ff0ef          	jal	ra,3114 <RCC_GetClocksFreq>
    36a6:	400147b7          	lui	a5,0x40014
    36aa:	80078793          	addi	a5,a5,-2048 # 40013800 <_eusrstack+0x2000b800>
    36ae:	45b2                	lw	a1,12(sp)
    36b0:	04f41a63          	bne	s0,a5,3704 <USART_Init+0xa4>
    36b4:	57a2                	lw	a5,40(sp)
    36b6:	2456                	lhu	a3,12(s0)
    36b8:	4765                	li	a4,25
    36ba:	02e787b3          	mul	a5,a5,a4
    36be:	06c2                	slli	a3,a3,0x10
    36c0:	86c1                	srai	a3,a3,0x10
    36c2:	4198                	lw	a4,0(a1)
    36c4:	0406d263          	bgez	a3,3708 <USART_Init+0xa8>
    36c8:	0706                	slli	a4,a4,0x1
    36ca:	2452                	lhu	a2,12(s0)
    36cc:	0642                	slli	a2,a2,0x10
    36ce:	02e7d7b3          	divu	a5,a5,a4
    36d2:	06400713          	li	a4,100
    36d6:	8641                	srai	a2,a2,0x10
    36d8:	02e7d6b3          	divu	a3,a5,a4
    36dc:	02e7f7b3          	remu	a5,a5,a4
    36e0:	0692                	slli	a3,a3,0x4
    36e2:	02065563          	bgez	a2,370c <USART_Init+0xac>
    36e6:	078e                	slli	a5,a5,0x3
    36e8:	03278793          	addi	a5,a5,50
    36ec:	02e7d7b3          	divu	a5,a5,a4
    36f0:	0077f713          	andi	a4,a5,7
    36f4:	00d767b3          	or	a5,a4,a3
    36f8:	07c2                	slli	a5,a5,0x10
    36fa:	83c1                	srli	a5,a5,0x10
    36fc:	a41e                	sh	a5,8(s0)
    36fe:	6145                	addi	sp,sp,48
    3700:	b55fc06f          	j	254 <__riscv_restore_0>
    3704:	5792                	lw	a5,36(sp)
    3706:	bf45                	j	36b6 <USART_Init+0x56>
    3708:	070a                	slli	a4,a4,0x2
    370a:	b7c1                	j	36ca <USART_Init+0x6a>
    370c:	0792                	slli	a5,a5,0x4
    370e:	03278793          	addi	a5,a5,50
    3712:	02e7d7b3          	divu	a5,a5,a4
    3716:	8bbd                	andi	a5,a5,15
    3718:	8fd5                	or	a5,a5,a3
    371a:	bff9                	j	36f8 <USART_Init+0x98>

0000371c <USART_Cmd>:
    371c:	c591                	beqz	a1,3728 <USART_Cmd+0xc>
    371e:	255e                	lhu	a5,12(a0)
    3720:	6709                	lui	a4,0x2
    3722:	8fd9                	or	a5,a5,a4
    3724:	a55e                	sh	a5,12(a0)
    3726:	8082                	ret
    3728:	255a                	lhu	a4,12(a0)
    372a:	77f9                	lui	a5,0xffffe
    372c:	17fd                	addi	a5,a5,-1
    372e:	8ff9                	and	a5,a5,a4
    3730:	bfd5                	j	3724 <USART_Cmd+0x8>

00003732 <USART_ITConfig>:
    3732:	0ff5f713          	andi	a4,a1,255
    3736:	4785                	li	a5,1
    3738:	8315                	srli	a4,a4,0x5
    373a:	00b795b3          	sll	a1,a5,a1
    373e:	00f71963          	bne	a4,a5,3750 <USART_ITConfig+0x1e>
    3742:	00c50793          	addi	a5,a0,12
    3746:	4398                	lw	a4,0(a5)
    3748:	ce01                	beqz	a2,3760 <USART_ITConfig+0x2e>
    374a:	8dd9                	or	a1,a1,a4
    374c:	c38c                	sw	a1,0(a5)
    374e:	8082                	ret
    3750:	4689                	li	a3,2
    3752:	01450793          	addi	a5,a0,20
    3756:	fed718e3          	bne	a4,a3,3746 <USART_ITConfig+0x14>
    375a:	01050793          	addi	a5,a0,16
    375e:	b7e5                	j	3746 <USART_ITConfig+0x14>
    3760:	fff5c593          	not	a1,a1
    3764:	8df9                	and	a1,a1,a4
    3766:	b7dd                	j	374c <USART_ITConfig+0x1a>

00003768 <USART_DMACmd>:
    3768:	295e                	lhu	a5,20(a0)
    376a:	c601                	beqz	a2,3772 <USART_DMACmd+0xa>
    376c:	8ddd                	or	a1,a1,a5
    376e:	a94e                	sh	a1,20(a0)
    3770:	8082                	ret
    3772:	fff5c593          	not	a1,a1
    3776:	8dfd                	and	a1,a1,a5
    3778:	bfdd                	j	376e <USART_DMACmd+0x6>

0000377a <USART_SendData>:
    377a:	1ff5f593          	andi	a1,a1,511
    377e:	a14e                	sh	a1,4(a0)
    3780:	8082                	ret

00003782 <USART_ReceiveData>:
    3782:	214a                	lhu	a0,4(a0)
    3784:	1ff57513          	andi	a0,a0,511
    3788:	8082                	ret

0000378a <USART_GetFlagStatus>:
    378a:	210a                	lhu	a0,0(a0)
    378c:	8d6d                	and	a0,a0,a1
    378e:	00a03533          	snez	a0,a0
    3792:	8082                	ret

00003794 <USART_GetITStatus>:
    3794:	0ff5f713          	andi	a4,a1,255
    3798:	4685                	li	a3,1
    379a:	8315                	srli	a4,a4,0x5
    379c:	00b697b3          	sll	a5,a3,a1
    37a0:	02d71163          	bne	a4,a3,37c2 <USART_GetITStatus+0x2e>
    37a4:	255a                	lhu	a4,12(a0)
    37a6:	8ff9                	and	a5,a5,a4
    37a8:	211a                	lhu	a4,0(a0)
    37aa:	4501                	li	a0,0
    37ac:	0742                	slli	a4,a4,0x10
    37ae:	8341                	srli	a4,a4,0x10
    37b0:	cb81                	beqz	a5,37c0 <USART_GetITStatus+0x2c>
    37b2:	4505                	li	a0,1
    37b4:	81a1                	srli	a1,a1,0x8
    37b6:	00b515b3          	sll	a1,a0,a1
    37ba:	8f6d                	and	a4,a4,a1
    37bc:	00e03533          	snez	a0,a4
    37c0:	8082                	ret
    37c2:	4689                	li	a3,2
    37c4:	00d71463          	bne	a4,a3,37cc <USART_GetITStatus+0x38>
    37c8:	291a                	lhu	a4,16(a0)
    37ca:	bff1                	j	37a6 <USART_GetITStatus+0x12>
    37cc:	295a                	lhu	a4,20(a0)
    37ce:	bfe1                	j	37a6 <USART_GetITStatus+0x12>

000037d0 <Delay_Init>:
    37d0:	200007b7          	lui	a5,0x20000
    37d4:	1f47a783          	lw	a5,500(a5) # 200001f4 <SystemCoreClock>
    37d8:	007a1737          	lui	a4,0x7a1
    37dc:	20070713          	addi	a4,a4,512 # 7a1200 <_data_lma+0x794e3c>
    37e0:	02e7d7b3          	divu	a5,a5,a4
    37e4:	0ff7f793          	andi	a5,a5,255
    37e8:	8ef18923          	sb	a5,-1806(gp) # 200002e2 <p_us>
    37ec:	3e800713          	li	a4,1000
    37f0:	02e787b3          	mul	a5,a5,a4
    37f4:	8ef19823          	sh	a5,-1808(gp) # 200002e0 <p_ms>
    37f8:	8082                	ret

000037fa <Delay_Us>:
    37fa:	e000f7b7          	lui	a5,0xe000f
    37fe:	43d8                	lw	a4,4(a5)
    3800:	4681                	li	a3,0
    3802:	9b79                	andi	a4,a4,-2
    3804:	c3d8                	sw	a4,4(a5)
    3806:	8f21c703          	lbu	a4,-1806(gp) # 200002e2 <p_us>
    380a:	02a70633          	mul	a2,a4,a0
    380e:	cb90                	sw	a2,16(a5)
    3810:	cbd4                	sw	a3,20(a5)
    3812:	4398                	lw	a4,0(a5)
    3814:	01076713          	ori	a4,a4,16
    3818:	c398                	sw	a4,0(a5)
    381a:	4398                	lw	a4,0(a5)
    381c:	02176713          	ori	a4,a4,33
    3820:	c398                	sw	a4,0(a5)
    3822:	43d8                	lw	a4,4(a5)
    3824:	8b05                	andi	a4,a4,1
    3826:	df75                	beqz	a4,3822 <Delay_Us+0x28>
    3828:	4398                	lw	a4,0(a5)
    382a:	9b79                	andi	a4,a4,-2
    382c:	c398                	sw	a4,0(a5)
    382e:	8082                	ret

00003830 <Delay_Ms>:
    3830:	e000f7b7          	lui	a5,0xe000f
    3834:	43d8                	lw	a4,4(a5)
    3836:	4681                	li	a3,0
    3838:	9b79                	andi	a4,a4,-2
    383a:	c3d8                	sw	a4,4(a5)
    383c:	8f01d703          	lhu	a4,-1808(gp) # 200002e0 <p_ms>
    3840:	02a70633          	mul	a2,a4,a0
    3844:	cb90                	sw	a2,16(a5)
    3846:	cbd4                	sw	a3,20(a5)
    3848:	4398                	lw	a4,0(a5)
    384a:	01076713          	ori	a4,a4,16
    384e:	c398                	sw	a4,0(a5)
    3850:	4398                	lw	a4,0(a5)
    3852:	02176713          	ori	a4,a4,33
    3856:	c398                	sw	a4,0(a5)
    3858:	43d8                	lw	a4,4(a5)
    385a:	8b05                	andi	a4,a4,1
    385c:	df75                	beqz	a4,3858 <Delay_Ms+0x28>
    385e:	4398                	lw	a4,0(a5)
    3860:	9b79                	andi	a4,a4,-2
    3862:	c398                	sw	a4,0(a5)
    3864:	8082                	ret

00003866 <USART_Printf_Init>:
    3866:	9cbfc2ef          	jal	t0,230 <__riscv_save_0>
    386a:	842a                	mv	s0,a0
    386c:	6511                	lui	a0,0x4
    386e:	1101                	addi	sp,sp,-32
    3870:	4585                	li	a1,1
    3872:	0511                	addi	a0,a0,4
    3874:	a35ff0ef          	jal	ra,32a8 <RCC_APB2PeriphClockCmd>
    3878:	20000793          	li	a5,512
    387c:	827c                	sh	a5,4(sp)
    387e:	40011537          	lui	a0,0x40011
    3882:	478d                	li	a5,3
    3884:	c43e                	sw	a5,8(sp)
    3886:	004c                	addi	a1,sp,4
    3888:	47e1                	li	a5,24
    388a:	80050513          	addi	a0,a0,-2048 # 40010800 <_eusrstack+0x20008800>
    388e:	c63e                	sw	a5,12(sp)
    3890:	d66ff0ef          	jal	ra,2df6 <GPIO_Init>
    3894:	c822                	sw	s0,16(sp)
    3896:	40014437          	lui	s0,0x40014
    389a:	000807b7          	lui	a5,0x80
    389e:	080c                	addi	a1,sp,16
    38a0:	80040513          	addi	a0,s0,-2048 # 40013800 <_eusrstack+0x2000b800>
    38a4:	cc3e                	sw	a5,24(sp)
    38a6:	ca02                	sw	zero,20(sp)
    38a8:	00011e23          	sh	zero,28(sp)
    38ac:	db5ff0ef          	jal	ra,3660 <USART_Init>
    38b0:	4585                	li	a1,1
    38b2:	80040513          	addi	a0,s0,-2048
    38b6:	e67ff0ef          	jal	ra,371c <USART_Cmd>
    38ba:	6105                	addi	sp,sp,32
    38bc:	999fc06f          	j	254 <__riscv_restore_0>

000038c0 <_write>:
    38c0:	957fc2ef          	jal	t0,216 <__riscv_save_4>
    38c4:	400144b7          	lui	s1,0x40014
    38c8:	89ae                	mv	s3,a1
    38ca:	8932                	mv	s2,a2
    38cc:	4401                	li	s0,0
    38ce:	80048493          	addi	s1,s1,-2048 # 40013800 <_eusrstack+0x2000b800>
    38d2:	01244563          	blt	s0,s2,38dc <_write+0x1c>
    38d6:	854a                	mv	a0,s2
    38d8:	973fc06f          	j	24a <__riscv_restore_4>
    38dc:	04000593          	li	a1,64
    38e0:	8526                	mv	a0,s1
    38e2:	ea9ff0ef          	jal	ra,378a <USART_GetFlagStatus>
    38e6:	d97d                	beqz	a0,38dc <_write+0x1c>
    38e8:	008987b3          	add	a5,s3,s0
    38ec:	00078583          	lb	a1,0(a5) # 80000 <_data_lma+0x73c3c>
    38f0:	8526                	mv	a0,s1
    38f2:	0405                	addi	s0,s0,1
    38f4:	05c2                	slli	a1,a1,0x10
    38f6:	81c1                	srli	a1,a1,0x10
    38f8:	e83ff0ef          	jal	ra,377a <USART_SendData>
    38fc:	bfd9                	j	38d2 <_write+0x12>

000038fe <_sbrk>:
    38fe:	80c18713          	addi	a4,gp,-2036 # 200001fc <curbrk.5218>
    3902:	431c                	lw	a5,0(a4)
    3904:	bc018693          	addi	a3,gp,-1088 # 200005b0 <_ebss>
    3908:	953e                	add	a0,a0,a5
    390a:	00d56b63          	bltu	a0,a3,3920 <_sbrk+0x22>
    390e:	200086b7          	lui	a3,0x20008
    3912:	80068693          	addi	a3,a3,-2048 # 20007800 <_heap_end>
    3916:	00a6e563          	bltu	a3,a0,3920 <_sbrk+0x22>
    391a:	c308                	sw	a0,0(a4)
    391c:	853e                	mv	a0,a5
    391e:	8082                	ret
    3920:	57fd                	li	a5,-1
    3922:	bfed                	j	391c <_sbrk+0x1e>

00003924 <__divdf3>:
    3924:	7139                	addi	sp,sp,-64
    3926:	0145d793          	srli	a5,a1,0x14
    392a:	dc22                	sw	s0,56(sp)
    392c:	d84a                	sw	s2,48(sp)
    392e:	d256                	sw	s5,36(sp)
    3930:	892a                	mv	s2,a0
    3932:	00c59413          	slli	s0,a1,0xc
    3936:	de06                	sw	ra,60(sp)
    3938:	da26                	sw	s1,52(sp)
    393a:	d64e                	sw	s3,44(sp)
    393c:	d452                	sw	s4,40(sp)
    393e:	d05a                	sw	s6,32(sp)
    3940:	ce5e                	sw	s7,28(sp)
    3942:	7ff7f513          	andi	a0,a5,2047
    3946:	8031                	srli	s0,s0,0xc
    3948:	01f5da93          	srli	s5,a1,0x1f
    394c:	10050b63          	beqz	a0,3a62 <__divdf3+0x13e>
    3950:	7ff00793          	li	a5,2047
    3954:	14f50b63          	beq	a0,a5,3aaa <__divdf3+0x186>
    3958:	01d95a13          	srli	s4,s2,0x1d
    395c:	040e                	slli	s0,s0,0x3
    395e:	008a6433          	or	s0,s4,s0
    3962:	00800a37          	lui	s4,0x800
    3966:	01446a33          	or	s4,s0,s4
    396a:	00391b13          	slli	s6,s2,0x3
    396e:	c0150493          	addi	s1,a0,-1023
    3972:	4401                	li	s0,0
    3974:	4b81                	li	s7,0
    3976:	0146d813          	srli	a6,a3,0x14
    397a:	00c69913          	slli	s2,a3,0xc
    397e:	7ff87813          	andi	a6,a6,2047
    3982:	88b2                	mv	a7,a2
    3984:	00c95913          	srli	s2,s2,0xc
    3988:	01f6d993          	srli	s3,a3,0x1f
    398c:	08080e63          	beqz	a6,3a28 <__divdf3+0x104>
    3990:	7ff00793          	li	a5,2047
    3994:	04f80063          	beq	a6,a5,39d4 <__divdf3+0xb0>
    3998:	01d65713          	srli	a4,a2,0x1d
    399c:	090e                	slli	s2,s2,0x3
    399e:	01276933          	or	s2,a4,s2
    39a2:	c0180813          	addi	a6,a6,-1023
    39a6:	008007b7          	lui	a5,0x800
    39aa:	00f96733          	or	a4,s2,a5
    39ae:	00361893          	slli	a7,a2,0x3
    39b2:	410484b3          	sub	s1,s1,a6
    39b6:	4581                	li	a1,0
    39b8:	47bd                	li	a5,15
    39ba:	013ac833          	xor	a6,s5,s3
    39be:	1a87e463          	bltu	a5,s0,3b66 <__divdf3+0x242>
    39c2:	00008797          	auipc	a5,0x8
    39c6:	3f678793          	addi	a5,a5,1014 # bdb8 <table_week+0x7c>
    39ca:	040a                	slli	s0,s0,0x2
    39cc:	943e                	add	s0,s0,a5
    39ce:	4010                	lw	a2,0(s0)
    39d0:	963e                	add	a2,a2,a5
    39d2:	8602                	jr	a2
    39d4:	00c96733          	or	a4,s2,a2
    39d8:	80148493          	addi	s1,s1,-2047
    39dc:	10071263          	bnez	a4,3ae0 <__divdf3+0x1bc>
    39e0:	00246413          	ori	s0,s0,2
    39e4:	4881                	li	a7,0
    39e6:	4589                	li	a1,2
    39e8:	bfc1                	j	39b8 <__divdf3+0x94>
    39ea:	7ff00613          	li	a2,2047
    39ee:	4781                	li	a5,0
    39f0:	4701                	li	a4,0
    39f2:	07b2                	slli	a5,a5,0xc
    39f4:	50f2                	lw	ra,60(sp)
    39f6:	5462                	lw	s0,56(sp)
    39f8:	0652                	slli	a2,a2,0x14
    39fa:	83b1                	srli	a5,a5,0xc
    39fc:	087e                	slli	a6,a6,0x1f
    39fe:	8fd1                	or	a5,a5,a2
    3a00:	0107e7b3          	or	a5,a5,a6
    3a04:	54d2                	lw	s1,52(sp)
    3a06:	5942                	lw	s2,48(sp)
    3a08:	59b2                	lw	s3,44(sp)
    3a0a:	5a22                	lw	s4,40(sp)
    3a0c:	5a92                	lw	s5,36(sp)
    3a0e:	5b02                	lw	s6,32(sp)
    3a10:	4bf2                	lw	s7,28(sp)
    3a12:	853a                	mv	a0,a4
    3a14:	85be                	mv	a1,a5
    3a16:	6121                	addi	sp,sp,64
    3a18:	8082                	ret
    3a1a:	4801                	li	a6,0
    3a1c:	7ff00613          	li	a2,2047
    3a20:	000807b7          	lui	a5,0x80
    3a24:	4701                	li	a4,0
    3a26:	b7f1                	j	39f2 <__divdf3+0xce>
    3a28:	00c96733          	or	a4,s2,a2
    3a2c:	c74d                	beqz	a4,3ad6 <__divdf3+0x1b2>
    3a2e:	30090863          	beqz	s2,3d3e <__divdf3+0x41a>
    3a32:	854a                	mv	a0,s2
    3a34:	c432                	sw	a2,8(sp)
    3a36:	476020ef          	jal	ra,5eac <__clzsi2>
    3a3a:	4622                	lw	a2,8(sp)
    3a3c:	ff550713          	addi	a4,a0,-11
    3a40:	47f5                	li	a5,29
    3a42:	ff850693          	addi	a3,a0,-8
    3a46:	8f99                	sub	a5,a5,a4
    3a48:	00d91933          	sll	s2,s2,a3
    3a4c:	00f657b3          	srl	a5,a2,a5
    3a50:	0127e733          	or	a4,a5,s2
    3a54:	00d618b3          	sll	a7,a2,a3
    3a58:	9526                	add	a0,a0,s1
    3a5a:	3f350493          	addi	s1,a0,1011
    3a5e:	4581                	li	a1,0
    3a60:	bfa1                	j	39b8 <__divdf3+0x94>
    3a62:	01246a33          	or	s4,s0,s2
    3a66:	060a0363          	beqz	s4,3acc <__divdf3+0x1a8>
    3a6a:	c636                	sw	a3,12(sp)
    3a6c:	c432                	sw	a2,8(sp)
    3a6e:	2a040663          	beqz	s0,3d1a <__divdf3+0x3f6>
    3a72:	8522                	mv	a0,s0
    3a74:	438020ef          	jal	ra,5eac <__clzsi2>
    3a78:	4622                	lw	a2,8(sp)
    3a7a:	46b2                	lw	a3,12(sp)
    3a7c:	84aa                	mv	s1,a0
    3a7e:	ff550713          	addi	a4,a0,-11
    3a82:	4a75                	li	s4,29
    3a84:	ff848b13          	addi	s6,s1,-8
    3a88:	40ea0a33          	sub	s4,s4,a4
    3a8c:	01641433          	sll	s0,s0,s6
    3a90:	01495a33          	srl	s4,s2,s4
    3a94:	008a6a33          	or	s4,s4,s0
    3a98:	01691b33          	sll	s6,s2,s6
    3a9c:	c0d00513          	li	a0,-1011
    3aa0:	409504b3          	sub	s1,a0,s1
    3aa4:	4401                	li	s0,0
    3aa6:	4b81                	li	s7,0
    3aa8:	b5f9                	j	3976 <__divdf3+0x52>
    3aaa:	01246a33          	or	s4,s0,s2
    3aae:	000a1863          	bnez	s4,3abe <__divdf3+0x19a>
    3ab2:	4421                	li	s0,8
    3ab4:	4b01                	li	s6,0
    3ab6:	7ff00493          	li	s1,2047
    3aba:	4b89                	li	s7,2
    3abc:	bd6d                	j	3976 <__divdf3+0x52>
    3abe:	8a22                	mv	s4,s0
    3ac0:	8b4a                	mv	s6,s2
    3ac2:	4431                	li	s0,12
    3ac4:	7ff00493          	li	s1,2047
    3ac8:	4b8d                	li	s7,3
    3aca:	b575                	j	3976 <__divdf3+0x52>
    3acc:	4411                	li	s0,4
    3ace:	4b01                	li	s6,0
    3ad0:	4481                	li	s1,0
    3ad2:	4b85                	li	s7,1
    3ad4:	b54d                	j	3976 <__divdf3+0x52>
    3ad6:	00146413          	ori	s0,s0,1
    3ada:	4881                	li	a7,0
    3adc:	4585                	li	a1,1
    3ade:	bde9                	j	39b8 <__divdf3+0x94>
    3ae0:	00346413          	ori	s0,s0,3
    3ae4:	874a                	mv	a4,s2
    3ae6:	458d                	li	a1,3
    3ae8:	bdc1                	j	39b8 <__divdf3+0x94>
    3aea:	2e050a63          	beqz	a0,3dde <__divdf3+0x4ba>
    3aee:	4785                	li	a5,1
    3af0:	8f89                	sub	a5,a5,a0
    3af2:	03800693          	li	a3,56
    3af6:	32f6dd63          	bge	a3,a5,3e30 <__divdf3+0x50c>
    3afa:	4601                	li	a2,0
    3afc:	4781                	li	a5,0
    3afe:	4701                	li	a4,0
    3b00:	bdcd                	j	39f2 <__divdf3+0xce>
    3b02:	86ce                	mv	a3,s3
    3b04:	4789                	li	a5,2
    3b06:	3af58d63          	beq	a1,a5,3ec0 <__divdf3+0x59c>
    3b0a:	478d                	li	a5,3
    3b0c:	f0f587e3          	beq	a1,a5,3a1a <__divdf3+0xf6>
    3b10:	4785                	li	a5,1
    3b12:	8836                	mv	a6,a3
    3b14:	fef583e3          	beq	a1,a5,3afa <__divdf3+0x1d6>
    3b18:	3ff48513          	addi	a0,s1,1023
    3b1c:	fca057e3          	blez	a0,3aea <__divdf3+0x1c6>
    3b20:	0078f793          	andi	a5,a7,7
    3b24:	28079663          	bnez	a5,3db0 <__divdf3+0x48c>
    3b28:	0038d693          	srli	a3,a7,0x3
    3b2c:	00771793          	slli	a5,a4,0x7
    3b30:	0007d863          	bgez	a5,3b40 <__divdf3+0x21c>
    3b34:	ff0007b7          	lui	a5,0xff000
    3b38:	17fd                	addi	a5,a5,-1
    3b3a:	8f7d                	and	a4,a4,a5
    3b3c:	40048513          	addi	a0,s1,1024
    3b40:	7fe00793          	li	a5,2046
    3b44:	eaa7c3e3          	blt	a5,a0,39ea <__divdf3+0xc6>
    3b48:	01d71613          	slli	a2,a4,0x1d
    3b4c:	00971793          	slli	a5,a4,0x9
    3b50:	83b1                	srli	a5,a5,0xc
    3b52:	00d66733          	or	a4,a2,a3
    3b56:	7ff57613          	andi	a2,a0,2047
    3b5a:	bd61                	j	39f2 <__divdf3+0xce>
    3b5c:	86d6                	mv	a3,s5
    3b5e:	8752                	mv	a4,s4
    3b60:	88da                	mv	a7,s6
    3b62:	85de                	mv	a1,s7
    3b64:	b745                	j	3b04 <__divdf3+0x1e0>
    3b66:	23476163          	bltu	a4,s4,3d88 <__divdf3+0x464>
    3b6a:	20ea0d63          	beq	s4,a4,3d84 <__divdf3+0x460>
    3b6e:	86da                	mv	a3,s6
    3b70:	14fd                	addi	s1,s1,-1
    3b72:	8452                	mv	s0,s4
    3b74:	4b01                	li	s6,0
    3b76:	00871793          	slli	a5,a4,0x8
    3b7a:	0188d313          	srli	t1,a7,0x18
    3b7e:	00f36333          	or	t1,t1,a5
    3b82:	01035e93          	srli	t4,t1,0x10
    3b86:	03d457b3          	divu	a5,s0,t4
    3b8a:	01031f13          	slli	t5,t1,0x10
    3b8e:	010f5f13          	srli	t5,t5,0x10
    3b92:	0106d593          	srli	a1,a3,0x10
    3b96:	00889e13          	slli	t3,a7,0x8
    3b9a:	03d47433          	remu	s0,s0,t4
    3b9e:	02ff0733          	mul	a4,t5,a5
    3ba2:	0442                	slli	s0,s0,0x10
    3ba4:	8dc1                	or	a1,a1,s0
    3ba6:	00e5fb63          	bgeu	a1,a4,3bbc <__divdf3+0x298>
    3baa:	959a                	add	a1,a1,t1
    3bac:	fff78613          	addi	a2,a5,-1 # feffffff <_eusrstack+0xdeff7fff>
    3bb0:	2665ee63          	bltu	a1,t1,3e2c <__divdf3+0x508>
    3bb4:	26e5fc63          	bgeu	a1,a4,3e2c <__divdf3+0x508>
    3bb8:	17f9                	addi	a5,a5,-2
    3bba:	959a                	add	a1,a1,t1
    3bbc:	8d99                	sub	a1,a1,a4
    3bbe:	03d5d733          	divu	a4,a1,t4
    3bc2:	06c2                	slli	a3,a3,0x10
    3bc4:	82c1                	srli	a3,a3,0x10
    3bc6:	03d5f5b3          	remu	a1,a1,t4
    3bca:	02ef0633          	mul	a2,t5,a4
    3bce:	05c2                	slli	a1,a1,0x10
    3bd0:	8dd5                	or	a1,a1,a3
    3bd2:	00c5fb63          	bgeu	a1,a2,3be8 <__divdf3+0x2c4>
    3bd6:	959a                	add	a1,a1,t1
    3bd8:	fff70693          	addi	a3,a4,-1
    3bdc:	2465e663          	bltu	a1,t1,3e28 <__divdf3+0x504>
    3be0:	24c5f463          	bgeu	a1,a2,3e28 <__divdf3+0x504>
    3be4:	1779                	addi	a4,a4,-2
    3be6:	959a                	add	a1,a1,t1
    3be8:	07c2                	slli	a5,a5,0x10
    3bea:	6441                	lui	s0,0x10
    3bec:	8f5d                	or	a4,a4,a5
    3bee:	fff40793          	addi	a5,s0,-1 # ffff <_data_lma+0x3c3b>
    3bf2:	00f77533          	and	a0,a4,a5
    3bf6:	01075893          	srli	a7,a4,0x10
    3bfa:	010e5f93          	srli	t6,t3,0x10
    3bfe:	00fe77b3          	and	a5,t3,a5
    3c02:	02f502b3          	mul	t0,a0,a5
    3c06:	40c586b3          	sub	a3,a1,a2
    3c0a:	02f883b3          	mul	t2,a7,a5
    3c0e:	0102d593          	srli	a1,t0,0x10
    3c12:	02af8633          	mul	a2,t6,a0
    3c16:	961e                	add	a2,a2,t2
    3c18:	962e                	add	a2,a2,a1
    3c1a:	03f88533          	mul	a0,a7,t6
    3c1e:	00767363          	bgeu	a2,t2,3c24 <__divdf3+0x300>
    3c22:	9522                	add	a0,a0,s0
    3c24:	68c1                	lui	a7,0x10
    3c26:	18fd                	addi	a7,a7,-1
    3c28:	01065593          	srli	a1,a2,0x10
    3c2c:	01167633          	and	a2,a2,a7
    3c30:	0642                	slli	a2,a2,0x10
    3c32:	0112f8b3          	and	a7,t0,a7
    3c36:	95aa                	add	a1,a1,a0
    3c38:	9646                	add	a2,a2,a7
    3c3a:	12b6e663          	bltu	a3,a1,3d66 <__divdf3+0x442>
    3c3e:	12b68263          	beq	a3,a1,3d62 <__divdf3+0x43e>
    3c42:	40cb0633          	sub	a2,s6,a2
    3c46:	8e8d                	sub	a3,a3,a1
    3c48:	00cb3b33          	sltu	s6,s6,a2
    3c4c:	41668b33          	sub	s6,a3,s6
    3c50:	3ff48513          	addi	a0,s1,1023
    3c54:	17630c63          	beq	t1,s6,3dcc <__divdf3+0x4a8>
    3c58:	03db58b3          	divu	a7,s6,t4
    3c5c:	01065593          	srli	a1,a2,0x10
    3c60:	03db7b33          	remu	s6,s6,t4
    3c64:	031f06b3          	mul	a3,t5,a7
    3c68:	0b42                	slli	s6,s6,0x10
    3c6a:	0165eb33          	or	s6,a1,s6
    3c6e:	00db7b63          	bgeu	s6,a3,3c84 <__divdf3+0x360>
    3c72:	9b1a                	add	s6,s6,t1
    3c74:	fff88593          	addi	a1,a7,-1 # ffff <_data_lma+0x3c3b>
    3c78:	206b6d63          	bltu	s6,t1,3e92 <__divdf3+0x56e>
    3c7c:	20db7b63          	bgeu	s6,a3,3e92 <__divdf3+0x56e>
    3c80:	18f9                	addi	a7,a7,-2
    3c82:	9b1a                	add	s6,s6,t1
    3c84:	40db0b33          	sub	s6,s6,a3
    3c88:	03db56b3          	divu	a3,s6,t4
    3c8c:	0642                	slli	a2,a2,0x10
    3c8e:	8241                	srli	a2,a2,0x10
    3c90:	03db7b33          	remu	s6,s6,t4
    3c94:	02df0f33          	mul	t5,t5,a3
    3c98:	0b42                	slli	s6,s6,0x10
    3c9a:	01666633          	or	a2,a2,s6
    3c9e:	01e67b63          	bgeu	a2,t5,3cb4 <__divdf3+0x390>
    3ca2:	961a                	add	a2,a2,t1
    3ca4:	fff68593          	addi	a1,a3,-1
    3ca8:	1e666763          	bltu	a2,t1,3e96 <__divdf3+0x572>
    3cac:	1fe67563          	bgeu	a2,t5,3e96 <__divdf3+0x572>
    3cb0:	16f9                	addi	a3,a3,-2
    3cb2:	961a                	add	a2,a2,t1
    3cb4:	08c2                	slli	a7,a7,0x10
    3cb6:	00d8e8b3          	or	a7,a7,a3
    3cba:	01089593          	slli	a1,a7,0x10
    3cbe:	0108d293          	srli	t0,a7,0x10
    3cc2:	81c1                	srli	a1,a1,0x10
    3cc4:	02f58eb3          	mul	t4,a1,a5
    3cc8:	41e60633          	sub	a2,a2,t5
    3ccc:	02bf85b3          	mul	a1,t6,a1
    3cd0:	010ed693          	srli	a3,t4,0x10
    3cd4:	02f287b3          	mul	a5,t0,a5
    3cd8:	95be                	add	a1,a1,a5
    3cda:	96ae                	add	a3,a3,a1
    3cdc:	025f8fb3          	mul	t6,t6,t0
    3ce0:	00f6f463          	bgeu	a3,a5,3ce8 <__divdf3+0x3c4>
    3ce4:	67c1                	lui	a5,0x10
    3ce6:	9fbe                	add	t6,t6,a5
    3ce8:	65c1                	lui	a1,0x10
    3cea:	15fd                	addi	a1,a1,-1
    3cec:	0106d793          	srli	a5,a3,0x10
    3cf0:	8eed                	and	a3,a3,a1
    3cf2:	06c2                	slli	a3,a3,0x10
    3cf4:	00befeb3          	and	t4,t4,a1
    3cf8:	9fbe                	add	t6,t6,a5
    3cfa:	96f6                	add	a3,a3,t4
    3cfc:	09f67f63          	bgeu	a2,t6,3d9a <__divdf3+0x476>
    3d00:	961a                	add	a2,a2,t1
    3d02:	fff88793          	addi	a5,a7,-1
    3d06:	1a666963          	bltu	a2,t1,3eb8 <__divdf3+0x594>
    3d0a:	19f66863          	bltu	a2,t6,3e9a <__divdf3+0x576>
    3d0e:	1bf60f63          	beq	a2,t6,3ecc <__divdf3+0x5a8>
    3d12:	88be                	mv	a7,a5
    3d14:	0018e893          	ori	a7,a7,1
    3d18:	b511                	j	3b1c <__divdf3+0x1f8>
    3d1a:	854a                	mv	a0,s2
    3d1c:	190020ef          	jal	ra,5eac <__clzsi2>
    3d20:	01550713          	addi	a4,a0,21
    3d24:	45f1                	li	a1,28
    3d26:	02050493          	addi	s1,a0,32
    3d2a:	4622                	lw	a2,8(sp)
    3d2c:	46b2                	lw	a3,12(sp)
    3d2e:	d4e5dae3          	bge	a1,a4,3a82 <__divdf3+0x15e>
    3d32:	ff850413          	addi	s0,a0,-8
    3d36:	00891a33          	sll	s4,s2,s0
    3d3a:	4b01                	li	s6,0
    3d3c:	b385                	j	3a9c <__divdf3+0x178>
    3d3e:	8532                	mv	a0,a2
    3d40:	c432                	sw	a2,8(sp)
    3d42:	16a020ef          	jal	ra,5eac <__clzsi2>
    3d46:	01550713          	addi	a4,a0,21
    3d4a:	46f1                	li	a3,28
    3d4c:	87aa                	mv	a5,a0
    3d4e:	4622                	lw	a2,8(sp)
    3d50:	02050513          	addi	a0,a0,32
    3d54:	cee6d6e3          	bge	a3,a4,3a40 <__divdf3+0x11c>
    3d58:	17e1                	addi	a5,a5,-8
    3d5a:	00f61733          	sll	a4,a2,a5
    3d5e:	4881                	li	a7,0
    3d60:	b9e5                	j	3a58 <__divdf3+0x134>
    3d62:	eecb70e3          	bgeu	s6,a2,3c42 <__divdf3+0x31e>
    3d66:	9b72                	add	s6,s6,t3
    3d68:	01cb3533          	sltu	a0,s6,t3
    3d6c:	951a                	add	a0,a0,t1
    3d6e:	96aa                	add	a3,a3,a0
    3d70:	fff70513          	addi	a0,a4,-1
    3d74:	02d37863          	bgeu	t1,a3,3da4 <__divdf3+0x480>
    3d78:	10b6e663          	bltu	a3,a1,3e84 <__divdf3+0x560>
    3d7c:	10d58263          	beq	a1,a3,3e80 <__divdf3+0x55c>
    3d80:	872a                	mv	a4,a0
    3d82:	b5c1                	j	3c42 <__divdf3+0x31e>
    3d84:	df1b65e3          	bltu	s6,a7,3b6e <__divdf3+0x24a>
    3d88:	001b5593          	srli	a1,s6,0x1
    3d8c:	01fa1693          	slli	a3,s4,0x1f
    3d90:	001a5413          	srli	s0,s4,0x1
    3d94:	8ecd                	or	a3,a3,a1
    3d96:	0b7e                	slli	s6,s6,0x1f
    3d98:	bbf9                	j	3b76 <__divdf3+0x252>
    3d9a:	f7f61de3          	bne	a2,t6,3d14 <__divdf3+0x3f0>
    3d9e:	d6068fe3          	beqz	a3,3b1c <__divdf3+0x1f8>
    3da2:	bfb9                	j	3d00 <__divdf3+0x3dc>
    3da4:	fcd31ee3          	bne	t1,a3,3d80 <__divdf3+0x45c>
    3da8:	fdcb78e3          	bgeu	s6,t3,3d78 <__divdf3+0x454>
    3dac:	872a                	mv	a4,a0
    3dae:	bd51                	j	3c42 <__divdf3+0x31e>
    3db0:	00f8f793          	andi	a5,a7,15
    3db4:	4691                	li	a3,4
    3db6:	d6d789e3          	beq	a5,a3,3b28 <__divdf3+0x204>
    3dba:	ffc8b793          	sltiu	a5,a7,-4
    3dbe:	00488693          	addi	a3,a7,4
    3dc2:	0017c793          	xori	a5,a5,1
    3dc6:	828d                	srli	a3,a3,0x3
    3dc8:	973e                	add	a4,a4,a5
    3dca:	b38d                	j	3b2c <__divdf3+0x208>
    3dcc:	4681                	li	a3,0
    3dce:	4785                	li	a5,1
    3dd0:	fea04ce3          	bgtz	a0,3dc8 <__divdf3+0x4a4>
    3dd4:	58fd                	li	a7,-1
    3dd6:	d0051ce3          	bnez	a0,3aee <__divdf3+0x1ca>
    3dda:	c0100493          	li	s1,-1023
    3dde:	4785                	li	a5,1
    3de0:	41e48513          	addi	a0,s1,1054
    3de4:	00a716b3          	sll	a3,a4,a0
    3de8:	00f8d633          	srl	a2,a7,a5
    3dec:	00a89533          	sll	a0,a7,a0
    3df0:	8ed1                	or	a3,a3,a2
    3df2:	00a03533          	snez	a0,a0
    3df6:	8ec9                	or	a3,a3,a0
    3df8:	0076f613          	andi	a2,a3,7
    3dfc:	00f75733          	srl	a4,a4,a5
    3e00:	ce01                	beqz	a2,3e18 <__divdf3+0x4f4>
    3e02:	00f6f793          	andi	a5,a3,15
    3e06:	4611                	li	a2,4
    3e08:	00c78863          	beq	a5,a2,3e18 <__divdf3+0x4f4>
    3e0c:	00468793          	addi	a5,a3,4
    3e10:	00d7b6b3          	sltu	a3,a5,a3
    3e14:	9736                	add	a4,a4,a3
    3e16:	86be                	mv	a3,a5
    3e18:	00871793          	slli	a5,a4,0x8
    3e1c:	0407d863          	bgez	a5,3e6c <__divdf3+0x548>
    3e20:	4605                	li	a2,1
    3e22:	4781                	li	a5,0
    3e24:	4701                	li	a4,0
    3e26:	b6f1                	j	39f2 <__divdf3+0xce>
    3e28:	8736                	mv	a4,a3
    3e2a:	bb7d                	j	3be8 <__divdf3+0x2c4>
    3e2c:	87b2                	mv	a5,a2
    3e2e:	b379                	j	3bbc <__divdf3+0x298>
    3e30:	46fd                	li	a3,31
    3e32:	faf6d7e3          	bge	a3,a5,3de0 <__divdf3+0x4bc>
    3e36:	5605                	li	a2,-31
    3e38:	8e09                	sub	a2,a2,a0
    3e3a:	02000693          	li	a3,32
    3e3e:	00c75633          	srl	a2,a4,a2
    3e42:	00d78863          	beq	a5,a3,3e52 <__divdf3+0x52e>
    3e46:	43e48793          	addi	a5,s1,1086
    3e4a:	00f717b3          	sll	a5,a4,a5
    3e4e:	00f8e8b3          	or	a7,a7,a5
    3e52:	011036b3          	snez	a3,a7
    3e56:	8ed1                	or	a3,a3,a2
    3e58:	0076f613          	andi	a2,a3,7
    3e5c:	4781                	li	a5,0
    3e5e:	ce01                	beqz	a2,3e76 <__divdf3+0x552>
    3e60:	00f6f793          	andi	a5,a3,15
    3e64:	4611                	li	a2,4
    3e66:	4701                	li	a4,0
    3e68:	fac792e3          	bne	a5,a2,3e0c <__divdf3+0x4e8>
    3e6c:	00971793          	slli	a5,a4,0x9
    3e70:	01d71613          	slli	a2,a4,0x1d
    3e74:	83b1                	srli	a5,a5,0xc
    3e76:	0036d713          	srli	a4,a3,0x3
    3e7a:	8f51                	or	a4,a4,a2
    3e7c:	4601                	li	a2,0
    3e7e:	be95                	j	39f2 <__divdf3+0xce>
    3e80:	f0cb70e3          	bgeu	s6,a2,3d80 <__divdf3+0x45c>
    3e84:	9b72                	add	s6,s6,t3
    3e86:	01cb3533          	sltu	a0,s6,t3
    3e8a:	951a                	add	a0,a0,t1
    3e8c:	1779                	addi	a4,a4,-2
    3e8e:	96aa                	add	a3,a3,a0
    3e90:	bb4d                	j	3c42 <__divdf3+0x31e>
    3e92:	88ae                	mv	a7,a1
    3e94:	bbc5                	j	3c84 <__divdf3+0x360>
    3e96:	86ae                	mv	a3,a1
    3e98:	bd31                	j	3cb4 <__divdf3+0x390>
    3e9a:	001e1793          	slli	a5,t3,0x1
    3e9e:	01c7be33          	sltu	t3,a5,t3
    3ea2:	9372                	add	t1,t1,t3
    3ea4:	961a                	add	a2,a2,t1
    3ea6:	18f9                	addi	a7,a7,-2
    3ea8:	8e3e                	mv	t3,a5
    3eaa:	e7f615e3          	bne	a2,t6,3d14 <__divdf3+0x3f0>
    3eae:	c6de07e3          	beq	t3,a3,3b1c <__divdf3+0x1f8>
    3eb2:	0018e893          	ori	a7,a7,1
    3eb6:	b19d                	j	3b1c <__divdf3+0x1f8>
    3eb8:	88be                	mv	a7,a5
    3eba:	fff60ae3          	beq	a2,t6,3eae <__divdf3+0x58a>
    3ebe:	bd99                	j	3d14 <__divdf3+0x3f0>
    3ec0:	8836                	mv	a6,a3
    3ec2:	7ff00613          	li	a2,2047
    3ec6:	4781                	li	a5,0
    3ec8:	4701                	li	a4,0
    3eca:	b625                	j	39f2 <__divdf3+0xce>
    3ecc:	fcde67e3          	bltu	t3,a3,3e9a <__divdf3+0x576>
    3ed0:	88be                	mv	a7,a5
    3ed2:	fede10e3          	bne	t3,a3,3eb2 <__divdf3+0x58e>
    3ed6:	b199                	j	3b1c <__divdf3+0x1f8>

00003ed8 <__gedf2>:
    3ed8:	0145d713          	srli	a4,a1,0x14
    3edc:	001007b7          	lui	a5,0x100
    3ee0:	17fd                	addi	a5,a5,-1
    3ee2:	0146d813          	srli	a6,a3,0x14
    3ee6:	7ff77713          	andi	a4,a4,2047
    3eea:	7ff00893          	li	a7,2047
    3eee:	00b7f333          	and	t1,a5,a1
    3ef2:	8e2a                	mv	t3,a0
    3ef4:	8ff5                	and	a5,a5,a3
    3ef6:	81fd                	srli	a1,a1,0x1f
    3ef8:	8eb2                	mv	t4,a2
    3efa:	7ff87813          	andi	a6,a6,2047
    3efe:	82fd                	srli	a3,a3,0x1f
    3f00:	03170863          	beq	a4,a7,3f30 <__gedf2+0x58>
    3f04:	03180063          	beq	a6,a7,3f24 <__gedf2+0x4c>
    3f08:	eb0d                	bnez	a4,3f3a <__gedf2+0x62>
    3f0a:	00a368b3          	or	a7,t1,a0
    3f0e:	00081463          	bnez	a6,3f16 <__gedf2+0x3e>
    3f12:	8e5d                	or	a2,a2,a5
    3f14:	ca29                	beqz	a2,3f66 <__gedf2+0x8e>
    3f16:	04088563          	beqz	a7,3f60 <__gedf2+0x88>
    3f1a:	02d58863          	beq	a1,a3,3f4a <__gedf2+0x72>
    3f1e:	4505                	li	a0,1
    3f20:	ed95                	bnez	a1,3f5c <__gedf2+0x84>
    3f22:	8082                	ret
    3f24:	00c7e8b3          	or	a7,a5,a2
    3f28:	fe0880e3          	beqz	a7,3f08 <__gedf2+0x30>
    3f2c:	5579                	li	a0,-2
    3f2e:	8082                	ret
    3f30:	00a36533          	or	a0,t1,a0
    3f34:	fd65                	bnez	a0,3f2c <__gedf2+0x54>
    3f36:	02e80c63          	beq	a6,a4,3f6e <__gedf2+0x96>
    3f3a:	00081463          	bnez	a6,3f42 <__gedf2+0x6a>
    3f3e:	8e5d                	or	a2,a2,a5
    3f40:	de79                	beqz	a2,3f1e <__gedf2+0x46>
    3f42:	fcd59ee3          	bne	a1,a3,3f1e <__gedf2+0x46>
    3f46:	fce84ce3          	blt	a6,a4,3f1e <__gedf2+0x46>
    3f4a:	01074863          	blt	a4,a6,3f5a <__gedf2+0x82>
    3f4e:	fc67e8e3          	bltu	a5,t1,3f1e <__gedf2+0x46>
    3f52:	02f30363          	beq	t1,a5,3f78 <__gedf2+0xa0>
    3f56:	00f37f63          	bgeu	t1,a5,3f74 <__gedf2+0x9c>
    3f5a:	e581                	bnez	a1,3f62 <__gedf2+0x8a>
    3f5c:	557d                	li	a0,-1
    3f5e:	8082                	ret
    3f60:	def5                	beqz	a3,3f5c <__gedf2+0x84>
    3f62:	4505                	li	a0,1
    3f64:	8082                	ret
    3f66:	4501                	li	a0,0
    3f68:	fa089be3          	bnez	a7,3f1e <__gedf2+0x46>
    3f6c:	8082                	ret
    3f6e:	8e5d                	or	a2,a2,a5
    3f70:	da69                	beqz	a2,3f42 <__gedf2+0x6a>
    3f72:	bf6d                	j	3f2c <__gedf2+0x54>
    3f74:	4501                	li	a0,0
    3f76:	8082                	ret
    3f78:	fbcee3e3          	bltu	t4,t3,3f1e <__gedf2+0x46>
    3f7c:	4501                	li	a0,0
    3f7e:	fbde72e3          	bgeu	t3,t4,3f22 <__gedf2+0x4a>
    3f82:	f1e5                	bnez	a1,3f62 <__gedf2+0x8a>
    3f84:	bfe1                	j	3f5c <__gedf2+0x84>

00003f86 <__ledf2>:
    3f86:	0145d713          	srli	a4,a1,0x14
    3f8a:	001007b7          	lui	a5,0x100
    3f8e:	17fd                	addi	a5,a5,-1
    3f90:	0146d813          	srli	a6,a3,0x14
    3f94:	7ff77713          	andi	a4,a4,2047
    3f98:	7ff00893          	li	a7,2047
    3f9c:	00b7fe33          	and	t3,a5,a1
    3fa0:	8eaa                	mv	t4,a0
    3fa2:	8ff5                	and	a5,a5,a3
    3fa4:	81fd                	srli	a1,a1,0x1f
    3fa6:	8f32                	mv	t5,a2
    3fa8:	7ff87813          	andi	a6,a6,2047
    3fac:	82fd                	srli	a3,a3,0x1f
    3fae:	03170e63          	beq	a4,a7,3fea <__ledf2+0x64>
    3fb2:	01180d63          	beq	a6,a7,3fcc <__ledf2+0x46>
    3fb6:	e329                	bnez	a4,3ff8 <__ledf2+0x72>
    3fb8:	00ae68b3          	or	a7,t3,a0
    3fbc:	00081f63          	bnez	a6,3fda <__ledf2+0x54>
    3fc0:	8e5d                	or	a2,a2,a5
    3fc2:	ee01                	bnez	a2,3fda <__ledf2+0x54>
    3fc4:	4301                	li	t1,0
    3fc6:	04088c63          	beqz	a7,401e <__ledf2+0x98>
    3fca:	a821                	j	3fe2 <__ledf2+0x5c>
    3fcc:	00c7e8b3          	or	a7,a5,a2
    3fd0:	4309                	li	t1,2
    3fd2:	04089663          	bnez	a7,401e <__ledf2+0x98>
    3fd6:	d36d                	beqz	a4,3fb8 <__ledf2+0x32>
    3fd8:	a005                	j	3ff8 <__ledf2+0x72>
    3fda:	04088463          	beqz	a7,4022 <__ledf2+0x9c>
    3fde:	02d58563          	beq	a1,a3,4008 <__ledf2+0x82>
    3fe2:	4305                	li	t1,1
    3fe4:	cd8d                	beqz	a1,401e <__ledf2+0x98>
    3fe6:	537d                	li	t1,-1
    3fe8:	a81d                	j	401e <__ledf2+0x98>
    3fea:	00ae68b3          	or	a7,t3,a0
    3fee:	4309                	li	t1,2
    3ff0:	02089763          	bnez	a7,401e <__ledf2+0x98>
    3ff4:	02e80a63          	beq	a6,a4,4028 <__ledf2+0xa2>
    3ff8:	00081463          	bnez	a6,4000 <__ledf2+0x7a>
    3ffc:	8e5d                	or	a2,a2,a5
    3ffe:	d275                	beqz	a2,3fe2 <__ledf2+0x5c>
    4000:	fed591e3          	bne	a1,a3,3fe2 <__ledf2+0x5c>
    4004:	fce84fe3          	blt	a6,a4,3fe2 <__ledf2+0x5c>
    4008:	01074963          	blt	a4,a6,401a <__ledf2+0x94>
    400c:	fdc7ebe3          	bltu	a5,t3,3fe2 <__ledf2+0x5c>
    4010:	00fe0f63          	beq	t3,a5,402e <__ledf2+0xa8>
    4014:	4301                	li	t1,0
    4016:	00fe7463          	bgeu	t3,a5,401e <__ledf2+0x98>
    401a:	d5f1                	beqz	a1,3fe6 <__ledf2+0x60>
    401c:	4305                	li	t1,1
    401e:	851a                	mv	a0,t1
    4020:	8082                	ret
    4022:	feed                	bnez	a3,401c <__ledf2+0x96>
    4024:	537d                	li	t1,-1
    4026:	bfe5                	j	401e <__ledf2+0x98>
    4028:	8e5d                	or	a2,a2,a5
    402a:	da79                	beqz	a2,4000 <__ledf2+0x7a>
    402c:	bfcd                	j	401e <__ledf2+0x98>
    402e:	fbdf6ae3          	bltu	t5,t4,3fe2 <__ledf2+0x5c>
    4032:	4301                	li	t1,0
    4034:	ffeef5e3          	bgeu	t4,t5,401e <__ledf2+0x98>
    4038:	f1f5                	bnez	a1,401c <__ledf2+0x96>
    403a:	b775                	j	3fe6 <__ledf2+0x60>

0000403c <__muldf3>:
    403c:	7139                	addi	sp,sp,-64
    403e:	d84a                	sw	s2,48(sp)
    4040:	0145d913          	srli	s2,a1,0x14
    4044:	d64e                	sw	s3,44(sp)
    4046:	d452                	sw	s4,40(sp)
    4048:	d256                	sw	s5,36(sp)
    404a:	00c59993          	slli	s3,a1,0xc
    404e:	de06                	sw	ra,60(sp)
    4050:	dc22                	sw	s0,56(sp)
    4052:	da26                	sw	s1,52(sp)
    4054:	d05a                	sw	s6,32(sp)
    4056:	ce5e                	sw	s7,28(sp)
    4058:	7ff97913          	andi	s2,s2,2047
    405c:	8a2a                	mv	s4,a0
    405e:	00c9d993          	srli	s3,s3,0xc
    4062:	01f5da93          	srli	s5,a1,0x1f
    4066:	0e090d63          	beqz	s2,4160 <__muldf3+0x124>
    406a:	7ff00793          	li	a5,2047
    406e:	18f90663          	beq	s2,a5,41fa <__muldf3+0x1be>
    4072:	01d55413          	srli	s0,a0,0x1d
    4076:	098e                	slli	s3,s3,0x3
    4078:	013469b3          	or	s3,s0,s3
    407c:	00800437          	lui	s0,0x800
    4080:	0089e433          	or	s0,s3,s0
    4084:	00351493          	slli	s1,a0,0x3
    4088:	c0190913          	addi	s2,s2,-1023
    408c:	4981                	li	s3,0
    408e:	4b81                	li	s7,0
    4090:	0146d713          	srli	a4,a3,0x14
    4094:	00c69a13          	slli	s4,a3,0xc
    4098:	7ff77713          	andi	a4,a4,2047
    409c:	85b2                	mv	a1,a2
    409e:	00ca5a13          	srli	s4,s4,0xc
    40a2:	01f6db13          	srli	s6,a3,0x1f
    40a6:	10070b63          	beqz	a4,41bc <__muldf3+0x180>
    40aa:	7ff00793          	li	a5,2047
    40ae:	04f70363          	beq	a4,a5,40f4 <__muldf3+0xb8>
    40b2:	01d65793          	srli	a5,a2,0x1d
    40b6:	0a0e                	slli	s4,s4,0x3
    40b8:	0147ea33          	or	s4,a5,s4
    40bc:	c0170713          	addi	a4,a4,-1023
    40c0:	008007b7          	lui	a5,0x800
    40c4:	00fa67b3          	or	a5,s4,a5
    40c8:	00361593          	slli	a1,a2,0x3
    40cc:	993a                	add	s2,s2,a4
    40ce:	4881                	li	a7,0
    40d0:	016ac733          	xor	a4,s5,s6
    40d4:	46bd                	li	a3,15
    40d6:	853a                	mv	a0,a4
    40d8:	00190813          	addi	a6,s2,1
    40dc:	1736e863          	bltu	a3,s3,424c <__muldf3+0x210>
    40e0:	00008617          	auipc	a2,0x8
    40e4:	d1860613          	addi	a2,a2,-744 # bdf8 <table_week+0xbc>
    40e8:	098a                	slli	s3,s3,0x2
    40ea:	99b2                	add	s3,s3,a2
    40ec:	0009a683          	lw	a3,0(s3)
    40f0:	96b2                	add	a3,a3,a2
    40f2:	8682                	jr	a3
    40f4:	00ca67b3          	or	a5,s4,a2
    40f8:	7ff90913          	addi	s2,s2,2047
    40fc:	12079963          	bnez	a5,422e <__muldf3+0x1f2>
    4100:	0029e993          	ori	s3,s3,2
    4104:	4581                	li	a1,0
    4106:	4889                	li	a7,2
    4108:	b7e1                	j	40d0 <__muldf3+0x94>
    410a:	4701                	li	a4,0
    410c:	7ff00793          	li	a5,2047
    4110:	00080437          	lui	s0,0x80
    4114:	4481                	li	s1,0
    4116:	0432                	slli	s0,s0,0xc
    4118:	07d2                	slli	a5,a5,0x14
    411a:	8031                	srli	s0,s0,0xc
    411c:	077e                	slli	a4,a4,0x1f
    411e:	8c5d                	or	s0,s0,a5
    4120:	8c59                	or	s0,s0,a4
    4122:	85a2                	mv	a1,s0
    4124:	50f2                	lw	ra,60(sp)
    4126:	5462                	lw	s0,56(sp)
    4128:	8526                	mv	a0,s1
    412a:	5942                	lw	s2,48(sp)
    412c:	54d2                	lw	s1,52(sp)
    412e:	59b2                	lw	s3,44(sp)
    4130:	5a22                	lw	s4,40(sp)
    4132:	5a92                	lw	s5,36(sp)
    4134:	5b02                	lw	s6,32(sp)
    4136:	4bf2                	lw	s7,28(sp)
    4138:	6121                	addi	sp,sp,64
    413a:	8082                	ret
    413c:	855a                	mv	a0,s6
    413e:	843e                	mv	s0,a5
    4140:	84ae                	mv	s1,a1
    4142:	8bc6                	mv	s7,a7
    4144:	4789                	li	a5,2
    4146:	0efb8d63          	beq	s7,a5,4240 <__muldf3+0x204>
    414a:	478d                	li	a5,3
    414c:	fafb8fe3          	beq	s7,a5,410a <__muldf3+0xce>
    4150:	4785                	li	a5,1
    4152:	872a                	mv	a4,a0
    4154:	38fb9e63          	bne	s7,a5,44f0 <__muldf3+0x4b4>
    4158:	4781                	li	a5,0
    415a:	4401                	li	s0,0
    415c:	4481                	li	s1,0
    415e:	bf65                	j	4116 <__muldf3+0xda>
    4160:	00a9e433          	or	s0,s3,a0
    4164:	c061                	beqz	s0,4224 <__muldf3+0x1e8>
    4166:	c636                	sw	a3,12(sp)
    4168:	c432                	sw	a2,8(sp)
    416a:	2a098c63          	beqz	s3,4422 <__muldf3+0x3e6>
    416e:	854e                	mv	a0,s3
    4170:	53d010ef          	jal	ra,5eac <__clzsi2>
    4174:	4622                	lw	a2,8(sp)
    4176:	46b2                	lw	a3,12(sp)
    4178:	87aa                	mv	a5,a0
    417a:	ff550713          	addi	a4,a0,-11
    417e:	4475                	li	s0,29
    4180:	ff878493          	addi	s1,a5,-8 # 7ffff8 <_data_lma+0x7f3c34>
    4184:	8c19                	sub	s0,s0,a4
    4186:	009999b3          	sll	s3,s3,s1
    418a:	008a5433          	srl	s0,s4,s0
    418e:	01346433          	or	s0,s0,s3
    4192:	009a14b3          	sll	s1,s4,s1
    4196:	0146d713          	srli	a4,a3,0x14
    419a:	c0d00913          	li	s2,-1011
    419e:	00c69a13          	slli	s4,a3,0xc
    41a2:	7ff77713          	andi	a4,a4,2047
    41a6:	40f90933          	sub	s2,s2,a5
    41aa:	4981                	li	s3,0
    41ac:	4b81                	li	s7,0
    41ae:	85b2                	mv	a1,a2
    41b0:	00ca5a13          	srli	s4,s4,0xc
    41b4:	01f6db13          	srli	s6,a3,0x1f
    41b8:	ee0719e3          	bnez	a4,40aa <__muldf3+0x6e>
    41bc:	00ca67b3          	or	a5,s4,a2
    41c0:	c7b1                	beqz	a5,420c <__muldf3+0x1d0>
    41c2:	220a0f63          	beqz	s4,4400 <__muldf3+0x3c4>
    41c6:	8552                	mv	a0,s4
    41c8:	c432                	sw	a2,8(sp)
    41ca:	4e3010ef          	jal	ra,5eac <__clzsi2>
    41ce:	4622                	lw	a2,8(sp)
    41d0:	872a                	mv	a4,a0
    41d2:	ff550693          	addi	a3,a0,-11
    41d6:	47f5                	li	a5,29
    41d8:	ff870593          	addi	a1,a4,-8
    41dc:	8f95                	sub	a5,a5,a3
    41de:	00ba1a33          	sll	s4,s4,a1
    41e2:	00f657b3          	srl	a5,a2,a5
    41e6:	0147e7b3          	or	a5,a5,s4
    41ea:	00b615b3          	sll	a1,a2,a1
    41ee:	40e90933          	sub	s2,s2,a4
    41f2:	c0d90913          	addi	s2,s2,-1011
    41f6:	4881                	li	a7,0
    41f8:	bde1                	j	40d0 <__muldf3+0x94>
    41fa:	00a9e433          	or	s0,s3,a0
    41fe:	ec01                	bnez	s0,4216 <__muldf3+0x1da>
    4200:	49a1                	li	s3,8
    4202:	4481                	li	s1,0
    4204:	7ff00913          	li	s2,2047
    4208:	4b89                	li	s7,2
    420a:	b559                	j	4090 <__muldf3+0x54>
    420c:	0019e993          	ori	s3,s3,1
    4210:	4581                	li	a1,0
    4212:	4885                	li	a7,1
    4214:	bd75                	j	40d0 <__muldf3+0x94>
    4216:	844e                	mv	s0,s3
    4218:	84aa                	mv	s1,a0
    421a:	49b1                	li	s3,12
    421c:	7ff00913          	li	s2,2047
    4220:	4b8d                	li	s7,3
    4222:	b5bd                	j	4090 <__muldf3+0x54>
    4224:	4991                	li	s3,4
    4226:	4481                	li	s1,0
    4228:	4901                	li	s2,0
    422a:	4b85                	li	s7,1
    422c:	b595                	j	4090 <__muldf3+0x54>
    422e:	0039e993          	ori	s3,s3,3
    4232:	87d2                	mv	a5,s4
    4234:	488d                	li	a7,3
    4236:	bd69                	j	40d0 <__muldf3+0x94>
    4238:	4789                	li	a5,2
    423a:	8556                	mv	a0,s5
    423c:	f0fb97e3          	bne	s7,a5,414a <__muldf3+0x10e>
    4240:	872a                	mv	a4,a0
    4242:	7ff00793          	li	a5,2047
    4246:	4401                	li	s0,0
    4248:	4481                	li	s1,0
    424a:	b5f1                	j	4116 <__muldf3+0xda>
    424c:	6ec1                	lui	t4,0x10
    424e:	fffe8613          	addi	a2,t4,-1 # ffff <_data_lma+0x3c3b>
    4252:	0104d693          	srli	a3,s1,0x10
    4256:	0105de13          	srli	t3,a1,0x10
    425a:	8cf1                	and	s1,s1,a2
    425c:	8df1                	and	a1,a1,a2
    425e:	02958633          	mul	a2,a1,s1
    4262:	02b68333          	mul	t1,a3,a1
    4266:	01065893          	srli	a7,a2,0x10
    426a:	029e0533          	mul	a0,t3,s1
    426e:	951a                	add	a0,a0,t1
    4270:	98aa                	add	a7,a7,a0
    4272:	03c682b3          	mul	t0,a3,t3
    4276:	0068f363          	bgeu	a7,t1,427c <__muldf3+0x240>
    427a:	92f6                	add	t0,t0,t4
    427c:	6fc1                	lui	t6,0x10
    427e:	ffff8313          	addi	t1,t6,-1 # ffff <_data_lma+0x3c3b>
    4282:	0067f533          	and	a0,a5,t1
    4286:	0107d393          	srli	t2,a5,0x10
    428a:	0068f7b3          	and	a5,a7,t1
    428e:	07c2                	slli	a5,a5,0x10
    4290:	00667333          	and	t1,a2,t1
    4294:	933e                	add	t1,t1,a5
    4296:	02950633          	mul	a2,a0,s1
    429a:	0108d893          	srli	a7,a7,0x10
    429e:	02a687b3          	mul	a5,a3,a0
    42a2:	01065f13          	srli	t5,a2,0x10
    42a6:	029384b3          	mul	s1,t2,s1
    42aa:	94be                	add	s1,s1,a5
    42ac:	94fa                	add	s1,s1,t5
    42ae:	02768eb3          	mul	t4,a3,t2
    42b2:	00f4f363          	bgeu	s1,a5,42b8 <__muldf3+0x27c>
    42b6:	9efe                	add	t4,t4,t6
    42b8:	6a41                	lui	s4,0x10
    42ba:	fffa0793          	addi	a5,s4,-1 # ffff <_data_lma+0x3c3b>
    42be:	01045f93          	srli	t6,s0,0x10
    42c2:	00f476b3          	and	a3,s0,a5
    42c6:	00f4f9b3          	and	s3,s1,a5
    42ca:	8e7d                	and	a2,a2,a5
    42cc:	80c1                	srli	s1,s1,0x10
    42ce:	02d58433          	mul	s0,a1,a3
    42d2:	09c2                	slli	s3,s3,0x10
    42d4:	01d48f33          	add	t5,s1,t4
    42d8:	99b2                	add	s3,s3,a2
    42da:	98ce                	add	a7,a7,s3
    42dc:	02de07b3          	mul	a5,t3,a3
    42e0:	01045e93          	srli	t4,s0,0x10
    42e4:	02bf85b3          	mul	a1,t6,a1
    42e8:	97ae                	add	a5,a5,a1
    42ea:	9ebe                	add	t4,t4,a5
    42ec:	03fe0e33          	mul	t3,t3,t6
    42f0:	00bef363          	bgeu	t4,a1,42f6 <__muldf3+0x2ba>
    42f4:	9e52                	add	t3,t3,s4
    42f6:	67c1                	lui	a5,0x10
    42f8:	fff78593          	addi	a1,a5,-1 # ffff <_data_lma+0x3c3b>
    42fc:	00bef633          	and	a2,t4,a1
    4300:	8c6d                	and	s0,s0,a1
    4302:	0642                	slli	a2,a2,0x10
    4304:	9622                	add	a2,a2,s0
    4306:	010ede93          	srli	t4,t4,0x10
    430a:	02d505b3          	mul	a1,a0,a3
    430e:	9e76                	add	t3,t3,t4
    4310:	02af8533          	mul	a0,t6,a0
    4314:	0105d413          	srli	s0,a1,0x10
    4318:	02d386b3          	mul	a3,t2,a3
    431c:	96aa                	add	a3,a3,a0
    431e:	96a2                	add	a3,a3,s0
    4320:	03f38fb3          	mul	t6,t2,t6
    4324:	00a6f363          	bgeu	a3,a0,432a <__muldf3+0x2ee>
    4328:	9fbe                	add	t6,t6,a5
    432a:	6541                	lui	a0,0x10
    432c:	157d                	addi	a0,a0,-1
    432e:	00a6f7b3          	and	a5,a3,a0
    4332:	07c2                	slli	a5,a5,0x10
    4334:	8d6d                	and	a0,a0,a1
    4336:	97aa                	add	a5,a5,a0
    4338:	005885b3          	add	a1,a7,t0
    433c:	0135b9b3          	sltu	s3,a1,s3
    4340:	97fa                	add	a5,a5,t5
    4342:	95b2                	add	a1,a1,a2
    4344:	01378433          	add	s0,a5,s3
    4348:	00c5b633          	sltu	a2,a1,a2
    434c:	01c40eb3          	add	t4,s0,t3
    4350:	00ce8533          	add	a0,t4,a2
    4354:	01343433          	sltu	s0,s0,s3
    4358:	01e7b7b3          	sltu	a5,a5,t5
    435c:	8fc1                	or	a5,a5,s0
    435e:	01cebe33          	sltu	t3,t4,t3
    4362:	0106d413          	srli	s0,a3,0x10
    4366:	00c53633          	sltu	a2,a0,a2
    436a:	943e                	add	s0,s0,a5
    436c:	00ce6633          	or	a2,t3,a2
    4370:	00959493          	slli	s1,a1,0x9
    4374:	9432                	add	s0,s0,a2
    4376:	947e                	add	s0,s0,t6
    4378:	0064e4b3          	or	s1,s1,t1
    437c:	0426                	slli	s0,s0,0x9
    437e:	01755693          	srli	a3,a0,0x17
    4382:	009034b3          	snez	s1,s1
    4386:	81dd                	srli	a1,a1,0x17
    4388:	00951793          	slli	a5,a0,0x9
    438c:	8ccd                	or	s1,s1,a1
    438e:	8c55                	or	s0,s0,a3
    4390:	8cdd                	or	s1,s1,a5
    4392:	00741793          	slli	a5,s0,0x7
    4396:	0007db63          	bgez	a5,43ac <__muldf3+0x370>
    439a:	0014d793          	srli	a5,s1,0x1
    439e:	8885                	andi	s1,s1,1
    43a0:	01f41693          	slli	a3,s0,0x1f
    43a4:	8cdd                	or	s1,s1,a5
    43a6:	8cd5                	or	s1,s1,a3
    43a8:	8005                	srli	s0,s0,0x1
    43aa:	8942                	mv	s2,a6
    43ac:	3ff90793          	addi	a5,s2,1023
    43b0:	08f05963          	blez	a5,4442 <__muldf3+0x406>
    43b4:	0074f693          	andi	a3,s1,7
    43b8:	ce81                	beqz	a3,43d0 <__muldf3+0x394>
    43ba:	00f4f693          	andi	a3,s1,15
    43be:	4611                	li	a2,4
    43c0:	00c68863          	beq	a3,a2,43d0 <__muldf3+0x394>
    43c4:	00448693          	addi	a3,s1,4
    43c8:	0096b4b3          	sltu	s1,a3,s1
    43cc:	9426                	add	s0,s0,s1
    43ce:	84b6                	mv	s1,a3
    43d0:	00741693          	slli	a3,s0,0x7
    43d4:	0006d863          	bgez	a3,43e4 <__muldf3+0x3a8>
    43d8:	ff0007b7          	lui	a5,0xff000
    43dc:	17fd                	addi	a5,a5,-1
    43de:	8c7d                	and	s0,s0,a5
    43e0:	40090793          	addi	a5,s2,1024
    43e4:	7fe00693          	li	a3,2046
    43e8:	0ef6cf63          	blt	a3,a5,44e6 <__muldf3+0x4aa>
    43ec:	0034d693          	srli	a3,s1,0x3
    43f0:	01d41493          	slli	s1,s0,0x1d
    43f4:	0426                	slli	s0,s0,0x9
    43f6:	8cd5                	or	s1,s1,a3
    43f8:	8031                	srli	s0,s0,0xc
    43fa:	7ff7f793          	andi	a5,a5,2047
    43fe:	bb21                	j	4116 <__muldf3+0xda>
    4400:	8532                	mv	a0,a2
    4402:	c432                	sw	a2,8(sp)
    4404:	2a9010ef          	jal	ra,5eac <__clzsi2>
    4408:	01550693          	addi	a3,a0,21 # 10015 <_data_lma+0x3c51>
    440c:	47f1                	li	a5,28
    440e:	02050713          	addi	a4,a0,32
    4412:	4622                	lw	a2,8(sp)
    4414:	dcd7d1e3          	bge	a5,a3,41d6 <__muldf3+0x19a>
    4418:	1561                	addi	a0,a0,-8
    441a:	00a617b3          	sll	a5,a2,a0
    441e:	4581                	li	a1,0
    4420:	b3f9                	j	41ee <__muldf3+0x1b2>
    4422:	28b010ef          	jal	ra,5eac <__clzsi2>
    4426:	01550713          	addi	a4,a0,21
    442a:	45f1                	li	a1,28
    442c:	02050793          	addi	a5,a0,32
    4430:	4622                	lw	a2,8(sp)
    4432:	46b2                	lw	a3,12(sp)
    4434:	d4e5d5e3          	bge	a1,a4,417e <__muldf3+0x142>
    4438:	1561                	addi	a0,a0,-8
    443a:	00aa1433          	sll	s0,s4,a0
    443e:	4481                	li	s1,0
    4440:	bb99                	j	4196 <__muldf3+0x15a>
    4442:	4685                	li	a3,1
    4444:	8e9d                	sub	a3,a3,a5
    4446:	e7b1                	bnez	a5,4492 <__muldf3+0x456>
    4448:	41e90913          	addi	s2,s2,1054
    444c:	012497b3          	sll	a5,s1,s2
    4450:	00d4d4b3          	srl	s1,s1,a3
    4454:	01241933          	sll	s2,s0,s2
    4458:	00f037b3          	snez	a5,a5
    445c:	009964b3          	or	s1,s2,s1
    4460:	8cdd                	or	s1,s1,a5
    4462:	0074f793          	andi	a5,s1,7
    4466:	00d456b3          	srl	a3,s0,a3
    446a:	cf81                	beqz	a5,4482 <__muldf3+0x446>
    446c:	00f4f793          	andi	a5,s1,15
    4470:	4611                	li	a2,4
    4472:	00c78863          	beq	a5,a2,4482 <__muldf3+0x446>
    4476:	00448793          	addi	a5,s1,4
    447a:	0097b4b3          	sltu	s1,a5,s1
    447e:	96a6                	add	a3,a3,s1
    4480:	84be                	mv	s1,a5
    4482:	00869793          	slli	a5,a3,0x8
    4486:	0407d863          	bgez	a5,44d6 <__muldf3+0x49a>
    448a:	4785                	li	a5,1
    448c:	4401                	li	s0,0
    448e:	4481                	li	s1,0
    4490:	b159                	j	4116 <__muldf3+0xda>
    4492:	03800613          	li	a2,56
    4496:	ccd641e3          	blt	a2,a3,4158 <__muldf3+0x11c>
    449a:	467d                	li	a2,31
    449c:	fad656e3          	bge	a2,a3,4448 <__muldf3+0x40c>
    44a0:	5605                	li	a2,-31
    44a2:	40f607b3          	sub	a5,a2,a5
    44a6:	02000593          	li	a1,32
    44aa:	00f45633          	srl	a2,s0,a5
    44ae:	00b68763          	beq	a3,a1,44bc <__muldf3+0x480>
    44b2:	43e90913          	addi	s2,s2,1086
    44b6:	012417b3          	sll	a5,s0,s2
    44ba:	8cdd                	or	s1,s1,a5
    44bc:	009034b3          	snez	s1,s1
    44c0:	8cd1                	or	s1,s1,a2
    44c2:	0074f693          	andi	a3,s1,7
    44c6:	4401                	li	s0,0
    44c8:	ca99                	beqz	a3,44de <__muldf3+0x4a2>
    44ca:	00f4f793          	andi	a5,s1,15
    44ce:	4611                	li	a2,4
    44d0:	4681                	li	a3,0
    44d2:	fac792e3          	bne	a5,a2,4476 <__muldf3+0x43a>
    44d6:	00969413          	slli	s0,a3,0x9
    44da:	8031                	srli	s0,s0,0xc
    44dc:	06f6                	slli	a3,a3,0x1d
    44de:	808d                	srli	s1,s1,0x3
    44e0:	8cd5                	or	s1,s1,a3
    44e2:	4781                	li	a5,0
    44e4:	b90d                	j	4116 <__muldf3+0xda>
    44e6:	7ff00793          	li	a5,2047
    44ea:	4401                	li	s0,0
    44ec:	4481                	li	s1,0
    44ee:	b125                	j	4116 <__muldf3+0xda>
    44f0:	8942                	mv	s2,a6
    44f2:	bd6d                	j	43ac <__muldf3+0x370>

000044f4 <__subdf3>:
    44f4:	00100737          	lui	a4,0x100
    44f8:	177d                	addi	a4,a4,-1
    44fa:	1101                	addi	sp,sp,-32
    44fc:	00b77333          	and	t1,a4,a1
    4500:	0146d893          	srli	a7,a3,0x14
    4504:	8f75                	and	a4,a4,a3
    4506:	01d65e93          	srli	t4,a2,0x1d
    450a:	cc22                	sw	s0,24(sp)
    450c:	ca26                	sw	s1,20(sp)
    450e:	030e                	slli	t1,t1,0x3
    4510:	0145d493          	srli	s1,a1,0x14
    4514:	01d55793          	srli	a5,a0,0x1d
    4518:	070e                	slli	a4,a4,0x3
    451a:	ce06                	sw	ra,28(sp)
    451c:	c84a                	sw	s2,16(sp)
    451e:	c64e                	sw	s3,12(sp)
    4520:	7ff8f893          	andi	a7,a7,2047
    4524:	7ff00e13          	li	t3,2047
    4528:	00eee733          	or	a4,t4,a4
    452c:	7ff4f493          	andi	s1,s1,2047
    4530:	01f5d413          	srli	s0,a1,0x1f
    4534:	0067e333          	or	t1,a5,t1
    4538:	00351f13          	slli	t5,a0,0x3
    453c:	82fd                	srli	a3,a3,0x1f
    453e:	00361e93          	slli	t4,a2,0x3
    4542:	19c88063          	beq	a7,t3,46c2 <__subdf3+0x1ce>
    4546:	0016c693          	xori	a3,a3,1
    454a:	411485b3          	sub	a1,s1,a7
    454e:	12d40563          	beq	s0,a3,4678 <__subdf3+0x184>
    4552:	18b05163          	blez	a1,46d4 <__subdf3+0x1e0>
    4556:	1a088b63          	beqz	a7,470c <__subdf3+0x218>
    455a:	008007b7          	lui	a5,0x800
    455e:	8f5d                	or	a4,a4,a5
    4560:	59c48163          	beq	s1,t3,4ae2 <__subdf3+0x5ee>
    4564:	03800793          	li	a5,56
    4568:	34b7c463          	blt	a5,a1,48b0 <__subdf3+0x3bc>
    456c:	47fd                	li	a5,31
    456e:	48b7c563          	blt	a5,a1,49f8 <__subdf3+0x504>
    4572:	02000793          	li	a5,32
    4576:	8f8d                	sub	a5,a5,a1
    4578:	00bed9b3          	srl	s3,t4,a1
    457c:	00f71833          	sll	a6,a4,a5
    4580:	00fe9eb3          	sll	t4,t4,a5
    4584:	01386833          	or	a6,a6,s3
    4588:	00b75733          	srl	a4,a4,a1
    458c:	01d039b3          	snez	s3,t4
    4590:	01386833          	or	a6,a6,s3
    4594:	40e30333          	sub	t1,t1,a4
    4598:	410f09b3          	sub	s3,t5,a6
    459c:	013f37b3          	sltu	a5,t5,s3
    45a0:	40f30633          	sub	a2,t1,a5
    45a4:	00861793          	slli	a5,a2,0x8
    45a8:	2407d363          	bgez	a5,47ee <__subdf3+0x2fa>
    45ac:	00800937          	lui	s2,0x800
    45b0:	197d                	addi	s2,s2,-1
    45b2:	01267933          	and	s2,a2,s2
    45b6:	2c090f63          	beqz	s2,4894 <__subdf3+0x3a0>
    45ba:	854a                	mv	a0,s2
    45bc:	0f1010ef          	jal	ra,5eac <__clzsi2>
    45c0:	ff850713          	addi	a4,a0,-8
    45c4:	02000793          	li	a5,32
    45c8:	8f99                	sub	a5,a5,a4
    45ca:	00f9d7b3          	srl	a5,s3,a5
    45ce:	00e91633          	sll	a2,s2,a4
    45d2:	8fd1                	or	a5,a5,a2
    45d4:	00e999b3          	sll	s3,s3,a4
    45d8:	2a974463          	blt	a4,s1,4880 <__subdf3+0x38c>
    45dc:	8f05                	sub	a4,a4,s1
    45de:	00170613          	addi	a2,a4,1 # 100001 <_data_lma+0xf3c3d>
    45e2:	46fd                	li	a3,31
    45e4:	3ac6c563          	blt	a3,a2,498e <__subdf3+0x49a>
    45e8:	02000713          	li	a4,32
    45ec:	8f11                	sub	a4,a4,a2
    45ee:	00c9d6b3          	srl	a3,s3,a2
    45f2:	00e99833          	sll	a6,s3,a4
    45f6:	00e79733          	sll	a4,a5,a4
    45fa:	8f55                	or	a4,a4,a3
    45fc:	01003833          	snez	a6,a6
    4600:	010769b3          	or	s3,a4,a6
    4604:	00c7d633          	srl	a2,a5,a2
    4608:	4481                	li	s1,0
    460a:	0079f793          	andi	a5,s3,7
    460e:	cf81                	beqz	a5,4626 <__subdf3+0x132>
    4610:	00f9f693          	andi	a3,s3,15
    4614:	4791                	li	a5,4
    4616:	00f68863          	beq	a3,a5,4626 <__subdf3+0x132>
    461a:	00498693          	addi	a3,s3,4
    461e:	0136b833          	sltu	a6,a3,s3
    4622:	9642                	add	a2,a2,a6
    4624:	89b6                	mv	s3,a3
    4626:	00861793          	slli	a5,a2,0x8
    462a:	1c07d663          	bgez	a5,47f6 <__subdf3+0x302>
    462e:	00148713          	addi	a4,s1,1
    4632:	7ff00793          	li	a5,2047
    4636:	8805                	andi	s0,s0,1
    4638:	20f70663          	beq	a4,a5,4844 <__subdf3+0x350>
    463c:	ff8007b7          	lui	a5,0xff800
    4640:	17fd                	addi	a5,a5,-1
    4642:	8ff1                	and	a5,a5,a2
    4644:	01d79813          	slli	a6,a5,0x1d
    4648:	0039d993          	srli	s3,s3,0x3
    464c:	07a6                	slli	a5,a5,0x9
    464e:	01386833          	or	a6,a6,s3
    4652:	83b1                	srli	a5,a5,0xc
    4654:	7ff77713          	andi	a4,a4,2047
    4658:	00c79693          	slli	a3,a5,0xc
    465c:	0752                	slli	a4,a4,0x14
    465e:	82b1                	srli	a3,a3,0xc
    4660:	047e                	slli	s0,s0,0x1f
    4662:	8ed9                	or	a3,a3,a4
    4664:	8ec1                	or	a3,a3,s0
    4666:	40f2                	lw	ra,28(sp)
    4668:	4462                	lw	s0,24(sp)
    466a:	44d2                	lw	s1,20(sp)
    466c:	4942                	lw	s2,16(sp)
    466e:	49b2                	lw	s3,12(sp)
    4670:	8542                	mv	a0,a6
    4672:	85b6                	mv	a1,a3
    4674:	6105                	addi	sp,sp,32
    4676:	8082                	ret
    4678:	0ab05663          	blez	a1,4724 <__subdf3+0x230>
    467c:	12088a63          	beqz	a7,47b0 <__subdf3+0x2bc>
    4680:	008007b7          	lui	a5,0x800
    4684:	8f5d                	or	a4,a4,a5
    4686:	2dc48763          	beq	s1,t3,4954 <__subdf3+0x460>
    468a:	03800793          	li	a5,56
    468e:	18b7c763          	blt	a5,a1,481c <__subdf3+0x328>
    4692:	47fd                	li	a5,31
    4694:	3cb7d263          	bge	a5,a1,4a58 <__subdf3+0x564>
    4698:	fe058813          	addi	a6,a1,-32 # ffe0 <_data_lma+0x3c1c>
    469c:	02000793          	li	a5,32
    46a0:	010759b3          	srl	s3,a4,a6
    46a4:	00f58a63          	beq	a1,a5,46b8 <__subdf3+0x1c4>
    46a8:	04000793          	li	a5,64
    46ac:	40b785b3          	sub	a1,a5,a1
    46b0:	00b71733          	sll	a4,a4,a1
    46b4:	00eeeeb3          	or	t4,t4,a4
    46b8:	01d03833          	snez	a6,t4
    46bc:	01386833          	or	a6,a6,s3
    46c0:	a295                	j	4824 <__subdf3+0x330>
    46c2:	01d767b3          	or	a5,a4,t4
    46c6:	80148593          	addi	a1,s1,-2047
    46ca:	e399                	bnez	a5,46d0 <__subdf3+0x1dc>
    46cc:	0016c693          	xori	a3,a3,1
    46d0:	04d40a63          	beq	s0,a3,4724 <__subdf3+0x230>
    46d4:	e1d1                	bnez	a1,4758 <__subdf3+0x264>
    46d6:	00148793          	addi	a5,s1,1
    46da:	7fe7f793          	andi	a5,a5,2046
    46de:	1e079963          	bnez	a5,48d0 <__subdf3+0x3dc>
    46e2:	01e367b3          	or	a5,t1,t5
    46e6:	01d76833          	or	a6,a4,t4
    46ea:	16049263          	bnez	s1,484e <__subdf3+0x35a>
    46ee:	3c078263          	beqz	a5,4ab2 <__subdf3+0x5be>
    46f2:	42081663          	bnez	a6,4b1e <__subdf3+0x62a>
    46f6:	00351813          	slli	a6,a0,0x3
    46fa:	01d31693          	slli	a3,t1,0x1d
    46fe:	00385813          	srli	a6,a6,0x3
    4702:	0106e833          	or	a6,a3,a6
    4706:	00335793          	srli	a5,t1,0x3
    470a:	a219                	j	4810 <__subdf3+0x31c>
    470c:	01d767b3          	or	a5,a4,t4
    4710:	1a078563          	beqz	a5,48ba <__subdf3+0x3c6>
    4714:	fff58793          	addi	a5,a1,-1
    4718:	3a078b63          	beqz	a5,4ace <__subdf3+0x5da>
    471c:	23c58c63          	beq	a1,t3,4954 <__subdf3+0x460>
    4720:	85be                	mv	a1,a5
    4722:	b589                	j	4564 <__subdf3+0x70>
    4724:	1c059963          	bnez	a1,48f6 <__subdf3+0x402>
    4728:	00148693          	addi	a3,s1,1
    472c:	7fe6f793          	andi	a5,a3,2046
    4730:	efc1                	bnez	a5,47c8 <__subdf3+0x2d4>
    4732:	01e367b3          	or	a5,t1,t5
    4736:	36049063          	bnez	s1,4a96 <__subdf3+0x5a2>
    473a:	44078d63          	beqz	a5,4b94 <__subdf3+0x6a0>
    473e:	01d767b3          	or	a5,a4,t4
    4742:	46079463          	bnez	a5,4baa <__subdf3+0x6b6>
    4746:	050e                	slli	a0,a0,0x3
    4748:	01d31813          	slli	a6,t1,0x1d
    474c:	810d                	srli	a0,a0,0x3
    474e:	00a86833          	or	a6,a6,a0
    4752:	00335793          	srli	a5,t1,0x3
    4756:	a86d                	j	4810 <__subdf3+0x31c>
    4758:	409885b3          	sub	a1,a7,s1
    475c:	20049763          	bnez	s1,496a <__subdf3+0x476>
    4760:	01e367b3          	or	a5,t1,t5
    4764:	30078d63          	beqz	a5,4a7e <__subdf3+0x58a>
    4768:	fff58793          	addi	a5,a1,-1
    476c:	40078963          	beqz	a5,4b7e <__subdf3+0x68a>
    4770:	7ff00513          	li	a0,2047
    4774:	20a58363          	beq	a1,a0,497a <__subdf3+0x486>
    4778:	85be                	mv	a1,a5
    477a:	03800793          	li	a5,56
    477e:	2ab7c263          	blt	a5,a1,4a22 <__subdf3+0x52e>
    4782:	47fd                	li	a5,31
    4784:	3cb7c863          	blt	a5,a1,4b54 <__subdf3+0x660>
    4788:	02000793          	li	a5,32
    478c:	8f8d                	sub	a5,a5,a1
    478e:	00f31833          	sll	a6,t1,a5
    4792:	00bf5633          	srl	a2,t5,a1
    4796:	00ff17b3          	sll	a5,t5,a5
    479a:	00c86833          	or	a6,a6,a2
    479e:	00f039b3          	snez	s3,a5
    47a2:	00b35333          	srl	t1,t1,a1
    47a6:	01386833          	or	a6,a6,s3
    47aa:	40670733          	sub	a4,a4,t1
    47ae:	acb5                	j	4a2a <__subdf3+0x536>
    47b0:	01d767b3          	or	a5,a4,t4
    47b4:	10078363          	beqz	a5,48ba <__subdf3+0x3c6>
    47b8:	fff58793          	addi	a5,a1,-1
    47bc:	1e078f63          	beqz	a5,49ba <__subdf3+0x4c6>
    47c0:	2fc58063          	beq	a1,t3,4aa0 <__subdf3+0x5ac>
    47c4:	85be                	mv	a1,a5
    47c6:	b5d1                	j	468a <__subdf3+0x196>
    47c8:	7ff00793          	li	a5,2047
    47cc:	06f68b63          	beq	a3,a5,4842 <__subdf3+0x34e>
    47d0:	9efa                	add	t4,t4,t5
    47d2:	01eeb633          	sltu	a2,t4,t5
    47d6:	00e307b3          	add	a5,t1,a4
    47da:	97b2                	add	a5,a5,a2
    47dc:	01f79813          	slli	a6,a5,0x1f
    47e0:	001ede93          	srli	t4,t4,0x1
    47e4:	01d869b3          	or	s3,a6,t4
    47e8:	0017d613          	srli	a2,a5,0x1
    47ec:	84b6                	mv	s1,a3
    47ee:	0079f793          	andi	a5,s3,7
    47f2:	e0079fe3          	bnez	a5,4610 <__subdf3+0x11c>
    47f6:	01d61793          	slli	a5,a2,0x1d
    47fa:	0039d813          	srli	a6,s3,0x3
    47fe:	00f86833          	or	a6,a6,a5
    4802:	85a6                	mv	a1,s1
    4804:	00365793          	srli	a5,a2,0x3
    4808:	7ff00713          	li	a4,2047
    480c:	06e58063          	beq	a1,a4,486c <__subdf3+0x378>
    4810:	07b2                	slli	a5,a5,0xc
    4812:	83b1                	srli	a5,a5,0xc
    4814:	7ff5f713          	andi	a4,a1,2047
    4818:	8805                	andi	s0,s0,1
    481a:	bd3d                	j	4658 <__subdf3+0x164>
    481c:	01d76733          	or	a4,a4,t4
    4820:	00e03833          	snez	a6,a4
    4824:	01e809b3          	add	s3,a6,t5
    4828:	01e9b7b3          	sltu	a5,s3,t5
    482c:	00678633          	add	a2,a5,t1
    4830:	00861793          	slli	a5,a2,0x8
    4834:	fa07dde3          	bgez	a5,47ee <__subdf3+0x2fa>
    4838:	0485                	addi	s1,s1,1
    483a:	7ff00793          	li	a5,2047
    483e:	18f49c63          	bne	s1,a5,49d6 <__subdf3+0x4e2>
    4842:	8805                	andi	s0,s0,1
    4844:	7ff00713          	li	a4,2047
    4848:	4781                	li	a5,0
    484a:	4801                	li	a6,0
    484c:	b531                	j	4658 <__subdf3+0x164>
    484e:	10079163          	bnez	a5,4950 <__subdf3+0x45c>
    4852:	3c080163          	beqz	a6,4c14 <__subdf3+0x720>
    4856:	00361813          	slli	a6,a2,0x3
    485a:	01d71793          	slli	a5,a4,0x1d
    485e:	00385813          	srli	a6,a6,0x3
    4862:	00f86833          	or	a6,a6,a5
    4866:	8436                	mv	s0,a3
    4868:	00375793          	srli	a5,a4,0x3
    486c:	00f867b3          	or	a5,a6,a5
    4870:	dbe9                	beqz	a5,4842 <__subdf3+0x34e>
    4872:	4401                	li	s0,0
    4874:	7ff00713          	li	a4,2047
    4878:	000807b7          	lui	a5,0x80
    487c:	4801                	li	a6,0
    487e:	bbe9                	j	4658 <__subdf3+0x164>
    4880:	ff800637          	lui	a2,0xff800
    4884:	167d                	addi	a2,a2,-1
    4886:	8e7d                	and	a2,a2,a5
    4888:	0079f793          	andi	a5,s3,7
    488c:	8c99                	sub	s1,s1,a4
    488e:	d80791e3          	bnez	a5,4610 <__subdf3+0x11c>
    4892:	b795                	j	47f6 <__subdf3+0x302>
    4894:	854e                	mv	a0,s3
    4896:	616010ef          	jal	ra,5eac <__clzsi2>
    489a:	01850713          	addi	a4,a0,24
    489e:	47fd                	li	a5,31
    48a0:	d2e7d2e3          	bge	a5,a4,45c4 <__subdf3+0xd0>
    48a4:	ff850613          	addi	a2,a0,-8
    48a8:	00c997b3          	sll	a5,s3,a2
    48ac:	4981                	li	s3,0
    48ae:	b32d                	j	45d8 <__subdf3+0xe4>
    48b0:	01d76833          	or	a6,a4,t4
    48b4:	01003833          	snez	a6,a6
    48b8:	b1c5                	j	4598 <__subdf3+0xa4>
    48ba:	00351813          	slli	a6,a0,0x3
    48be:	01d31793          	slli	a5,t1,0x1d
    48c2:	00385813          	srli	a6,a6,0x3
    48c6:	00f86833          	or	a6,a6,a5
    48ca:	00335793          	srli	a5,t1,0x3
    48ce:	bf2d                	j	4808 <__subdf3+0x314>
    48d0:	41df09b3          	sub	s3,t5,t4
    48d4:	40e30933          	sub	s2,t1,a4
    48d8:	013f3633          	sltu	a2,t5,s3
    48dc:	40c90933          	sub	s2,s2,a2
    48e0:	00891793          	slli	a5,s2,0x8
    48e4:	2007ca63          	bltz	a5,4af8 <__subdf3+0x604>
    48e8:	0129e833          	or	a6,s3,s2
    48ec:	cc0815e3          	bnez	a6,45b6 <__subdf3+0xc2>
    48f0:	4781                	li	a5,0
    48f2:	4401                	li	s0,0
    48f4:	bf31                	j	4810 <__subdf3+0x31c>
    48f6:	409885b3          	sub	a1,a7,s1
    48fa:	14048163          	beqz	s1,4a3c <__subdf3+0x548>
    48fe:	008006b7          	lui	a3,0x800
    4902:	7ff00793          	li	a5,2047
    4906:	00d36333          	or	t1,t1,a3
    490a:	20f88163          	beq	a7,a5,4b0c <__subdf3+0x618>
    490e:	03800793          	li	a5,56
    4912:	22b7cc63          	blt	a5,a1,4b4a <__subdf3+0x656>
    4916:	47fd                	li	a5,31
    4918:	2cb7c963          	blt	a5,a1,4bea <__subdf3+0x6f6>
    491c:	02000793          	li	a5,32
    4920:	8f8d                	sub	a5,a5,a1
    4922:	00f31833          	sll	a6,t1,a5
    4926:	00bf56b3          	srl	a3,t5,a1
    492a:	00ff17b3          	sll	a5,t5,a5
    492e:	00d86833          	or	a6,a6,a3
    4932:	00f039b3          	snez	s3,a5
    4936:	00b35333          	srl	t1,t1,a1
    493a:	01386833          	or	a6,a6,s3
    493e:	971a                	add	a4,a4,t1
    4940:	01d809b3          	add	s3,a6,t4
    4944:	01d9b7b3          	sltu	a5,s3,t4
    4948:	00e78633          	add	a2,a5,a4
    494c:	84c6                	mv	s1,a7
    494e:	b5cd                	j	4830 <__subdf3+0x33c>
    4950:	f20811e3          	bnez	a6,4872 <__subdf3+0x37e>
    4954:	00351813          	slli	a6,a0,0x3
    4958:	01d31793          	slli	a5,t1,0x1d
    495c:	00385813          	srli	a6,a6,0x3
    4960:	00f86833          	or	a6,a6,a5
    4964:	00335793          	srli	a5,t1,0x3
    4968:	b711                	j	486c <__subdf3+0x378>
    496a:	00800537          	lui	a0,0x800
    496e:	7ff00793          	li	a5,2047
    4972:	00a36333          	or	t1,t1,a0
    4976:	e0f892e3          	bne	a7,a5,477a <__subdf3+0x286>
    497a:	060e                	slli	a2,a2,0x3
    497c:	01d71813          	slli	a6,a4,0x1d
    4980:	820d                	srli	a2,a2,0x3
    4982:	00c86833          	or	a6,a6,a2
    4986:	00375793          	srli	a5,a4,0x3
    498a:	8436                	mv	s0,a3
    498c:	b5c5                	j	486c <__subdf3+0x378>
    498e:	1705                	addi	a4,a4,-31
    4990:	02000693          	li	a3,32
    4994:	00e7d733          	srl	a4,a5,a4
    4998:	00d60a63          	beq	a2,a3,49ac <__subdf3+0x4b8>
    499c:	04000693          	li	a3,64
    49a0:	40c68633          	sub	a2,a3,a2
    49a4:	00c79633          	sll	a2,a5,a2
    49a8:	00c9e9b3          	or	s3,s3,a2
    49ac:	01303833          	snez	a6,s3
    49b0:	00e869b3          	or	s3,a6,a4
    49b4:	4601                	li	a2,0
    49b6:	4481                	li	s1,0
    49b8:	bd1d                	j	47ee <__subdf3+0x2fa>
    49ba:	01df09b3          	add	s3,t5,t4
    49be:	00e307b3          	add	a5,t1,a4
    49c2:	01e9bf33          	sltu	t5,s3,t5
    49c6:	01e78633          	add	a2,a5,t5
    49ca:	00861793          	slli	a5,a2,0x8
    49ce:	4485                	li	s1,1
    49d0:	e007dfe3          	bgez	a5,47ee <__subdf3+0x2fa>
    49d4:	4489                	li	s1,2
    49d6:	ff8007b7          	lui	a5,0xff800
    49da:	17fd                	addi	a5,a5,-1
    49dc:	8ff1                	and	a5,a5,a2
    49de:	0019d713          	srli	a4,s3,0x1
    49e2:	0019f813          	andi	a6,s3,1
    49e6:	01076833          	or	a6,a4,a6
    49ea:	01f79993          	slli	s3,a5,0x1f
    49ee:	0109e9b3          	or	s3,s3,a6
    49f2:	0017d613          	srli	a2,a5,0x1
    49f6:	b911                	j	460a <__subdf3+0x116>
    49f8:	fe058813          	addi	a6,a1,-32
    49fc:	02000793          	li	a5,32
    4a00:	010759b3          	srl	s3,a4,a6
    4a04:	00f58a63          	beq	a1,a5,4a18 <__subdf3+0x524>
    4a08:	04000793          	li	a5,64
    4a0c:	40b785b3          	sub	a1,a5,a1
    4a10:	00b71733          	sll	a4,a4,a1
    4a14:	00eeeeb3          	or	t4,t4,a4
    4a18:	01d03833          	snez	a6,t4
    4a1c:	01386833          	or	a6,a6,s3
    4a20:	bea5                	j	4598 <__subdf3+0xa4>
    4a22:	01e36333          	or	t1,t1,t5
    4a26:	00603833          	snez	a6,t1
    4a2a:	410e89b3          	sub	s3,t4,a6
    4a2e:	013eb7b3          	sltu	a5,t4,s3
    4a32:	40f70633          	sub	a2,a4,a5
    4a36:	84c6                	mv	s1,a7
    4a38:	8436                	mv	s0,a3
    4a3a:	b6ad                	j	45a4 <__subdf3+0xb0>
    4a3c:	01e367b3          	or	a5,t1,t5
    4a40:	18078763          	beqz	a5,4bce <__subdf3+0x6da>
    4a44:	fff58793          	addi	a5,a1,-1
    4a48:	1c078c63          	beqz	a5,4c20 <__subdf3+0x72c>
    4a4c:	7ff00693          	li	a3,2047
    4a50:	0ad58e63          	beq	a1,a3,4b0c <__subdf3+0x618>
    4a54:	85be                	mv	a1,a5
    4a56:	bd65                	j	490e <__subdf3+0x41a>
    4a58:	02000793          	li	a5,32
    4a5c:	8f8d                	sub	a5,a5,a1
    4a5e:	00bed9b3          	srl	s3,t4,a1
    4a62:	00f71833          	sll	a6,a4,a5
    4a66:	00fe9eb3          	sll	t4,t4,a5
    4a6a:	01386833          	or	a6,a6,s3
    4a6e:	00b75733          	srl	a4,a4,a1
    4a72:	01d039b3          	snez	s3,t4
    4a76:	01386833          	or	a6,a6,s3
    4a7a:	933a                	add	t1,t1,a4
    4a7c:	b365                	j	4824 <__subdf3+0x330>
    4a7e:	00361813          	slli	a6,a2,0x3
    4a82:	01d71793          	slli	a5,a4,0x1d
    4a86:	00385813          	srli	a6,a6,0x3
    4a8a:	0107e833          	or	a6,a5,a6
    4a8e:	8436                	mv	s0,a3
    4a90:	00375793          	srli	a5,a4,0x3
    4a94:	bb95                	j	4808 <__subdf3+0x314>
    4a96:	cbbd                	beqz	a5,4b0c <__subdf3+0x618>
    4a98:	01d76733          	or	a4,a4,t4
    4a9c:	dc071be3          	bnez	a4,4872 <__subdf3+0x37e>
    4aa0:	050e                	slli	a0,a0,0x3
    4aa2:	01d31813          	slli	a6,t1,0x1d
    4aa6:	810d                	srli	a0,a0,0x3
    4aa8:	00a86833          	or	a6,a6,a0
    4aac:	00335793          	srli	a5,t1,0x3
    4ab0:	bb75                	j	486c <__subdf3+0x378>
    4ab2:	e2080fe3          	beqz	a6,48f0 <__subdf3+0x3fc>
    4ab6:	00361813          	slli	a6,a2,0x3
    4aba:	01d71793          	slli	a5,a4,0x1d
    4abe:	00385813          	srli	a6,a6,0x3
    4ac2:	00f86833          	or	a6,a6,a5
    4ac6:	8436                	mv	s0,a3
    4ac8:	00375793          	srli	a5,a4,0x3
    4acc:	b391                	j	4810 <__subdf3+0x31c>
    4ace:	41df09b3          	sub	s3,t5,t4
    4ad2:	40e307b3          	sub	a5,t1,a4
    4ad6:	013f3f33          	sltu	t5,t5,s3
    4ada:	41e78633          	sub	a2,a5,t5
    4ade:	4485                	li	s1,1
    4ae0:	b4d1                	j	45a4 <__subdf3+0xb0>
    4ae2:	00351813          	slli	a6,a0,0x3
    4ae6:	01d31693          	slli	a3,t1,0x1d
    4aea:	00385813          	srli	a6,a6,0x3
    4aee:	0106e833          	or	a6,a3,a6
    4af2:	00335793          	srli	a5,t1,0x3
    4af6:	bb9d                	j	486c <__subdf3+0x378>
    4af8:	41ee89b3          	sub	s3,t4,t5
    4afc:	40670633          	sub	a2,a4,t1
    4b00:	013eb933          	sltu	s2,t4,s3
    4b04:	41260933          	sub	s2,a2,s2
    4b08:	8436                	mv	s0,a3
    4b0a:	b475                	j	45b6 <__subdf3+0xc2>
    4b0c:	060e                	slli	a2,a2,0x3
    4b0e:	01d71813          	slli	a6,a4,0x1d
    4b12:	820d                	srli	a2,a2,0x3
    4b14:	00c86833          	or	a6,a6,a2
    4b18:	00375793          	srli	a5,a4,0x3
    4b1c:	bb81                	j	486c <__subdf3+0x378>
    4b1e:	41df09b3          	sub	s3,t5,t4
    4b22:	40e307b3          	sub	a5,t1,a4
    4b26:	013f3633          	sltu	a2,t5,s3
    4b2a:	40c78633          	sub	a2,a5,a2
    4b2e:	00861793          	slli	a5,a2,0x8
    4b32:	0a07d763          	bgez	a5,4be0 <__subdf3+0x6ec>
    4b36:	41ee89b3          	sub	s3,t4,t5
    4b3a:	406707b3          	sub	a5,a4,t1
    4b3e:	013ebeb3          	sltu	t4,t4,s3
    4b42:	41d78633          	sub	a2,a5,t4
    4b46:	8436                	mv	s0,a3
    4b48:	b4c9                	j	460a <__subdf3+0x116>
    4b4a:	01e36333          	or	t1,t1,t5
    4b4e:	00603833          	snez	a6,t1
    4b52:	b3fd                	j	4940 <__subdf3+0x44c>
    4b54:	fe058813          	addi	a6,a1,-32
    4b58:	02000793          	li	a5,32
    4b5c:	010359b3          	srl	s3,t1,a6
    4b60:	00f58a63          	beq	a1,a5,4b74 <__subdf3+0x680>
    4b64:	04000793          	li	a5,64
    4b68:	40b785b3          	sub	a1,a5,a1
    4b6c:	00b31333          	sll	t1,t1,a1
    4b70:	006f6f33          	or	t5,t5,t1
    4b74:	01e03833          	snez	a6,t5
    4b78:	01386833          	or	a6,a6,s3
    4b7c:	b57d                	j	4a2a <__subdf3+0x536>
    4b7e:	41ee89b3          	sub	s3,t4,t5
    4b82:	406707b3          	sub	a5,a4,t1
    4b86:	013ebeb3          	sltu	t4,t4,s3
    4b8a:	41d78633          	sub	a2,a5,t4
    4b8e:	8436                	mv	s0,a3
    4b90:	4485                	li	s1,1
    4b92:	bc09                	j	45a4 <__subdf3+0xb0>
    4b94:	00361813          	slli	a6,a2,0x3
    4b98:	01d71793          	slli	a5,a4,0x1d
    4b9c:	00385813          	srli	a6,a6,0x3
    4ba0:	00f86833          	or	a6,a6,a5
    4ba4:	00375793          	srli	a5,a4,0x3
    4ba8:	b1a5                	j	4810 <__subdf3+0x31c>
    4baa:	01df09b3          	add	s3,t5,t4
    4bae:	00e307b3          	add	a5,t1,a4
    4bb2:	01e9bf33          	sltu	t5,s3,t5
    4bb6:	01e78633          	add	a2,a5,t5
    4bba:	00861793          	slli	a5,a2,0x8
    4bbe:	c207d8e3          	bgez	a5,47ee <__subdf3+0x2fa>
    4bc2:	ff8007b7          	lui	a5,0xff800
    4bc6:	17fd                	addi	a5,a5,-1
    4bc8:	8e7d                	and	a2,a2,a5
    4bca:	4485                	li	s1,1
    4bcc:	b10d                	j	47ee <__subdf3+0x2fa>
    4bce:	060e                	slli	a2,a2,0x3
    4bd0:	01d71813          	slli	a6,a4,0x1d
    4bd4:	820d                	srli	a2,a2,0x3
    4bd6:	00c86833          	or	a6,a6,a2
    4bda:	00375793          	srli	a5,a4,0x3
    4bde:	b12d                	j	4808 <__subdf3+0x314>
    4be0:	00c9e833          	or	a6,s3,a2
    4be4:	d00806e3          	beqz	a6,48f0 <__subdf3+0x3fc>
    4be8:	b119                	j	47ee <__subdf3+0x2fa>
    4bea:	fe058813          	addi	a6,a1,-32
    4bee:	02000793          	li	a5,32
    4bf2:	010359b3          	srl	s3,t1,a6
    4bf6:	00f58a63          	beq	a1,a5,4c0a <__subdf3+0x716>
    4bfa:	04000793          	li	a5,64
    4bfe:	40b785b3          	sub	a1,a5,a1
    4c02:	00b31333          	sll	t1,t1,a1
    4c06:	006f6f33          	or	t5,t5,t1
    4c0a:	01e03833          	snez	a6,t5
    4c0e:	01386833          	or	a6,a6,s3
    4c12:	b33d                	j	4940 <__subdf3+0x44c>
    4c14:	4401                	li	s0,0
    4c16:	7ff00713          	li	a4,2047
    4c1a:	000807b7          	lui	a5,0x80
    4c1e:	bc2d                	j	4658 <__subdf3+0x164>
    4c20:	01df09b3          	add	s3,t5,t4
    4c24:	00e307b3          	add	a5,t1,a4
    4c28:	01d9beb3          	sltu	t4,s3,t4
    4c2c:	01d78633          	add	a2,a5,t4
    4c30:	bb69                	j	49ca <__subdf3+0x4d6>

00004c32 <__floatsidf>:
    4c32:	1141                	addi	sp,sp,-16
    4c34:	c606                	sw	ra,12(sp)
    4c36:	c422                	sw	s0,8(sp)
    4c38:	c226                	sw	s1,4(sp)
    4c3a:	cd0d                	beqz	a0,4c74 <__floatsidf+0x42>
    4c3c:	41f55793          	srai	a5,a0,0x1f
    4c40:	00a7c4b3          	xor	s1,a5,a0
    4c44:	8c9d                	sub	s1,s1,a5
    4c46:	842a                	mv	s0,a0
    4c48:	8526                	mv	a0,s1
    4c4a:	262010ef          	jal	ra,5eac <__clzsi2>
    4c4e:	41e00693          	li	a3,1054
    4c52:	8e89                	sub	a3,a3,a0
    4c54:	47a9                	li	a5,10
    4c56:	807d                	srli	s0,s0,0x1f
    4c58:	7ff6f693          	andi	a3,a3,2047
    4c5c:	02a7cd63          	blt	a5,a0,4c96 <__floatsidf+0x64>
    4c60:	472d                	li	a4,11
    4c62:	8f09                	sub	a4,a4,a0
    4c64:	00e4d7b3          	srl	a5,s1,a4
    4c68:	0555                	addi	a0,a0,21
    4c6a:	07b2                	slli	a5,a5,0xc
    4c6c:	00a494b3          	sll	s1,s1,a0
    4c70:	83b1                	srli	a5,a5,0xc
    4c72:	a029                	j	4c7c <__floatsidf+0x4a>
    4c74:	4401                	li	s0,0
    4c76:	4681                	li	a3,0
    4c78:	4781                	li	a5,0
    4c7a:	4481                	li	s1,0
    4c7c:	07b2                	slli	a5,a5,0xc
    4c7e:	06d2                	slli	a3,a3,0x14
    4c80:	83b1                	srli	a5,a5,0xc
    4c82:	047e                	slli	s0,s0,0x1f
    4c84:	8fd5                	or	a5,a5,a3
    4c86:	8fc1                	or	a5,a5,s0
    4c88:	40b2                	lw	ra,12(sp)
    4c8a:	4422                	lw	s0,8(sp)
    4c8c:	8526                	mv	a0,s1
    4c8e:	85be                	mv	a1,a5
    4c90:	4492                	lw	s1,4(sp)
    4c92:	0141                	addi	sp,sp,16
    4c94:	8082                	ret
    4c96:	1555                	addi	a0,a0,-11
    4c98:	00a497b3          	sll	a5,s1,a0
    4c9c:	07b2                	slli	a5,a5,0xc
    4c9e:	83b1                	srli	a5,a5,0xc
    4ca0:	4481                	li	s1,0
    4ca2:	bfe9                	j	4c7c <__floatsidf+0x4a>

00004ca4 <__addsf3>:
    4ca4:	1141                	addi	sp,sp,-16
    4ca6:	00800737          	lui	a4,0x800
    4caa:	177d                	addi	a4,a4,-1
    4cac:	0175d813          	srli	a6,a1,0x17
    4cb0:	c226                	sw	s1,4(sp)
    4cb2:	01755493          	srli	s1,a0,0x17
    4cb6:	00a77333          	and	t1,a4,a0
    4cba:	0ff4f493          	andi	s1,s1,255
    4cbe:	00b776b3          	and	a3,a4,a1
    4cc2:	c04a                	sw	s2,0(sp)
    4cc4:	0ff87813          	andi	a6,a6,255
    4cc8:	01f55913          	srli	s2,a0,0x1f
    4ccc:	c606                	sw	ra,12(sp)
    4cce:	c422                	sw	s0,8(sp)
    4cd0:	81fd                	srli	a1,a1,0x1f
    4cd2:	879a                	mv	a5,t1
    4cd4:	8526                	mv	a0,s1
    4cd6:	864a                	mv	a2,s2
    4cd8:	00331e13          	slli	t3,t1,0x3
    4cdc:	00369e93          	slli	t4,a3,0x3
    4ce0:	410488b3          	sub	a7,s1,a6
    4ce4:	0eb90a63          	beq	s2,a1,4dd8 <__addsf3+0x134>
    4ce8:	0d105063          	blez	a7,4da8 <__addsf3+0x104>
    4cec:	14080463          	beqz	a6,4e34 <__addsf3+0x190>
    4cf0:	0ff00793          	li	a5,255
    4cf4:	14f48b63          	beq	s1,a5,4e4a <__addsf3+0x1a6>
    4cf8:	040007b7          	lui	a5,0x4000
    4cfc:	00feeeb3          	or	t4,t4,a5
    4d00:	47ed                	li	a5,27
    4d02:	2917c163          	blt	a5,a7,4f84 <__addsf3+0x2e0>
    4d06:	02000793          	li	a5,32
    4d0a:	411787b3          	sub	a5,a5,a7
    4d0e:	00fe97b3          	sll	a5,t4,a5
    4d12:	011ed8b3          	srl	a7,t4,a7
    4d16:	00f037b3          	snez	a5,a5
    4d1a:	00f8e7b3          	or	a5,a7,a5
    4d1e:	40fe07b3          	sub	a5,t3,a5
    4d22:	00579713          	slli	a4,a5,0x5
    4d26:	18075e63          	bgez	a4,4ec2 <__addsf3+0x21e>
    4d2a:	04000437          	lui	s0,0x4000
    4d2e:	147d                	addi	s0,s0,-1
    4d30:	8c7d                	and	s0,s0,a5
    4d32:	8522                	mv	a0,s0
    4d34:	178010ef          	jal	ra,5eac <__clzsi2>
    4d38:	156d                	addi	a0,a0,-5
    4d3a:	00a417b3          	sll	a5,s0,a0
    4d3e:	1a954863          	blt	a0,s1,4eee <__addsf3+0x24a>
    4d42:	8d05                	sub	a0,a0,s1
    4d44:	00150413          	addi	s0,a0,1 # 800001 <_data_lma+0x7f3c3d>
    4d48:	02000713          	li	a4,32
    4d4c:	8f01                	sub	a4,a4,s0
    4d4e:	00e79733          	sll	a4,a5,a4
    4d52:	00e03733          	snez	a4,a4
    4d56:	0087d7b3          	srl	a5,a5,s0
    4d5a:	8fd9                	or	a5,a5,a4
    4d5c:	4481                	li	s1,0
    4d5e:	0077f713          	andi	a4,a5,7
    4d62:	c719                	beqz	a4,4d70 <__addsf3+0xcc>
    4d64:	00f7f713          	andi	a4,a5,15
    4d68:	4691                	li	a3,4
    4d6a:	00d70363          	beq	a4,a3,4d70 <__addsf3+0xcc>
    4d6e:	0791                	addi	a5,a5,4
    4d70:	00579713          	slli	a4,a5,0x5
    4d74:	14075b63          	bgez	a4,4eca <__addsf3+0x226>
    4d78:	0485                	addi	s1,s1,1
    4d7a:	0ff00713          	li	a4,255
    4d7e:	864a                	mv	a2,s2
    4d80:	16e48363          	beq	s1,a4,4ee6 <__addsf3+0x242>
    4d84:	079a                	slli	a5,a5,0x6
    4d86:	83a5                	srli	a5,a5,0x9
    4d88:	0ff4f513          	andi	a0,s1,255
    4d8c:	40b2                	lw	ra,12(sp)
    4d8e:	4422                	lw	s0,8(sp)
    4d90:	07a6                	slli	a5,a5,0x9
    4d92:	01751493          	slli	s1,a0,0x17
    4d96:	0097d513          	srli	a0,a5,0x9
    4d9a:	8d45                	or	a0,a0,s1
    4d9c:	067e                	slli	a2,a2,0x1f
    4d9e:	4492                	lw	s1,4(sp)
    4da0:	4902                	lw	s2,0(sp)
    4da2:	8d51                	or	a0,a0,a2
    4da4:	0141                	addi	sp,sp,16
    4da6:	8082                	ret
    4da8:	0a089963          	bnez	a7,4e5a <__addsf3+0x1b6>
    4dac:	00148713          	addi	a4,s1,1
    4db0:	0fe77713          	andi	a4,a4,254
    4db4:	14071763          	bnez	a4,4f02 <__addsf3+0x25e>
    4db8:	22049063          	bnez	s1,4fd8 <__addsf3+0x334>
    4dbc:	1e0e0d63          	beqz	t3,4fb6 <__addsf3+0x312>
    4dc0:	fc0e86e3          	beqz	t4,4d8c <__addsf3+0xe8>
    4dc4:	41de07b3          	sub	a5,t3,t4
    4dc8:	00579713          	slli	a4,a5,0x5
    4dcc:	22075063          	bgez	a4,4fec <__addsf3+0x348>
    4dd0:	41ce87b3          	sub	a5,t4,t3
    4dd4:	892e                	mv	s2,a1
    4dd6:	b761                	j	4d5e <__addsf3+0xba>
    4dd8:	0b105c63          	blez	a7,4e90 <__addsf3+0x1ec>
    4ddc:	08080e63          	beqz	a6,4e78 <__addsf3+0x1d4>
    4de0:	0ff00793          	li	a5,255
    4de4:	06f48363          	beq	s1,a5,4e4a <__addsf3+0x1a6>
    4de8:	040007b7          	lui	a5,0x4000
    4dec:	00feeeb3          	or	t4,t4,a5
    4df0:	47ed                	li	a5,27
    4df2:	1f17c963          	blt	a5,a7,4fe4 <__addsf3+0x340>
    4df6:	02000793          	li	a5,32
    4dfa:	411787b3          	sub	a5,a5,a7
    4dfe:	00fe97b3          	sll	a5,t4,a5
    4e02:	011ed8b3          	srl	a7,t4,a7
    4e06:	00f037b3          	snez	a5,a5
    4e0a:	00f8e7b3          	or	a5,a7,a5
    4e0e:	97f2                	add	a5,a5,t3
    4e10:	00579713          	slli	a4,a5,0x5
    4e14:	0a075763          	bgez	a4,4ec2 <__addsf3+0x21e>
    4e18:	0485                	addi	s1,s1,1
    4e1a:	0ff00713          	li	a4,255
    4e1e:	0ce48463          	beq	s1,a4,4ee6 <__addsf3+0x242>
    4e22:	7e0006b7          	lui	a3,0x7e000
    4e26:	0017d713          	srli	a4,a5,0x1
    4e2a:	16fd                	addi	a3,a3,-1
    4e2c:	8b85                	andi	a5,a5,1
    4e2e:	8f75                	and	a4,a4,a3
    4e30:	8fd9                	or	a5,a5,a4
    4e32:	b735                	j	4d5e <__addsf3+0xba>
    4e34:	080e8d63          	beqz	t4,4ece <__addsf3+0x22a>
    4e38:	18fd                	addi	a7,a7,-1
    4e3a:	41de07b3          	sub	a5,t3,t4
    4e3e:	ee0882e3          	beqz	a7,4d22 <__addsf3+0x7e>
    4e42:	0ff00793          	li	a5,255
    4e46:	eaf49de3          	bne	s1,a5,4d00 <__addsf3+0x5c>
    4e4a:	08030d63          	beqz	t1,4ee4 <__addsf3+0x240>
    4e4e:	4601                	li	a2,0
    4e50:	0ff00513          	li	a0,255
    4e54:	004007b7          	lui	a5,0x400
    4e58:	bf15                	j	4d8c <__addsf3+0xe8>
    4e5a:	40980733          	sub	a4,a6,s1
    4e5e:	e8ed                	bnez	s1,4f50 <__addsf3+0x2ac>
    4e60:	140e0263          	beqz	t3,4fa4 <__addsf3+0x300>
    4e64:	177d                	addi	a4,a4,-1
    4e66:	18070863          	beqz	a4,4ff6 <__addsf3+0x352>
    4e6a:	0ff00793          	li	a5,255
    4e6e:	0ef81963          	bne	a6,a5,4f60 <__addsf3+0x2bc>
    4e72:	892e                	mv	s2,a1
    4e74:	8336                	mv	t1,a3
    4e76:	bfd1                	j	4e4a <__addsf3+0x1a6>
    4e78:	040e8b63          	beqz	t4,4ece <__addsf3+0x22a>
    4e7c:	18fd                	addi	a7,a7,-1
    4e7e:	01de07b3          	add	a5,t3,t4
    4e82:	f80887e3          	beqz	a7,4e10 <__addsf3+0x16c>
    4e86:	0ff00793          	li	a5,255
    4e8a:	f6f493e3          	bne	s1,a5,4df0 <__addsf3+0x14c>
    4e8e:	bf75                	j	4e4a <__addsf3+0x1a6>
    4e90:	08089563          	bnez	a7,4f1a <__addsf3+0x276>
    4e94:	0485                	addi	s1,s1,1
    4e96:	0fe4f713          	andi	a4,s1,254
    4e9a:	12071363          	bnez	a4,4fc0 <__addsf3+0x31c>
    4e9e:	10051763          	bnez	a0,4fac <__addsf3+0x308>
    4ea2:	140e0f63          	beqz	t3,5000 <__addsf3+0x35c>
    4ea6:	ee0e83e3          	beqz	t4,4d8c <__addsf3+0xe8>
    4eaa:	01de07b3          	add	a5,t3,t4
    4eae:	00579713          	slli	a4,a5,0x5
    4eb2:	4481                	li	s1,0
    4eb4:	00075763          	bgez	a4,4ec2 <__addsf3+0x21e>
    4eb8:	fc000737          	lui	a4,0xfc000
    4ebc:	177d                	addi	a4,a4,-1
    4ebe:	8ff9                	and	a5,a5,a4
    4ec0:	4485                	li	s1,1
    4ec2:	0077f713          	andi	a4,a5,7
    4ec6:	e8071fe3          	bnez	a4,4d64 <__addsf3+0xc0>
    4eca:	0037d313          	srli	t1,a5,0x3
    4ece:	0ff00793          	li	a5,255
    4ed2:	f6f48ce3          	beq	s1,a5,4e4a <__addsf3+0x1a6>
    4ed6:	00931793          	slli	a5,t1,0x9
    4eda:	83a5                	srli	a5,a5,0x9
    4edc:	0ff4f513          	andi	a0,s1,255
    4ee0:	864a                	mv	a2,s2
    4ee2:	b56d                	j	4d8c <__addsf3+0xe8>
    4ee4:	864a                	mv	a2,s2
    4ee6:	0ff00513          	li	a0,255
    4eea:	4781                	li	a5,0
    4eec:	b545                	j	4d8c <__addsf3+0xe8>
    4eee:	fc000737          	lui	a4,0xfc000
    4ef2:	177d                	addi	a4,a4,-1
    4ef4:	8ff9                	and	a5,a5,a4
    4ef6:	0077f713          	andi	a4,a5,7
    4efa:	8c89                	sub	s1,s1,a0
    4efc:	e60714e3          	bnez	a4,4d64 <__addsf3+0xc0>
    4f00:	b7e9                	j	4eca <__addsf3+0x226>
    4f02:	41de0433          	sub	s0,t3,t4
    4f06:	00541793          	slli	a5,s0,0x5
    4f0a:	0c07c363          	bltz	a5,4fd0 <__addsf3+0x32c>
    4f0e:	e20412e3          	bnez	s0,4d32 <__addsf3+0x8e>
    4f12:	4601                	li	a2,0
    4f14:	4501                	li	a0,0
    4f16:	4781                	li	a5,0
    4f18:	bd95                	j	4d8c <__addsf3+0xe8>
    4f1a:	40980733          	sub	a4,a6,s1
    4f1e:	c4ad                	beqz	s1,4f88 <__addsf3+0x2e4>
    4f20:	0ff00793          	li	a5,255
    4f24:	f4f808e3          	beq	a6,a5,4e74 <__addsf3+0x1d0>
    4f28:	040007b7          	lui	a5,0x4000
    4f2c:	00fe6e33          	or	t3,t3,a5
    4f30:	47ed                	li	a5,27
    4f32:	0ce7cc63          	blt	a5,a4,500a <__addsf3+0x366>
    4f36:	02000793          	li	a5,32
    4f3a:	8f99                	sub	a5,a5,a4
    4f3c:	00fe17b3          	sll	a5,t3,a5
    4f40:	00ee5733          	srl	a4,t3,a4
    4f44:	00f037b3          	snez	a5,a5
    4f48:	8fd9                	or	a5,a5,a4
    4f4a:	97f6                	add	a5,a5,t4
    4f4c:	84c2                	mv	s1,a6
    4f4e:	b5c9                	j	4e10 <__addsf3+0x16c>
    4f50:	0ff00793          	li	a5,255
    4f54:	f0f80fe3          	beq	a6,a5,4e72 <__addsf3+0x1ce>
    4f58:	040007b7          	lui	a5,0x4000
    4f5c:	00fe6e33          	or	t3,t3,a5
    4f60:	47ed                	li	a5,27
    4f62:	08e7c363          	blt	a5,a4,4fe8 <__addsf3+0x344>
    4f66:	02000693          	li	a3,32
    4f6a:	8e99                	sub	a3,a3,a4
    4f6c:	00de16b3          	sll	a3,t3,a3
    4f70:	00ee57b3          	srl	a5,t3,a4
    4f74:	00d03733          	snez	a4,a3
    4f78:	8fd9                	or	a5,a5,a4
    4f7a:	40fe87b3          	sub	a5,t4,a5
    4f7e:	84c2                	mv	s1,a6
    4f80:	892e                	mv	s2,a1
    4f82:	b345                	j	4d22 <__addsf3+0x7e>
    4f84:	4785                	li	a5,1
    4f86:	bb61                	j	4d1e <__addsf3+0x7a>
    4f88:	060e0e63          	beqz	t3,5004 <__addsf3+0x360>
    4f8c:	177d                	addi	a4,a4,-1
    4f8e:	01de07b3          	add	a5,t3,t4
    4f92:	84c2                	mv	s1,a6
    4f94:	e6070ee3          	beqz	a4,4e10 <__addsf3+0x16c>
    4f98:	0ff00793          	li	a5,255
    4f9c:	f8f81ae3          	bne	a6,a5,4f30 <__addsf3+0x28c>
    4fa0:	8336                	mv	t1,a3
    4fa2:	b565                	j	4e4a <__addsf3+0x1a6>
    4fa4:	8336                	mv	t1,a3
    4fa6:	84c2                	mv	s1,a6
    4fa8:	892e                	mv	s2,a1
    4faa:	b715                	j	4ece <__addsf3+0x22a>
    4fac:	ec0e04e3          	beqz	t3,4e74 <__addsf3+0x1d0>
    4fb0:	e80e8de3          	beqz	t4,4e4a <__addsf3+0x1a6>
    4fb4:	bd69                	j	4e4e <__addsf3+0x1aa>
    4fb6:	020e8d63          	beqz	t4,4ff0 <__addsf3+0x34c>
    4fba:	862e                	mv	a2,a1
    4fbc:	87b6                	mv	a5,a3
    4fbe:	b3f9                	j	4d8c <__addsf3+0xe8>
    4fc0:	0ff00793          	li	a5,255
    4fc4:	f2f481e3          	beq	s1,a5,4ee6 <__addsf3+0x242>
    4fc8:	01de07b3          	add	a5,t3,t4
    4fcc:	8385                	srli	a5,a5,0x1
    4fce:	bdd5                	j	4ec2 <__addsf3+0x21e>
    4fd0:	41ce8433          	sub	s0,t4,t3
    4fd4:	892e                	mv	s2,a1
    4fd6:	bbb1                	j	4d32 <__addsf3+0x8e>
    4fd8:	fc0e1ce3          	bnez	t3,4fb0 <__addsf3+0x30c>
    4fdc:	e60e89e3          	beqz	t4,4e4e <__addsf3+0x1aa>
    4fe0:	892e                	mv	s2,a1
    4fe2:	bd49                	j	4e74 <__addsf3+0x1d0>
    4fe4:	4785                	li	a5,1
    4fe6:	b525                	j	4e0e <__addsf3+0x16a>
    4fe8:	4785                	li	a5,1
    4fea:	bf41                	j	4f7a <__addsf3+0x2d6>
    4fec:	ec079be3          	bnez	a5,4ec2 <__addsf3+0x21e>
    4ff0:	4601                	li	a2,0
    4ff2:	4781                	li	a5,0
    4ff4:	bb61                	j	4d8c <__addsf3+0xe8>
    4ff6:	41ce87b3          	sub	a5,t4,t3
    4ffa:	84c2                	mv	s1,a6
    4ffc:	892e                	mv	s2,a1
    4ffe:	b315                	j	4d22 <__addsf3+0x7e>
    5000:	87b6                	mv	a5,a3
    5002:	b369                	j	4d8c <__addsf3+0xe8>
    5004:	8336                	mv	t1,a3
    5006:	84c2                	mv	s1,a6
    5008:	b5d9                	j	4ece <__addsf3+0x22a>
    500a:	4785                	li	a5,1
    500c:	bf3d                	j	4f4a <__addsf3+0x2a6>

0000500e <__divsf3>:
    500e:	7139                	addi	sp,sp,-64
    5010:	01755793          	srli	a5,a0,0x17
    5014:	d84a                	sw	s2,48(sp)
    5016:	d256                	sw	s5,36(sp)
    5018:	ce5e                	sw	s7,28(sp)
    501a:	00951a93          	slli	s5,a0,0x9
    501e:	01f55913          	srli	s2,a0,0x1f
    5022:	de06                	sw	ra,60(sp)
    5024:	dc22                	sw	s0,56(sp)
    5026:	da26                	sw	s1,52(sp)
    5028:	d64e                	sw	s3,44(sp)
    502a:	d452                	sw	s4,40(sp)
    502c:	d05a                	sw	s6,32(sp)
    502e:	0ff7f793          	andi	a5,a5,255
    5032:	009ada93          	srli	s5,s5,0x9
    5036:	8bca                	mv	s7,s2
    5038:	12078263          	beqz	a5,515c <__divsf3+0x14e>
    503c:	0ff00713          	li	a4,255
    5040:	12e78463          	beq	a5,a4,5168 <__divsf3+0x15a>
    5044:	0a8e                	slli	s5,s5,0x3
    5046:	04000737          	lui	a4,0x4000
    504a:	00eaeab3          	or	s5,s5,a4
    504e:	f8178a13          	addi	s4,a5,-127 # 3ffff81 <_data_lma+0x3ff3bbd>
    5052:	4401                	li	s0,0
    5054:	4b01                	li	s6,0
    5056:	0175d793          	srli	a5,a1,0x17
    505a:	00959493          	slli	s1,a1,0x9
    505e:	0ff7f793          	andi	a5,a5,255
    5062:	80a5                	srli	s1,s1,0x9
    5064:	01f5d993          	srli	s3,a1,0x1f
    5068:	c7fd                	beqz	a5,5156 <__divsf3+0x148>
    506a:	0ff00713          	li	a4,255
    506e:	02e78763          	beq	a5,a4,509c <__divsf3+0x8e>
    5072:	048e                	slli	s1,s1,0x3
    5074:	f8178793          	addi	a5,a5,-127
    5078:	04000737          	lui	a4,0x4000
    507c:	8cd9                	or	s1,s1,a4
    507e:	40fa0a33          	sub	s4,s4,a5
    5082:	4681                	li	a3,0
    5084:	8c55                	or	s0,s0,a3
    5086:	00007717          	auipc	a4,0x7
    508a:	db270713          	addi	a4,a4,-590 # be38 <table_week+0xfc>
    508e:	040a                	slli	s0,s0,0x2
    5090:	943a                	add	s0,s0,a4
    5092:	401c                	lw	a5,0(s0)
    5094:	01394933          	xor	s2,s2,s3
    5098:	97ba                	add	a5,a5,a4
    509a:	8782                	jr	a5
    509c:	f01a0a13          	addi	s4,s4,-255
    50a0:	e8f9                	bnez	s1,5176 <__divsf3+0x168>
    50a2:	4689                	li	a3,2
    50a4:	8c55                	or	s0,s0,a3
    50a6:	00007717          	auipc	a4,0x7
    50aa:	dd270713          	addi	a4,a4,-558 # be78 <table_week+0x13c>
    50ae:	040a                	slli	s0,s0,0x2
    50b0:	943a                	add	s0,s0,a4
    50b2:	401c                	lw	a5,0(s0)
    50b4:	01394933          	xor	s2,s2,s3
    50b8:	97ba                	add	a5,a5,a4
    50ba:	8782                	jr	a5
    50bc:	4901                	li	s2,0
    50be:	0ff00713          	li	a4,255
    50c2:	004007b7          	lui	a5,0x400
    50c6:	00979513          	slli	a0,a5,0x9
    50ca:	50f2                	lw	ra,60(sp)
    50cc:	5462                	lw	s0,56(sp)
    50ce:	01771793          	slli	a5,a4,0x17
    50d2:	8125                	srli	a0,a0,0x9
    50d4:	097e                	slli	s2,s2,0x1f
    50d6:	8d5d                	or	a0,a0,a5
    50d8:	01256533          	or	a0,a0,s2
    50dc:	54d2                	lw	s1,52(sp)
    50de:	5942                	lw	s2,48(sp)
    50e0:	59b2                	lw	s3,44(sp)
    50e2:	5a22                	lw	s4,40(sp)
    50e4:	5a92                	lw	s5,36(sp)
    50e6:	5b02                	lw	s6,32(sp)
    50e8:	4bf2                	lw	s7,28(sp)
    50ea:	6121                	addi	sp,sp,64
    50ec:	8082                	ret
    50ee:	0ff00713          	li	a4,255
    50f2:	4781                	li	a5,0
    50f4:	bfc9                	j	50c6 <__divsf3+0xb8>
    50f6:	8aa6                	mv	s5,s1
    50f8:	8bce                	mv	s7,s3
    50fa:	8b36                	mv	s6,a3
    50fc:	4789                	li	a5,2
    50fe:	1afb0b63          	beq	s6,a5,52b4 <__divsf3+0x2a6>
    5102:	478d                	li	a5,3
    5104:	fafb0ce3          	beq	s6,a5,50bc <__divsf3+0xae>
    5108:	4785                	li	a5,1
    510a:	0afb0a63          	beq	s6,a5,51be <__divsf3+0x1b0>
    510e:	07fa0713          	addi	a4,s4,127
    5112:	001bf913          	andi	s2,s7,1
    5116:	12e05763          	blez	a4,5244 <__divsf3+0x236>
    511a:	007af793          	andi	a5,s5,7
    511e:	c799                	beqz	a5,512c <__divsf3+0x11e>
    5120:	00faf793          	andi	a5,s5,15
    5124:	4691                	li	a3,4
    5126:	00d78363          	beq	a5,a3,512c <__divsf3+0x11e>
    512a:	0a91                	addi	s5,s5,4
    512c:	004a9793          	slli	a5,s5,0x4
    5130:	0007d963          	bgez	a5,5142 <__divsf3+0x134>
    5134:	f80007b7          	lui	a5,0xf8000
    5138:	17fd                	addi	a5,a5,-1
    513a:	00fafab3          	and	s5,s5,a5
    513e:	080a0713          	addi	a4,s4,128
    5142:	0fe00793          	li	a5,254
    5146:	fae7c4e3          	blt	a5,a4,50ee <__divsf3+0xe0>
    514a:	006a9793          	slli	a5,s5,0x6
    514e:	83a5                	srli	a5,a5,0x9
    5150:	0ff77713          	andi	a4,a4,255
    5154:	bf8d                	j	50c6 <__divsf3+0xb8>
    5156:	e4b9                	bnez	s1,51a4 <__divsf3+0x196>
    5158:	4685                	li	a3,1
    515a:	b7a9                	j	50a4 <__divsf3+0x96>
    515c:	020a9463          	bnez	s5,5184 <__divsf3+0x176>
    5160:	4411                	li	s0,4
    5162:	4a01                	li	s4,0
    5164:	4b05                	li	s6,1
    5166:	bdc5                	j	5056 <__divsf3+0x48>
    5168:	000a9963          	bnez	s5,517a <__divsf3+0x16c>
    516c:	4421                	li	s0,8
    516e:	0ff00a13          	li	s4,255
    5172:	4b09                	li	s6,2
    5174:	b5cd                	j	5056 <__divsf3+0x48>
    5176:	468d                	li	a3,3
    5178:	b731                	j	5084 <__divsf3+0x76>
    517a:	4431                	li	s0,12
    517c:	0ff00a13          	li	s4,255
    5180:	4b0d                	li	s6,3
    5182:	bdd1                	j	5056 <__divsf3+0x48>
    5184:	8556                	mv	a0,s5
    5186:	c62e                	sw	a1,12(sp)
    5188:	525000ef          	jal	ra,5eac <__clzsi2>
    518c:	ffb50793          	addi	a5,a0,-5
    5190:	00fa9ab3          	sll	s5,s5,a5
    5194:	f8a00793          	li	a5,-118
    5198:	40a78a33          	sub	s4,a5,a0
    519c:	4401                	li	s0,0
    519e:	4b01                	li	s6,0
    51a0:	45b2                	lw	a1,12(sp)
    51a2:	bd55                	j	5056 <__divsf3+0x48>
    51a4:	8526                	mv	a0,s1
    51a6:	507000ef          	jal	ra,5eac <__clzsi2>
    51aa:	ffb50713          	addi	a4,a0,-5
    51ae:	00aa07b3          	add	a5,s4,a0
    51b2:	00e494b3          	sll	s1,s1,a4
    51b6:	07678a13          	addi	s4,a5,118 # f8000076 <_eusrstack+0xd7ff8076>
    51ba:	4681                	li	a3,0
    51bc:	b5e1                	j	5084 <__divsf3+0x76>
    51be:	001bf913          	andi	s2,s7,1
    51c2:	4701                	li	a4,0
    51c4:	4781                	li	a5,0
    51c6:	b701                	j	50c6 <__divsf3+0xb8>
    51c8:	6641                	lui	a2,0x10
    51ca:	00549513          	slli	a0,s1,0x5
    51ce:	167d                	addi	a2,a2,-1
    51d0:	01055793          	srli	a5,a0,0x10
    51d4:	8e69                	and	a2,a2,a0
    51d6:	0a9afa63          	bgeu	s5,s1,528a <__divsf3+0x27c>
    51da:	02fad5b3          	divu	a1,s5,a5
    51de:	1a7d                	addi	s4,s4,-1
    51e0:	86d6                	mv	a3,s5
    51e2:	4701                	li	a4,0
    51e4:	02c58833          	mul	a6,a1,a2
    51e8:	02f6f6b3          	remu	a3,a3,a5
    51ec:	06c2                	slli	a3,a3,0x10
    51ee:	8f55                	or	a4,a4,a3
    51f0:	01077b63          	bgeu	a4,a6,5206 <__divsf3+0x1f8>
    51f4:	972a                	add	a4,a4,a0
    51f6:	fff58693          	addi	a3,a1,-1
    51fa:	0aa76863          	bltu	a4,a0,52aa <__divsf3+0x29c>
    51fe:	0b077663          	bgeu	a4,a6,52aa <__divsf3+0x29c>
    5202:	15f9                	addi	a1,a1,-2
    5204:	972a                	add	a4,a4,a0
    5206:	41070733          	sub	a4,a4,a6
    520a:	02f756b3          	divu	a3,a4,a5
    520e:	02f77733          	remu	a4,a4,a5
    5212:	02c68ab3          	mul	s5,a3,a2
    5216:	01071793          	slli	a5,a4,0x10
    521a:	0157fb63          	bgeu	a5,s5,5230 <__divsf3+0x222>
    521e:	97aa                	add	a5,a5,a0
    5220:	fff68713          	addi	a4,a3,-1 # 7dffffff <_eusrstack+0x5dff7fff>
    5224:	08a7e163          	bltu	a5,a0,52a6 <__divsf3+0x298>
    5228:	0757ff63          	bgeu	a5,s5,52a6 <__divsf3+0x298>
    522c:	16f9                	addi	a3,a3,-2
    522e:	97aa                	add	a5,a5,a0
    5230:	05c2                	slli	a1,a1,0x10
    5232:	41578ab3          	sub	s5,a5,s5
    5236:	8dd5                	or	a1,a1,a3
    5238:	01503ab3          	snez	s5,s5
    523c:	0155eab3          	or	s5,a1,s5
    5240:	8bca                	mv	s7,s2
    5242:	b5f1                	j	510e <__divsf3+0x100>
    5244:	4685                	li	a3,1
    5246:	8e99                	sub	a3,a3,a4
    5248:	c711                	beqz	a4,5254 <__divsf3+0x246>
    524a:	466d                	li	a2,27
    524c:	4701                	li	a4,0
    524e:	4781                	li	a5,0
    5250:	e6d64be3          	blt	a2,a3,50c6 <__divsf3+0xb8>
    5254:	09ea0a13          	addi	s4,s4,158
    5258:	014a9a33          	sll	s4,s5,s4
    525c:	00dad7b3          	srl	a5,s5,a3
    5260:	01403ab3          	snez	s5,s4
    5264:	0157e7b3          	or	a5,a5,s5
    5268:	0077f713          	andi	a4,a5,7
    526c:	c719                	beqz	a4,527a <__divsf3+0x26c>
    526e:	00f7f713          	andi	a4,a5,15
    5272:	4691                	li	a3,4
    5274:	00d70363          	beq	a4,a3,527a <__divsf3+0x26c>
    5278:	0791                	addi	a5,a5,4
    527a:	00579713          	slli	a4,a5,0x5
    527e:	02074863          	bltz	a4,52ae <__divsf3+0x2a0>
    5282:	079a                	slli	a5,a5,0x6
    5284:	83a5                	srli	a5,a5,0x9
    5286:	4701                	li	a4,0
    5288:	bd3d                	j	50c6 <__divsf3+0xb8>
    528a:	001ad693          	srli	a3,s5,0x1
    528e:	02f6d5b3          	divu	a1,a3,a5
    5292:	01fa9713          	slli	a4,s5,0x1f
    5296:	8341                	srli	a4,a4,0x10
    5298:	02c58833          	mul	a6,a1,a2
    529c:	b7b1                	j	51e8 <__divsf3+0x1da>
    529e:	8bce                	mv	s7,s3
    52a0:	8b36                	mv	s6,a3
    52a2:	4a81                	li	s5,0
    52a4:	bda1                	j	50fc <__divsf3+0xee>
    52a6:	86ba                	mv	a3,a4
    52a8:	b761                	j	5230 <__divsf3+0x222>
    52aa:	85b6                	mv	a1,a3
    52ac:	bfa9                	j	5206 <__divsf3+0x1f8>
    52ae:	4705                	li	a4,1
    52b0:	4781                	li	a5,0
    52b2:	bd11                	j	50c6 <__divsf3+0xb8>
    52b4:	001bf913          	andi	s2,s7,1
    52b8:	0ff00713          	li	a4,255
    52bc:	4781                	li	a5,0
    52be:	b521                	j	50c6 <__divsf3+0xb8>

000052c0 <__eqsf2>:
    52c0:	01755693          	srli	a3,a0,0x17
    52c4:	008007b7          	lui	a5,0x800
    52c8:	17fd                	addi	a5,a5,-1
    52ca:	0175d613          	srli	a2,a1,0x17
    52ce:	0ff6f693          	andi	a3,a3,255
    52d2:	0ff00813          	li	a6,255
    52d6:	00a7f8b3          	and	a7,a5,a0
    52da:	01f55713          	srli	a4,a0,0x1f
    52de:	8fed                	and	a5,a5,a1
    52e0:	0ff67613          	andi	a2,a2,255
    52e4:	81fd                	srli	a1,a1,0x1f
    52e6:	03068463          	beq	a3,a6,530e <__eqsf2+0x4e>
    52ea:	0ff00513          	li	a0,255
    52ee:	02a60463          	beq	a2,a0,5316 <__eqsf2+0x56>
    52f2:	4505                	li	a0,1
    52f4:	00c68363          	beq	a3,a2,52fa <__eqsf2+0x3a>
    52f8:	8082                	ret
    52fa:	fef89fe3          	bne	a7,a5,52f8 <__eqsf2+0x38>
    52fe:	4501                	li	a0,0
    5300:	feb70ce3          	beq	a4,a1,52f8 <__eqsf2+0x38>
    5304:	4505                	li	a0,1
    5306:	faed                	bnez	a3,52f8 <__eqsf2+0x38>
    5308:	01103533          	snez	a0,a7
    530c:	8082                	ret
    530e:	4505                	li	a0,1
    5310:	fc088de3          	beqz	a7,52ea <__eqsf2+0x2a>
    5314:	8082                	ret
    5316:	4505                	li	a0,1
    5318:	dfe9                	beqz	a5,52f2 <__eqsf2+0x32>
    531a:	8082                	ret

0000531c <__gesf2>:
    531c:	01755693          	srli	a3,a0,0x17
    5320:	008007b7          	lui	a5,0x800
    5324:	17fd                	addi	a5,a5,-1
    5326:	0175d613          	srli	a2,a1,0x17
    532a:	0ff6f693          	andi	a3,a3,255
    532e:	0ff00813          	li	a6,255
    5332:	00a7f8b3          	and	a7,a5,a0
    5336:	01f55713          	srli	a4,a0,0x1f
    533a:	8fed                	and	a5,a5,a1
    533c:	0ff67613          	andi	a2,a2,255
    5340:	81fd                	srli	a1,a1,0x1f
    5342:	03068163          	beq	a3,a6,5364 <__gesf2+0x48>
    5346:	01060c63          	beq	a2,a6,535e <__gesf2+0x42>
    534a:	e28d                	bnez	a3,536c <__gesf2+0x50>
    534c:	e211                	bnez	a2,5350 <__gesf2+0x34>
    534e:	c3b1                	beqz	a5,5392 <__gesf2+0x76>
    5350:	02088e63          	beqz	a7,538c <__gesf2+0x70>
    5354:	04b70563          	beq	a4,a1,539e <__gesf2+0x82>
    5358:	4505                	li	a0,1
    535a:	e71d                	bnez	a4,5388 <__gesf2+0x6c>
    535c:	8082                	ret
    535e:	d7f5                	beqz	a5,534a <__gesf2+0x2e>
    5360:	5579                	li	a0,-2
    5362:	8082                	ret
    5364:	fe089ee3          	bnez	a7,5360 <__gesf2+0x44>
    5368:	02d60963          	beq	a2,a3,539a <__gesf2+0x7e>
    536c:	e211                	bnez	a2,5370 <__gesf2+0x54>
    536e:	d7ed                	beqz	a5,5358 <__gesf2+0x3c>
    5370:	feb714e3          	bne	a4,a1,5358 <__gesf2+0x3c>
    5374:	fed642e3          	blt	a2,a3,5358 <__gesf2+0x3c>
    5378:	00c6c763          	blt	a3,a2,5386 <__gesf2+0x6a>
    537c:	fd17eee3          	bltu	a5,a7,5358 <__gesf2+0x3c>
    5380:	4501                	li	a0,0
    5382:	fcf8fde3          	bgeu	a7,a5,535c <__gesf2+0x40>
    5386:	e701                	bnez	a4,538e <__gesf2+0x72>
    5388:	557d                	li	a0,-1
    538a:	8082                	ret
    538c:	ddf5                	beqz	a1,5388 <__gesf2+0x6c>
    538e:	4505                	li	a0,1
    5390:	8082                	ret
    5392:	4501                	li	a0,0
    5394:	fc0892e3          	bnez	a7,5358 <__gesf2+0x3c>
    5398:	8082                	ret
    539a:	dbf9                	beqz	a5,5370 <__gesf2+0x54>
    539c:	b7d1                	j	5360 <__gesf2+0x44>
    539e:	4681                	li	a3,0
    53a0:	bfe1                	j	5378 <__gesf2+0x5c>

000053a2 <__lesf2>:
    53a2:	01755693          	srli	a3,a0,0x17
    53a6:	008007b7          	lui	a5,0x800
    53aa:	17fd                	addi	a5,a5,-1
    53ac:	0175d613          	srli	a2,a1,0x17
    53b0:	0ff6f693          	andi	a3,a3,255
    53b4:	0ff00813          	li	a6,255
    53b8:	00a7f8b3          	and	a7,a5,a0
    53bc:	01f55713          	srli	a4,a0,0x1f
    53c0:	8fed                	and	a5,a5,a1
    53c2:	0ff67613          	andi	a2,a2,255
    53c6:	81fd                	srli	a1,a1,0x1f
    53c8:	03068763          	beq	a3,a6,53f6 <__lesf2+0x54>
    53cc:	01060963          	beq	a2,a6,53de <__lesf2+0x3c>
    53d0:	ea85                	bnez	a3,5400 <__lesf2+0x5e>
    53d2:	ea11                	bnez	a2,53e6 <__lesf2+0x44>
    53d4:	eb89                	bnez	a5,53e6 <__lesf2+0x44>
    53d6:	4501                	li	a0,0
    53d8:	00089b63          	bnez	a7,53ee <__lesf2+0x4c>
    53dc:	8082                	ret
    53de:	4509                	li	a0,2
    53e0:	fff5                	bnez	a5,53dc <__lesf2+0x3a>
    53e2:	dae5                	beqz	a3,53d2 <__lesf2+0x30>
    53e4:	a831                	j	5400 <__lesf2+0x5e>
    53e6:	02088c63          	beqz	a7,541e <__lesf2+0x7c>
    53ea:	04b70063          	beq	a4,a1,542a <__lesf2+0x88>
    53ee:	4505                	li	a0,1
    53f0:	d775                	beqz	a4,53dc <__lesf2+0x3a>
    53f2:	557d                	li	a0,-1
    53f4:	8082                	ret
    53f6:	4509                	li	a0,2
    53f8:	02089863          	bnez	a7,5428 <__lesf2+0x86>
    53fc:	02d60463          	beq	a2,a3,5424 <__lesf2+0x82>
    5400:	e211                	bnez	a2,5404 <__lesf2+0x62>
    5402:	d7f5                	beqz	a5,53ee <__lesf2+0x4c>
    5404:	feb715e3          	bne	a4,a1,53ee <__lesf2+0x4c>
    5408:	fed643e3          	blt	a2,a3,53ee <__lesf2+0x4c>
    540c:	00c6c763          	blt	a3,a2,541a <__lesf2+0x78>
    5410:	fd17efe3          	bltu	a5,a7,53ee <__lesf2+0x4c>
    5414:	4501                	li	a0,0
    5416:	fcf8f3e3          	bgeu	a7,a5,53dc <__lesf2+0x3a>
    541a:	e319                	bnez	a4,5420 <__lesf2+0x7e>
    541c:	bfd9                	j	53f2 <__lesf2+0x50>
    541e:	d9f1                	beqz	a1,53f2 <__lesf2+0x50>
    5420:	4505                	li	a0,1
    5422:	8082                	ret
    5424:	d3e5                	beqz	a5,5404 <__lesf2+0x62>
    5426:	8082                	ret
    5428:	8082                	ret
    542a:	4681                	li	a3,0
    542c:	b7c5                	j	540c <__lesf2+0x6a>

0000542e <__mulsf3>:
    542e:	7179                	addi	sp,sp,-48
    5430:	d422                	sw	s0,40(sp)
    5432:	01755413          	srli	s0,a0,0x17
    5436:	ce4e                	sw	s3,28(sp)
    5438:	cc52                	sw	s4,24(sp)
    543a:	00951993          	slli	s3,a0,0x9
    543e:	d606                	sw	ra,44(sp)
    5440:	d226                	sw	s1,36(sp)
    5442:	d04a                	sw	s2,32(sp)
    5444:	ca56                	sw	s5,20(sp)
    5446:	c85a                	sw	s6,16(sp)
    5448:	0ff47413          	andi	s0,s0,255
    544c:	0099d993          	srli	s3,s3,0x9
    5450:	01f55a13          	srli	s4,a0,0x1f
    5454:	c469                	beqz	s0,551e <__mulsf3+0xf0>
    5456:	0ff00793          	li	a5,255
    545a:	0ef40863          	beq	s0,a5,554a <__mulsf3+0x11c>
    545e:	00399793          	slli	a5,s3,0x3
    5462:	04000737          	lui	a4,0x4000
    5466:	00e7e9b3          	or	s3,a5,a4
    546a:	f8140413          	addi	s0,s0,-127 # 3ffff81 <_data_lma+0x3ff3bbd>
    546e:	4481                	li	s1,0
    5470:	4b01                	li	s6,0
    5472:	0175d713          	srli	a4,a1,0x17
    5476:	00959a93          	slli	s5,a1,0x9
    547a:	0ff77713          	andi	a4,a4,255
    547e:	009ada93          	srli	s5,s5,0x9
    5482:	01f5d913          	srli	s2,a1,0x1f
    5486:	cf45                	beqz	a4,553e <__mulsf3+0x110>
    5488:	0ff00793          	li	a5,255
    548c:	02f70c63          	beq	a4,a5,54c4 <__mulsf3+0x96>
    5490:	0a8e                	slli	s5,s5,0x3
    5492:	f8170713          	addi	a4,a4,-127 # 3ffff81 <_data_lma+0x3ff3bbd>
    5496:	040007b7          	lui	a5,0x4000
    549a:	00faeab3          	or	s5,s5,a5
    549e:	943a                	add	s0,s0,a4
    54a0:	4601                	li	a2,0
    54a2:	012a4533          	xor	a0,s4,s2
    54a6:	47bd                	li	a5,15
    54a8:	86aa                	mv	a3,a0
    54aa:	00140593          	addi	a1,s0,1
    54ae:	1097e263          	bltu	a5,s1,55b2 <__mulsf3+0x184>
    54b2:	00007717          	auipc	a4,0x7
    54b6:	a0670713          	addi	a4,a4,-1530 # beb8 <table_week+0x17c>
    54ba:	048a                	slli	s1,s1,0x2
    54bc:	94ba                	add	s1,s1,a4
    54be:	409c                	lw	a5,0(s1)
    54c0:	97ba                	add	a5,a5,a4
    54c2:	8782                	jr	a5
    54c4:	0ff40413          	addi	s0,s0,255
    54c8:	0c0a9863          	bnez	s5,5598 <__mulsf3+0x16a>
    54cc:	0024e493          	ori	s1,s1,2
    54d0:	4609                	li	a2,2
    54d2:	bfc1                	j	54a2 <__mulsf3+0x74>
    54d4:	4501                	li	a0,0
    54d6:	0ff00713          	li	a4,255
    54da:	004007b7          	lui	a5,0x400
    54de:	50b2                	lw	ra,44(sp)
    54e0:	5422                	lw	s0,40(sp)
    54e2:	07a6                	slli	a5,a5,0x9
    54e4:	075e                	slli	a4,a4,0x17
    54e6:	83a5                	srli	a5,a5,0x9
    54e8:	057e                	slli	a0,a0,0x1f
    54ea:	8fd9                	or	a5,a5,a4
    54ec:	5492                	lw	s1,36(sp)
    54ee:	5902                	lw	s2,32(sp)
    54f0:	49f2                	lw	s3,28(sp)
    54f2:	4a62                	lw	s4,24(sp)
    54f4:	4ad2                	lw	s5,20(sp)
    54f6:	4b42                	lw	s6,16(sp)
    54f8:	8d5d                	or	a0,a0,a5
    54fa:	6145                	addi	sp,sp,48
    54fc:	8082                	ret
    54fe:	86ca                	mv	a3,s2
    5500:	89d6                	mv	s3,s5
    5502:	8b32                	mv	s6,a2
    5504:	4789                	li	a5,2
    5506:	0afb0163          	beq	s6,a5,55a8 <__mulsf3+0x17a>
    550a:	478d                	li	a5,3
    550c:	fcfb04e3          	beq	s6,a5,54d4 <__mulsf3+0xa6>
    5510:	4785                	li	a5,1
    5512:	8536                	mv	a0,a3
    5514:	1afb1263          	bne	s6,a5,56b8 <__mulsf3+0x28a>
    5518:	4701                	li	a4,0
    551a:	4781                	li	a5,0
    551c:	b7c9                	j	54de <__mulsf3+0xb0>
    551e:	04099e63          	bnez	s3,557a <__mulsf3+0x14c>
    5522:	0175d713          	srli	a4,a1,0x17
    5526:	00959a93          	slli	s5,a1,0x9
    552a:	0ff77713          	andi	a4,a4,255
    552e:	4491                	li	s1,4
    5530:	4401                	li	s0,0
    5532:	4b05                	li	s6,1
    5534:	009ada93          	srli	s5,s5,0x9
    5538:	01f5d913          	srli	s2,a1,0x1f
    553c:	f731                	bnez	a4,5488 <__mulsf3+0x5a>
    553e:	000a9d63          	bnez	s5,5558 <__mulsf3+0x12a>
    5542:	0014e493          	ori	s1,s1,1
    5546:	4605                	li	a2,1
    5548:	bfa9                	j	54a2 <__mulsf3+0x74>
    554a:	02099363          	bnez	s3,5570 <__mulsf3+0x142>
    554e:	44a1                	li	s1,8
    5550:	0ff00413          	li	s0,255
    5554:	4b09                	li	s6,2
    5556:	bf31                	j	5472 <__mulsf3+0x44>
    5558:	8556                	mv	a0,s5
    555a:	153000ef          	jal	ra,5eac <__clzsi2>
    555e:	ffb50793          	addi	a5,a0,-5
    5562:	8c09                	sub	s0,s0,a0
    5564:	00fa9ab3          	sll	s5,s5,a5
    5568:	f8a40413          	addi	s0,s0,-118
    556c:	4601                	li	a2,0
    556e:	bf15                	j	54a2 <__mulsf3+0x74>
    5570:	44b1                	li	s1,12
    5572:	0ff00413          	li	s0,255
    5576:	4b0d                	li	s6,3
    5578:	bded                	j	5472 <__mulsf3+0x44>
    557a:	854e                	mv	a0,s3
    557c:	c62e                	sw	a1,12(sp)
    557e:	12f000ef          	jal	ra,5eac <__clzsi2>
    5582:	ffb50793          	addi	a5,a0,-5
    5586:	f8a00413          	li	s0,-118
    558a:	00f999b3          	sll	s3,s3,a5
    558e:	8c09                	sub	s0,s0,a0
    5590:	4481                	li	s1,0
    5592:	4b01                	li	s6,0
    5594:	45b2                	lw	a1,12(sp)
    5596:	bdf1                	j	5472 <__mulsf3+0x44>
    5598:	0034e493          	ori	s1,s1,3
    559c:	460d                	li	a2,3
    559e:	b711                	j	54a2 <__mulsf3+0x74>
    55a0:	4789                	li	a5,2
    55a2:	86d2                	mv	a3,s4
    55a4:	f6fb13e3          	bne	s6,a5,550a <__mulsf3+0xdc>
    55a8:	8536                	mv	a0,a3
    55aa:	0ff00713          	li	a4,255
    55ae:	4781                	li	a5,0
    55b0:	b73d                	j	54de <__mulsf3+0xb0>
    55b2:	6341                	lui	t1,0x10
    55b4:	fff30693          	addi	a3,t1,-1 # ffff <_data_lma+0x3c3b>
    55b8:	0109d613          	srli	a2,s3,0x10
    55bc:	010ad893          	srli	a7,s5,0x10
    55c0:	00d9f7b3          	and	a5,s3,a3
    55c4:	00dafab3          	and	s5,s5,a3
    55c8:	03578833          	mul	a6,a5,s5
    55cc:	02f889b3          	mul	s3,a7,a5
    55d0:	01085713          	srli	a4,a6,0x10
    55d4:	03560ab3          	mul	s5,a2,s5
    55d8:	99d6                	add	s3,s3,s5
    55da:	974e                	add	a4,a4,s3
    55dc:	03160633          	mul	a2,a2,a7
    55e0:	01577363          	bgeu	a4,s5,55e6 <__mulsf3+0x1b8>
    55e4:	961a                	add	a2,a2,t1
    55e6:	67c1                	lui	a5,0x10
    55e8:	17fd                	addi	a5,a5,-1
    55ea:	00f776b3          	and	a3,a4,a5
    55ee:	00f87833          	and	a6,a6,a5
    55f2:	06c2                	slli	a3,a3,0x10
    55f4:	96c2                	add	a3,a3,a6
    55f6:	00669993          	slli	s3,a3,0x6
    55fa:	01075793          	srli	a5,a4,0x10
    55fe:	013039b3          	snez	s3,s3
    5602:	82e9                	srli	a3,a3,0x1a
    5604:	97b2                	add	a5,a5,a2
    5606:	079a                	slli	a5,a5,0x6
    5608:	00d9e6b3          	or	a3,s3,a3
    560c:	00d7e9b3          	or	s3,a5,a3
    5610:	00499793          	slli	a5,s3,0x4
    5614:	0007d963          	bgez	a5,5626 <__mulsf3+0x1f8>
    5618:	0019d713          	srli	a4,s3,0x1
    561c:	0019f793          	andi	a5,s3,1
    5620:	00f769b3          	or	s3,a4,a5
    5624:	842e                	mv	s0,a1
    5626:	07f40713          	addi	a4,s0,127
    562a:	04e05063          	blez	a4,566a <__mulsf3+0x23c>
    562e:	0079f793          	andi	a5,s3,7
    5632:	c799                	beqz	a5,5640 <__mulsf3+0x212>
    5634:	00f9f793          	andi	a5,s3,15
    5638:	4691                	li	a3,4
    563a:	00d78363          	beq	a5,a3,5640 <__mulsf3+0x212>
    563e:	0991                	addi	s3,s3,4
    5640:	00499793          	slli	a5,s3,0x4
    5644:	0007d963          	bgez	a5,5656 <__mulsf3+0x228>
    5648:	f80007b7          	lui	a5,0xf8000
    564c:	17fd                	addi	a5,a5,-1
    564e:	00f9f9b3          	and	s3,s3,a5
    5652:	08040713          	addi	a4,s0,128
    5656:	0fe00793          	li	a5,254
    565a:	04e7cb63          	blt	a5,a4,56b0 <__mulsf3+0x282>
    565e:	00699793          	slli	a5,s3,0x6
    5662:	83a5                	srli	a5,a5,0x9
    5664:	0ff77713          	andi	a4,a4,255
    5668:	bd9d                	j	54de <__mulsf3+0xb0>
    566a:	4785                	li	a5,1
    566c:	40e786b3          	sub	a3,a5,a4
    5670:	c711                	beqz	a4,567c <__mulsf3+0x24e>
    5672:	466d                	li	a2,27
    5674:	4701                	li	a4,0
    5676:	4781                	li	a5,0
    5678:	e6d643e3          	blt	a2,a3,54de <__mulsf3+0xb0>
    567c:	09e40713          	addi	a4,s0,158
    5680:	00e99733          	sll	a4,s3,a4
    5684:	00e03733          	snez	a4,a4
    5688:	00d9d7b3          	srl	a5,s3,a3
    568c:	8fd9                	or	a5,a5,a4
    568e:	0077f713          	andi	a4,a5,7
    5692:	c719                	beqz	a4,56a0 <__mulsf3+0x272>
    5694:	00f7f713          	andi	a4,a5,15
    5698:	4691                	li	a3,4
    569a:	00d70363          	beq	a4,a3,56a0 <__mulsf3+0x272>
    569e:	0791                	addi	a5,a5,4
    56a0:	00579713          	slli	a4,a5,0x5
    56a4:	00074c63          	bltz	a4,56bc <__mulsf3+0x28e>
    56a8:	079a                	slli	a5,a5,0x6
    56aa:	83a5                	srli	a5,a5,0x9
    56ac:	4701                	li	a4,0
    56ae:	bd05                	j	54de <__mulsf3+0xb0>
    56b0:	0ff00713          	li	a4,255
    56b4:	4781                	li	a5,0
    56b6:	b525                	j	54de <__mulsf3+0xb0>
    56b8:	842e                	mv	s0,a1
    56ba:	b7b5                	j	5626 <__mulsf3+0x1f8>
    56bc:	4705                	li	a4,1
    56be:	4781                	li	a5,0
    56c0:	bd39                	j	54de <__mulsf3+0xb0>

000056c2 <__subsf3>:
    56c2:	00800737          	lui	a4,0x800
    56c6:	1141                	addi	sp,sp,-16
    56c8:	177d                	addi	a4,a4,-1
    56ca:	01755693          	srli	a3,a0,0x17
    56ce:	0175d813          	srli	a6,a1,0x17
    56d2:	00a777b3          	and	a5,a4,a0
    56d6:	0ff6f693          	andi	a3,a3,255
    56da:	01f55e93          	srli	t4,a0,0x1f
    56de:	00b77633          	and	a2,a4,a1
    56e2:	c226                	sw	s1,4(sp)
    56e4:	c04a                	sw	s2,0(sp)
    56e6:	0ff87813          	andi	a6,a6,255
    56ea:	c606                	sw	ra,12(sp)
    56ec:	c422                	sw	s0,8(sp)
    56ee:	0ff00313          	li	t1,255
    56f2:	8e3e                	mv	t3,a5
    56f4:	8936                	mv	s2,a3
    56f6:	84f6                	mv	s1,t4
    56f8:	00379f13          	slli	t5,a5,0x3
    56fc:	81fd                	srli	a1,a1,0x1f
    56fe:	00361513          	slli	a0,a2,0x3
    5702:	410688b3          	sub	a7,a3,a6
    5706:	10680263          	beq	a6,t1,580a <__subsf3+0x148>
    570a:	0015c593          	xori	a1,a1,1
    570e:	10be8c63          	beq	t4,a1,5826 <__subsf3+0x164>
    5712:	0d105463          	blez	a7,57da <__subsf3+0x118>
    5716:	10081063          	bnez	a6,5816 <__subsf3+0x154>
    571a:	1e050463          	beqz	a0,5902 <__subsf3+0x240>
    571e:	18fd                	addi	a7,a7,-1
    5720:	40af07b3          	sub	a5,t5,a0
    5724:	02088663          	beqz	a7,5750 <__subsf3+0x8e>
    5728:	0ff00793          	li	a5,255
    572c:	16f68863          	beq	a3,a5,589c <__subsf3+0x1da>
    5730:	47ed                	li	a5,27
    5732:	2917c763          	blt	a5,a7,59c0 <__subsf3+0x2fe>
    5736:	02000713          	li	a4,32
    573a:	41170733          	sub	a4,a4,a7
    573e:	00e51733          	sll	a4,a0,a4
    5742:	011557b3          	srl	a5,a0,a7
    5746:	00e03733          	snez	a4,a4
    574a:	8fd9                	or	a5,a5,a4
    574c:	40ff07b3          	sub	a5,t5,a5
    5750:	00579713          	slli	a4,a5,0x5
    5754:	1a075163          	bgez	a4,58f6 <__subsf3+0x234>
    5758:	04000437          	lui	s0,0x4000
    575c:	147d                	addi	s0,s0,-1
    575e:	8c7d                	and	s0,s0,a5
    5760:	8522                	mv	a0,s0
    5762:	27a9                	jal	5eac <__clzsi2>
    5764:	156d                	addi	a0,a0,-5
    5766:	00a417b3          	sll	a5,s0,a0
    576a:	1b254e63          	blt	a0,s2,5926 <__subsf3+0x264>
    576e:	41250533          	sub	a0,a0,s2
    5772:	00150413          	addi	s0,a0,1
    5776:	02000713          	li	a4,32
    577a:	8f01                	sub	a4,a4,s0
    577c:	00e79733          	sll	a4,a5,a4
    5780:	00e03733          	snez	a4,a4
    5784:	0087d7b3          	srl	a5,a5,s0
    5788:	8fd9                	or	a5,a5,a4
    578a:	4901                	li	s2,0
    578c:	0077f713          	andi	a4,a5,7
    5790:	c719                	beqz	a4,579e <__subsf3+0xdc>
    5792:	00f7f713          	andi	a4,a5,15
    5796:	4691                	li	a3,4
    5798:	00d70363          	beq	a4,a3,579e <__subsf3+0xdc>
    579c:	0791                	addi	a5,a5,4
    579e:	00579713          	slli	a4,a5,0x5
    57a2:	14075e63          	bgez	a4,58fe <__subsf3+0x23c>
    57a6:	00190693          	addi	a3,s2,1 # 800001 <_data_lma+0x7f3c3d>
    57aa:	0ff00713          	li	a4,255
    57ae:	0014fe93          	andi	t4,s1,1
    57b2:	16e68663          	beq	a3,a4,591e <__subsf3+0x25c>
    57b6:	079a                	slli	a5,a5,0x6
    57b8:	83a5                	srli	a5,a5,0x9
    57ba:	0ff6f693          	andi	a3,a3,255
    57be:	07a6                	slli	a5,a5,0x9
    57c0:	40b2                	lw	ra,12(sp)
    57c2:	4422                	lw	s0,8(sp)
    57c4:	0097d513          	srli	a0,a5,0x9
    57c8:	06de                	slli	a3,a3,0x17
    57ca:	01fe9793          	slli	a5,t4,0x1f
    57ce:	8d55                	or	a0,a0,a3
    57d0:	4492                	lw	s1,4(sp)
    57d2:	4902                	lw	s2,0(sp)
    57d4:	8d5d                	or	a0,a0,a5
    57d6:	0141                	addi	sp,sp,16
    57d8:	8082                	ret
    57da:	0a089263          	bnez	a7,587e <__subsf3+0x1bc>
    57de:	00168713          	addi	a4,a3,1
    57e2:	0fe77713          	andi	a4,a4,254
    57e6:	14071b63          	bnez	a4,593c <__subsf3+0x27a>
    57ea:	22069463          	bnez	a3,5a12 <__subsf3+0x350>
    57ee:	200f0263          	beqz	t5,59f2 <__subsf3+0x330>
    57f2:	d571                	beqz	a0,57be <__subsf3+0xfc>
    57f4:	40af07b3          	sub	a5,t5,a0
    57f8:	00579713          	slli	a4,a5,0x5
    57fc:	22075563          	bgez	a4,5a26 <__subsf3+0x364>
    5800:	41e507b3          	sub	a5,a0,t5
    5804:	4901                	li	s2,0
    5806:	84ae                	mv	s1,a1
    5808:	b751                	j	578c <__subsf3+0xca>
    580a:	f00500e3          	beqz	a0,570a <__subsf3+0x48>
    580e:	0abe8a63          	beq	t4,a1,58c2 <__subsf3+0x200>
    5812:	fd1054e3          	blez	a7,57da <__subsf3+0x118>
    5816:	0ff00793          	li	a5,255
    581a:	08f68163          	beq	a3,a5,589c <__subsf3+0x1da>
    581e:	040007b7          	lui	a5,0x4000
    5822:	8d5d                	or	a0,a0,a5
    5824:	b731                	j	5730 <__subsf3+0x6e>
    5826:	09105e63          	blez	a7,58c2 <__subsf3+0x200>
    582a:	08080163          	beqz	a6,58ac <__subsf3+0x1ea>
    582e:	0ff00793          	li	a5,255
    5832:	06f68563          	beq	a3,a5,589c <__subsf3+0x1da>
    5836:	040007b7          	lui	a5,0x4000
    583a:	8d5d                	or	a0,a0,a5
    583c:	47ed                	li	a5,27
    583e:	1f17c063          	blt	a5,a7,5a1e <__subsf3+0x35c>
    5842:	02000713          	li	a4,32
    5846:	41170733          	sub	a4,a4,a7
    584a:	00e51733          	sll	a4,a0,a4
    584e:	011557b3          	srl	a5,a0,a7
    5852:	00e03733          	snez	a4,a4
    5856:	8fd9                	or	a5,a5,a4
    5858:	97fa                	add	a5,a5,t5
    585a:	00579713          	slli	a4,a5,0x5
    585e:	08075c63          	bgez	a4,58f6 <__subsf3+0x234>
    5862:	0905                	addi	s2,s2,1
    5864:	0ff00713          	li	a4,255
    5868:	0ae90b63          	beq	s2,a4,591e <__subsf3+0x25c>
    586c:	7e0006b7          	lui	a3,0x7e000
    5870:	0017d713          	srli	a4,a5,0x1
    5874:	16fd                	addi	a3,a3,-1
    5876:	8b85                	andi	a5,a5,1
    5878:	8f75                	and	a4,a4,a3
    587a:	8fd9                	or	a5,a5,a4
    587c:	bf01                	j	578c <__subsf3+0xca>
    587e:	40d80733          	sub	a4,a6,a3
    5882:	10069563          	bnez	a3,598c <__subsf3+0x2ca>
    5886:	140f0d63          	beqz	t5,59e0 <__subsf3+0x31e>
    588a:	177d                	addi	a4,a4,-1
    588c:	1a070363          	beqz	a4,5a32 <__subsf3+0x370>
    5890:	0ff00793          	li	a5,255
    5894:	10f81463          	bne	a6,a5,599c <__subsf3+0x2da>
    5898:	84ae                	mv	s1,a1
    589a:	8e32                	mv	t3,a2
    589c:	060e0f63          	beqz	t3,591a <__subsf3+0x258>
    58a0:	4e81                	li	t4,0
    58a2:	0ff00693          	li	a3,255
    58a6:	004007b7          	lui	a5,0x400
    58aa:	bf11                	j	57be <__subsf3+0xfc>
    58ac:	c939                	beqz	a0,5902 <__subsf3+0x240>
    58ae:	18fd                	addi	a7,a7,-1
    58b0:	00af07b3          	add	a5,t5,a0
    58b4:	fa0883e3          	beqz	a7,585a <__subsf3+0x198>
    58b8:	0ff00793          	li	a5,255
    58bc:	f8f690e3          	bne	a3,a5,583c <__subsf3+0x17a>
    58c0:	bff1                	j	589c <__subsf3+0x1da>
    58c2:	08089963          	bnez	a7,5954 <__subsf3+0x292>
    58c6:	00168913          	addi	s2,a3,1 # 7e000001 <_eusrstack+0x5dff8001>
    58ca:	0fe97713          	andi	a4,s2,254
    58ce:	12071663          	bnez	a4,59fa <__subsf3+0x338>
    58d2:	10069b63          	bnez	a3,59e8 <__subsf3+0x326>
    58d6:	160f0363          	beqz	t5,5a3c <__subsf3+0x37a>
    58da:	ee0502e3          	beqz	a0,57be <__subsf3+0xfc>
    58de:	00af07b3          	add	a5,t5,a0
    58e2:	00579713          	slli	a4,a5,0x5
    58e6:	4901                	li	s2,0
    58e8:	00075763          	bgez	a4,58f6 <__subsf3+0x234>
    58ec:	fc000737          	lui	a4,0xfc000
    58f0:	177d                	addi	a4,a4,-1
    58f2:	8ff9                	and	a5,a5,a4
    58f4:	4905                	li	s2,1
    58f6:	0077f713          	andi	a4,a5,7
    58fa:	e8071ce3          	bnez	a4,5792 <__subsf3+0xd0>
    58fe:	0037de13          	srli	t3,a5,0x3
    5902:	0ff00793          	li	a5,255
    5906:	f8f90be3          	beq	s2,a5,589c <__subsf3+0x1da>
    590a:	009e1793          	slli	a5,t3,0x9
    590e:	83a5                	srli	a5,a5,0x9
    5910:	0ff97693          	andi	a3,s2,255
    5914:	0014fe93          	andi	t4,s1,1
    5918:	b55d                	j	57be <__subsf3+0xfc>
    591a:	0014fe93          	andi	t4,s1,1
    591e:	0ff00693          	li	a3,255
    5922:	4781                	li	a5,0
    5924:	bd69                	j	57be <__subsf3+0xfc>
    5926:	fc000737          	lui	a4,0xfc000
    592a:	177d                	addi	a4,a4,-1
    592c:	8ff9                	and	a5,a5,a4
    592e:	0077f713          	andi	a4,a5,7
    5932:	40a90933          	sub	s2,s2,a0
    5936:	e4071ee3          	bnez	a4,5792 <__subsf3+0xd0>
    593a:	b7d1                	j	58fe <__subsf3+0x23c>
    593c:	40af0433          	sub	s0,t5,a0
    5940:	00541793          	slli	a5,s0,0x5
    5944:	0c07c363          	bltz	a5,5a0a <__subsf3+0x348>
    5948:	e0041ce3          	bnez	s0,5760 <__subsf3+0x9e>
    594c:	4e81                	li	t4,0
    594e:	4681                	li	a3,0
    5950:	4781                	li	a5,0
    5952:	b5b5                	j	57be <__subsf3+0xfc>
    5954:	40d80733          	sub	a4,a6,a3
    5958:	c6b5                	beqz	a3,59c4 <__subsf3+0x302>
    595a:	0ff00793          	li	a5,255
    595e:	f2f80ee3          	beq	a6,a5,589a <__subsf3+0x1d8>
    5962:	040007b7          	lui	a5,0x4000
    5966:	00ff6f33          	or	t5,t5,a5
    596a:	47ed                	li	a5,27
    596c:	0ce7cd63          	blt	a5,a4,5a46 <__subsf3+0x384>
    5970:	02000793          	li	a5,32
    5974:	8f99                	sub	a5,a5,a4
    5976:	00ff17b3          	sll	a5,t5,a5
    597a:	00ef5733          	srl	a4,t5,a4
    597e:	00f037b3          	snez	a5,a5
    5982:	8f5d                	or	a4,a4,a5
    5984:	00a707b3          	add	a5,a4,a0
    5988:	8942                	mv	s2,a6
    598a:	bdc1                	j	585a <__subsf3+0x198>
    598c:	0ff00793          	li	a5,255
    5990:	f0f804e3          	beq	a6,a5,5898 <__subsf3+0x1d6>
    5994:	040007b7          	lui	a5,0x4000
    5998:	00ff6f33          	or	t5,t5,a5
    599c:	47ed                	li	a5,27
    599e:	08e7c263          	blt	a5,a4,5a22 <__subsf3+0x360>
    59a2:	02000793          	li	a5,32
    59a6:	8f99                	sub	a5,a5,a4
    59a8:	00ff17b3          	sll	a5,t5,a5
    59ac:	00ef5733          	srl	a4,t5,a4
    59b0:	00f037b3          	snez	a5,a5
    59b4:	8fd9                	or	a5,a5,a4
    59b6:	40f507b3          	sub	a5,a0,a5
    59ba:	8942                	mv	s2,a6
    59bc:	84ae                	mv	s1,a1
    59be:	bb49                	j	5750 <__subsf3+0x8e>
    59c0:	4785                	li	a5,1
    59c2:	b369                	j	574c <__subsf3+0x8a>
    59c4:	060f0e63          	beqz	t5,5a40 <__subsf3+0x37e>
    59c8:	177d                	addi	a4,a4,-1
    59ca:	00af07b3          	add	a5,t5,a0
    59ce:	8942                	mv	s2,a6
    59d0:	e80705e3          	beqz	a4,585a <__subsf3+0x198>
    59d4:	0ff00793          	li	a5,255
    59d8:	f8f819e3          	bne	a6,a5,596a <__subsf3+0x2a8>
    59dc:	8e32                	mv	t3,a2
    59de:	bd7d                	j	589c <__subsf3+0x1da>
    59e0:	8e32                	mv	t3,a2
    59e2:	8942                	mv	s2,a6
    59e4:	84ae                	mv	s1,a1
    59e6:	bf31                	j	5902 <__subsf3+0x240>
    59e8:	ea0f09e3          	beqz	t5,589a <__subsf3+0x1d8>
    59ec:	ea0508e3          	beqz	a0,589c <__subsf3+0x1da>
    59f0:	bd45                	j	58a0 <__subsf3+0x1de>
    59f2:	cd0d                	beqz	a0,5a2c <__subsf3+0x36a>
    59f4:	8eae                	mv	t4,a1
    59f6:	87b2                	mv	a5,a2
    59f8:	b3d9                	j	57be <__subsf3+0xfc>
    59fa:	0ff00793          	li	a5,255
    59fe:	f2f900e3          	beq	s2,a5,591e <__subsf3+0x25c>
    5a02:	00af07b3          	add	a5,t5,a0
    5a06:	8385                	srli	a5,a5,0x1
    5a08:	b5fd                	j	58f6 <__subsf3+0x234>
    5a0a:	41e50433          	sub	s0,a0,t5
    5a0e:	84ae                	mv	s1,a1
    5a10:	bb81                	j	5760 <__subsf3+0x9e>
    5a12:	fc0f1de3          	bnez	t5,59ec <__subsf3+0x32a>
    5a16:	e80505e3          	beqz	a0,58a0 <__subsf3+0x1de>
    5a1a:	84ae                	mv	s1,a1
    5a1c:	bdbd                	j	589a <__subsf3+0x1d8>
    5a1e:	4785                	li	a5,1
    5a20:	bd25                	j	5858 <__subsf3+0x196>
    5a22:	4785                	li	a5,1
    5a24:	bf49                	j	59b6 <__subsf3+0x2f4>
    5a26:	4901                	li	s2,0
    5a28:	ec0797e3          	bnez	a5,58f6 <__subsf3+0x234>
    5a2c:	4e81                	li	t4,0
    5a2e:	4781                	li	a5,0
    5a30:	b379                	j	57be <__subsf3+0xfc>
    5a32:	41e507b3          	sub	a5,a0,t5
    5a36:	8942                	mv	s2,a6
    5a38:	84ae                	mv	s1,a1
    5a3a:	bb19                	j	5750 <__subsf3+0x8e>
    5a3c:	87b2                	mv	a5,a2
    5a3e:	b341                	j	57be <__subsf3+0xfc>
    5a40:	8e32                	mv	t3,a2
    5a42:	8942                	mv	s2,a6
    5a44:	bd7d                	j	5902 <__subsf3+0x240>
    5a46:	4705                	li	a4,1
    5a48:	bf35                	j	5984 <__subsf3+0x2c2>

00005a4a <__fixsfsi>:
    5a4a:	00800637          	lui	a2,0x800
    5a4e:	01755713          	srli	a4,a0,0x17
    5a52:	fff60793          	addi	a5,a2,-1 # 7fffff <_data_lma+0x7f3c3b>
    5a56:	0ff77713          	andi	a4,a4,255
    5a5a:	07e00593          	li	a1,126
    5a5e:	00a7f6b3          	and	a3,a5,a0
    5a62:	01f55793          	srli	a5,a0,0x1f
    5a66:	00e5fc63          	bgeu	a1,a4,5a7e <__fixsfsi+0x34>
    5a6a:	09d00593          	li	a1,157
    5a6e:	00e5fa63          	bgeu	a1,a4,5a82 <__fixsfsi+0x38>
    5a72:	80000537          	lui	a0,0x80000
    5a76:	fff54513          	not	a0,a0
    5a7a:	953e                	add	a0,a0,a5
    5a7c:	8082                	ret
    5a7e:	4501                	li	a0,0
    5a80:	8082                	ret
    5a82:	09500593          	li	a1,149
    5a86:	8ed1                	or	a3,a3,a2
    5a88:	00e5cd63          	blt	a1,a4,5aa2 <__fixsfsi+0x58>
    5a8c:	09600613          	li	a2,150
    5a90:	40e60733          	sub	a4,a2,a4
    5a94:	00e6d733          	srl	a4,a3,a4
    5a98:	40e00533          	neg	a0,a4
    5a9c:	f3f5                	bnez	a5,5a80 <__fixsfsi+0x36>
    5a9e:	853a                	mv	a0,a4
    5aa0:	8082                	ret
    5aa2:	f6a70713          	addi	a4,a4,-150 # fbffff6a <_eusrstack+0xdbff7f6a>
    5aa6:	00e69733          	sll	a4,a3,a4
    5aaa:	b7fd                	j	5a98 <__fixsfsi+0x4e>

00005aac <__fixunssfsi>:
    5aac:	01755713          	srli	a4,a0,0x17
    5ab0:	00800637          	lui	a2,0x800
    5ab4:	fff60793          	addi	a5,a2,-1 # 7fffff <_data_lma+0x7f3c3b>
    5ab8:	0ff77713          	andi	a4,a4,255
    5abc:	07e00593          	li	a1,126
    5ac0:	00a7f6b3          	and	a3,a5,a0
    5ac4:	01f55793          	srli	a5,a0,0x1f
    5ac8:	4501                	li	a0,0
    5aca:	00e5f463          	bgeu	a1,a4,5ad2 <__fixunssfsi+0x26>
    5ace:	c399                	beqz	a5,5ad4 <__fixunssfsi+0x28>
    5ad0:	8082                	ret
    5ad2:	8082                	ret
    5ad4:	09e00793          	li	a5,158
    5ad8:	557d                	li	a0,-1
    5ada:	fee7ebe3          	bltu	a5,a4,5ad0 <__fixunssfsi+0x24>
    5ade:	09500593          	li	a1,149
    5ae2:	00c6e7b3          	or	a5,a3,a2
    5ae6:	00e5d763          	bge	a1,a4,5af4 <__fixunssfsi+0x48>
    5aea:	f6a70713          	addi	a4,a4,-150
    5aee:	00e79533          	sll	a0,a5,a4
    5af2:	8082                	ret
    5af4:	09600513          	li	a0,150
    5af8:	40e50733          	sub	a4,a0,a4
    5afc:	00e7d533          	srl	a0,a5,a4
    5b00:	8082                	ret

00005b02 <__floatsisf>:
    5b02:	1141                	addi	sp,sp,-16
    5b04:	c606                	sw	ra,12(sp)
    5b06:	c422                	sw	s0,8(sp)
    5b08:	c226                	sw	s1,4(sp)
    5b0a:	cd0d                	beqz	a0,5b44 <__floatsisf+0x42>
    5b0c:	41f55793          	srai	a5,a0,0x1f
    5b10:	00a7c433          	xor	s0,a5,a0
    5b14:	8c1d                	sub	s0,s0,a5
    5b16:	84aa                	mv	s1,a0
    5b18:	8522                	mv	a0,s0
    5b1a:	2e49                	jal	5eac <__clzsi2>
    5b1c:	09e00793          	li	a5,158
    5b20:	40a78733          	sub	a4,a5,a0
    5b24:	09600793          	li	a5,150
    5b28:	80fd                	srli	s1,s1,0x1f
    5b2a:	02e7cc63          	blt	a5,a4,5b62 <__floatsisf+0x60>
    5b2e:	46a1                	li	a3,8
    5b30:	0ff77793          	andi	a5,a4,255
    5b34:	00a6d563          	bge	a3,a0,5b3e <__floatsisf+0x3c>
    5b38:	1561                	addi	a0,a0,-8
    5b3a:	00a41433          	sll	s0,s0,a0
    5b3e:	0426                	slli	s0,s0,0x9
    5b40:	8025                	srli	s0,s0,0x9
    5b42:	a021                	j	5b4a <__floatsisf+0x48>
    5b44:	4481                	li	s1,0
    5b46:	4781                	li	a5,0
    5b48:	4401                	li	s0,0
    5b4a:	0426                	slli	s0,s0,0x9
    5b4c:	00945513          	srli	a0,s0,0x9
    5b50:	40b2                	lw	ra,12(sp)
    5b52:	4422                	lw	s0,8(sp)
    5b54:	07de                	slli	a5,a5,0x17
    5b56:	04fe                	slli	s1,s1,0x1f
    5b58:	8d5d                	or	a0,a0,a5
    5b5a:	8d45                	or	a0,a0,s1
    5b5c:	4492                	lw	s1,4(sp)
    5b5e:	0141                	addi	sp,sp,16
    5b60:	8082                	ret
    5b62:	09900793          	li	a5,153
    5b66:	00e7dd63          	bge	a5,a4,5b80 <__floatsisf+0x7e>
    5b6a:	01b50793          	addi	a5,a0,27 # 8000001b <_eusrstack+0x5fff801b>
    5b6e:	4695                	li	a3,5
    5b70:	00f417b3          	sll	a5,s0,a5
    5b74:	8e89                	sub	a3,a3,a0
    5b76:	00d45433          	srl	s0,s0,a3
    5b7a:	00f037b3          	snez	a5,a5
    5b7e:	8c5d                	or	s0,s0,a5
    5b80:	4795                	li	a5,5
    5b82:	00a7d663          	bge	a5,a0,5b8e <__floatsisf+0x8c>
    5b86:	ffb50793          	addi	a5,a0,-5
    5b8a:	00f41433          	sll	s0,s0,a5
    5b8e:	fc0006b7          	lui	a3,0xfc000
    5b92:	16fd                	addi	a3,a3,-1
    5b94:	00747793          	andi	a5,s0,7
    5b98:	00d47633          	and	a2,s0,a3
    5b9c:	c385                	beqz	a5,5bbc <__floatsisf+0xba>
    5b9e:	00f47793          	andi	a5,s0,15
    5ba2:	4591                	li	a1,4
    5ba4:	00b78c63          	beq	a5,a1,5bbc <__floatsisf+0xba>
    5ba8:	0611                	addi	a2,a2,4
    5baa:	00561793          	slli	a5,a2,0x5
    5bae:	0007d763          	bgez	a5,5bbc <__floatsisf+0xba>
    5bb2:	09f00793          	li	a5,159
    5bb6:	8e75                	and	a2,a2,a3
    5bb8:	40a78733          	sub	a4,a5,a0
    5bbc:	00661413          	slli	s0,a2,0x6
    5bc0:	8025                	srli	s0,s0,0x9
    5bc2:	0ff77793          	andi	a5,a4,255
    5bc6:	b751                	j	5b4a <__floatsisf+0x48>

00005bc8 <__floatunsisf>:
    5bc8:	1141                	addi	sp,sp,-16
    5bca:	c606                	sw	ra,12(sp)
    5bcc:	c422                	sw	s0,8(sp)
    5bce:	cd15                	beqz	a0,5c0a <__floatunsisf+0x42>
    5bd0:	842a                	mv	s0,a0
    5bd2:	2ce9                	jal	5eac <__clzsi2>
    5bd4:	09e00793          	li	a5,158
    5bd8:	40a78733          	sub	a4,a5,a0
    5bdc:	09600793          	li	a5,150
    5be0:	04e7c063          	blt	a5,a4,5c20 <__floatunsisf+0x58>
    5be4:	46a1                	li	a3,8
    5be6:	0ff77793          	andi	a5,a4,255
    5bea:	00a6d563          	bge	a3,a0,5bf4 <__floatunsisf+0x2c>
    5bee:	1561                	addi	a0,a0,-8
    5bf0:	00a41433          	sll	s0,s0,a0
    5bf4:	0426                	slli	s0,s0,0x9
    5bf6:	8025                	srli	s0,s0,0x9
    5bf8:	0426                	slli	s0,s0,0x9
    5bfa:	00945513          	srli	a0,s0,0x9
    5bfe:	40b2                	lw	ra,12(sp)
    5c00:	4422                	lw	s0,8(sp)
    5c02:	07de                	slli	a5,a5,0x17
    5c04:	8d5d                	or	a0,a0,a5
    5c06:	0141                	addi	sp,sp,16
    5c08:	8082                	ret
    5c0a:	4401                	li	s0,0
    5c0c:	0426                	slli	s0,s0,0x9
    5c0e:	00945513          	srli	a0,s0,0x9
    5c12:	40b2                	lw	ra,12(sp)
    5c14:	4422                	lw	s0,8(sp)
    5c16:	4781                	li	a5,0
    5c18:	07de                	slli	a5,a5,0x17
    5c1a:	8d5d                	or	a0,a0,a5
    5c1c:	0141                	addi	sp,sp,16
    5c1e:	8082                	ret
    5c20:	09900793          	li	a5,153
    5c24:	00e7dd63          	bge	a5,a4,5c3e <__floatunsisf+0x76>
    5c28:	01b50793          	addi	a5,a0,27
    5c2c:	4695                	li	a3,5
    5c2e:	00f417b3          	sll	a5,s0,a5
    5c32:	8e89                	sub	a3,a3,a0
    5c34:	00f037b3          	snez	a5,a5
    5c38:	00d45433          	srl	s0,s0,a3
    5c3c:	8c5d                	or	s0,s0,a5
    5c3e:	4795                	li	a5,5
    5c40:	00a7d663          	bge	a5,a0,5c4c <__floatunsisf+0x84>
    5c44:	ffb50793          	addi	a5,a0,-5
    5c48:	00f41433          	sll	s0,s0,a5
    5c4c:	fc0006b7          	lui	a3,0xfc000
    5c50:	16fd                	addi	a3,a3,-1
    5c52:	00747793          	andi	a5,s0,7
    5c56:	00d47633          	and	a2,s0,a3
    5c5a:	c385                	beqz	a5,5c7a <__floatunsisf+0xb2>
    5c5c:	00f47793          	andi	a5,s0,15
    5c60:	4591                	li	a1,4
    5c62:	00b78c63          	beq	a5,a1,5c7a <__floatunsisf+0xb2>
    5c66:	0611                	addi	a2,a2,4
    5c68:	00561793          	slli	a5,a2,0x5
    5c6c:	0007d763          	bgez	a5,5c7a <__floatunsisf+0xb2>
    5c70:	09f00793          	li	a5,159
    5c74:	8e75                	and	a2,a2,a3
    5c76:	40a78733          	sub	a4,a5,a0
    5c7a:	00661413          	slli	s0,a2,0x6
    5c7e:	8025                	srli	s0,s0,0x9
    5c80:	0426                	slli	s0,s0,0x9
    5c82:	00945513          	srli	a0,s0,0x9
    5c86:	40b2                	lw	ra,12(sp)
    5c88:	4422                	lw	s0,8(sp)
    5c8a:	0ff77793          	andi	a5,a4,255
    5c8e:	07de                	slli	a5,a5,0x17
    5c90:	8d5d                	or	a0,a0,a5
    5c92:	0141                	addi	sp,sp,16
    5c94:	8082                	ret

00005c96 <__extendsfdf2>:
    5c96:	01755713          	srli	a4,a0,0x17
    5c9a:	0ff77713          	andi	a4,a4,255
    5c9e:	1141                	addi	sp,sp,-16
    5ca0:	00170793          	addi	a5,a4,1
    5ca4:	c422                	sw	s0,8(sp)
    5ca6:	c226                	sw	s1,4(sp)
    5ca8:	00951413          	slli	s0,a0,0x9
    5cac:	c606                	sw	ra,12(sp)
    5cae:	0fe7f793          	andi	a5,a5,254
    5cb2:	8025                	srli	s0,s0,0x9
    5cb4:	01f55493          	srli	s1,a0,0x1f
    5cb8:	c785                	beqz	a5,5ce0 <__extendsfdf2+0x4a>
    5cba:	00345793          	srli	a5,s0,0x3
    5cbe:	38070713          	addi	a4,a4,896
    5cc2:	0476                	slli	s0,s0,0x1d
    5cc4:	07b2                	slli	a5,a5,0xc
    5cc6:	0752                	slli	a4,a4,0x14
    5cc8:	83b1                	srli	a5,a5,0xc
    5cca:	01f49513          	slli	a0,s1,0x1f
    5cce:	8fd9                	or	a5,a5,a4
    5cd0:	8fc9                	or	a5,a5,a0
    5cd2:	40b2                	lw	ra,12(sp)
    5cd4:	8522                	mv	a0,s0
    5cd6:	4422                	lw	s0,8(sp)
    5cd8:	4492                	lw	s1,4(sp)
    5cda:	85be                	mv	a1,a5
    5cdc:	0141                	addi	sp,sp,16
    5cde:	8082                	ret
    5ce0:	eb05                	bnez	a4,5d10 <__extendsfdf2+0x7a>
    5ce2:	c439                	beqz	s0,5d30 <__extendsfdf2+0x9a>
    5ce4:	8522                	mv	a0,s0
    5ce6:	22d9                	jal	5eac <__clzsi2>
    5ce8:	47a9                	li	a5,10
    5cea:	04a7c663          	blt	a5,a0,5d36 <__extendsfdf2+0xa0>
    5cee:	472d                	li	a4,11
    5cf0:	8f09                	sub	a4,a4,a0
    5cf2:	01550793          	addi	a5,a0,21
    5cf6:	00e45733          	srl	a4,s0,a4
    5cfa:	00f41433          	sll	s0,s0,a5
    5cfe:	00c71793          	slli	a5,a4,0xc
    5d02:	38900713          	li	a4,905
    5d06:	8f09                	sub	a4,a4,a0
    5d08:	83b1                	srli	a5,a5,0xc
    5d0a:	7ff77713          	andi	a4,a4,2047
    5d0e:	bf5d                	j	5cc4 <__extendsfdf2+0x2e>
    5d10:	cc01                	beqz	s0,5d28 <__extendsfdf2+0x92>
    5d12:	00345713          	srli	a4,s0,0x3
    5d16:	000807b7          	lui	a5,0x80
    5d1a:	8fd9                	or	a5,a5,a4
    5d1c:	07b2                	slli	a5,a5,0xc
    5d1e:	0476                	slli	s0,s0,0x1d
    5d20:	83b1                	srli	a5,a5,0xc
    5d22:	7ff00713          	li	a4,2047
    5d26:	bf79                	j	5cc4 <__extendsfdf2+0x2e>
    5d28:	7ff00713          	li	a4,2047
    5d2c:	4781                	li	a5,0
    5d2e:	bf59                	j	5cc4 <__extendsfdf2+0x2e>
    5d30:	4701                	li	a4,0
    5d32:	4781                	li	a5,0
    5d34:	bf41                	j	5cc4 <__extendsfdf2+0x2e>
    5d36:	ff550713          	addi	a4,a0,-11
    5d3a:	00e41733          	sll	a4,s0,a4
    5d3e:	4401                	li	s0,0
    5d40:	bf7d                	j	5cfe <__extendsfdf2+0x68>

00005d42 <__truncdfsf2>:
    5d42:	0145d693          	srli	a3,a1,0x14
    5d46:	00c59793          	slli	a5,a1,0xc
    5d4a:	7ff6f693          	andi	a3,a3,2047
    5d4e:	83b1                	srli	a5,a5,0xc
    5d50:	00168613          	addi	a2,a3,1 # fc000001 <_eusrstack+0xdbff8001>
    5d54:	078e                	slli	a5,a5,0x3
    5d56:	01d55713          	srli	a4,a0,0x1d
    5d5a:	7fe67613          	andi	a2,a2,2046
    5d5e:	81fd                	srli	a1,a1,0x1f
    5d60:	8f5d                	or	a4,a4,a5
    5d62:	00351893          	slli	a7,a0,0x3
    5d66:	ce35                	beqz	a2,5de2 <__truncdfsf2+0xa0>
    5d68:	c8068813          	addi	a6,a3,-896
    5d6c:	0fe00793          	li	a5,254
    5d70:	0107dd63          	bge	a5,a6,5d8a <__truncdfsf2+0x48>
    5d74:	4781                	li	a5,0
    5d76:	00979513          	slli	a0,a5,0x9
    5d7a:	0ff00693          	li	a3,255
    5d7e:	06de                	slli	a3,a3,0x17
    5d80:	8125                	srli	a0,a0,0x9
    5d82:	05fe                	slli	a1,a1,0x1f
    5d84:	8d55                	or	a0,a0,a3
    5d86:	8d4d                	or	a0,a0,a1
    5d88:	8082                	ret
    5d8a:	0b005563          	blez	a6,5e34 <__truncdfsf2+0xf2>
    5d8e:	00651793          	slli	a5,a0,0x6
    5d92:	070e                	slli	a4,a4,0x3
    5d94:	00f037b3          	snez	a5,a5
    5d98:	8fd9                	or	a5,a5,a4
    5d9a:	01d8d893          	srli	a7,a7,0x1d
    5d9e:	0117e7b3          	or	a5,a5,a7
    5da2:	0077f713          	andi	a4,a5,7
    5da6:	10070163          	beqz	a4,5ea8 <__truncdfsf2+0x166>
    5daa:	00f7f713          	andi	a4,a5,15
    5dae:	4691                	li	a3,4
    5db0:	00d70363          	beq	a4,a3,5db6 <__truncdfsf2+0x74>
    5db4:	0791                	addi	a5,a5,4
    5db6:	04000737          	lui	a4,0x4000
    5dba:	8f7d                	and	a4,a4,a5
    5dbc:	c775                	beqz	a4,5ea8 <__truncdfsf2+0x166>
    5dbe:	00180713          	addi	a4,a6,1
    5dc2:	0ff00613          	li	a2,255
    5dc6:	0ff77693          	andi	a3,a4,255
    5dca:	fac705e3          	beq	a4,a2,5d74 <__truncdfsf2+0x32>
    5dce:	079a                	slli	a5,a5,0x6
    5dd0:	83a5                	srli	a5,a5,0x9
    5dd2:	00979513          	slli	a0,a5,0x9
    5dd6:	06de                	slli	a3,a3,0x17
    5dd8:	8125                	srli	a0,a0,0x9
    5dda:	05fe                	slli	a1,a1,0x1f
    5ddc:	8d55                	or	a0,a0,a3
    5dde:	8d4d                	or	a0,a0,a1
    5de0:	8082                	ret
    5de2:	011767b3          	or	a5,a4,a7
    5de6:	ee99                	bnez	a3,5e04 <__truncdfsf2+0xc2>
    5de8:	cf85                	beqz	a5,5e20 <__truncdfsf2+0xde>
    5dea:	4795                	li	a5,5
    5dec:	079a                	slli	a5,a5,0x6
    5dee:	83a5                	srli	a5,a5,0x9
    5df0:	00979513          	slli	a0,a5,0x9
    5df4:	0ff6f693          	andi	a3,a3,255
    5df8:	06de                	slli	a3,a3,0x17
    5dfa:	8125                	srli	a0,a0,0x9
    5dfc:	05fe                	slli	a1,a1,0x1f
    5dfe:	8d55                	or	a0,a0,a3
    5e00:	8d4d                	or	a0,a0,a1
    5e02:	8082                	ret
    5e04:	dba5                	beqz	a5,5d74 <__truncdfsf2+0x32>
    5e06:	004007b7          	lui	a5,0x400
    5e0a:	00979513          	slli	a0,a5,0x9
    5e0e:	0ff00693          	li	a3,255
    5e12:	06de                	slli	a3,a3,0x17
    5e14:	4581                	li	a1,0
    5e16:	8125                	srli	a0,a0,0x9
    5e18:	05fe                	slli	a1,a1,0x1f
    5e1a:	8d55                	or	a0,a0,a3
    5e1c:	8d4d                	or	a0,a0,a1
    5e1e:	8082                	ret
    5e20:	4781                	li	a5,0
    5e22:	00979513          	slli	a0,a5,0x9
    5e26:	4681                	li	a3,0
    5e28:	06de                	slli	a3,a3,0x17
    5e2a:	8125                	srli	a0,a0,0x9
    5e2c:	05fe                	slli	a1,a1,0x1f
    5e2e:	8d55                	or	a0,a0,a3
    5e30:	8d4d                	or	a0,a0,a1
    5e32:	8082                	ret
    5e34:	57a5                	li	a5,-23
    5e36:	04f84863          	blt	a6,a5,5e86 <__truncdfsf2+0x144>
    5e3a:	47f9                	li	a5,30
    5e3c:	00800637          	lui	a2,0x800
    5e40:	410787b3          	sub	a5,a5,a6
    5e44:	457d                	li	a0,31
    5e46:	8e59                	or	a2,a2,a4
    5e48:	04f55163          	bge	a0,a5,5e8a <__truncdfsf2+0x148>
    5e4c:	5779                	li	a4,-2
    5e4e:	41070733          	sub	a4,a4,a6
    5e52:	02000513          	li	a0,32
    5e56:	00e65733          	srl	a4,a2,a4
    5e5a:	00a78863          	beq	a5,a0,5e6a <__truncdfsf2+0x128>
    5e5e:	ca268693          	addi	a3,a3,-862
    5e62:	00d616b3          	sll	a3,a2,a3
    5e66:	00d8e8b3          	or	a7,a7,a3
    5e6a:	011037b3          	snez	a5,a7
    5e6e:	8fd9                	or	a5,a5,a4
    5e70:	0077f713          	andi	a4,a5,7
    5e74:	4801                	li	a6,0
    5e76:	fb15                	bnez	a4,5daa <__truncdfsf2+0x68>
    5e78:	00579713          	slli	a4,a5,0x5
    5e7c:	4685                	li	a3,1
    5e7e:	f40748e3          	bltz	a4,5dce <__truncdfsf2+0x8c>
    5e82:	4681                	li	a3,0
    5e84:	b7a5                	j	5dec <__truncdfsf2+0xaa>
    5e86:	4681                	li	a3,0
    5e88:	b78d                	j	5dea <__truncdfsf2+0xa8>
    5e8a:	c8268693          	addi	a3,a3,-894
    5e8e:	00d89733          	sll	a4,a7,a3
    5e92:	00e03733          	snez	a4,a4
    5e96:	00d616b3          	sll	a3,a2,a3
    5e9a:	00f8d8b3          	srl	a7,a7,a5
    5e9e:	00d767b3          	or	a5,a4,a3
    5ea2:	00f8e7b3          	or	a5,a7,a5
    5ea6:	b7e9                	j	5e70 <__truncdfsf2+0x12e>
    5ea8:	86c2                	mv	a3,a6
    5eaa:	b789                	j	5dec <__truncdfsf2+0xaa>

00005eac <__clzsi2>:
    5eac:	67c1                	lui	a5,0x10
    5eae:	02f57c63          	bgeu	a0,a5,5ee6 <__clzsi2+0x3a>
    5eb2:	0ff00793          	li	a5,255
    5eb6:	02000713          	li	a4,32
    5eba:	00a7eb63          	bltu	a5,a0,5ed0 <__clzsi2+0x24>
    5ebe:	00006797          	auipc	a5,0x6
    5ec2:	03a78793          	addi	a5,a5,58 # bef8 <__clz_tab>
    5ec6:	97aa                	add	a5,a5,a0
    5ec8:	2388                	lbu	a0,0(a5)
    5eca:	40a70533          	sub	a0,a4,a0
    5ece:	8082                	ret
    5ed0:	8121                	srli	a0,a0,0x8
    5ed2:	00006797          	auipc	a5,0x6
    5ed6:	02678793          	addi	a5,a5,38 # bef8 <__clz_tab>
    5eda:	97aa                	add	a5,a5,a0
    5edc:	2388                	lbu	a0,0(a5)
    5ede:	4761                	li	a4,24
    5ee0:	40a70533          	sub	a0,a4,a0
    5ee4:	8082                	ret
    5ee6:	010007b7          	lui	a5,0x1000
    5eea:	00f56d63          	bltu	a0,a5,5f04 <__clzsi2+0x58>
    5eee:	8161                	srli	a0,a0,0x18
    5ef0:	00006797          	auipc	a5,0x6
    5ef4:	00878793          	addi	a5,a5,8 # bef8 <__clz_tab>
    5ef8:	97aa                	add	a5,a5,a0
    5efa:	2388                	lbu	a0,0(a5)
    5efc:	4721                	li	a4,8
    5efe:	40a70533          	sub	a0,a4,a0
    5f02:	8082                	ret
    5f04:	8141                	srli	a0,a0,0x10
    5f06:	00006797          	auipc	a5,0x6
    5f0a:	ff278793          	addi	a5,a5,-14 # bef8 <__clz_tab>
    5f0e:	97aa                	add	a5,a5,a0
    5f10:	2388                	lbu	a0,0(a5)
    5f12:	4741                	li	a4,16
    5f14:	40a70533          	sub	a0,a4,a0
    5f18:	8082                	ret

00005f1a <memcpy>:
    5f1a:	00a5c7b3          	xor	a5,a1,a0
    5f1e:	8b8d                	andi	a5,a5,3
    5f20:	00c50733          	add	a4,a0,a2
    5f24:	e781                	bnez	a5,5f2c <memcpy+0x12>
    5f26:	478d                	li	a5,3
    5f28:	00c7ed63          	bltu	a5,a2,5f42 <memcpy+0x28>
    5f2c:	87aa                	mv	a5,a0
    5f2e:	08e57e63          	bgeu	a0,a4,5fca <memcpy+0xb0>
    5f32:	2194                	lbu	a3,0(a1)
    5f34:	0785                	addi	a5,a5,1
    5f36:	0585                	addi	a1,a1,1
    5f38:	fed78fa3          	sb	a3,-1(a5)
    5f3c:	fee7ebe3          	bltu	a5,a4,5f32 <memcpy+0x18>
    5f40:	8082                	ret
    5f42:	00357693          	andi	a3,a0,3
    5f46:	87aa                	mv	a5,a0
    5f48:	ca89                	beqz	a3,5f5a <memcpy+0x40>
    5f4a:	2194                	lbu	a3,0(a1)
    5f4c:	0785                	addi	a5,a5,1
    5f4e:	0585                	addi	a1,a1,1
    5f50:	fed78fa3          	sb	a3,-1(a5)
    5f54:	0037f693          	andi	a3,a5,3
    5f58:	bfc5                	j	5f48 <memcpy+0x2e>
    5f5a:	ffc77693          	andi	a3,a4,-4
    5f5e:	fe068613          	addi	a2,a3,-32
    5f62:	06c7f063          	bgeu	a5,a2,5fc2 <memcpy+0xa8>
    5f66:	0005a383          	lw	t2,0(a1)
    5f6a:	0045a283          	lw	t0,4(a1)
    5f6e:	0085af83          	lw	t6,8(a1)
    5f72:	00c5af03          	lw	t5,12(a1)
    5f76:	0105ae83          	lw	t4,16(a1)
    5f7a:	0145ae03          	lw	t3,20(a1)
    5f7e:	0185a303          	lw	t1,24(a1)
    5f82:	01c5a883          	lw	a7,28(a1)
    5f86:	02458593          	addi	a1,a1,36
    5f8a:	0077a023          	sw	t2,0(a5)
    5f8e:	ffc5a803          	lw	a6,-4(a1)
    5f92:	0057a223          	sw	t0,4(a5)
    5f96:	01f7a423          	sw	t6,8(a5)
    5f9a:	01e7a623          	sw	t5,12(a5)
    5f9e:	01d7a823          	sw	t4,16(a5)
    5fa2:	01c7aa23          	sw	t3,20(a5)
    5fa6:	0067ac23          	sw	t1,24(a5)
    5faa:	0117ae23          	sw	a7,28(a5)
    5fae:	02478793          	addi	a5,a5,36
    5fb2:	ff07ae23          	sw	a6,-4(a5)
    5fb6:	b775                	j	5f62 <memcpy+0x48>
    5fb8:	4190                	lw	a2,0(a1)
    5fba:	0791                	addi	a5,a5,4
    5fbc:	0591                	addi	a1,a1,4
    5fbe:	fec7ae23          	sw	a2,-4(a5)
    5fc2:	fed7ebe3          	bltu	a5,a3,5fb8 <memcpy+0x9e>
    5fc6:	f6e7e6e3          	bltu	a5,a4,5f32 <memcpy+0x18>
    5fca:	8082                	ret

00005fcc <__cvt>:
    5fcc:	7179                	addi	sp,sp,-48
    5fce:	d422                	sw	s0,40(sp)
    5fd0:	d04a                	sw	s2,32(sp)
    5fd2:	cc52                	sw	s4,24(sp)
    5fd4:	ca56                	sw	s5,20(sp)
    5fd6:	c85a                	sw	s6,16(sp)
    5fd8:	d606                	sw	ra,44(sp)
    5fda:	d226                	sw	s1,36(sp)
    5fdc:	ce4e                	sw	s3,28(sp)
    5fde:	8a3a                	mv	s4,a4
    5fe0:	8aae                	mv	s5,a1
    5fe2:	8432                	mv	s0,a2
    5fe4:	8936                	mv	s2,a3
    5fe6:	8b42                	mv	s6,a6
    5fe8:	4701                	li	a4,0
    5fea:	00065863          	bgez	a2,5ffa <__cvt+0x2e>
    5fee:	80000737          	lui	a4,0x80000
    5ff2:	00c74433          	xor	s0,a4,a2
    5ff6:	02d00713          	li	a4,45
    5ffa:	a398                	sb	a4,0(a5)
    5ffc:	fdf8f493          	andi	s1,a7,-33
    6000:	04600793          	li	a5,70
    6004:	468d                	li	a3,3
    6006:	00f48863          	beq	s1,a5,6016 <__cvt+0x4a>
    600a:	04500793          	li	a5,69
    600e:	4689                	li	a3,2
    6010:	00f49363          	bne	s1,a5,6016 <__cvt+0x4a>
    6014:	0905                	addi	s2,s2,1
    6016:	87da                	mv	a5,s6
    6018:	00c10893          	addi	a7,sp,12
    601c:	00810813          	addi	a6,sp,8
    6020:	874a                	mv	a4,s2
    6022:	85d6                	mv	a1,s5
    6024:	8622                	mv	a2,s0
    6026:	605010ef          	jal	ra,7e2a <_dtoa_r>
    602a:	04700793          	li	a5,71
    602e:	89aa                	mv	s3,a0
    6030:	00f49663          	bne	s1,a5,603c <__cvt+0x70>
    6034:	001a7a13          	andi	s4,s4,1
    6038:	040a0a63          	beqz	s4,608c <__cvt+0xc0>
    603c:	04600793          	li	a5,70
    6040:	01298a33          	add	s4,s3,s2
    6044:	02f49763          	bne	s1,a5,6072 <__cvt+0xa6>
    6048:	0009c703          	lbu	a4,0(s3)
    604c:	03000793          	li	a5,48
    6050:	00f71e63          	bne	a4,a5,606c <__cvt+0xa0>
    6054:	4601                	li	a2,0
    6056:	4681                	li	a3,0
    6058:	8556                	mv	a0,s5
    605a:	85a2                	mv	a1,s0
    605c:	378050ef          	jal	ra,b3d4 <__eqdf2>
    6060:	c511                	beqz	a0,606c <__cvt+0xa0>
    6062:	4785                	li	a5,1
    6064:	41278933          	sub	s2,a5,s2
    6068:	012b2023          	sw	s2,0(s6)
    606c:	000b2783          	lw	a5,0(s6)
    6070:	9a3e                	add	s4,s4,a5
    6072:	4601                	li	a2,0
    6074:	4681                	li	a3,0
    6076:	8556                	mv	a0,s5
    6078:	85a2                	mv	a1,s0
    607a:	35a050ef          	jal	ra,b3d4 <__eqdf2>
    607e:	e111                	bnez	a0,6082 <__cvt+0xb6>
    6080:	c652                	sw	s4,12(sp)
    6082:	03000713          	li	a4,48
    6086:	47b2                	lw	a5,12(sp)
    6088:	0347e263          	bltu	a5,s4,60ac <__cvt+0xe0>
    608c:	47b2                	lw	a5,12(sp)
    608e:	5742                	lw	a4,48(sp)
    6090:	50b2                	lw	ra,44(sp)
    6092:	5422                	lw	s0,40(sp)
    6094:	413787b3          	sub	a5,a5,s3
    6098:	c31c                	sw	a5,0(a4)
    609a:	854e                	mv	a0,s3
    609c:	5492                	lw	s1,36(sp)
    609e:	5902                	lw	s2,32(sp)
    60a0:	49f2                	lw	s3,28(sp)
    60a2:	4a62                	lw	s4,24(sp)
    60a4:	4ad2                	lw	s5,20(sp)
    60a6:	4b42                	lw	s6,16(sp)
    60a8:	6145                	addi	sp,sp,48
    60aa:	8082                	ret
    60ac:	00178693          	addi	a3,a5,1
    60b0:	c636                	sw	a3,12(sp)
    60b2:	a398                	sb	a4,0(a5)
    60b4:	bfc9                	j	6086 <__cvt+0xba>

000060b6 <__exponent>:
    60b6:	a110                	sb	a2,0(a0)
    60b8:	00250713          	addi	a4,a0,2
    60bc:	02b00793          	li	a5,43
    60c0:	0005d663          	bgez	a1,60cc <__exponent+0x16>
    60c4:	40b005b3          	neg	a1,a1
    60c8:	02d00793          	li	a5,45
    60cc:	b11c                	sb	a5,1(a0)
    60ce:	47a5                	li	a5,9
    60d0:	04b7da63          	bge	a5,a1,6124 <__exponent+0x6e>
    60d4:	1141                	addi	sp,sp,-16
    60d6:	00f10793          	addi	a5,sp,15
    60da:	88be                	mv	a7,a5
    60dc:	4829                	li	a6,10
    60de:	06300313          	li	t1,99
    60e2:	0305e6b3          	rem	a3,a1,a6
    60e6:	fff78613          	addi	a2,a5,-1
    60ea:	03068693          	addi	a3,a3,48
    60ee:	fed78fa3          	sb	a3,-1(a5)
    60f2:	0305c6b3          	div	a3,a1,a6
    60f6:	00b34d63          	blt	t1,a1,6110 <__exponent+0x5a>
    60fa:	03068693          	addi	a3,a3,48
    60fe:	17f9                	addi	a5,a5,-2
    6100:	fed60fa3          	sb	a3,-1(a2) # 7fffff <_data_lma+0x7f3c3b>
    6104:	0117e963          	bltu	a5,a7,6116 <__exponent+0x60>
    6108:	40a70533          	sub	a0,a4,a0
    610c:	0141                	addi	sp,sp,16
    610e:	8082                	ret
    6110:	87b2                	mv	a5,a2
    6112:	85b6                	mv	a1,a3
    6114:	b7f9                	j	60e2 <__exponent+0x2c>
    6116:	0785                	addi	a5,a5,1
    6118:	fff7c683          	lbu	a3,-1(a5)
    611c:	0705                	addi	a4,a4,1
    611e:	fed70fa3          	sb	a3,-1(a4) # 7fffffff <_eusrstack+0x5fff7fff>
    6122:	b7cd                	j	6104 <__exponent+0x4e>
    6124:	03000793          	li	a5,48
    6128:	00450713          	addi	a4,a0,4
    612c:	03058593          	addi	a1,a1,48
    6130:	a13c                	sb	a5,2(a0)
    6132:	b12c                	sb	a1,3(a0)
    6134:	40a70533          	sub	a0,a4,a0
    6138:	8082                	ret

0000613a <_printf_float>:
    613a:	7119                	addi	sp,sp,-128
    613c:	ce3a                	sw	a4,28(sp)
    613e:	de86                	sw	ra,124(sp)
    6140:	dca2                	sw	s0,120(sp)
    6142:	daa6                	sw	s1,116(sp)
    6144:	842e                	mv	s0,a1
    6146:	d8ca                	sw	s2,112(sp)
    6148:	d6ce                	sw	s3,108(sp)
    614a:	d4d2                	sw	s4,104(sp)
    614c:	89b6                	mv	s3,a3
    614e:	d0da                	sw	s6,96(sp)
    6150:	cede                	sw	s7,92(sp)
    6152:	cce2                	sw	s8,88(sp)
    6154:	8932                	mv	s2,a2
    6156:	d2d6                	sw	s5,100(sp)
    6158:	cae6                	sw	s9,84(sp)
    615a:	c8ea                	sw	s10,80(sp)
    615c:	c6ee                	sw	s11,76(sp)
    615e:	84aa                	mv	s1,a0
    6160:	252030ef          	jal	ra,93b2 <_localeconv_r>
    6164:	00052b83          	lw	s7,0(a0)
    6168:	855e                	mv	a0,s7
    616a:	555000ef          	jal	ra,6ebe <strlen>
    616e:	00042b03          	lw	s6,0(s0) # 4000000 <_data_lma+0x3ff3c3c>
    6172:	4772                	lw	a4,28(sp)
    6174:	dc02                	sw	zero,56(sp)
    6176:	100b7693          	andi	a3,s6,256
    617a:	8c2a                	mv	s8,a0
    617c:	01844a03          	lbu	s4,24(s0)
    6180:	431c                	lw	a5,0(a4)
    6182:	caf1                	beqz	a3,6256 <_printf_float+0x11c>
    6184:	00478693          	addi	a3,a5,4
    6188:	c314                	sw	a3,0(a4)
    618a:	439c                	lw	a5,0(a5)
    618c:	1008                	addi	a0,sp,32
    618e:	4398                	lw	a4,0(a5)
    6190:	d03a                	sw	a4,32(sp)
    6192:	43d8                	lw	a4,4(a5)
    6194:	d23a                	sw	a4,36(sp)
    6196:	4798                	lw	a4,8(a5)
    6198:	d43a                	sw	a4,40(sp)
    619a:	47dc                	lw	a5,12(a5)
    619c:	d63e                	sw	a5,44(sp)
    619e:	5a8050ef          	jal	ra,b746 <__trunctfdf2>
    61a2:	c428                	sw	a0,72(s0)
    61a4:	c46c                	sw	a1,76(s0)
    61a6:	04c42c83          	lw	s9,76(s0)
    61aa:	00006717          	auipc	a4,0x6
    61ae:	e4e70713          	addi	a4,a4,-434 # bff8 <__clz_tab+0x100>
    61b2:	04842a83          	lw	s5,72(s0)
    61b6:	00072d03          	lw	s10,0(a4)
    61ba:	00472d83          	lw	s11,4(a4)
    61be:	001c9793          	slli	a5,s9,0x1
    61c2:	8385                	srli	a5,a5,0x1
    61c4:	866a                	mv	a2,s10
    61c6:	86ee                	mv	a3,s11
    61c8:	8556                	mv	a0,s5
    61ca:	85be                	mv	a1,a5
    61cc:	ce3e                	sw	a5,28(sp)
    61ce:	270050ef          	jal	ra,b43e <__unorddf2>
    61d2:	ed41                	bnez	a0,626a <_printf_float+0x130>
    61d4:	47f2                	lw	a5,28(sp)
    61d6:	866a                	mv	a2,s10
    61d8:	86ee                	mv	a3,s11
    61da:	8556                	mv	a0,s5
    61dc:	85be                	mv	a1,a5
    61de:	da9fd0ef          	jal	ra,3f86 <__ledf2>
    61e2:	08a05463          	blez	a0,626a <_printf_float+0x130>
    61e6:	4601                	li	a2,0
    61e8:	4681                	li	a3,0
    61ea:	8556                	mv	a0,s5
    61ec:	85e6                	mv	a1,s9
    61ee:	d99fd0ef          	jal	ra,3f86 <__ledf2>
    61f2:	00055663          	bgez	a0,61fe <_printf_float+0xc4>
    61f6:	02d00793          	li	a5,45
    61fa:	04f401a3          	sb	a5,67(s0)
    61fe:	04700793          	li	a5,71
    6202:	00006a97          	auipc	s5,0x6
    6206:	dfea8a93          	addi	s5,s5,-514 # c000 <__clz_tab+0x108>
    620a:	0147f663          	bgeu	a5,s4,6216 <_printf_float+0xdc>
    620e:	00006a97          	auipc	s5,0x6
    6212:	df6a8a93          	addi	s5,s5,-522 # c004 <__clz_tab+0x10c>
    6216:	ffbb7b13          	andi	s6,s6,-5
    621a:	478d                	li	a5,3
    621c:	01642023          	sw	s6,0(s0)
    6220:	c81c                	sw	a5,16(s0)
    6222:	4b01                	li	s6,0
    6224:	874e                	mv	a4,s3
    6226:	86ca                	mv	a3,s2
    6228:	1870                	addi	a2,sp,60
    622a:	85a2                	mv	a1,s0
    622c:	8526                	mv	a0,s1
    622e:	2ec1                	jal	65fe <_printf_common>
    6230:	5cfd                	li	s9,-1
    6232:	15951e63          	bne	a0,s9,638e <_printf_float+0x254>
    6236:	557d                	li	a0,-1
    6238:	50f6                	lw	ra,124(sp)
    623a:	5466                	lw	s0,120(sp)
    623c:	54d6                	lw	s1,116(sp)
    623e:	5946                	lw	s2,112(sp)
    6240:	59b6                	lw	s3,108(sp)
    6242:	5a26                	lw	s4,104(sp)
    6244:	5a96                	lw	s5,100(sp)
    6246:	5b06                	lw	s6,96(sp)
    6248:	4bf6                	lw	s7,92(sp)
    624a:	4c66                	lw	s8,88(sp)
    624c:	4cd6                	lw	s9,84(sp)
    624e:	4d46                	lw	s10,80(sp)
    6250:	4db6                	lw	s11,76(sp)
    6252:	6109                	addi	sp,sp,128
    6254:	8082                	ret
    6256:	079d                	addi	a5,a5,7
    6258:	9be1                	andi	a5,a5,-8
    625a:	00878693          	addi	a3,a5,8
    625e:	c314                	sw	a3,0(a4)
    6260:	4398                	lw	a4,0(a5)
    6262:	43dc                	lw	a5,4(a5)
    6264:	c438                	sw	a4,72(s0)
    6266:	c47c                	sw	a5,76(s0)
    6268:	bf3d                	j	61a6 <_printf_float+0x6c>
    626a:	8656                	mv	a2,s5
    626c:	86e6                	mv	a3,s9
    626e:	8556                	mv	a0,s5
    6270:	85e6                	mv	a1,s9
    6272:	1cc050ef          	jal	ra,b43e <__unorddf2>
    6276:	cd11                	beqz	a0,6292 <_printf_float+0x158>
    6278:	04700793          	li	a5,71
    627c:	00006a97          	auipc	s5,0x6
    6280:	d8ca8a93          	addi	s5,s5,-628 # c008 <__clz_tab+0x110>
    6284:	f947f9e3          	bgeu	a5,s4,6216 <_printf_float+0xdc>
    6288:	00006a97          	auipc	s5,0x6
    628c:	d84a8a93          	addi	s5,s5,-636 # c00c <__clz_tab+0x114>
    6290:	b759                	j	6216 <_printf_float+0xdc>
    6292:	405c                	lw	a5,4(s0)
    6294:	577d                	li	a4,-1
    6296:	0dfa7d13          	andi	s10,s4,223
    629a:	08e79563          	bne	a5,a4,6324 <_printf_float+0x1ea>
    629e:	4799                	li	a5,6
    62a0:	c05c                	sw	a5,4(s0)
    62a2:	4054                	lw	a3,4(s0)
    62a4:	400b6713          	ori	a4,s6,1024
    62a8:	183c                	addi	a5,sp,56
    62aa:	85d6                	mv	a1,s5
    62ac:	c03e                	sw	a5,0(sp)
    62ae:	c018                	sw	a4,0(s0)
    62b0:	03310793          	addi	a5,sp,51
    62b4:	c202                	sw	zero,4(sp)
    62b6:	88d2                	mv	a7,s4
    62b8:	03410813          	addi	a6,sp,52
    62bc:	8666                	mv	a2,s9
    62be:	8526                	mv	a0,s1
    62c0:	d0dff0ef          	jal	ra,5fcc <__cvt>
    62c4:	04700793          	li	a5,71
    62c8:	8aaa                	mv	s5,a0
    62ca:	55d2                	lw	a1,52(sp)
    62cc:	00fd1b63          	bne	s10,a5,62e2 <_printf_float+0x1a8>
    62d0:	57f5                	li	a5,-3
    62d2:	00f5c563          	blt	a1,a5,62dc <_printf_float+0x1a2>
    62d6:	405c                	lw	a5,4(s0)
    62d8:	08b7d863          	bge	a5,a1,6368 <_printf_float+0x22e>
    62dc:	1a79                	addi	s4,s4,-2
    62de:	0ffa7a13          	andi	s4,s4,255
    62e2:	06500793          	li	a5,101
    62e6:	0547e663          	bltu	a5,s4,6332 <_printf_float+0x1f8>
    62ea:	15fd                	addi	a1,a1,-1
    62ec:	8652                	mv	a2,s4
    62ee:	05040513          	addi	a0,s0,80
    62f2:	da2e                	sw	a1,52(sp)
    62f4:	dc3ff0ef          	jal	ra,60b6 <__exponent>
    62f8:	5762                	lw	a4,56(sp)
    62fa:	4685                	li	a3,1
    62fc:	8b2a                	mv	s6,a0
    62fe:	00a707b3          	add	a5,a4,a0
    6302:	c81c                	sw	a5,16(s0)
    6304:	00e6c563          	blt	a3,a4,630e <_printf_float+0x1d4>
    6308:	4018                	lw	a4,0(s0)
    630a:	8b05                	andi	a4,a4,1
    630c:	c319                	beqz	a4,6312 <_printf_float+0x1d8>
    630e:	0785                	addi	a5,a5,1
    6310:	c81c                	sw	a5,16(s0)
    6312:	03314783          	lbu	a5,51(sp)
    6316:	f00787e3          	beqz	a5,6224 <_printf_float+0xea>
    631a:	02d00793          	li	a5,45
    631e:	04f401a3          	sb	a5,67(s0)
    6322:	b709                	j	6224 <_printf_float+0xea>
    6324:	04700713          	li	a4,71
    6328:	f6ed1de3          	bne	s10,a4,62a2 <_printf_float+0x168>
    632c:	fbbd                	bnez	a5,62a2 <_printf_float+0x168>
    632e:	4785                	li	a5,1
    6330:	bf85                	j	62a0 <_printf_float+0x166>
    6332:	06600793          	li	a5,102
    6336:	02fa1b63          	bne	s4,a5,636c <_printf_float+0x232>
    633a:	405c                	lw	a5,4(s0)
    633c:	00b05b63          	blez	a1,6352 <_printf_float+0x218>
    6340:	c80c                	sw	a1,16(s0)
    6342:	e781                	bnez	a5,634a <_printf_float+0x210>
    6344:	4018                	lw	a4,0(s0)
    6346:	8b05                	andi	a4,a4,1
    6348:	cf09                	beqz	a4,6362 <_printf_float+0x228>
    634a:	0785                	addi	a5,a5,1
    634c:	97ae                	add	a5,a5,a1
    634e:	c81c                	sw	a5,16(s0)
    6350:	a809                	j	6362 <_printf_float+0x228>
    6352:	e789                	bnez	a5,635c <_printf_float+0x222>
    6354:	4018                	lw	a4,0(s0)
    6356:	4685                	li	a3,1
    6358:	8b05                	andi	a4,a4,1
    635a:	c319                	beqz	a4,6360 <_printf_float+0x226>
    635c:	00278693          	addi	a3,a5,2
    6360:	c814                	sw	a3,16(s0)
    6362:	cc2c                	sw	a1,88(s0)
    6364:	4b01                	li	s6,0
    6366:	b775                	j	6312 <_printf_float+0x1d8>
    6368:	06700a13          	li	s4,103
    636c:	57e2                	lw	a5,56(sp)
    636e:	00f5c963          	blt	a1,a5,6380 <_printf_float+0x246>
    6372:	401c                	lw	a5,0(s0)
    6374:	c80c                	sw	a1,16(s0)
    6376:	8b85                	andi	a5,a5,1
    6378:	d7ed                	beqz	a5,6362 <_printf_float+0x228>
    637a:	00158793          	addi	a5,a1,1
    637e:	bfc1                	j	634e <_printf_float+0x214>
    6380:	4705                	li	a4,1
    6382:	00b04463          	bgtz	a1,638a <_printf_float+0x250>
    6386:	4709                	li	a4,2
    6388:	8f0d                	sub	a4,a4,a1
    638a:	97ba                	add	a5,a5,a4
    638c:	b7c9                	j	634e <_printf_float+0x214>
    638e:	401c                	lw	a5,0(s0)
    6390:	4007f713          	andi	a4,a5,1024
    6394:	e315                	bnez	a4,63b8 <_printf_float+0x27e>
    6396:	4814                	lw	a3,16(s0)
    6398:	8656                	mv	a2,s5
    639a:	85ca                	mv	a1,s2
    639c:	8526                	mv	a0,s1
    639e:	9982                	jalr	s3
    63a0:	e9950be3          	beq	a0,s9,6236 <_printf_float+0xfc>
    63a4:	401c                	lw	a5,0(s0)
    63a6:	8b89                	andi	a5,a5,2
    63a8:	24079663          	bnez	a5,65f4 <_printf_float+0x4ba>
    63ac:	57f2                	lw	a5,60(sp)
    63ae:	4448                	lw	a0,12(s0)
    63b0:	e8f554e3          	bge	a0,a5,6238 <_printf_float+0xfe>
    63b4:	853e                	mv	a0,a5
    63b6:	b549                	j	6238 <_printf_float+0xfe>
    63b8:	06500713          	li	a4,101
    63bc:	19477b63          	bgeu	a4,s4,6552 <_printf_float+0x418>
    63c0:	4428                	lw	a0,72(s0)
    63c2:	446c                	lw	a1,76(s0)
    63c4:	4601                	li	a2,0
    63c6:	4681                	li	a3,0
    63c8:	00c050ef          	jal	ra,b3d4 <__eqdf2>
    63cc:	e939                	bnez	a0,6422 <_printf_float+0x2e8>
    63ce:	4685                	li	a3,1
    63d0:	00006617          	auipc	a2,0x6
    63d4:	c4060613          	addi	a2,a2,-960 # c010 <__clz_tab+0x118>
    63d8:	85ca                	mv	a1,s2
    63da:	8526                	mv	a0,s1
    63dc:	9982                	jalr	s3
    63de:	e5950ce3          	beq	a0,s9,6236 <_printf_float+0xfc>
    63e2:	5752                	lw	a4,52(sp)
    63e4:	57e2                	lw	a5,56(sp)
    63e6:	00f74563          	blt	a4,a5,63f0 <_printf_float+0x2b6>
    63ea:	401c                	lw	a5,0(s0)
    63ec:	8b85                	andi	a5,a5,1
    63ee:	dbdd                	beqz	a5,63a4 <_printf_float+0x26a>
    63f0:	86e2                	mv	a3,s8
    63f2:	865e                	mv	a2,s7
    63f4:	85ca                	mv	a1,s2
    63f6:	8526                	mv	a0,s1
    63f8:	9982                	jalr	s3
    63fa:	57fd                	li	a5,-1
    63fc:	e2f50de3          	beq	a0,a5,6236 <_printf_float+0xfc>
    6400:	4a01                	li	s4,0
    6402:	01a40a93          	addi	s5,s0,26
    6406:	5b7d                	li	s6,-1
    6408:	57e2                	lw	a5,56(sp)
    640a:	17fd                	addi	a5,a5,-1
    640c:	f8fa5ce3          	bge	s4,a5,63a4 <_printf_float+0x26a>
    6410:	4685                	li	a3,1
    6412:	8656                	mv	a2,s5
    6414:	85ca                	mv	a1,s2
    6416:	8526                	mv	a0,s1
    6418:	9982                	jalr	s3
    641a:	e1650ee3          	beq	a0,s6,6236 <_printf_float+0xfc>
    641e:	0a05                	addi	s4,s4,1
    6420:	b7e5                	j	6408 <_printf_float+0x2ce>
    6422:	57d2                	lw	a5,52(sp)
    6424:	06f04663          	bgtz	a5,6490 <_printf_float+0x356>
    6428:	4685                	li	a3,1
    642a:	00006617          	auipc	a2,0x6
    642e:	be660613          	addi	a2,a2,-1050 # c010 <__clz_tab+0x118>
    6432:	85ca                	mv	a1,s2
    6434:	8526                	mv	a0,s1
    6436:	9982                	jalr	s3
    6438:	df950fe3          	beq	a0,s9,6236 <_printf_float+0xfc>
    643c:	57d2                	lw	a5,52(sp)
    643e:	5762                	lw	a4,56(sp)
    6440:	8fd9                	or	a5,a5,a4
    6442:	e781                	bnez	a5,644a <_printf_float+0x310>
    6444:	401c                	lw	a5,0(s0)
    6446:	8b85                	andi	a5,a5,1
    6448:	dfb1                	beqz	a5,63a4 <_printf_float+0x26a>
    644a:	86e2                	mv	a3,s8
    644c:	865e                	mv	a2,s7
    644e:	85ca                	mv	a1,s2
    6450:	8526                	mv	a0,s1
    6452:	9982                	jalr	s3
    6454:	57fd                	li	a5,-1
    6456:	def500e3          	beq	a0,a5,6236 <_printf_float+0xfc>
    645a:	4a01                	li	s4,0
    645c:	01a40b13          	addi	s6,s0,26
    6460:	5bfd                	li	s7,-1
    6462:	57d2                	lw	a5,52(sp)
    6464:	40f007b3          	neg	a5,a5
    6468:	00fa4b63          	blt	s4,a5,647e <_printf_float+0x344>
    646c:	56e2                	lw	a3,56(sp)
    646e:	8656                	mv	a2,s5
    6470:	85ca                	mv	a1,s2
    6472:	8526                	mv	a0,s1
    6474:	9982                	jalr	s3
    6476:	57fd                	li	a5,-1
    6478:	f2f516e3          	bne	a0,a5,63a4 <_printf_float+0x26a>
    647c:	bb6d                	j	6236 <_printf_float+0xfc>
    647e:	4685                	li	a3,1
    6480:	865a                	mv	a2,s6
    6482:	85ca                	mv	a1,s2
    6484:	8526                	mv	a0,s1
    6486:	9982                	jalr	s3
    6488:	db7507e3          	beq	a0,s7,6236 <_printf_float+0xfc>
    648c:	0a05                	addi	s4,s4,1
    648e:	bfd1                	j	6462 <_printf_float+0x328>
    6490:	4c3c                	lw	a5,88(s0)
    6492:	5a62                	lw	s4,56(sp)
    6494:	0147d363          	bge	a5,s4,649a <_printf_float+0x360>
    6498:	8a3e                	mv	s4,a5
    649a:	01405a63          	blez	s4,64ae <_printf_float+0x374>
    649e:	86d2                	mv	a3,s4
    64a0:	8656                	mv	a2,s5
    64a2:	85ca                	mv	a1,s2
    64a4:	8526                	mv	a0,s1
    64a6:	9982                	jalr	s3
    64a8:	57fd                	li	a5,-1
    64aa:	d8f506e3          	beq	a0,a5,6236 <_printf_float+0xfc>
    64ae:	4c81                	li	s9,0
    64b0:	01a40d13          	addi	s10,s0,26
    64b4:	5dfd                	li	s11,-1
    64b6:	a809                	j	64c8 <_printf_float+0x38e>
    64b8:	4685                	li	a3,1
    64ba:	866a                	mv	a2,s10
    64bc:	85ca                	mv	a1,s2
    64be:	8526                	mv	a0,s1
    64c0:	9982                	jalr	s3
    64c2:	d7b50ae3          	beq	a0,s11,6236 <_printf_float+0xfc>
    64c6:	0c85                	addi	s9,s9,1
    64c8:	05842b03          	lw	s6,88(s0)
    64cc:	87d2                	mv	a5,s4
    64ce:	000a5363          	bgez	s4,64d4 <_printf_float+0x39a>
    64d2:	4781                	li	a5,0
    64d4:	40fb07b3          	sub	a5,s6,a5
    64d8:	fefcc0e3          	blt	s9,a5,64b8 <_printf_float+0x37e>
    64dc:	5752                	lw	a4,52(sp)
    64de:	57e2                	lw	a5,56(sp)
    64e0:	02f74d63          	blt	a4,a5,651a <_printf_float+0x3e0>
    64e4:	401c                	lw	a5,0(s0)
    64e6:	8b85                	andi	a5,a5,1
    64e8:	eb8d                	bnez	a5,651a <_printf_float+0x3e0>
    64ea:	57e2                	lw	a5,56(sp)
    64ec:	5752                	lw	a4,52(sp)
    64ee:	40e78a33          	sub	s4,a5,a4
    64f2:	00eb4463          	blt	s6,a4,64fa <_printf_float+0x3c0>
    64f6:	41678a33          	sub	s4,a5,s6
    64fa:	01405b63          	blez	s4,6510 <_printf_float+0x3d6>
    64fe:	86d2                	mv	a3,s4
    6500:	016a8633          	add	a2,s5,s6
    6504:	85ca                	mv	a1,s2
    6506:	8526                	mv	a0,s1
    6508:	9982                	jalr	s3
    650a:	57fd                	li	a5,-1
    650c:	d2f505e3          	beq	a0,a5,6236 <_printf_float+0xfc>
    6510:	4a81                	li	s5,0
    6512:	01a40b13          	addi	s6,s0,26
    6516:	5bfd                	li	s7,-1
    6518:	a015                	j	653c <_printf_float+0x402>
    651a:	86e2                	mv	a3,s8
    651c:	865e                	mv	a2,s7
    651e:	85ca                	mv	a1,s2
    6520:	8526                	mv	a0,s1
    6522:	9982                	jalr	s3
    6524:	57fd                	li	a5,-1
    6526:	fcf512e3          	bne	a0,a5,64ea <_printf_float+0x3b0>
    652a:	b331                	j	6236 <_printf_float+0xfc>
    652c:	4685                	li	a3,1
    652e:	865a                	mv	a2,s6
    6530:	85ca                	mv	a1,s2
    6532:	8526                	mv	a0,s1
    6534:	9982                	jalr	s3
    6536:	d17500e3          	beq	a0,s7,6236 <_printf_float+0xfc>
    653a:	0a85                	addi	s5,s5,1
    653c:	5752                	lw	a4,52(sp)
    653e:	57e2                	lw	a5,56(sp)
    6540:	8f99                	sub	a5,a5,a4
    6542:	8752                	mv	a4,s4
    6544:	000a5363          	bgez	s4,654a <_printf_float+0x410>
    6548:	4701                	li	a4,0
    654a:	8f99                	sub	a5,a5,a4
    654c:	fefac0e3          	blt	s5,a5,652c <_printf_float+0x3f2>
    6550:	bd91                	j	63a4 <_printf_float+0x26a>
    6552:	56e2                	lw	a3,56(sp)
    6554:	4705                	li	a4,1
    6556:	00d74463          	blt	a4,a3,655e <_printf_float+0x424>
    655a:	8b85                	andi	a5,a5,1
    655c:	c7b5                	beqz	a5,65c8 <_printf_float+0x48e>
    655e:	4685                	li	a3,1
    6560:	8656                	mv	a2,s5
    6562:	85ca                	mv	a1,s2
    6564:	8526                	mv	a0,s1
    6566:	9982                	jalr	s3
    6568:	5a7d                	li	s4,-1
    656a:	cd4506e3          	beq	a0,s4,6236 <_printf_float+0xfc>
    656e:	86e2                	mv	a3,s8
    6570:	865e                	mv	a2,s7
    6572:	85ca                	mv	a1,s2
    6574:	8526                	mv	a0,s1
    6576:	9982                	jalr	s3
    6578:	cb450fe3          	beq	a0,s4,6236 <_printf_float+0xfc>
    657c:	4428                	lw	a0,72(s0)
    657e:	446c                	lw	a1,76(s0)
    6580:	4601                	li	a2,0
    6582:	4681                	li	a3,0
    6584:	651040ef          	jal	ra,b3d4 <__eqdf2>
    6588:	c91d                	beqz	a0,65be <_printf_float+0x484>
    658a:	56e2                	lw	a3,56(sp)
    658c:	001a8613          	addi	a2,s5,1
    6590:	85ca                	mv	a1,s2
    6592:	16fd                	addi	a3,a3,-1
    6594:	8526                	mv	a0,s1
    6596:	9982                	jalr	s3
    6598:	c9450fe3          	beq	a0,s4,6236 <_printf_float+0xfc>
    659c:	86da                	mv	a3,s6
    659e:	05040613          	addi	a2,s0,80
    65a2:	b5f9                	j	6470 <_printf_float+0x336>
    65a4:	4685                	li	a3,1
    65a6:	8656                	mv	a2,s5
    65a8:	85ca                	mv	a1,s2
    65aa:	8526                	mv	a0,s1
    65ac:	9982                	jalr	s3
    65ae:	c97504e3          	beq	a0,s7,6236 <_printf_float+0xfc>
    65b2:	0a05                	addi	s4,s4,1
    65b4:	57e2                	lw	a5,56(sp)
    65b6:	17fd                	addi	a5,a5,-1
    65b8:	fefa46e3          	blt	s4,a5,65a4 <_printf_float+0x46a>
    65bc:	b7c5                	j	659c <_printf_float+0x462>
    65be:	4a01                	li	s4,0
    65c0:	01a40a93          	addi	s5,s0,26
    65c4:	5bfd                	li	s7,-1
    65c6:	b7fd                	j	65b4 <_printf_float+0x47a>
    65c8:	4685                	li	a3,1
    65ca:	8656                	mv	a2,s5
    65cc:	85ca                	mv	a1,s2
    65ce:	8526                	mv	a0,s1
    65d0:	9982                	jalr	s3
    65d2:	fd9515e3          	bne	a0,s9,659c <_printf_float+0x462>
    65d6:	b185                	j	6236 <_printf_float+0xfc>
    65d8:	4685                	li	a3,1
    65da:	8656                	mv	a2,s5
    65dc:	85ca                	mv	a1,s2
    65de:	8526                	mv	a0,s1
    65e0:	9982                	jalr	s3
    65e2:	c5650ae3          	beq	a0,s6,6236 <_printf_float+0xfc>
    65e6:	0a05                	addi	s4,s4,1
    65e8:	445c                	lw	a5,12(s0)
    65ea:	5772                	lw	a4,60(sp)
    65ec:	8f99                	sub	a5,a5,a4
    65ee:	fefa45e3          	blt	s4,a5,65d8 <_printf_float+0x49e>
    65f2:	bb6d                	j	63ac <_printf_float+0x272>
    65f4:	4a01                	li	s4,0
    65f6:	01940a93          	addi	s5,s0,25
    65fa:	5b7d                	li	s6,-1
    65fc:	b7f5                	j	65e8 <_printf_float+0x4ae>

000065fe <_printf_common>:
    65fe:	7179                	addi	sp,sp,-48
    6600:	ca56                	sw	s5,20(sp)
    6602:	499c                	lw	a5,16(a1)
    6604:	8aba                	mv	s5,a4
    6606:	4598                	lw	a4,8(a1)
    6608:	d422                	sw	s0,40(sp)
    660a:	d226                	sw	s1,36(sp)
    660c:	ce4e                	sw	s3,28(sp)
    660e:	cc52                	sw	s4,24(sp)
    6610:	d606                	sw	ra,44(sp)
    6612:	d04a                	sw	s2,32(sp)
    6614:	c85a                	sw	s6,16(sp)
    6616:	c65e                	sw	s7,12(sp)
    6618:	89aa                	mv	s3,a0
    661a:	842e                	mv	s0,a1
    661c:	84b2                	mv	s1,a2
    661e:	8a36                	mv	s4,a3
    6620:	00e7d363          	bge	a5,a4,6626 <_printf_common+0x28>
    6624:	87ba                	mv	a5,a4
    6626:	c09c                	sw	a5,0(s1)
    6628:	04344703          	lbu	a4,67(s0)
    662c:	c319                	beqz	a4,6632 <_printf_common+0x34>
    662e:	0785                	addi	a5,a5,1
    6630:	c09c                	sw	a5,0(s1)
    6632:	401c                	lw	a5,0(s0)
    6634:	0207f793          	andi	a5,a5,32
    6638:	c781                	beqz	a5,6640 <_printf_common+0x42>
    663a:	409c                	lw	a5,0(s1)
    663c:	0789                	addi	a5,a5,2
    663e:	c09c                	sw	a5,0(s1)
    6640:	00042903          	lw	s2,0(s0)
    6644:	00697913          	andi	s2,s2,6
    6648:	00091a63          	bnez	s2,665c <_printf_common+0x5e>
    664c:	01940b13          	addi	s6,s0,25
    6650:	5bfd                	li	s7,-1
    6652:	445c                	lw	a5,12(s0)
    6654:	4098                	lw	a4,0(s1)
    6656:	8f99                	sub	a5,a5,a4
    6658:	04f94c63          	blt	s2,a5,66b0 <_printf_common+0xb2>
    665c:	401c                	lw	a5,0(s0)
    665e:	04344683          	lbu	a3,67(s0)
    6662:	0207f793          	andi	a5,a5,32
    6666:	00d036b3          	snez	a3,a3
    666a:	eba5                	bnez	a5,66da <_printf_common+0xdc>
    666c:	04340613          	addi	a2,s0,67
    6670:	85d2                	mv	a1,s4
    6672:	854e                	mv	a0,s3
    6674:	9a82                	jalr	s5
    6676:	57fd                	li	a5,-1
    6678:	04f50363          	beq	a0,a5,66be <_printf_common+0xc0>
    667c:	401c                	lw	a5,0(s0)
    667e:	4611                	li	a2,4
    6680:	4098                	lw	a4,0(s1)
    6682:	8b99                	andi	a5,a5,6
    6684:	4454                	lw	a3,12(s0)
    6686:	4481                	li	s1,0
    6688:	00c79763          	bne	a5,a2,6696 <_printf_common+0x98>
    668c:	40e684b3          	sub	s1,a3,a4
    6690:	0004d363          	bgez	s1,6696 <_printf_common+0x98>
    6694:	4481                	li	s1,0
    6696:	441c                	lw	a5,8(s0)
    6698:	4818                	lw	a4,16(s0)
    669a:	00f75463          	bge	a4,a5,66a2 <_printf_common+0xa4>
    669e:	8f99                	sub	a5,a5,a4
    66a0:	94be                	add	s1,s1,a5
    66a2:	4901                	li	s2,0
    66a4:	0469                	addi	s0,s0,26
    66a6:	5b7d                	li	s6,-1
    66a8:	05249863          	bne	s1,s2,66f8 <_printf_common+0xfa>
    66ac:	4501                	li	a0,0
    66ae:	a809                	j	66c0 <_printf_common+0xc2>
    66b0:	4685                	li	a3,1
    66b2:	865a                	mv	a2,s6
    66b4:	85d2                	mv	a1,s4
    66b6:	854e                	mv	a0,s3
    66b8:	9a82                	jalr	s5
    66ba:	01751e63          	bne	a0,s7,66d6 <_printf_common+0xd8>
    66be:	557d                	li	a0,-1
    66c0:	50b2                	lw	ra,44(sp)
    66c2:	5422                	lw	s0,40(sp)
    66c4:	5492                	lw	s1,36(sp)
    66c6:	5902                	lw	s2,32(sp)
    66c8:	49f2                	lw	s3,28(sp)
    66ca:	4a62                	lw	s4,24(sp)
    66cc:	4ad2                	lw	s5,20(sp)
    66ce:	4b42                	lw	s6,16(sp)
    66d0:	4bb2                	lw	s7,12(sp)
    66d2:	6145                	addi	sp,sp,48
    66d4:	8082                	ret
    66d6:	0905                	addi	s2,s2,1
    66d8:	bfad                	j	6652 <_printf_common+0x54>
    66da:	00d40733          	add	a4,s0,a3
    66de:	03000613          	li	a2,48
    66e2:	04c701a3          	sb	a2,67(a4)
    66e6:	04544703          	lbu	a4,69(s0)
    66ea:	00168793          	addi	a5,a3,1
    66ee:	97a2                	add	a5,a5,s0
    66f0:	0689                	addi	a3,a3,2
    66f2:	04e781a3          	sb	a4,67(a5)
    66f6:	bf9d                	j	666c <_printf_common+0x6e>
    66f8:	4685                	li	a3,1
    66fa:	8622                	mv	a2,s0
    66fc:	85d2                	mv	a1,s4
    66fe:	854e                	mv	a0,s3
    6700:	9a82                	jalr	s5
    6702:	fb650ee3          	beq	a0,s6,66be <_printf_common+0xc0>
    6706:	0905                	addi	s2,s2,1
    6708:	b745                	j	66a8 <_printf_common+0xaa>

0000670a <_printf_i>:
    670a:	7179                	addi	sp,sp,-48
    670c:	d422                	sw	s0,40(sp)
    670e:	d226                	sw	s1,36(sp)
    6710:	d04a                	sw	s2,32(sp)
    6712:	ce4e                	sw	s3,28(sp)
    6714:	d606                	sw	ra,44(sp)
    6716:	cc52                	sw	s4,24(sp)
    6718:	ca56                	sw	s5,20(sp)
    671a:	c85a                	sw	s6,16(sp)
    671c:	89b6                	mv	s3,a3
    671e:	2d94                	lbu	a3,24(a1)
    6720:	06900793          	li	a5,105
    6724:	8932                	mv	s2,a2
    6726:	84aa                	mv	s1,a0
    6728:	842e                	mv	s0,a1
    672a:	04358613          	addi	a2,a1,67
    672e:	02f68d63          	beq	a3,a5,6768 <_printf_i+0x5e>
    6732:	06d7e263          	bltu	a5,a3,6796 <_printf_i+0x8c>
    6736:	05800793          	li	a5,88
    673a:	18f68763          	beq	a3,a5,68c8 <_printf_i+0x1be>
    673e:	00d7ed63          	bltu	a5,a3,6758 <_printf_i+0x4e>
    6742:	20068f63          	beqz	a3,6960 <_printf_i+0x256>
    6746:	04300793          	li	a5,67
    674a:	0af68f63          	beq	a3,a5,6808 <_printf_i+0xfe>
    674e:	04240a93          	addi	s5,s0,66
    6752:	04d40123          	sb	a3,66(s0)
    6756:	a0d1                	j	681a <_printf_i+0x110>
    6758:	06300793          	li	a5,99
    675c:	0af68663          	beq	a3,a5,6808 <_printf_i+0xfe>
    6760:	06400793          	li	a5,100
    6764:	fef695e3          	bne	a3,a5,674e <_printf_i+0x44>
    6768:	401c                	lw	a5,0(s0)
    676a:	4308                	lw	a0,0(a4)
    676c:	0807f693          	andi	a3,a5,128
    6770:	00450593          	addi	a1,a0,4
    6774:	c6cd                	beqz	a3,681e <_printf_i+0x114>
    6776:	411c                	lw	a5,0(a0)
    6778:	c30c                	sw	a1,0(a4)
    677a:	0007d863          	bgez	a5,678a <_printf_i+0x80>
    677e:	02d00713          	li	a4,45
    6782:	40f007b3          	neg	a5,a5
    6786:	04e401a3          	sb	a4,67(s0)
    678a:	00006697          	auipc	a3,0x6
    678e:	88a68693          	addi	a3,a3,-1910 # c014 <__clz_tab+0x11c>
    6792:	4729                	li	a4,10
    6794:	a86d                	j	684e <_printf_i+0x144>
    6796:	07000793          	li	a5,112
    679a:	16f68363          	beq	a3,a5,6900 <_printf_i+0x1f6>
    679e:	02d7e563          	bltu	a5,a3,67c8 <_printf_i+0xbe>
    67a2:	06e00793          	li	a5,110
    67a6:	18f68a63          	beq	a3,a5,693a <_printf_i+0x230>
    67aa:	06f00793          	li	a5,111
    67ae:	faf690e3          	bne	a3,a5,674e <_printf_i+0x44>
    67b2:	400c                	lw	a1,0(s0)
    67b4:	431c                	lw	a5,0(a4)
    67b6:	0805f813          	andi	a6,a1,128
    67ba:	00478513          	addi	a0,a5,4
    67be:	06080863          	beqz	a6,682e <_printf_i+0x124>
    67c2:	c308                	sw	a0,0(a4)
    67c4:	439c                	lw	a5,0(a5)
    67c6:	a88d                	j	6838 <_printf_i+0x12e>
    67c8:	07500793          	li	a5,117
    67cc:	fef683e3          	beq	a3,a5,67b2 <_printf_i+0xa8>
    67d0:	07800793          	li	a5,120
    67d4:	12f68a63          	beq	a3,a5,6908 <_printf_i+0x1fe>
    67d8:	07300793          	li	a5,115
    67dc:	f6f699e3          	bne	a3,a5,674e <_printf_i+0x44>
    67e0:	431c                	lw	a5,0(a4)
    67e2:	41d0                	lw	a2,4(a1)
    67e4:	4581                	li	a1,0
    67e6:	00478693          	addi	a3,a5,4
    67ea:	c314                	sw	a3,0(a4)
    67ec:	0007aa83          	lw	s5,0(a5)
    67f0:	8556                	mv	a0,s5
    67f2:	417020ef          	jal	ra,9408 <memchr>
    67f6:	c501                	beqz	a0,67fe <_printf_i+0xf4>
    67f8:	41550533          	sub	a0,a0,s5
    67fc:	c048                	sw	a0,4(s0)
    67fe:	405c                	lw	a5,4(s0)
    6800:	c81c                	sw	a5,16(s0)
    6802:	040401a3          	sb	zero,67(s0)
    6806:	a861                	j	689e <_printf_i+0x194>
    6808:	431c                	lw	a5,0(a4)
    680a:	04240a93          	addi	s5,s0,66
    680e:	00478693          	addi	a3,a5,4
    6812:	439c                	lw	a5,0(a5)
    6814:	c314                	sw	a3,0(a4)
    6816:	04f40123          	sb	a5,66(s0)
    681a:	4785                	li	a5,1
    681c:	b7d5                	j	6800 <_printf_i+0xf6>
    681e:	0407f693          	andi	a3,a5,64
    6822:	411c                	lw	a5,0(a0)
    6824:	c30c                	sw	a1,0(a4)
    6826:	dab1                	beqz	a3,677a <_printf_i+0x70>
    6828:	07c2                	slli	a5,a5,0x10
    682a:	87c1                	srai	a5,a5,0x10
    682c:	b7b9                	j	677a <_printf_i+0x70>
    682e:	0405f593          	andi	a1,a1,64
    6832:	c308                	sw	a0,0(a4)
    6834:	d9c1                	beqz	a1,67c4 <_printf_i+0xba>
    6836:	239e                	lhu	a5,0(a5)
    6838:	06f00713          	li	a4,111
    683c:	0ee68763          	beq	a3,a4,692a <_printf_i+0x220>
    6840:	00005697          	auipc	a3,0x5
    6844:	7d468693          	addi	a3,a3,2004 # c014 <__clz_tab+0x11c>
    6848:	4729                	li	a4,10
    684a:	040401a3          	sb	zero,67(s0)
    684e:	404c                	lw	a1,4(s0)
    6850:	c40c                	sw	a1,8(s0)
    6852:	0005c563          	bltz	a1,685c <_printf_i+0x152>
    6856:	4008                	lw	a0,0(s0)
    6858:	996d                	andi	a0,a0,-5
    685a:	c008                	sw	a0,0(s0)
    685c:	e399                	bnez	a5,6862 <_printf_i+0x158>
    685e:	8ab2                	mv	s5,a2
    6860:	cd89                	beqz	a1,687a <_printf_i+0x170>
    6862:	8ab2                	mv	s5,a2
    6864:	02e7f5b3          	remu	a1,a5,a4
    6868:	1afd                	addi	s5,s5,-1
    686a:	95b6                	add	a1,a1,a3
    686c:	218c                	lbu	a1,0(a1)
    686e:	00ba8023          	sb	a1,0(s5)
    6872:	02e7d5b3          	divu	a1,a5,a4
    6876:	0ce7f063          	bgeu	a5,a4,6936 <_printf_i+0x22c>
    687a:	47a1                	li	a5,8
    687c:	00f71e63          	bne	a4,a5,6898 <_printf_i+0x18e>
    6880:	401c                	lw	a5,0(s0)
    6882:	8b85                	andi	a5,a5,1
    6884:	cb91                	beqz	a5,6898 <_printf_i+0x18e>
    6886:	4058                	lw	a4,4(s0)
    6888:	481c                	lw	a5,16(s0)
    688a:	00e7c763          	blt	a5,a4,6898 <_printf_i+0x18e>
    688e:	03000793          	li	a5,48
    6892:	fefa8fa3          	sb	a5,-1(s5)
    6896:	1afd                	addi	s5,s5,-1
    6898:	41560633          	sub	a2,a2,s5
    689c:	c810                	sw	a2,16(s0)
    689e:	874e                	mv	a4,s3
    68a0:	86ca                	mv	a3,s2
    68a2:	0070                	addi	a2,sp,12
    68a4:	85a2                	mv	a1,s0
    68a6:	8526                	mv	a0,s1
    68a8:	d57ff0ef          	jal	ra,65fe <_printf_common>
    68ac:	5a7d                	li	s4,-1
    68ae:	0b451d63          	bne	a0,s4,6968 <_printf_i+0x25e>
    68b2:	557d                	li	a0,-1
    68b4:	50b2                	lw	ra,44(sp)
    68b6:	5422                	lw	s0,40(sp)
    68b8:	5492                	lw	s1,36(sp)
    68ba:	5902                	lw	s2,32(sp)
    68bc:	49f2                	lw	s3,28(sp)
    68be:	4a62                	lw	s4,24(sp)
    68c0:	4ad2                	lw	s5,20(sp)
    68c2:	4b42                	lw	s6,16(sp)
    68c4:	6145                	addi	sp,sp,48
    68c6:	8082                	ret
    68c8:	04d582a3          	sb	a3,69(a1)
    68cc:	00005697          	auipc	a3,0x5
    68d0:	74868693          	addi	a3,a3,1864 # c014 <__clz_tab+0x11c>
    68d4:	400c                	lw	a1,0(s0)
    68d6:	4308                	lw	a0,0(a4)
    68d8:	0805f813          	andi	a6,a1,128
    68dc:	411c                	lw	a5,0(a0)
    68de:	0511                	addi	a0,a0,4
    68e0:	02080d63          	beqz	a6,691a <_printf_i+0x210>
    68e4:	c308                	sw	a0,0(a4)
    68e6:	0015f713          	andi	a4,a1,1
    68ea:	c701                	beqz	a4,68f2 <_printf_i+0x1e8>
    68ec:	0205e593          	ori	a1,a1,32
    68f0:	c00c                	sw	a1,0(s0)
    68f2:	4741                	li	a4,16
    68f4:	fbb9                	bnez	a5,684a <_printf_i+0x140>
    68f6:	400c                	lw	a1,0(s0)
    68f8:	fdf5f593          	andi	a1,a1,-33
    68fc:	c00c                	sw	a1,0(s0)
    68fe:	b7b1                	j	684a <_printf_i+0x140>
    6900:	419c                	lw	a5,0(a1)
    6902:	0207e793          	ori	a5,a5,32
    6906:	c19c                	sw	a5,0(a1)
    6908:	07800793          	li	a5,120
    690c:	04f402a3          	sb	a5,69(s0)
    6910:	00005697          	auipc	a3,0x5
    6914:	71868693          	addi	a3,a3,1816 # c028 <__clz_tab+0x130>
    6918:	bf75                	j	68d4 <_printf_i+0x1ca>
    691a:	0405f813          	andi	a6,a1,64
    691e:	c308                	sw	a0,0(a4)
    6920:	fc0803e3          	beqz	a6,68e6 <_printf_i+0x1dc>
    6924:	07c2                	slli	a5,a5,0x10
    6926:	83c1                	srli	a5,a5,0x10
    6928:	bf7d                	j	68e6 <_printf_i+0x1dc>
    692a:	00005697          	auipc	a3,0x5
    692e:	6ea68693          	addi	a3,a3,1770 # c014 <__clz_tab+0x11c>
    6932:	4721                	li	a4,8
    6934:	bf19                	j	684a <_printf_i+0x140>
    6936:	87ae                	mv	a5,a1
    6938:	b735                	j	6864 <_printf_i+0x15a>
    693a:	4194                	lw	a3,0(a1)
    693c:	431c                	lw	a5,0(a4)
    693e:	49cc                	lw	a1,20(a1)
    6940:	0806f813          	andi	a6,a3,128
    6944:	00478513          	addi	a0,a5,4
    6948:	00080663          	beqz	a6,6954 <_printf_i+0x24a>
    694c:	c308                	sw	a0,0(a4)
    694e:	439c                	lw	a5,0(a5)
    6950:	c38c                	sw	a1,0(a5)
    6952:	a039                	j	6960 <_printf_i+0x256>
    6954:	c308                	sw	a0,0(a4)
    6956:	0406f693          	andi	a3,a3,64
    695a:	439c                	lw	a5,0(a5)
    695c:	daf5                	beqz	a3,6950 <_printf_i+0x246>
    695e:	a38e                	sh	a1,0(a5)
    6960:	00042823          	sw	zero,16(s0)
    6964:	8ab2                	mv	s5,a2
    6966:	bf25                	j	689e <_printf_i+0x194>
    6968:	4814                	lw	a3,16(s0)
    696a:	8656                	mv	a2,s5
    696c:	85ca                	mv	a1,s2
    696e:	8526                	mv	a0,s1
    6970:	9982                	jalr	s3
    6972:	f54500e3          	beq	a0,s4,68b2 <_printf_i+0x1a8>
    6976:	401c                	lw	a5,0(s0)
    6978:	8b89                	andi	a5,a5,2
    697a:	e78d                	bnez	a5,69a4 <_printf_i+0x29a>
    697c:	47b2                	lw	a5,12(sp)
    697e:	4448                	lw	a0,12(s0)
    6980:	f2f55ae3          	bge	a0,a5,68b4 <_printf_i+0x1aa>
    6984:	853e                	mv	a0,a5
    6986:	b73d                	j	68b4 <_printf_i+0x1aa>
    6988:	4685                	li	a3,1
    698a:	8656                	mv	a2,s5
    698c:	85ca                	mv	a1,s2
    698e:	8526                	mv	a0,s1
    6990:	9982                	jalr	s3
    6992:	f36500e3          	beq	a0,s6,68b2 <_printf_i+0x1a8>
    6996:	0a05                	addi	s4,s4,1
    6998:	445c                	lw	a5,12(s0)
    699a:	4732                	lw	a4,12(sp)
    699c:	8f99                	sub	a5,a5,a4
    699e:	fefa45e3          	blt	s4,a5,6988 <_printf_i+0x27e>
    69a2:	bfe9                	j	697c <_printf_i+0x272>
    69a4:	4a01                	li	s4,0
    69a6:	01940a93          	addi	s5,s0,25
    69aa:	5b7d                	li	s6,-1
    69ac:	b7f5                	j	6998 <_printf_i+0x28e>

000069ae <_scanf_float>:
    69ae:	459c                	lw	a5,8(a1)
    69b0:	711d                	addi	sp,sp,-96
    69b2:	cca2                	sw	s0,88(sp)
    69b4:	c6ce                	sw	s3,76(sp)
    69b6:	c0da                	sw	s6,64(sp)
    69b8:	da66                	sw	s9,52(sp)
    69ba:	ce86                	sw	ra,92(sp)
    69bc:	8cb2                	mv	s9,a2
    69be:	caa6                	sw	s1,84(sp)
    69c0:	c8ca                	sw	s2,80(sp)
    69c2:	c4d2                	sw	s4,72(sp)
    69c4:	c2d6                	sw	s5,68(sp)
    69c6:	de5e                	sw	s7,60(sp)
    69c8:	dc62                	sw	s8,56(sp)
    69ca:	d86a                	sw	s10,48(sp)
    69cc:	d66e                	sw	s11,44(sp)
    69ce:	fff78613          	addi	a2,a5,-1
    69d2:	15c00713          	li	a4,348
    69d6:	8b36                	mv	s6,a3
    69d8:	89aa                	mv	s3,a0
    69da:	842e                	mv	s0,a1
    69dc:	4681                	li	a3,0
    69de:	00c77763          	bgeu	a4,a2,69ec <_scanf_float+0x3e>
    69e2:	ea378693          	addi	a3,a5,-349
    69e6:	15d00793          	li	a5,349
    69ea:	c59c                	sw	a5,8(a1)
    69ec:	401c                	lw	a5,0(s0)
    69ee:	01c40a93          	addi	s5,s0,28
    69f2:	84d6                	mv	s1,s5
    69f4:	7807e793          	ori	a5,a5,1920
    69f8:	c01c                	sw	a5,0(s0)
    69fa:	4901                	li	s2,0
    69fc:	4d81                	li	s11,0
    69fe:	4c01                	li	s8,0
    6a00:	4a01                	li	s4,0
    6a02:	4d01                	li	s10,0
    6a04:	4b81                	li	s7,0
    6a06:	04900613          	li	a2,73
    6a0a:	70000813          	li	a6,1792
    6a0e:	4885                	li	a7,1
    6a10:	40000e93          	li	t4,1024
    6a14:	4309                	li	t1,2
    6a16:	06500e13          	li	t3,101
    6a1a:	4f1d                	li	t5,7
    6a1c:	4418                	lw	a4,8(s0)
    6a1e:	cb15                	beqz	a4,6a52 <_scanf_float+0xa4>
    6a20:	000ca783          	lw	a5,0(s9)
    6a24:	239c                	lbu	a5,0(a5)
    6a26:	12c78b63          	beq	a5,a2,6b5c <_scanf_float+0x1ae>
    6a2a:	0cf66863          	bltu	a2,a5,6afa <_scanf_float+0x14c>
    6a2e:	03900593          	li	a1,57
    6a32:	0af5e463          	bltu	a1,a5,6ada <_scanf_float+0x12c>
    6a36:	03100593          	li	a1,49
    6a3a:	14b7fb63          	bgeu	a5,a1,6b90 <_scanf_float+0x1e2>
    6a3e:	02d00593          	li	a1,45
    6a42:	16b78263          	beq	a5,a1,6ba6 <_scanf_float+0x1f8>
    6a46:	04f5e363          	bltu	a1,a5,6a8c <_scanf_float+0xde>
    6a4a:	02b00713          	li	a4,43
    6a4e:	14e78c63          	beq	a5,a4,6ba6 <_scanf_float+0x1f8>
    6a52:	000d0663          	beqz	s10,6a5e <_scanf_float+0xb0>
    6a56:	401c                	lw	a5,0(s0)
    6a58:	eff7f793          	andi	a5,a5,-257
    6a5c:	c01c                	sw	a5,0(s0)
    6a5e:	1dfd                	addi	s11,s11,-1
    6a60:	4785                	li	a5,1
    6a62:	21b7e963          	bltu	a5,s11,6c74 <_scanf_float+0x2c6>
    6a66:	1e9aec63          	bltu	s5,s1,6c5e <_scanf_float+0x2b0>
    6a6a:	4905                	li	s2,1
    6a6c:	40f6                	lw	ra,92(sp)
    6a6e:	4466                	lw	s0,88(sp)
    6a70:	854a                	mv	a0,s2
    6a72:	44d6                	lw	s1,84(sp)
    6a74:	4946                	lw	s2,80(sp)
    6a76:	49b6                	lw	s3,76(sp)
    6a78:	4a26                	lw	s4,72(sp)
    6a7a:	4a96                	lw	s5,68(sp)
    6a7c:	4b06                	lw	s6,64(sp)
    6a7e:	5bf2                	lw	s7,60(sp)
    6a80:	5c62                	lw	s8,56(sp)
    6a82:	5cd2                	lw	s9,52(sp)
    6a84:	5d42                	lw	s10,48(sp)
    6a86:	5db2                	lw	s11,44(sp)
    6a88:	6125                	addi	sp,sp,96
    6a8a:	8082                	ret
    6a8c:	02e00593          	li	a1,46
    6a90:	14b78e63          	beq	a5,a1,6bec <_scanf_float+0x23e>
    6a94:	03000593          	li	a1,48
    6a98:	fab79de3          	bne	a5,a1,6a52 <_scanf_float+0xa4>
    6a9c:	400c                	lw	a1,0(s0)
    6a9e:	1005f513          	andi	a0,a1,256
    6aa2:	c57d                	beqz	a0,6b90 <_scanf_float+0x1e2>
    6aa4:	f7f5f593          	andi	a1,a1,-129
    6aa8:	c00c                	sw	a1,0(s0)
    6aaa:	0d05                	addi	s10,s10,1
    6aac:	c681                	beqz	a3,6ab4 <_scanf_float+0x106>
    6aae:	0705                	addi	a4,a4,1
    6ab0:	16fd                	addi	a3,a3,-1
    6ab2:	c418                	sw	a4,8(s0)
    6ab4:	441c                	lw	a5,8(s0)
    6ab6:	17fd                	addi	a5,a5,-1
    6ab8:	c41c                	sw	a5,8(s0)
    6aba:	481c                	lw	a5,16(s0)
    6abc:	0785                	addi	a5,a5,1
    6abe:	c81c                	sw	a5,16(s0)
    6ac0:	004ca783          	lw	a5,4(s9)
    6ac4:	17fd                	addi	a5,a5,-1
    6ac6:	00fca223          	sw	a5,4(s9)
    6aca:	16f05563          	blez	a5,6c34 <_scanf_float+0x286>
    6ace:	000ca783          	lw	a5,0(s9)
    6ad2:	0785                	addi	a5,a5,1
    6ad4:	00fca023          	sw	a5,0(s9)
    6ad8:	b791                	j	6a1c <_scanf_float+0x6e>
    6ada:	04500713          	li	a4,69
    6ade:	12e78163          	beq	a5,a4,6c00 <_scanf_float+0x252>
    6ae2:	04600713          	li	a4,70
    6ae6:	0ee78a63          	beq	a5,a4,6bda <_scanf_float+0x22c>
    6aea:	04100713          	li	a4,65
    6aee:	f6e792e3          	bne	a5,a4,6a52 <_scanf_float+0xa4>
    6af2:	f71d90e3          	bne	s11,a7,6a52 <_scanf_float+0xa4>
    6af6:	4d89                	li	s11,2
    6af8:	a065                	j	6ba0 <_scanf_float+0x1f2>
    6afa:	11c78363          	beq	a5,t3,6c00 <_scanf_float+0x252>
    6afe:	04fe6163          	bltu	t3,a5,6b40 <_scanf_float+0x192>
    6b02:	05400713          	li	a4,84
    6b06:	0ce78e63          	beq	a5,a4,6be2 <_scanf_float+0x234>
    6b0a:	02f76463          	bltu	a4,a5,6b32 <_scanf_float+0x184>
    6b0e:	04e00713          	li	a4,78
    6b12:	f4e790e3          	bne	a5,a4,6a52 <_scanf_float+0xa4>
    6b16:	0a0d9063          	bnez	s11,6bb6 <_scanf_float+0x208>
    6b1a:	0a0d1063          	bnez	s10,6bba <_scanf_float+0x20c>
    6b1e:	4018                	lw	a4,0(s0)
    6b20:	70077593          	andi	a1,a4,1792
    6b24:	09059b63          	bne	a1,a6,6bba <_scanf_float+0x20c>
    6b28:	87f77713          	andi	a4,a4,-1921
    6b2c:	c018                	sw	a4,0(s0)
    6b2e:	4d85                	li	s11,1
    6b30:	a885                	j	6ba0 <_scanf_float+0x1f2>
    6b32:	05900713          	li	a4,89
    6b36:	04e78963          	beq	a5,a4,6b88 <_scanf_float+0x1da>
    6b3a:	06100713          	li	a4,97
    6b3e:	bf45                	j	6aee <_scanf_float+0x140>
    6b40:	06e00713          	li	a4,110
    6b44:	fce789e3          	beq	a5,a4,6b16 <_scanf_float+0x168>
    6b48:	02f76863          	bltu	a4,a5,6b78 <_scanf_float+0x1ca>
    6b4c:	06600713          	li	a4,102
    6b50:	08e78563          	beq	a5,a4,6bda <_scanf_float+0x22c>
    6b54:	06900713          	li	a4,105
    6b58:	eee79de3          	bne	a5,a4,6a52 <_scanf_float+0xa4>
    6b5c:	06091863          	bnez	s2,6bcc <_scanf_float+0x21e>
    6b60:	ee0d1be3          	bnez	s10,6a56 <_scanf_float+0xa8>
    6b64:	4018                	lw	a4,0(s0)
    6b66:	70077593          	andi	a1,a4,1792
    6b6a:	ef059ae3          	bne	a1,a6,6a5e <_scanf_float+0xb0>
    6b6e:	87f77713          	andi	a4,a4,-1921
    6b72:	c018                	sw	a4,0(s0)
    6b74:	4905                	li	s2,1
    6b76:	a02d                	j	6ba0 <_scanf_float+0x1f2>
    6b78:	07400713          	li	a4,116
    6b7c:	06e78363          	beq	a5,a4,6be2 <_scanf_float+0x234>
    6b80:	07900713          	li	a4,121
    6b84:	ece797e3          	bne	a5,a4,6a52 <_scanf_float+0xa4>
    6b88:	ede915e3          	bne	s2,t5,6a52 <_scanf_float+0xa4>
    6b8c:	4921                	li	s2,8
    6b8e:	a809                	j	6ba0 <_scanf_float+0x1f2>
    6b90:	012d8733          	add	a4,s11,s2
    6b94:	ea071fe3          	bnez	a4,6a52 <_scanf_float+0xa4>
    6b98:	4018                	lw	a4,0(s0)
    6b9a:	e7f77713          	andi	a4,a4,-385
    6b9e:	c018                	sw	a4,0(s0)
    6ba0:	a09c                	sb	a5,0(s1)
    6ba2:	0485                	addi	s1,s1,1
    6ba4:	bf01                	j	6ab4 <_scanf_float+0x106>
    6ba6:	4018                	lw	a4,0(s0)
    6ba8:	08077593          	andi	a1,a4,128
    6bac:	ea0583e3          	beqz	a1,6a52 <_scanf_float+0xa4>
    6bb0:	f7f77713          	andi	a4,a4,-129
    6bb4:	b7ed                	j	6b9e <_scanf_float+0x1f0>
    6bb6:	066d8d63          	beq	s11,t1,6c30 <_scanf_float+0x282>
    6bba:	01190563          	beq	s2,a7,6bc4 <_scanf_float+0x216>
    6bbe:	4711                	li	a4,4
    6bc0:	e8e919e3          	bne	s2,a4,6a52 <_scanf_float+0xa4>
    6bc4:	0905                	addi	s2,s2,1
    6bc6:	0ff97913          	andi	s2,s2,255
    6bca:	bfd9                	j	6ba0 <_scanf_float+0x1f2>
    6bcc:	ffd90713          	addi	a4,s2,-3
    6bd0:	0fd77713          	andi	a4,a4,253
    6bd4:	e6071fe3          	bnez	a4,6a52 <_scanf_float+0xa4>
    6bd8:	b7f5                	j	6bc4 <_scanf_float+0x216>
    6bda:	e6691ce3          	bne	s2,t1,6a52 <_scanf_float+0xa4>
    6bde:	490d                	li	s2,3
    6be0:	b7c1                	j	6ba0 <_scanf_float+0x1f2>
    6be2:	4719                	li	a4,6
    6be4:	e6e917e3          	bne	s2,a4,6a52 <_scanf_float+0xa4>
    6be8:	491d                	li	s2,7
    6bea:	bf5d                	j	6ba0 <_scanf_float+0x1f2>
    6bec:	4018                	lw	a4,0(s0)
    6bee:	20077593          	andi	a1,a4,512
    6bf2:	e60580e3          	beqz	a1,6a52 <_scanf_float+0xa4>
    6bf6:	d7f77713          	andi	a4,a4,-641
    6bfa:	c018                	sw	a4,0(s0)
    6bfc:	8bea                	mv	s7,s10
    6bfe:	b74d                	j	6ba0 <_scanf_float+0x1f2>
    6c00:	4018                	lw	a4,0(s0)
    6c02:	50077593          	andi	a1,a4,1280
    6c06:	01d58863          	beq	a1,t4,6c16 <_scanf_float+0x268>
    6c0a:	40077593          	andi	a1,a4,1024
    6c0e:	e40582e3          	beqz	a1,6a52 <_scanf_float+0xa4>
    6c12:	e40d06e3          	beqz	s10,6a5e <_scanf_float+0xb0>
    6c16:	20077593          	andi	a1,a4,512
    6c1a:	e581                	bnez	a1,6c22 <_scanf_float+0x274>
    6c1c:	417d0a33          	sub	s4,s10,s7
    6c20:	8c26                	mv	s8,s1
    6c22:	87f77713          	andi	a4,a4,-1921
    6c26:	18076713          	ori	a4,a4,384
    6c2a:	c018                	sw	a4,0(s0)
    6c2c:	4d01                	li	s10,0
    6c2e:	bf8d                	j	6ba0 <_scanf_float+0x1f2>
    6c30:	4d8d                	li	s11,3
    6c32:	b7bd                	j	6ba0 <_scanf_float+0x1f2>
    6c34:	18042783          	lw	a5,384(s0)
    6c38:	85e6                	mv	a1,s9
    6c3a:	854e                	mv	a0,s3
    6c3c:	c636                	sw	a3,12(sp)
    6c3e:	9782                	jalr	a5
    6c40:	46b2                	lw	a3,12(sp)
    6c42:	04900613          	li	a2,73
    6c46:	70000813          	li	a6,1792
    6c4a:	4885                	li	a7,1
    6c4c:	40000e93          	li	t4,1024
    6c50:	4309                	li	t1,2
    6c52:	06500e13          	li	t3,101
    6c56:	4f1d                	li	t5,7
    6c58:	dc0502e3          	beqz	a0,6a1c <_scanf_float+0x6e>
    6c5c:	bbdd                	j	6a52 <_scanf_float+0xa4>
    6c5e:	14fd                	addi	s1,s1,-1
    6c60:	17c42783          	lw	a5,380(s0)
    6c64:	208c                	lbu	a1,0(s1)
    6c66:	8666                	mv	a2,s9
    6c68:	854e                	mv	a0,s3
    6c6a:	9782                	jalr	a5
    6c6c:	481c                	lw	a5,16(s0)
    6c6e:	17fd                	addi	a5,a5,-1
    6c70:	c81c                	sw	a5,16(s0)
    6c72:	bbd5                	j	6a66 <_scanf_float+0xb8>
    6c74:	fff90793          	addi	a5,s2,-1
    6c78:	4719                	li	a4,6
    6c7a:	02f76663          	bltu	a4,a5,6ca6 <_scanf_float+0x2f8>
    6c7e:	4789                	li	a5,2
    6c80:	8da6                	mv	s11,s1
    6c82:	0727ff63          	bgeu	a5,s2,6d00 <_scanf_float+0x352>
    6c86:	40990733          	sub	a4,s2,s1
    6c8a:	0ff77713          	andi	a4,a4,255
    6c8e:	468d                	li	a3,3
    6c90:	00ed87b3          	add	a5,s11,a4
    6c94:	0ff7f793          	andi	a5,a5,255
    6c98:	02f6eb63          	bltu	a3,a5,6cce <_scanf_float+0x320>
    6c9c:	1975                	addi	s2,s2,-3
    6c9e:	0ff97913          	andi	s2,s2,255
    6ca2:	412484b3          	sub	s1,s1,s2
    6ca6:	401c                	lw	a5,0(s0)
    6ca8:	1007f713          	andi	a4,a5,256
    6cac:	cf51                	beqz	a4,6d48 <_scanf_float+0x39a>
    6cae:	4007f793          	andi	a5,a5,1024
    6cb2:	cbb1                	beqz	a5,6d06 <_scanf_float+0x358>
    6cb4:	da9afbe3          	bgeu	s5,s1,6a6a <_scanf_float+0xbc>
    6cb8:	14fd                	addi	s1,s1,-1
    6cba:	17c42783          	lw	a5,380(s0)
    6cbe:	208c                	lbu	a1,0(s1)
    6cc0:	8666                	mv	a2,s9
    6cc2:	854e                	mv	a0,s3
    6cc4:	9782                	jalr	a5
    6cc6:	481c                	lw	a5,16(s0)
    6cc8:	17fd                	addi	a5,a5,-1
    6cca:	c81c                	sw	a5,16(s0)
    6ccc:	b7e5                	j	6cb4 <_scanf_float+0x306>
    6cce:	1dfd                	addi	s11,s11,-1
    6cd0:	17c42783          	lw	a5,380(s0)
    6cd4:	000dc583          	lbu	a1,0(s11)
    6cd8:	8666                	mv	a2,s9
    6cda:	854e                	mv	a0,s3
    6cdc:	c63a                	sw	a4,12(sp)
    6cde:	9782                	jalr	a5
    6ce0:	481c                	lw	a5,16(s0)
    6ce2:	468d                	li	a3,3
    6ce4:	4732                	lw	a4,12(sp)
    6ce6:	17fd                	addi	a5,a5,-1
    6ce8:	c81c                	sw	a5,16(s0)
    6cea:	b75d                	j	6c90 <_scanf_float+0x2e2>
    6cec:	14fd                	addi	s1,s1,-1
    6cee:	17c42783          	lw	a5,380(s0)
    6cf2:	208c                	lbu	a1,0(s1)
    6cf4:	8666                	mv	a2,s9
    6cf6:	854e                	mv	a0,s3
    6cf8:	9782                	jalr	a5
    6cfa:	481c                	lw	a5,16(s0)
    6cfc:	17fd                	addi	a5,a5,-1
    6cfe:	c81c                	sw	a5,16(s0)
    6d00:	fe9ae6e3          	bltu	s5,s1,6cec <_scanf_float+0x33e>
    6d04:	b39d                	j	6a6a <_scanf_float+0xbc>
    6d06:	481c                	lw	a5,16(s0)
    6d08:	fff4c583          	lbu	a1,-1(s1)
    6d0c:	fff48913          	addi	s2,s1,-1
    6d10:	17fd                	addi	a5,a5,-1
    6d12:	c81c                	sw	a5,16(s0)
    6d14:	06500793          	li	a5,101
    6d18:	02f58263          	beq	a1,a5,6d3c <_scanf_float+0x38e>
    6d1c:	04500793          	li	a5,69
    6d20:	00f58e63          	beq	a1,a5,6d3c <_scanf_float+0x38e>
    6d24:	17c42783          	lw	a5,380(s0)
    6d28:	8666                	mv	a2,s9
    6d2a:	854e                	mv	a0,s3
    6d2c:	9782                	jalr	a5
    6d2e:	481c                	lw	a5,16(s0)
    6d30:	ffe4c583          	lbu	a1,-2(s1)
    6d34:	ffe48913          	addi	s2,s1,-2
    6d38:	17fd                	addi	a5,a5,-1
    6d3a:	c81c                	sw	a5,16(s0)
    6d3c:	17c42783          	lw	a5,380(s0)
    6d40:	8666                	mv	a2,s9
    6d42:	854e                	mv	a0,s3
    6d44:	9782                	jalr	a5
    6d46:	84ca                	mv	s1,s2
    6d48:	00042903          	lw	s2,0(s0)
    6d4c:	01097913          	andi	s2,s2,16
    6d50:	0c091363          	bnez	s2,6e16 <_scanf_float+0x468>
    6d54:	00048023          	sb	zero,0(s1)
    6d58:	401c                	lw	a5,0(s0)
    6d5a:	40000713          	li	a4,1024
    6d5e:	6007f793          	andi	a5,a5,1536
    6d62:	02e79e63          	bne	a5,a4,6d9e <_scanf_float+0x3f0>
    6d66:	41ab8633          	sub	a2,s7,s10
    6d6a:	05ab9663          	bne	s7,s10,6db6 <_scanf_float+0x408>
    6d6e:	85d6                	mv	a1,s5
    6d70:	4601                	li	a2,0
    6d72:	854e                	mv	a0,s3
    6d74:	617000ef          	jal	ra,7b8a <_strtod_r>
    6d78:	4018                	lw	a4,0(s0)
    6d7a:	8a2a                	mv	s4,a0
    6d7c:	8aae                	mv	s5,a1
    6d7e:	00277693          	andi	a3,a4,2
    6d82:	000b2783          	lw	a5,0(s6)
    6d86:	c6a9                	beqz	a3,6dd0 <_scanf_float+0x422>
    6d88:	00478713          	addi	a4,a5,4
    6d8c:	00eb2023          	sw	a4,0(s6)
    6d90:	439c                	lw	a5,0(a5)
    6d92:	c388                	sw	a0,0(a5)
    6d94:	c3cc                	sw	a1,4(a5)
    6d96:	445c                	lw	a5,12(s0)
    6d98:	0785                	addi	a5,a5,1
    6d9a:	c45c                	sw	a5,12(s0)
    6d9c:	b9c1                	j	6a6c <_scanf_float+0xbe>
    6d9e:	fc0a08e3          	beqz	s4,6d6e <_scanf_float+0x3c0>
    6da2:	4601                	li	a2,0
    6da4:	46a9                	li	a3,10
    6da6:	001c0593          	addi	a1,s8,1
    6daa:	854e                	mv	a0,s3
    6dac:	72f000ef          	jal	ra,7cda <_strtol_r>
    6db0:	41450633          	sub	a2,a0,s4
    6db4:	84e2                	mv	s1,s8
    6db6:	16f40793          	addi	a5,s0,367
    6dba:	00f4e463          	bltu	s1,a5,6dc2 <_scanf_float+0x414>
    6dbe:	16e40493          	addi	s1,s0,366
    6dc2:	00005597          	auipc	a1,0x5
    6dc6:	27a58593          	addi	a1,a1,634 # c03c <__clz_tab+0x144>
    6dca:	8526                	mv	a0,s1
    6dcc:	2871                	jal	6e68 <siprintf>
    6dce:	b745                	j	6d6e <_scanf_float+0x3c0>
    6dd0:	00478693          	addi	a3,a5,4
    6dd4:	00db2023          	sw	a3,0(s6)
    6dd8:	8b11                	andi	a4,a4,4
    6dda:	4384                	lw	s1,0(a5)
    6ddc:	cf19                	beqz	a4,6dfa <_scanf_float+0x44c>
    6dde:	85aa                	mv	a1,a0
    6de0:	8656                	mv	a2,s5
    6de2:	0808                	addi	a0,sp,16
    6de4:	7c2040ef          	jal	ra,b5a6 <__extenddftf2>
    6de8:	46d2                	lw	a3,20(sp)
    6dea:	4762                	lw	a4,24(sp)
    6dec:	47f2                	lw	a5,28(sp)
    6dee:	4642                	lw	a2,16(sp)
    6df0:	c0d4                	sw	a3,4(s1)
    6df2:	c498                	sw	a4,8(s1)
    6df4:	c090                	sw	a2,0(s1)
    6df6:	c4dc                	sw	a5,12(s1)
    6df8:	bf79                	j	6d96 <_scanf_float+0x3e8>
    6dfa:	862a                	mv	a2,a0
    6dfc:	86ae                	mv	a3,a1
    6dfe:	640040ef          	jal	ra,b43e <__unorddf2>
    6e02:	c509                	beqz	a0,6e0c <_scanf_float+0x45e>
    6e04:	4501                	li	a0,0
    6e06:	2899                	jal	6e5c <nanf>
    6e08:	c088                	sw	a0,0(s1)
    6e0a:	b771                	j	6d96 <_scanf_float+0x3e8>
    6e0c:	8552                	mv	a0,s4
    6e0e:	85d6                	mv	a1,s5
    6e10:	f33fe0ef          	jal	ra,5d42 <__truncdfsf2>
    6e14:	bfd5                	j	6e08 <_scanf_float+0x45a>
    6e16:	4901                	li	s2,0
    6e18:	b991                	j	6a6c <_scanf_float+0xbe>

00006e1a <iprintf>:
    6e1a:	7139                	addi	sp,sp,-64
    6e1c:	da3e                	sw	a5,52(sp)
    6e1e:	d22e                	sw	a1,36(sp)
    6e20:	d432                	sw	a2,40(sp)
    6e22:	d636                	sw	a3,44(sp)
    6e24:	d83a                	sw	a4,48(sp)
    6e26:	dc42                	sw	a6,56(sp)
    6e28:	de46                	sw	a7,60(sp)
    6e2a:	81018793          	addi	a5,gp,-2032 # 20000200 <_impure_ptr>
    6e2e:	cc22                	sw	s0,24(sp)
    6e30:	4380                	lw	s0,0(a5)
    6e32:	ca26                	sw	s1,20(sp)
    6e34:	ce06                	sw	ra,28(sp)
    6e36:	84aa                	mv	s1,a0
    6e38:	c411                	beqz	s0,6e44 <iprintf+0x2a>
    6e3a:	4c1c                	lw	a5,24(s0)
    6e3c:	e781                	bnez	a5,6e44 <iprintf+0x2a>
    6e3e:	8522                	mv	a0,s0
    6e40:	4b9010ef          	jal	ra,8af8 <__sinit>
    6e44:	440c                	lw	a1,8(s0)
    6e46:	1054                	addi	a3,sp,36
    6e48:	8626                	mv	a2,s1
    6e4a:	8522                	mv	a0,s0
    6e4c:	c636                	sw	a3,12(sp)
    6e4e:	4b2030ef          	jal	ra,a300 <_vfiprintf_r>
    6e52:	40f2                	lw	ra,28(sp)
    6e54:	4462                	lw	s0,24(sp)
    6e56:	44d2                	lw	s1,20(sp)
    6e58:	6121                	addi	sp,sp,64
    6e5a:	8082                	ret

00006e5c <nanf>:
    6e5c:	00005797          	auipc	a5,0x5
    6e60:	1e878793          	addi	a5,a5,488 # c044 <__clz_tab+0x14c>
    6e64:	4388                	lw	a0,0(a5)
    6e66:	8082                	ret

00006e68 <siprintf>:
    6e68:	7135                	addi	sp,sp,-160
    6e6a:	cb3e                	sw	a5,148(sp)
    6e6c:	800007b7          	lui	a5,0x80000
    6e70:	fff7c793          	not	a5,a5
    6e74:	ce3e                	sw	a5,28(sp)
    6e76:	c83e                	sw	a5,16(sp)
    6e78:	77c1                	lui	a5,0xffff0
    6e7a:	20878793          	addi	a5,a5,520 # ffff0208 <_eusrstack+0xdffe8208>
    6e7e:	c532                	sw	a2,136(sp)
    6e80:	c736                	sw	a3,140(sp)
    6e82:	c93a                	sw	a4,144(sp)
    6e84:	cd42                	sw	a6,152(sp)
    6e86:	cf46                	sw	a7,156(sp)
    6e88:	ca3e                	sw	a5,20(sp)
    6e8a:	81018793          	addi	a5,gp,-2032 # 20000200 <_impure_ptr>
    6e8e:	c42a                	sw	a0,8(sp)
    6e90:	cc2a                	sw	a0,24(sp)
    6e92:	4388                	lw	a0,0(a5)
    6e94:	0134                	addi	a3,sp,136
    6e96:	862e                	mv	a2,a1
    6e98:	002c                	addi	a1,sp,8
    6e9a:	de86                	sw	ra,124(sp)
    6e9c:	c236                	sw	a3,4(sp)
    6e9e:	192030ef          	jal	ra,a030 <_svfiprintf_r>
    6ea2:	47a2                	lw	a5,8(sp)
    6ea4:	00078023          	sb	zero,0(a5)
    6ea8:	50f6                	lw	ra,124(sp)
    6eaa:	610d                	addi	sp,sp,160
    6eac:	8082                	ret

00006eae <strcpy>:
    6eae:	87aa                	mv	a5,a0
    6eb0:	2198                	lbu	a4,0(a1)
    6eb2:	0785                	addi	a5,a5,1
    6eb4:	0585                	addi	a1,a1,1
    6eb6:	fee78fa3          	sb	a4,-1(a5)
    6eba:	fb7d                	bnez	a4,6eb0 <strcpy+0x2>
    6ebc:	8082                	ret

00006ebe <strlen>:
    6ebe:	87aa                	mv	a5,a0
    6ec0:	0785                	addi	a5,a5,1
    6ec2:	fff7c703          	lbu	a4,-1(a5)
    6ec6:	ff6d                	bnez	a4,6ec0 <strlen+0x2>
    6ec8:	40a78533          	sub	a0,a5,a0
    6ecc:	157d                	addi	a0,a0,-1
    6ece:	8082                	ret

00006ed0 <sulp>:
    6ed0:	1101                	addi	sp,sp,-32
    6ed2:	cc22                	sw	s0,24(sp)
    6ed4:	872a                	mv	a4,a0
    6ed6:	842e                	mv	s0,a1
    6ed8:	853a                	mv	a0,a4
    6eda:	85a2                	mv	a1,s0
    6edc:	c632                	sw	a2,12(sp)
    6ede:	ce06                	sw	ra,28(sp)
    6ee0:	40d020ef          	jal	ra,9aec <__ulp>
    6ee4:	4632                	lw	a2,12(sp)
    6ee6:	882a                	mv	a6,a0
    6ee8:	88ae                	mv	a7,a1
    6eea:	c605                	beqz	a2,6f12 <sulp+0x42>
    6eec:	8051                	srli	s0,s0,0x14
    6eee:	7ff47413          	andi	s0,s0,2047
    6ef2:	06b00793          	li	a5,107
    6ef6:	8f81                	sub	a5,a5,s0
    6ef8:	00f05d63          	blez	a5,6f12 <sulp+0x42>
    6efc:	07d2                	slli	a5,a5,0x14
    6efe:	3ff00737          	lui	a4,0x3ff00
    6f02:	4801                	li	a6,0
    6f04:	973e                	add	a4,a4,a5
    6f06:	8642                	mv	a2,a6
    6f08:	86ba                	mv	a3,a4
    6f0a:	932fd0ef          	jal	ra,403c <__muldf3>
    6f0e:	882a                	mv	a6,a0
    6f10:	88ae                	mv	a7,a1
    6f12:	40f2                	lw	ra,28(sp)
    6f14:	4462                	lw	s0,24(sp)
    6f16:	8542                	mv	a0,a6
    6f18:	85c6                	mv	a1,a7
    6f1a:	6105                	addi	sp,sp,32
    6f1c:	8082                	ret

00006f1e <_strtod_l>:
    6f1e:	7135                	addi	sp,sp,-160
    6f20:	c94a                	sw	s2,144(sp)
    6f22:	892a                	mv	s2,a0
    6f24:	8536                	mv	a0,a3
    6f26:	d432                	sw	a2,40(sp)
    6f28:	c636                	sw	a3,12(sp)
    6f2a:	cf06                	sw	ra,156(sp)
    6f2c:	cd22                	sw	s0,152(sp)
    6f2e:	cb26                	sw	s1,148(sp)
    6f30:	c74e                	sw	s3,140(sp)
    6f32:	d8ea                	sw	s10,112(sp)
    6f34:	d6ee                	sw	s11,108(sp)
    6f36:	8d2e                	mv	s10,a1
    6f38:	c552                	sw	s4,136(sp)
    6f3a:	c356                	sw	s5,132(sp)
    6f3c:	c15a                	sw	s6,128(sp)
    6f3e:	dede                	sw	s7,124(sp)
    6f40:	dce2                	sw	s8,120(sp)
    6f42:	dae6                	sw	s9,116(sp)
    6f44:	c882                	sw	zero,80(sp)
    6f46:	466020ef          	jal	ra,93ac <__localeconv_l>
    6f4a:	8daa                	mv	s11,a0
    6f4c:	4108                	lw	a0,0(a0)
    6f4e:	4481                	li	s1,0
    6f50:	4401                	li	s0,0
    6f52:	f6dff0ef          	jal	ra,6ebe <strlen>
    6f56:	46b2                	lw	a3,12(sp)
    6f58:	89aa                	mv	s3,a0
    6f5a:	c6ea                	sw	s10,76(sp)
    6f5c:	4635                	li	a2,13
    6f5e:	02b00593          	li	a1,43
    6f62:	02d00513          	li	a0,45
    6f66:	02000813          	li	a6,32
    6f6a:	48a5                	li	a7,9
    6f6c:	47b6                	lw	a5,76(sp)
    6f6e:	2398                	lbu	a4,0(a5)
    6f70:	08e66b63          	bltu	a2,a4,7006 <_strtod_l+0xe8>
    6f74:	09177f63          	bgeu	a4,a7,7012 <_strtod_l+0xf4>
    6f78:	c755                	beqz	a4,7024 <_strtod_l+0x106>
    6f7a:	c802                	sw	zero,16(sp)
    6f7c:	4a36                	lw	s4,76(sp)
    6f7e:	03000793          	li	a5,48
    6f82:	4a81                	li	s5,0
    6f84:	000a4703          	lbu	a4,0(s4)
    6f88:	12f71b63          	bne	a4,a5,70be <_strtod_l+0x1a0>
    6f8c:	001a4783          	lbu	a5,1(s4)
    6f90:	05800713          	li	a4,88
    6f94:	00e78863          	beq	a5,a4,6fa4 <_strtod_l+0x86>
    6f98:	07800613          	li	a2,120
    6f9c:	03000713          	li	a4,48
    6fa0:	10c79663          	bne	a5,a2,70ac <_strtod_l+0x18e>
    6fa4:	47c2                	lw	a5,16(sp)
    6fa6:	8836                	mv	a6,a3
    6fa8:	0898                	addi	a4,sp,80
    6faa:	08d4                	addi	a3,sp,84
    6fac:	00005617          	auipc	a2,0x5
    6fb0:	0fc60613          	addi	a2,a2,252 # c0a8 <fpi.3395>
    6fb4:	00ec                	addi	a1,sp,76
    6fb6:	854a                	mv	a0,s2
    6fb8:	56d010ef          	jal	ra,8d24 <__gethex>
    6fbc:	00757993          	andi	s3,a0,7
    6fc0:	8aaa                	mv	s5,a0
    6fc2:	00098863          	beqz	s3,6fd2 <_strtod_l+0xb4>
    6fc6:	4799                	li	a5,6
    6fc8:	06f99763          	bne	s3,a5,7036 <_strtod_l+0x118>
    6fcc:	0a05                	addi	s4,s4,1
    6fce:	c6d2                	sw	s4,76(sp)
    6fd0:	c802                	sw	zero,16(sp)
    6fd2:	57a2                	lw	a5,40(sp)
    6fd4:	c781                	beqz	a5,6fdc <_strtod_l+0xbe>
    6fd6:	47b6                	lw	a5,76(sp)
    6fd8:	5722                	lw	a4,40(sp)
    6fda:	c31c                	sw	a5,0(a4)
    6fdc:	47c2                	lw	a5,16(sp)
    6fde:	c7b9                	beqz	a5,702c <_strtod_l+0x10e>
    6fe0:	800005b7          	lui	a1,0x80000
    6fe4:	8da1                	xor	a1,a1,s0
    6fe6:	40fa                	lw	ra,156(sp)
    6fe8:	446a                	lw	s0,152(sp)
    6fea:	8526                	mv	a0,s1
    6fec:	494a                	lw	s2,144(sp)
    6fee:	44da                	lw	s1,148(sp)
    6ff0:	49ba                	lw	s3,140(sp)
    6ff2:	4a2a                	lw	s4,136(sp)
    6ff4:	4a9a                	lw	s5,132(sp)
    6ff6:	4b0a                	lw	s6,128(sp)
    6ff8:	5bf6                	lw	s7,124(sp)
    6ffa:	5c66                	lw	s8,120(sp)
    6ffc:	5cd6                	lw	s9,116(sp)
    6ffe:	5d46                	lw	s10,112(sp)
    7000:	5db6                	lw	s11,108(sp)
    7002:	610d                	addi	sp,sp,160
    7004:	8082                	ret
    7006:	00b70963          	beq	a4,a1,7018 <_strtod_l+0xfa>
    700a:	02a70363          	beq	a4,a0,7030 <_strtod_l+0x112>
    700e:	f70716e3          	bne	a4,a6,6f7a <_strtod_l+0x5c>
    7012:	0785                	addi	a5,a5,1
    7014:	c6be                	sw	a5,76(sp)
    7016:	bf99                	j	6f6c <_strtod_l+0x4e>
    7018:	c802                	sw	zero,16(sp)
    701a:	00178713          	addi	a4,a5,1
    701e:	c6ba                	sw	a4,76(sp)
    7020:	339c                	lbu	a5,1(a5)
    7022:	ffa9                	bnez	a5,6f7c <_strtod_l+0x5e>
    7024:	57a2                	lw	a5,40(sp)
    7026:	c6ea                	sw	s10,76(sp)
    7028:	c802                	sw	zero,16(sp)
    702a:	f7d5                	bnez	a5,6fd6 <_strtod_l+0xb8>
    702c:	85a2                	mv	a1,s0
    702e:	bf65                	j	6fe6 <_strtod_l+0xc8>
    7030:	4705                	li	a4,1
    7032:	c83a                	sw	a4,16(sp)
    7034:	b7dd                	j	701a <_strtod_l+0xfc>
    7036:	4646                	lw	a2,80(sp)
    7038:	ca11                	beqz	a2,704c <_strtod_l+0x12e>
    703a:	03500593          	li	a1,53
    703e:	08a8                	addi	a0,sp,88
    7040:	4ef020ef          	jal	ra,9d2e <__copybits>
    7044:	45c6                	lw	a1,80(sp)
    7046:	854a                	mv	a0,s2
    7048:	464020ef          	jal	ra,94ac <_Bfree>
    704c:	19fd                	addi	s3,s3,-1
    704e:	4791                	li	a5,4
    7050:	0137ee63          	bltu	a5,s3,706c <_strtod_l+0x14e>
    7054:	00005717          	auipc	a4,0x5
    7058:	ff470713          	addi	a4,a4,-12 # c048 <__clz_tab+0x150>
    705c:	098a                	slli	s3,s3,0x2
    705e:	99ba                	add	s3,s3,a4
    7060:	0009a783          	lw	a5,0(s3)
    7064:	97ba                	add	a5,a5,a4
    7066:	8782                	jr	a5
    7068:	44e6                	lw	s1,88(sp)
    706a:	4476                	lw	s0,92(sp)
    706c:	008afa93          	andi	s5,s5,8
    7070:	f60a81e3          	beqz	s5,6fd2 <_strtod_l+0xb4>
    7074:	800007b7          	lui	a5,0x80000
    7078:	8c5d                	or	s0,s0,a5
    707a:	bfa1                	j	6fd2 <_strtod_l+0xb4>
    707c:	45f6                	lw	a1,92(sp)
    707e:	fff00437          	lui	s0,0xfff00
    7082:	147d                	addi	s0,s0,-1
    7084:	0085f7b3          	and	a5,a1,s0
    7088:	4456                	lw	s0,84(sp)
    708a:	44e6                	lw	s1,88(sp)
    708c:	43340413          	addi	s0,s0,1075 # fff00433 <_eusrstack+0xdfef8433>
    7090:	01441593          	slli	a1,s0,0x14
    7094:	00b7e433          	or	s0,a5,a1
    7098:	bfd1                	j	706c <_strtod_l+0x14e>
    709a:	7ff00437          	lui	s0,0x7ff00
    709e:	b7f9                	j	706c <_strtod_l+0x14e>
    70a0:	800005b7          	lui	a1,0x80000
    70a4:	fff5c413          	not	s0,a1
    70a8:	54fd                	li	s1,-1
    70aa:	b7c9                	j	706c <_strtod_l+0x14e>
    70ac:	47b6                	lw	a5,76(sp)
    70ae:	00178693          	addi	a3,a5,1 # 80000001 <_eusrstack+0x5fff8001>
    70b2:	c6b6                	sw	a3,76(sp)
    70b4:	339c                	lbu	a5,1(a5)
    70b6:	fee78be3          	beq	a5,a4,70ac <_strtod_l+0x18e>
    70ba:	df81                	beqz	a5,6fd2 <_strtod_l+0xb4>
    70bc:	4a85                	li	s5,1
    70be:	4cb6                	lw	s9,76(sp)
    70c0:	4a01                	li	s4,0
    70c2:	4b81                	li	s7,0
    70c4:	4c01                	li	s8,0
    70c6:	46a5                	li	a3,9
    70c8:	45a1                	li	a1,8
    70ca:	47a9                	li	a5,10
    70cc:	4536                	lw	a0,76(sp)
    70ce:	00054b03          	lbu	s6,0(a0)
    70d2:	fd0b0713          	addi	a4,s6,-48
    70d6:	0ff77613          	andi	a2,a4,255
    70da:	04c6fd63          	bgeu	a3,a2,7134 <_strtod_l+0x216>
    70de:	000da583          	lw	a1,0(s11)
    70e2:	864e                	mv	a2,s3
    70e4:	57a030ef          	jal	ra,a65e <strncmp>
    70e8:	c13d                	beqz	a0,714e <_strtod_l+0x230>
    70ea:	87da                	mv	a5,s6
    70ec:	8de2                	mv	s11,s8
    70ee:	4681                	li	a3,0
    70f0:	4b01                	li	s6,0
    70f2:	4501                	li	a0,0
    70f4:	06500713          	li	a4,101
    70f8:	00e78763          	beq	a5,a4,7106 <_strtod_l+0x1e8>
    70fc:	04500713          	li	a4,69
    7100:	4981                	li	s3,0
    7102:	16e79563          	bne	a5,a4,726c <_strtod_l+0x34e>
    7106:	000d9663          	bnez	s11,7112 <_strtod_l+0x1f4>
    710a:	0156e7b3          	or	a5,a3,s5
    710e:	db99                	beqz	a5,7024 <_strtod_l+0x106>
    7110:	4d81                	li	s11,0
    7112:	4d36                	lw	s10,76(sp)
    7114:	02b00713          	li	a4,43
    7118:	001d0793          	addi	a5,s10,1
    711c:	c6be                	sw	a5,76(sp)
    711e:	001d4783          	lbu	a5,1(s10)
    7122:	0ce78f63          	beq	a5,a4,7200 <_strtod_l+0x2e2>
    7126:	02d00713          	li	a4,45
    712a:	4801                	li	a6,0
    712c:	0ee79063          	bne	a5,a4,720c <_strtod_l+0x2ee>
    7130:	4805                	li	a6,1
    7132:	a8c1                	j	7202 <_strtod_l+0x2e4>
    7134:	0185c963          	blt	a1,s8,7146 <_strtod_l+0x228>
    7138:	02fb8bb3          	mul	s7,s7,a5
    713c:	9bba                	add	s7,s7,a4
    713e:	0505                	addi	a0,a0,1
    7140:	0c05                	addi	s8,s8,1
    7142:	c6aa                	sw	a0,76(sp)
    7144:	b761                	j	70cc <_strtod_l+0x1ae>
    7146:	02fa0a33          	mul	s4,s4,a5
    714a:	9a3a                	add	s4,s4,a4
    714c:	bfcd                	j	713e <_strtod_l+0x220>
    714e:	4536                	lw	a0,76(sp)
    7150:	4681                	li	a3,0
    7152:	954e                	add	a0,a0,s3
    7154:	c6aa                	sw	a0,76(sp)
    7156:	211c                	lbu	a5,0(a0)
    7158:	060c0b63          	beqz	s8,71ce <_strtod_l+0x2b0>
    715c:	4b01                	li	s6,0
    715e:	8de2                	mv	s11,s8
    7160:	fd078713          	addi	a4,a5,-48
    7164:	4625                	li	a2,9
    7166:	02e67563          	bgeu	a2,a4,7190 <_strtod_l+0x272>
    716a:	4505                	li	a0,1
    716c:	b761                	j	70f4 <_strtod_l+0x1d6>
    716e:	47b6                	lw	a5,76(sp)
    7170:	0685                	addi	a3,a3,1
    7172:	00178613          	addi	a2,a5,1
    7176:	c6b2                	sw	a2,76(sp)
    7178:	339c                	lbu	a5,1(a5)
    717a:	fee78ae3          	beq	a5,a4,716e <_strtod_l+0x250>
    717e:	fcf78713          	addi	a4,a5,-49
    7182:	4621                	li	a2,8
    7184:	1ee666e3          	bltu	a2,a4,7b70 <_strtod_l+0xc52>
    7188:	4cb6                	lw	s9,76(sp)
    718a:	8b36                	mv	s6,a3
    718c:	4d81                	li	s11,0
    718e:	4681                	li	a3,0
    7190:	fd078793          	addi	a5,a5,-48
    7194:	00168713          	addi	a4,a3,1
    7198:	c785                	beqz	a5,71c0 <_strtod_l+0x2a2>
    719a:	9b3a                	add	s6,s6,a4
    719c:	01b68533          	add	a0,a3,s11
    71a0:	876e                	mv	a4,s11
    71a2:	4821                	li	a6,8
    71a4:	48c1                	li	a7,16
    71a6:	4629                	li	a2,10
    71a8:	02a71663          	bne	a4,a0,71d4 <_strtod_l+0x2b6>
    71ac:	0d85                	addi	s11,s11,1
    71ae:	9db6                	add	s11,s11,a3
    71b0:	46a1                	li	a3,8
    71b2:	02e6ce63          	blt	a3,a4,71ee <_strtod_l+0x2d0>
    71b6:	4729                	li	a4,10
    71b8:	02eb8bb3          	mul	s7,s7,a4
    71bc:	4701                	li	a4,0
    71be:	9bbe                	add	s7,s7,a5
    71c0:	47b6                	lw	a5,76(sp)
    71c2:	00178693          	addi	a3,a5,1
    71c6:	c6b6                	sw	a3,76(sp)
    71c8:	339c                	lbu	a5,1(a5)
    71ca:	86ba                	mv	a3,a4
    71cc:	bf51                	j	7160 <_strtod_l+0x242>
    71ce:	03000713          	li	a4,48
    71d2:	b765                	j	717a <_strtod_l+0x25c>
    71d4:	00170593          	addi	a1,a4,1
    71d8:	00e84663          	blt	a6,a4,71e4 <_strtod_l+0x2c6>
    71dc:	02cb8bb3          	mul	s7,s7,a2
    71e0:	872e                	mv	a4,a1
    71e2:	b7d9                	j	71a8 <_strtod_l+0x28a>
    71e4:	feb8cee3          	blt	a7,a1,71e0 <_strtod_l+0x2c2>
    71e8:	02ca0a33          	mul	s4,s4,a2
    71ec:	bfd5                	j	71e0 <_strtod_l+0x2c2>
    71ee:	46c1                	li	a3,16
    71f0:	4701                	li	a4,0
    71f2:	fdb6c7e3          	blt	a3,s11,71c0 <_strtod_l+0x2a2>
    71f6:	46a9                	li	a3,10
    71f8:	02da0a33          	mul	s4,s4,a3
    71fc:	9a3e                	add	s4,s4,a5
    71fe:	b7c9                	j	71c0 <_strtod_l+0x2a2>
    7200:	4801                	li	a6,0
    7202:	002d0793          	addi	a5,s10,2
    7206:	c6be                	sw	a5,76(sp)
    7208:	002d4783          	lbu	a5,2(s10)
    720c:	fd078713          	addi	a4,a5,-48
    7210:	4625                	li	a2,9
    7212:	0ce66563          	bltu	a2,a4,72dc <_strtod_l+0x3be>
    7216:	03000713          	li	a4,48
    721a:	0ae78563          	beq	a5,a4,72c4 <_strtod_l+0x3a6>
    721e:	fcf78713          	addi	a4,a5,-49
    7222:	4621                	li	a2,8
    7224:	4981                	li	s3,0
    7226:	04e66363          	bltu	a2,a4,726c <_strtod_l+0x34e>
    722a:	48b6                	lw	a7,76(sp)
    722c:	fd078713          	addi	a4,a5,-48
    7230:	4325                	li	t1,9
    7232:	4e29                	li	t3,10
    7234:	47b6                	lw	a5,76(sp)
    7236:	00178613          	addi	a2,a5,1
    723a:	c6b2                	sw	a2,76(sp)
    723c:	339c                	lbu	a5,1(a5)
    723e:	fd078593          	addi	a1,a5,-48
    7242:	0ff5f593          	andi	a1,a1,255
    7246:	08b37563          	bgeu	t1,a1,72d0 <_strtod_l+0x3b2>
    724a:	6995                	lui	s3,0x5
    724c:	41160633          	sub	a2,a2,a7
    7250:	e1f98993          	addi	s3,s3,-481 # 4e1f <__addsf3+0x17b>
    7254:	48a1                	li	a7,8
    7256:	85ce                	mv	a1,s3
    7258:	00c8c663          	blt	a7,a2,7264 <_strtod_l+0x346>
    725c:	89ba                	mv	s3,a4
    725e:	00e5d363          	bge	a1,a4,7264 <_strtod_l+0x346>
    7262:	89ae                	mv	s3,a1
    7264:	00080463          	beqz	a6,726c <_strtod_l+0x34e>
    7268:	413009b3          	neg	s3,s3
    726c:	0c0d9663          	bnez	s11,7338 <_strtod_l+0x41a>
    7270:	00dae6b3          	or	a3,s5,a3
    7274:	d4069fe3          	bnez	a3,6fd2 <_strtod_l+0xb4>
    7278:	da0516e3          	bnez	a0,7024 <_strtod_l+0x106>
    727c:	04e00713          	li	a4,78
    7280:	06e78963          	beq	a5,a4,72f2 <_strtod_l+0x3d4>
    7284:	04f74f63          	blt	a4,a5,72e2 <_strtod_l+0x3c4>
    7288:	04900713          	li	a4,73
    728c:	d8e79ce3          	bne	a5,a4,7024 <_strtod_l+0x106>
    7290:	00005597          	auipc	a1,0x5
    7294:	e0858593          	addi	a1,a1,-504 # c098 <__clz_tab+0x1a0>
    7298:	00e8                	addi	a0,sp,76
    729a:	781010ef          	jal	ra,921a <__match>
    729e:	d80503e3          	beqz	a0,7024 <_strtod_l+0x106>
    72a2:	47b6                	lw	a5,76(sp)
    72a4:	00005597          	auipc	a1,0x5
    72a8:	df858593          	addi	a1,a1,-520 # c09c <__clz_tab+0x1a4>
    72ac:	00e8                	addi	a0,sp,76
    72ae:	17fd                	addi	a5,a5,-1
    72b0:	c6be                	sw	a5,76(sp)
    72b2:	769010ef          	jal	ra,921a <__match>
    72b6:	e501                	bnez	a0,72be <_strtod_l+0x3a0>
    72b8:	47b6                	lw	a5,76(sp)
    72ba:	0785                	addi	a5,a5,1
    72bc:	c6be                	sw	a5,76(sp)
    72be:	7ff00437          	lui	s0,0x7ff00
    72c2:	bb01                	j	6fd2 <_strtod_l+0xb4>
    72c4:	47b6                	lw	a5,76(sp)
    72c6:	00178613          	addi	a2,a5,1
    72ca:	c6b2                	sw	a2,76(sp)
    72cc:	339c                	lbu	a5,1(a5)
    72ce:	b7b1                	j	721a <_strtod_l+0x2fc>
    72d0:	03c70733          	mul	a4,a4,t3
    72d4:	97ba                	add	a5,a5,a4
    72d6:	fd078713          	addi	a4,a5,-48
    72da:	bfa9                	j	7234 <_strtod_l+0x316>
    72dc:	c6ea                	sw	s10,76(sp)
    72de:	4981                	li	s3,0
    72e0:	b771                	j	726c <_strtod_l+0x34e>
    72e2:	06900713          	li	a4,105
    72e6:	fae785e3          	beq	a5,a4,7290 <_strtod_l+0x372>
    72ea:	06e00713          	li	a4,110
    72ee:	d2e79be3          	bne	a5,a4,7024 <_strtod_l+0x106>
    72f2:	00005597          	auipc	a1,0x5
    72f6:	db258593          	addi	a1,a1,-590 # c0a4 <__clz_tab+0x1ac>
    72fa:	00e8                	addi	a0,sp,76
    72fc:	71f010ef          	jal	ra,921a <__match>
    7300:	d20502e3          	beqz	a0,7024 <_strtod_l+0x106>
    7304:	47b6                	lw	a5,76(sp)
    7306:	2398                	lbu	a4,0(a5)
    7308:	02800793          	li	a5,40
    730c:	02f71363          	bne	a4,a5,7332 <_strtod_l+0x414>
    7310:	08b0                	addi	a2,sp,88
    7312:	00005597          	auipc	a1,0x5
    7316:	daa58593          	addi	a1,a1,-598 # c0bc <fpinan.3431>
    731a:	00e8                	addi	a0,sp,76
    731c:	72d010ef          	jal	ra,9248 <__hexnan>
    7320:	4795                	li	a5,5
    7322:	00f51863          	bne	a0,a5,7332 <_strtod_l+0x414>
    7326:	45f6                	lw	a1,92(sp)
    7328:	7ff00437          	lui	s0,0x7ff00
    732c:	44e6                	lw	s1,88(sp)
    732e:	8c4d                	or	s0,s0,a1
    7330:	b14d                	j	6fd2 <_strtod_l+0xb4>
    7332:	fff80437          	lui	s0,0xfff80
    7336:	b971                	j	6fd2 <_strtod_l+0xb4>
    7338:	41698ab3          	sub	s5,s3,s6
    733c:	000c1363          	bnez	s8,7342 <_strtod_l+0x424>
    7340:	8c6e                	mv	s8,s11
    7342:	47c1                	li	a5,16
    7344:	8d6e                	mv	s10,s11
    7346:	01b7d363          	bge	a5,s11,734c <_strtod_l+0x42e>
    734a:	4d41                	li	s10,16
    734c:	855e                	mv	a0,s7
    734e:	1f0040ef          	jal	ra,b53e <__floatunsidf>
    7352:	47a5                	li	a5,9
    7354:	84aa                	mv	s1,a0
    7356:	842e                	mv	s0,a1
    7358:	03b7dc63          	bge	a5,s11,7390 <_strtod_l+0x472>
    735c:	ff7d0793          	addi	a5,s10,-9
    7360:	00379713          	slli	a4,a5,0x3
    7364:	00005797          	auipc	a5,0x5
    7368:	e7478793          	addi	a5,a5,-396 # c1d8 <__mprec_tens>
    736c:	97ba                	add	a5,a5,a4
    736e:	4390                	lw	a2,0(a5)
    7370:	43d4                	lw	a3,4(a5)
    7372:	ccbfc0ef          	jal	ra,403c <__muldf3>
    7376:	842a                	mv	s0,a0
    7378:	8552                	mv	a0,s4
    737a:	84ae                	mv	s1,a1
    737c:	1c2040ef          	jal	ra,b53e <__floatunsidf>
    7380:	862a                	mv	a2,a0
    7382:	86ae                	mv	a3,a1
    7384:	8522                	mv	a0,s0
    7386:	85a6                	mv	a1,s1
    7388:	11d030ef          	jal	ra,aca4 <__adddf3>
    738c:	84aa                	mv	s1,a0
    738e:	842e                	mv	s0,a1
    7390:	47bd                	li	a5,15
    7392:	09b7cd63          	blt	a5,s11,742c <_strtod_l+0x50e>
    7396:	c20a8ee3          	beqz	s5,6fd2 <_strtod_l+0xb4>
    739a:	07505463          	blez	s5,7402 <_strtod_l+0x4e4>
    739e:	4759                	li	a4,22
    73a0:	03574363          	blt	a4,s5,73c6 <_strtod_l+0x4a8>
    73a4:	0a8e                	slli	s5,s5,0x3
    73a6:	00005797          	auipc	a5,0x5
    73aa:	e3278793          	addi	a5,a5,-462 # c1d8 <__mprec_tens>
    73ae:	9abe                	add	s5,s5,a5
    73b0:	000aa503          	lw	a0,0(s5)
    73b4:	004aa583          	lw	a1,4(s5)
    73b8:	8626                	mv	a2,s1
    73ba:	86a2                	mv	a3,s0
    73bc:	c81fc0ef          	jal	ra,403c <__muldf3>
    73c0:	84aa                	mv	s1,a0
    73c2:	842e                	mv	s0,a1
    73c4:	b139                	j	6fd2 <_strtod_l+0xb4>
    73c6:	02500713          	li	a4,37
    73ca:	41b70733          	sub	a4,a4,s11
    73ce:	05574f63          	blt	a4,s5,742c <_strtod_l+0x50e>
    73d2:	41b78db3          	sub	s11,a5,s11
    73d6:	00005917          	auipc	s2,0x5
    73da:	e0290913          	addi	s2,s2,-510 # c1d8 <__mprec_tens>
    73de:	003d9793          	slli	a5,s11,0x3
    73e2:	97ca                	add	a5,a5,s2
    73e4:	4388                	lw	a0,0(a5)
    73e6:	43cc                	lw	a1,4(a5)
    73e8:	41ba8db3          	sub	s11,s5,s11
    73ec:	8626                	mv	a2,s1
    73ee:	86a2                	mv	a3,s0
    73f0:	0d8e                	slli	s11,s11,0x3
    73f2:	c4bfc0ef          	jal	ra,403c <__muldf3>
    73f6:	9dca                	add	s11,s11,s2
    73f8:	000da603          	lw	a2,0(s11)
    73fc:	004da683          	lw	a3,4(s11)
    7400:	bf75                	j	73bc <_strtod_l+0x49e>
    7402:	57a9                	li	a5,-22
    7404:	02fac463          	blt	s5,a5,742c <_strtod_l+0x50e>
    7408:	413b09b3          	sub	s3,s6,s3
    740c:	00399b13          	slli	s6,s3,0x3
    7410:	00005997          	auipc	s3,0x5
    7414:	dc898993          	addi	s3,s3,-568 # c1d8 <__mprec_tens>
    7418:	99da                	add	s3,s3,s6
    741a:	0009a603          	lw	a2,0(s3)
    741e:	0049a683          	lw	a3,4(s3)
    7422:	8526                	mv	a0,s1
    7424:	85a2                	mv	a1,s0
    7426:	cfefc0ef          	jal	ra,3924 <__divdf3>
    742a:	bf59                	j	73c0 <_strtod_l+0x4a2>
    742c:	41ad8d33          	sub	s10,s11,s10
    7430:	9d56                	add	s10,s10,s5
    7432:	11a05763          	blez	s10,7540 <_strtod_l+0x622>
    7436:	00fd7793          	andi	a5,s10,15
    743a:	cf99                	beqz	a5,7458 <_strtod_l+0x53a>
    743c:	00005717          	auipc	a4,0x5
    7440:	d9c70713          	addi	a4,a4,-612 # c1d8 <__mprec_tens>
    7444:	078e                	slli	a5,a5,0x3
    7446:	97ba                	add	a5,a5,a4
    7448:	4388                	lw	a0,0(a5)
    744a:	43cc                	lw	a1,4(a5)
    744c:	8626                	mv	a2,s1
    744e:	86a2                	mv	a3,s0
    7450:	bedfc0ef          	jal	ra,403c <__muldf3>
    7454:	84aa                	mv	s1,a0
    7456:	842e                	mv	s0,a1
    7458:	ff0d7d13          	andi	s10,s10,-16
    745c:	0a0d0863          	beqz	s10,750c <_strtod_l+0x5ee>
    7460:	13400793          	li	a5,308
    7464:	05a7d563          	bge	a5,s10,74ae <_strtod_l+0x590>
    7468:	4b01                	li	s6,0
    746a:	4981                	li	s3,0
    746c:	c602                	sw	zero,12(sp)
    746e:	4b81                	li	s7,0
    7470:	02200793          	li	a5,34
    7474:	00f92023          	sw	a5,0(s2)
    7478:	7ff00437          	lui	s0,0x7ff00
    747c:	4481                	li	s1,0
    747e:	47b2                	lw	a5,12(sp)
    7480:	b40789e3          	beqz	a5,6fd2 <_strtod_l+0xb4>
    7484:	45c6                	lw	a1,80(sp)
    7486:	854a                	mv	a0,s2
    7488:	024020ef          	jal	ra,94ac <_Bfree>
    748c:	85de                	mv	a1,s7
    748e:	854a                	mv	a0,s2
    7490:	01c020ef          	jal	ra,94ac <_Bfree>
    7494:	85ce                	mv	a1,s3
    7496:	854a                	mv	a0,s2
    7498:	014020ef          	jal	ra,94ac <_Bfree>
    749c:	45b2                	lw	a1,12(sp)
    749e:	854a                	mv	a0,s2
    74a0:	00c020ef          	jal	ra,94ac <_Bfree>
    74a4:	85da                	mv	a1,s6
    74a6:	854a                	mv	a0,s2
    74a8:	004020ef          	jal	ra,94ac <_Bfree>
    74ac:	b61d                	j	6fd2 <_strtod_l+0xb4>
    74ae:	404d5d13          	srai	s10,s10,0x4
    74b2:	8526                	mv	a0,s1
    74b4:	85a2                	mv	a1,s0
    74b6:	4781                	li	a5,0
    74b8:	4a01                	li	s4,0
    74ba:	4805                	li	a6,1
    74bc:	00005897          	auipc	a7,0x5
    74c0:	cf488893          	addi	a7,a7,-780 # c1b0 <__mprec_bigtens>
    74c4:	05a84663          	blt	a6,s10,7510 <_strtod_l+0x5f2>
    74c8:	c399                	beqz	a5,74ce <_strtod_l+0x5b0>
    74ca:	84aa                	mv	s1,a0
    74cc:	842e                	mv	s0,a1
    74ce:	00005717          	auipc	a4,0x5
    74d2:	ce270713          	addi	a4,a4,-798 # c1b0 <__mprec_bigtens>
    74d6:	003a1793          	slli	a5,s4,0x3
    74da:	97ba                	add	a5,a5,a4
    74dc:	4388                	lw	a0,0(a5)
    74de:	43cc                	lw	a1,4(a5)
    74e0:	fcb00737          	lui	a4,0xfcb00
    74e4:	9722                	add	a4,a4,s0
    74e6:	8626                	mv	a2,s1
    74e8:	86ba                	mv	a3,a4
    74ea:	b53fc0ef          	jal	ra,403c <__muldf3>
    74ee:	7ff00437          	lui	s0,0x7ff00
    74f2:	00b477b3          	and	a5,s0,a1
    74f6:	7ca00737          	lui	a4,0x7ca00
    74fa:	84aa                	mv	s1,a0
    74fc:	f6f766e3          	bltu	a4,a5,7468 <_strtod_l+0x54a>
    7500:	7c900737          	lui	a4,0x7c900
    7504:	02f77a63          	bgeu	a4,a5,7538 <_strtod_l+0x61a>
    7508:	147d                	addi	s0,s0,-1
    750a:	54fd                	li	s1,-1
    750c:	4a01                	li	s4,0
    750e:	a8dd                	j	7604 <_strtod_l+0x6e6>
    7510:	001d7713          	andi	a4,s10,1
    7514:	cf11                	beqz	a4,7530 <_strtod_l+0x612>
    7516:	003a1713          	slli	a4,s4,0x3
    751a:	9746                	add	a4,a4,a7
    751c:	4310                	lw	a2,0(a4)
    751e:	4354                	lw	a3,4(a4)
    7520:	b1dfc0ef          	jal	ra,403c <__muldf3>
    7524:	4785                	li	a5,1
    7526:	4805                	li	a6,1
    7528:	00005897          	auipc	a7,0x5
    752c:	c8888893          	addi	a7,a7,-888 # c1b0 <__mprec_bigtens>
    7530:	0a05                	addi	s4,s4,1
    7532:	401d5d13          	srai	s10,s10,0x1
    7536:	b779                	j	74c4 <_strtod_l+0x5a6>
    7538:	03500437          	lui	s0,0x3500
    753c:	942e                	add	s0,s0,a1
    753e:	b7f9                	j	750c <_strtod_l+0x5ee>
    7540:	fc0d06e3          	beqz	s10,750c <_strtod_l+0x5ee>
    7544:	41a00d33          	neg	s10,s10
    7548:	00fd7793          	andi	a5,s10,15
    754c:	cf99                	beqz	a5,756a <_strtod_l+0x64c>
    754e:	00005717          	auipc	a4,0x5
    7552:	c8a70713          	addi	a4,a4,-886 # c1d8 <__mprec_tens>
    7556:	078e                	slli	a5,a5,0x3
    7558:	97ba                	add	a5,a5,a4
    755a:	4390                	lw	a2,0(a5)
    755c:	43d4                	lw	a3,4(a5)
    755e:	8526                	mv	a0,s1
    7560:	85a2                	mv	a1,s0
    7562:	bc2fc0ef          	jal	ra,3924 <__divdf3>
    7566:	84aa                	mv	s1,a0
    7568:	842e                	mv	s0,a1
    756a:	404d5d13          	srai	s10,s10,0x4
    756e:	f80d0fe3          	beqz	s10,750c <_strtod_l+0x5ee>
    7572:	47fd                	li	a5,31
    7574:	01a7dd63          	bge	a5,s10,758e <_strtod_l+0x670>
    7578:	4b01                	li	s6,0
    757a:	4981                	li	s3,0
    757c:	c602                	sw	zero,12(sp)
    757e:	4b81                	li	s7,0
    7580:	02200793          	li	a5,34
    7584:	4481                	li	s1,0
    7586:	4401                	li	s0,0
    7588:	00f92023          	sw	a5,0(s2)
    758c:	bdcd                	j	747e <_strtod_l+0x560>
    758e:	010d7a13          	andi	s4,s10,16
    7592:	000a0463          	beqz	s4,759a <_strtod_l+0x67c>
    7596:	06a00a13          	li	s4,106
    759a:	8526                	mv	a0,s1
    759c:	85a2                	mv	a1,s0
    759e:	00005797          	auipc	a5,0x5
    75a2:	b3278793          	addi	a5,a5,-1230 # c0d0 <tinytens>
    75a6:	4701                	li	a4,0
    75a8:	001d7693          	andi	a3,s10,1
    75ac:	ca81                	beqz	a3,75bc <_strtod_l+0x69e>
    75ae:	4390                	lw	a2,0(a5)
    75b0:	43d4                	lw	a3,4(a5)
    75b2:	c63e                	sw	a5,12(sp)
    75b4:	a89fc0ef          	jal	ra,403c <__muldf3>
    75b8:	47b2                	lw	a5,12(sp)
    75ba:	4705                	li	a4,1
    75bc:	401d5d13          	srai	s10,s10,0x1
    75c0:	07a1                	addi	a5,a5,8
    75c2:	fe0d13e3          	bnez	s10,75a8 <_strtod_l+0x68a>
    75c6:	c319                	beqz	a4,75cc <_strtod_l+0x6ae>
    75c8:	84aa                	mv	s1,a0
    75ca:	842e                	mv	s0,a1
    75cc:	020a0563          	beqz	s4,75f6 <_strtod_l+0x6d8>
    75d0:	01445793          	srli	a5,s0,0x14
    75d4:	7ff7f713          	andi	a4,a5,2047
    75d8:	06b00793          	li	a5,107
    75dc:	8f99                	sub	a5,a5,a4
    75de:	00f05c63          	blez	a5,75f6 <_strtod_l+0x6d8>
    75e2:	477d                	li	a4,31
    75e4:	22f75463          	bge	a4,a5,780c <_strtod_l+0x8ee>
    75e8:	03400713          	li	a4,52
    75ec:	4481                	li	s1,0
    75ee:	20f75963          	bge	a4,a5,7800 <_strtod_l+0x8e2>
    75f2:	03700437          	lui	s0,0x3700
    75f6:	4601                	li	a2,0
    75f8:	4681                	li	a3,0
    75fa:	8526                	mv	a0,s1
    75fc:	85a2                	mv	a1,s0
    75fe:	5d7030ef          	jal	ra,b3d4 <__eqdf2>
    7602:	d93d                	beqz	a0,7578 <_strtod_l+0x65a>
    7604:	875e                	mv	a4,s7
    7606:	86ee                	mv	a3,s11
    7608:	8662                	mv	a2,s8
    760a:	85e6                	mv	a1,s9
    760c:	854a                	mv	a0,s2
    760e:	77b010ef          	jal	ra,9588 <__s2b>
    7612:	c62a                	sw	a0,12(sp)
    7614:	e4050ae3          	beqz	a0,7468 <_strtod_l+0x54a>
    7618:	41fad793          	srai	a5,s5,0x1f
    761c:	413b09b3          	sub	s3,s6,s3
    7620:	00f9f7b3          	and	a5,s3,a5
    7624:	d03e                	sw	a5,32(sp)
    7626:	ce56                	sw	s5,28(sp)
    7628:	000ad363          	bgez	s5,762e <_strtod_l+0x710>
    762c:	ce02                	sw	zero,28(sp)
    762e:	47b2                	lw	a5,12(sp)
    7630:	4b01                	li	s6,0
    7632:	4981                	li	s3,0
    7634:	07b1                	addi	a5,a5,12
    7636:	d83e                	sw	a5,48(sp)
    7638:	001007b7          	lui	a5,0x100
    763c:	17fd                	addi	a5,a5,-1
    763e:	d63e                	sw	a5,44(sp)
    7640:	47b2                	lw	a5,12(sp)
    7642:	854a                	mv	a0,s2
    7644:	43cc                	lw	a1,4(a5)
    7646:	5db010ef          	jal	ra,9420 <_Balloc>
    764a:	8baa                	mv	s7,a0
    764c:	e20502e3          	beqz	a0,7470 <_strtod_l+0x552>
    7650:	47b2                	lw	a5,12(sp)
    7652:	55c2                	lw	a1,48(sp)
    7654:	0531                	addi	a0,a0,12
    7656:	4b90                	lw	a2,16(a5)
    7658:	0609                	addi	a2,a2,2
    765a:	060a                	slli	a2,a2,0x2
    765c:	8bffe0ef          	jal	ra,5f1a <memcpy>
    7660:	08b8                	addi	a4,sp,88
    7662:	08d4                	addi	a3,sp,84
    7664:	8622                	mv	a2,s0
    7666:	85a6                	mv	a1,s1
    7668:	854a                	mv	a0,s2
    766a:	ca26                	sw	s1,20(sp)
    766c:	cc22                	sw	s0,24(sp)
    766e:	578020ef          	jal	ra,9be6 <__d2b>
    7672:	c8aa                	sw	a0,80(sp)
    7674:	de050ee3          	beqz	a0,7470 <_strtod_l+0x552>
    7678:	4585                	li	a1,1
    767a:	854a                	mv	a0,s2
    767c:	060020ef          	jal	ra,96dc <__i2b>
    7680:	89aa                	mv	s3,a0
    7682:	de0507e3          	beqz	a0,7470 <_strtod_l+0x552>
    7686:	47d6                	lw	a5,84(sp)
    7688:	1807c763          	bltz	a5,7816 <_strtod_l+0x8f8>
    768c:	5702                	lw	a4,32(sp)
    768e:	4c72                	lw	s8,28(sp)
    7690:	00e78d33          	add	s10,a5,a4
    7694:	4766                	lw	a4,88(sp)
    7696:	414787b3          	sub	a5,a5,s4
    769a:	03600693          	li	a3,54
    769e:	97ba                	add	a5,a5,a4
    76a0:	17fd                	addi	a5,a5,-1
    76a2:	c0200d93          	li	s11,-1022
    76a6:	8e99                	sub	a3,a3,a4
    76a8:	19b7d663          	bge	a5,s11,7834 <_strtod_l+0x916>
    76ac:	40fd8733          	sub	a4,s11,a5
    76b0:	467d                	li	a2,31
    76b2:	8e99                	sub	a3,a3,a4
    76b4:	16e64663          	blt	a2,a4,7820 <_strtod_l+0x902>
    76b8:	4d85                	li	s11,1
    76ba:	00ed97b3          	sll	a5,s11,a4
    76be:	d23e                	sw	a5,36(sp)
    76c0:	4c81                	li	s9,0
    76c2:	9c36                	add	s8,s8,a3
    76c4:	00dd0db3          	add	s11,s10,a3
    76c8:	9c52                	add	s8,s8,s4
    76ca:	87ea                	mv	a5,s10
    76cc:	01add363          	bge	s11,s10,76d2 <_strtod_l+0x7b4>
    76d0:	87ee                	mv	a5,s11
    76d2:	00fc5363          	bge	s8,a5,76d8 <_strtod_l+0x7ba>
    76d6:	87e2                	mv	a5,s8
    76d8:	00f05863          	blez	a5,76e8 <_strtod_l+0x7ca>
    76dc:	40fd8db3          	sub	s11,s11,a5
    76e0:	40fc0c33          	sub	s8,s8,a5
    76e4:	40fd0d33          	sub	s10,s10,a5
    76e8:	5782                	lw	a5,32(sp)
    76ea:	02f05863          	blez	a5,771a <_strtod_l+0x7fc>
    76ee:	85ce                	mv	a1,s3
    76f0:	863e                	mv	a2,a5
    76f2:	854a                	mv	a0,s2
    76f4:	148020ef          	jal	ra,983c <__pow5mult>
    76f8:	89aa                	mv	s3,a0
    76fa:	d6050be3          	beqz	a0,7470 <_strtod_l+0x552>
    76fe:	4646                	lw	a2,80(sp)
    7700:	85aa                	mv	a1,a0
    7702:	854a                	mv	a0,s2
    7704:	7f5010ef          	jal	ra,96f8 <__multiply>
    7708:	da2a                	sw	a0,52(sp)
    770a:	d60503e3          	beqz	a0,7470 <_strtod_l+0x552>
    770e:	45c6                	lw	a1,80(sp)
    7710:	854a                	mv	a0,s2
    7712:	59b010ef          	jal	ra,94ac <_Bfree>
    7716:	57d2                	lw	a5,52(sp)
    7718:	c8be                	sw	a5,80(sp)
    771a:	11b04f63          	bgtz	s11,7838 <_strtod_l+0x91a>
    771e:	01505a63          	blez	s5,7732 <_strtod_l+0x814>
    7722:	4672                	lw	a2,28(sp)
    7724:	85de                	mv	a1,s7
    7726:	854a                	mv	a0,s2
    7728:	114020ef          	jal	ra,983c <__pow5mult>
    772c:	8baa                	mv	s7,a0
    772e:	d40501e3          	beqz	a0,7470 <_strtod_l+0x552>
    7732:	01805a63          	blez	s8,7746 <_strtod_l+0x828>
    7736:	85de                	mv	a1,s7
    7738:	8662                	mv	a2,s8
    773a:	854a                	mv	a0,s2
    773c:	1be020ef          	jal	ra,98fa <__lshift>
    7740:	8baa                	mv	s7,a0
    7742:	d20507e3          	beqz	a0,7470 <_strtod_l+0x552>
    7746:	01a05a63          	blez	s10,775a <_strtod_l+0x83c>
    774a:	85ce                	mv	a1,s3
    774c:	866a                	mv	a2,s10
    774e:	854a                	mv	a0,s2
    7750:	1aa020ef          	jal	ra,98fa <__lshift>
    7754:	89aa                	mv	s3,a0
    7756:	d0050de3          	beqz	a0,7470 <_strtod_l+0x552>
    775a:	45c6                	lw	a1,80(sp)
    775c:	865e                	mv	a2,s7
    775e:	854a                	mv	a0,s2
    7760:	29a020ef          	jal	ra,99fa <__mdiff>
    7764:	8b2a                	mv	s6,a0
    7766:	d00505e3          	beqz	a0,7470 <_strtod_l+0x552>
    776a:	00c52c03          	lw	s8,12(a0)
    776e:	85ce                	mv	a1,s3
    7770:	00052623          	sw	zero,12(a0)
    7774:	254020ef          	jal	ra,99c8 <__mcmp>
    7778:	0c055963          	bgez	a0,784a <_strtod_l+0x92c>
    777c:	009c6c33          	or	s8,s8,s1
    7780:	120c1163          	bnez	s8,78a2 <_strtod_l+0x984>
    7784:	00c41793          	slli	a5,s0,0xc
    7788:	10079d63          	bnez	a5,78a2 <_strtod_l+0x984>
    778c:	7ff007b7          	lui	a5,0x7ff00
    7790:	8fe1                	and	a5,a5,s0
    7792:	06b00737          	lui	a4,0x6b00
    7796:	10f77663          	bgeu	a4,a5,78a2 <_strtod_l+0x984>
    779a:	014b2783          	lw	a5,20(s6)
    779e:	e791                	bnez	a5,77aa <_strtod_l+0x88c>
    77a0:	010b2703          	lw	a4,16(s6)
    77a4:	4785                	li	a5,1
    77a6:	0ee7de63          	bge	a5,a4,78a2 <_strtod_l+0x984>
    77aa:	85da                	mv	a1,s6
    77ac:	4605                	li	a2,1
    77ae:	854a                	mv	a0,s2
    77b0:	14a020ef          	jal	ra,98fa <__lshift>
    77b4:	85ce                	mv	a1,s3
    77b6:	8b2a                	mv	s6,a0
    77b8:	210020ef          	jal	ra,99c8 <__mcmp>
    77bc:	0ea05363          	blez	a0,78a2 <_strtod_l+0x984>
    77c0:	100a0c63          	beqz	s4,78d8 <_strtod_l+0x9ba>
    77c4:	7ff007b7          	lui	a5,0x7ff00
    77c8:	8fe1                	and	a5,a5,s0
    77ca:	06b00737          	lui	a4,0x6b00
    77ce:	10f74563          	blt	a4,a5,78d8 <_strtod_l+0x9ba>
    77d2:	03700737          	lui	a4,0x3700
    77d6:	daf755e3          	bge	a4,a5,7580 <_strtod_l+0x662>
    77da:	4701                	li	a4,0
    77dc:	395007b7          	lui	a5,0x39500
    77e0:	8526                	mv	a0,s1
    77e2:	85a2                	mv	a1,s0
    77e4:	863a                	mv	a2,a4
    77e6:	86be                	mv	a3,a5
    77e8:	855fc0ef          	jal	ra,403c <__muldf3>
    77ec:	842e                	mv	s0,a1
    77ee:	8dc9                	or	a1,a1,a0
    77f0:	84aa                	mv	s1,a0
    77f2:	c80599e3          	bnez	a1,7484 <_strtod_l+0x566>
    77f6:	02200793          	li	a5,34
    77fa:	00f92023          	sw	a5,0(s2)
    77fe:	b159                	j	7484 <_strtod_l+0x566>
    7800:	1781                	addi	a5,a5,-32
    7802:	577d                	li	a4,-1
    7804:	00f717b3          	sll	a5,a4,a5
    7808:	8c7d                	and	s0,s0,a5
    780a:	b3f5                	j	75f6 <_strtod_l+0x6d8>
    780c:	577d                	li	a4,-1
    780e:	00f717b3          	sll	a5,a4,a5
    7812:	8cfd                	and	s1,s1,a5
    7814:	b3cd                	j	75f6 <_strtod_l+0x6d8>
    7816:	4772                	lw	a4,28(sp)
    7818:	5d02                	lw	s10,32(sp)
    781a:	40f70c33          	sub	s8,a4,a5
    781e:	bd9d                	j	7694 <_strtod_l+0x776>
    7820:	be200c93          	li	s9,-1054
    7824:	40fc87b3          	sub	a5,s9,a5
    7828:	4c85                	li	s9,1
    782a:	00fc9cb3          	sll	s9,s9,a5
    782e:	4785                	li	a5,1
    7830:	d23e                	sw	a5,36(sp)
    7832:	bd41                	j	76c2 <_strtod_l+0x7a4>
    7834:	4c81                	li	s9,0
    7836:	bfe5                	j	782e <_strtod_l+0x910>
    7838:	45c6                	lw	a1,80(sp)
    783a:	866e                	mv	a2,s11
    783c:	854a                	mv	a0,s2
    783e:	0bc020ef          	jal	ra,98fa <__lshift>
    7842:	c8aa                	sw	a0,80(sp)
    7844:	ec051de3          	bnez	a0,771e <_strtod_l+0x800>
    7848:	b125                	j	7470 <_strtod_l+0x552>
    784a:	e969                	bnez	a0,791c <_strtod_l+0x9fe>
    784c:	00100737          	lui	a4,0x100
    7850:	177d                	addi	a4,a4,-1
    7852:	00e477b3          	and	a5,s0,a4
    7856:	040c0963          	beqz	s8,78a8 <_strtod_l+0x98a>
    785a:	04e79963          	bne	a5,a4,78ac <_strtod_l+0x98e>
    785e:	577d                	li	a4,-1
    7860:	020a0063          	beqz	s4,7880 <_strtod_l+0x962>
    7864:	7ff007b7          	lui	a5,0x7ff00
    7868:	8fe1                	and	a5,a5,s0
    786a:	06a006b7          	lui	a3,0x6a00
    786e:	00f6e963          	bltu	a3,a5,7880 <_strtod_l+0x962>
    7872:	83d1                	srli	a5,a5,0x14
    7874:	06b00693          	li	a3,107
    7878:	40f687b3          	sub	a5,a3,a5
    787c:	00f71733          	sll	a4,a4,a5
    7880:	02e49663          	bne	s1,a4,78ac <_strtod_l+0x98e>
    7884:	7ff007b7          	lui	a5,0x7ff00
    7888:	17fd                	addi	a5,a5,-1
    788a:	00f41563          	bne	s0,a5,7894 <_strtod_l+0x976>
    788e:	57fd                	li	a5,-1
    7890:	bef480e3          	beq	s1,a5,7470 <_strtod_l+0x552>
    7894:	7ff005b7          	lui	a1,0x7ff00
    7898:	8de1                	and	a1,a1,s0
    789a:	00100437          	lui	s0,0x100
    789e:	942e                	add	s0,s0,a1
    78a0:	4481                	li	s1,0
    78a2:	f20a1ce3          	bnez	s4,77da <_strtod_l+0x8bc>
    78a6:	bef9                	j	7484 <_strtod_l+0x566>
    78a8:	8fc5                	or	a5,a5,s1
    78aa:	db99                	beqz	a5,77c0 <_strtod_l+0x8a2>
    78ac:	040c8263          	beqz	s9,78f0 <_strtod_l+0x9d2>
    78b0:	008cfcb3          	and	s9,s9,s0
    78b4:	fe0c87e3          	beqz	s9,78a2 <_strtod_l+0x984>
    78b8:	8652                	mv	a2,s4
    78ba:	8526                	mv	a0,s1
    78bc:	85a2                	mv	a1,s0
    78be:	020c0f63          	beqz	s8,78fc <_strtod_l+0x9de>
    78c2:	e0eff0ef          	jal	ra,6ed0 <sulp>
    78c6:	862a                	mv	a2,a0
    78c8:	86ae                	mv	a3,a1
    78ca:	4552                	lw	a0,20(sp)
    78cc:	45e2                	lw	a1,24(sp)
    78ce:	3d6030ef          	jal	ra,aca4 <__adddf3>
    78d2:	84aa                	mv	s1,a0
    78d4:	842e                	mv	s0,a1
    78d6:	b7f1                	j	78a2 <_strtod_l+0x984>
    78d8:	7ff005b7          	lui	a1,0x7ff00
    78dc:	8de1                	and	a1,a1,s0
    78de:	fff00437          	lui	s0,0xfff00
    78e2:	95a2                	add	a1,a1,s0
    78e4:	00100437          	lui	s0,0x100
    78e8:	147d                	addi	s0,s0,-1
    78ea:	8c4d                	or	s0,s0,a1
    78ec:	54fd                	li	s1,-1
    78ee:	bf55                	j	78a2 <_strtod_l+0x984>
    78f0:	5792                	lw	a5,36(sp)
    78f2:	0097fdb3          	and	s11,a5,s1
    78f6:	fa0d86e3          	beqz	s11,78a2 <_strtod_l+0x984>
    78fa:	bf7d                	j	78b8 <_strtod_l+0x99a>
    78fc:	dd4ff0ef          	jal	ra,6ed0 <sulp>
    7900:	862a                	mv	a2,a0
    7902:	86ae                	mv	a3,a1
    7904:	4552                	lw	a0,20(sp)
    7906:	45e2                	lw	a1,24(sp)
    7908:	bedfc0ef          	jal	ra,44f4 <__subdf3>
    790c:	4601                	li	a2,0
    790e:	4681                	li	a3,0
    7910:	84aa                	mv	s1,a0
    7912:	842e                	mv	s0,a1
    7914:	2c1030ef          	jal	ra,b3d4 <__eqdf2>
    7918:	f549                	bnez	a0,78a2 <_strtod_l+0x984>
    791a:	b19d                	j	7580 <_strtod_l+0x662>
    791c:	85ce                	mv	a1,s3
    791e:	855a                	mv	a0,s6
    7920:	39a020ef          	jal	ra,9cba <__ratio>
    7924:	00004797          	auipc	a5,0x4
    7928:	74c78793          	addi	a5,a5,1868 # c070 <__clz_tab+0x178>
    792c:	4390                	lw	a2,0(a5)
    792e:	43d4                	lw	a3,4(a5)
    7930:	8d2a                	mv	s10,a0
    7932:	8dae                	mv	s11,a1
    7934:	e52fc0ef          	jal	ra,3f86 <__ledf2>
    7938:	10a04263          	bgtz	a0,7a3c <_strtod_l+0xb1e>
    793c:	0a0c0163          	beqz	s8,79de <_strtod_l+0xac0>
    7940:	4d81                	li	s11,0
    7942:	3ff00d37          	lui	s10,0x3ff00
    7946:	4701                	li	a4,0
    7948:	3ff007b7          	lui	a5,0x3ff00
    794c:	7ff006b7          	lui	a3,0x7ff00
    7950:	00d47cb3          	and	s9,s0,a3
    7954:	7fe006b7          	lui	a3,0x7fe00
    7958:	16dc9f63          	bne	s9,a3,7ad6 <_strtod_l+0xbb8>
    795c:	d26a                	sw	s10,36(sp)
    795e:	fcb00d37          	lui	s10,0xfcb00
    7962:	9d22                	add	s10,s10,s0
    7964:	8526                	mv	a0,s1
    7966:	85ea                	mv	a1,s10
    7968:	de3e                	sw	a5,60(sp)
    796a:	dc3a                	sw	a4,56(sp)
    796c:	da6e                	sw	s11,52(sp)
    796e:	17e020ef          	jal	ra,9aec <__ulp>
    7972:	58d2                	lw	a7,52(sp)
    7974:	5812                	lw	a6,36(sp)
    7976:	862a                	mv	a2,a0
    7978:	86ae                	mv	a3,a1
    797a:	8546                	mv	a0,a7
    797c:	85c2                	mv	a1,a6
    797e:	ebefc0ef          	jal	ra,403c <__muldf3>
    7982:	8626                	mv	a2,s1
    7984:	86ea                	mv	a3,s10
    7986:	31e030ef          	jal	ra,aca4 <__adddf3>
    798a:	84aa                	mv	s1,a0
    798c:	7ff00537          	lui	a0,0x7ff00
    7990:	00b57633          	and	a2,a0,a1
    7994:	7ca006b7          	lui	a3,0x7ca00
    7998:	5762                	lw	a4,56(sp)
    799a:	57f2                	lw	a5,60(sp)
    799c:	0cd66563          	bltu	a2,a3,7a66 <_strtod_l+0xb48>
    79a0:	4762                	lw	a4,24(sp)
    79a2:	fff50793          	addi	a5,a0,-1 # 7fefffff <_eusrstack+0x5fef7fff>
    79a6:	00e79663          	bne	a5,a4,79b2 <_strtod_l+0xa94>
    79aa:	4752                	lw	a4,20(sp)
    79ac:	57fd                	li	a5,-1
    79ae:	ace781e3          	beq	a5,a4,7470 <_strtod_l+0x552>
    79b2:	7ff007b7          	lui	a5,0x7ff00
    79b6:	fff78413          	addi	s0,a5,-1 # 7fefffff <_eusrstack+0x5fef7fff>
    79ba:	54fd                	li	s1,-1
    79bc:	45c6                	lw	a1,80(sp)
    79be:	854a                	mv	a0,s2
    79c0:	2ed010ef          	jal	ra,94ac <_Bfree>
    79c4:	85de                	mv	a1,s7
    79c6:	854a                	mv	a0,s2
    79c8:	2e5010ef          	jal	ra,94ac <_Bfree>
    79cc:	85ce                	mv	a1,s3
    79ce:	854a                	mv	a0,s2
    79d0:	2dd010ef          	jal	ra,94ac <_Bfree>
    79d4:	85da                	mv	a1,s6
    79d6:	854a                	mv	a0,s2
    79d8:	2d5010ef          	jal	ra,94ac <_Bfree>
    79dc:	b195                	j	7640 <_strtod_l+0x722>
    79de:	e0b1                	bnez	s1,7a22 <_strtod_l+0xb04>
    79e0:	57b2                	lw	a5,44(sp)
    79e2:	8fe1                	and	a5,a5,s0
    79e4:	e7a1                	bnez	a5,7a2c <_strtod_l+0xb0e>
    79e6:	00004797          	auipc	a5,0x4
    79ea:	68278793          	addi	a5,a5,1666 # c068 <__clz_tab+0x170>
    79ee:	4390                	lw	a2,0(a5)
    79f0:	43d4                	lw	a3,4(a5)
    79f2:	856a                	mv	a0,s10
    79f4:	85ee                	mv	a1,s11
    79f6:	d90fc0ef          	jal	ra,3f86 <__ledf2>
    79fa:	02054d63          	bltz	a0,7a34 <_strtod_l+0xb16>
    79fe:	00004797          	auipc	a5,0x4
    7a02:	66278793          	addi	a5,a5,1634 # c060 <__clz_tab+0x168>
    7a06:	4390                	lw	a2,0(a5)
    7a08:	43d4                	lw	a3,4(a5)
    7a0a:	856a                	mv	a0,s10
    7a0c:	85ee                	mv	a1,s11
    7a0e:	e2efc0ef          	jal	ra,403c <__muldf3>
    7a12:	872a                	mv	a4,a0
    7a14:	87ae                	mv	a5,a1
    7a16:	80000d37          	lui	s10,0x80000
    7a1a:	8dba                	mv	s11,a4
    7a1c:	00fd4d33          	xor	s10,s10,a5
    7a20:	b735                	j	794c <_strtod_l+0xa2e>
    7a22:	4785                	li	a5,1
    7a24:	00f49463          	bne	s1,a5,7a2c <_strtod_l+0xb0e>
    7a28:	b4040ce3          	beqz	s0,7580 <_strtod_l+0x662>
    7a2c:	4d81                	li	s11,0
    7a2e:	bff00d37          	lui	s10,0xbff00
    7a32:	bf11                	j	7946 <_strtod_l+0xa28>
    7a34:	4701                	li	a4,0
    7a36:	3fe007b7          	lui	a5,0x3fe00
    7a3a:	bff1                	j	7a16 <_strtod_l+0xaf8>
    7a3c:	00004797          	auipc	a5,0x4
    7a40:	62478793          	addi	a5,a5,1572 # c060 <__clz_tab+0x168>
    7a44:	4390                	lw	a2,0(a5)
    7a46:	43d4                	lw	a3,4(a5)
    7a48:	856a                	mv	a0,s10
    7a4a:	85ee                	mv	a1,s11
    7a4c:	df0fc0ef          	jal	ra,403c <__muldf3>
    7a50:	872a                	mv	a4,a0
    7a52:	87ae                	mv	a5,a1
    7a54:	8d2e                	mv	s10,a1
    7a56:	000c1663          	bnez	s8,7a62 <_strtod_l+0xb44>
    7a5a:	80000d37          	lui	s10,0x80000
    7a5e:	00bd4d33          	xor	s10,s10,a1
    7a62:	8daa                	mv	s11,a0
    7a64:	b5e5                	j	794c <_strtod_l+0xa2e>
    7a66:	03500437          	lui	s0,0x3500
    7a6a:	942e                	add	s0,s0,a1
    7a6c:	f40a18e3          	bnez	s4,79bc <_strtod_l+0xa9e>
    7a70:	7ff006b7          	lui	a3,0x7ff00
    7a74:	8ee1                	and	a3,a3,s0
    7a76:	f4dc93e3          	bne	s9,a3,79bc <_strtod_l+0xa9e>
    7a7a:	85be                	mv	a1,a5
    7a7c:	853a                	mv	a0,a4
    7a7e:	8d3a                	mv	s10,a4
    7a80:	8cbe                	mv	s9,a5
    7a82:	1f9030ef          	jal	ra,b47a <__fixdfsi>
    7a86:	9acfd0ef          	jal	ra,4c32 <__floatsidf>
    7a8a:	862a                	mv	a2,a0
    7a8c:	86ae                	mv	a3,a1
    7a8e:	856a                	mv	a0,s10
    7a90:	85e6                	mv	a1,s9
    7a92:	a63fc0ef          	jal	ra,44f4 <__subdf3>
    7a96:	57b2                	lw	a5,44(sp)
    7a98:	8d2a                	mv	s10,a0
    7a9a:	8dae                	mv	s11,a1
    7a9c:	8fe1                	and	a5,a5,s0
    7a9e:	8fc5                	or	a5,a5,s1
    7aa0:	0187ec33          	or	s8,a5,s8
    7aa4:	0a0c0b63          	beqz	s8,7b5a <_strtod_l+0xc3c>
    7aa8:	00004797          	auipc	a5,0x4
    7aac:	5d878793          	addi	a5,a5,1496 # c080 <__clz_tab+0x188>
    7ab0:	4390                	lw	a2,0(a5)
    7ab2:	43d4                	lw	a3,4(a5)
    7ab4:	cd2fc0ef          	jal	ra,3f86 <__ledf2>
    7ab8:	9c0546e3          	bltz	a0,7484 <_strtod_l+0x566>
    7abc:	00004797          	auipc	a5,0x4
    7ac0:	5cc78793          	addi	a5,a5,1484 # c088 <__clz_tab+0x190>
    7ac4:	4390                	lw	a2,0(a5)
    7ac6:	43d4                	lw	a3,4(a5)
    7ac8:	856a                	mv	a0,s10
    7aca:	85ee                	mv	a1,s11
    7acc:	c0cfc0ef          	jal	ra,3ed8 <__gedf2>
    7ad0:	eea056e3          	blez	a0,79bc <_strtod_l+0xa9e>
    7ad4:	ba45                	j	7484 <_strtod_l+0x566>
    7ad6:	040a0d63          	beqz	s4,7b30 <_strtod_l+0xc12>
    7ada:	06a006b7          	lui	a3,0x6a00
    7ade:	0596e963          	bltu	a3,s9,7b30 <_strtod_l+0xc12>
    7ae2:	00004697          	auipc	a3,0x4
    7ae6:	59668693          	addi	a3,a3,1430 # c078 <__clz_tab+0x180>
    7aea:	4290                	lw	a2,0(a3)
    7aec:	42d4                	lw	a3,4(a3)
    7aee:	853a                	mv	a0,a4
    7af0:	85be                	mv	a1,a5
    7af2:	da3a                	sw	a4,52(sp)
    7af4:	d23e                	sw	a5,36(sp)
    7af6:	c90fc0ef          	jal	ra,3f86 <__ledf2>
    7afa:	5792                	lw	a5,36(sp)
    7afc:	5752                	lw	a4,52(sp)
    7afe:	02a04463          	bgtz	a0,7b26 <_strtod_l+0xc08>
    7b02:	853a                	mv	a0,a4
    7b04:	85be                	mv	a1,a5
    7b06:	1dd030ef          	jal	ra,b4e2 <__fixunsdfsi>
    7b0a:	e111                	bnez	a0,7b0e <_strtod_l+0xbf0>
    7b0c:	4505                	li	a0,1
    7b0e:	231030ef          	jal	ra,b53e <__floatunsidf>
    7b12:	872a                	mv	a4,a0
    7b14:	87ae                	mv	a5,a1
    7b16:	8d2e                	mv	s10,a1
    7b18:	000c1663          	bnez	s8,7b24 <_strtod_l+0xc06>
    7b1c:	80000d37          	lui	s10,0x80000
    7b20:	00bd4d33          	xor	s10,s10,a1
    7b24:	8daa                	mv	s11,a0
    7b26:	06b005b7          	lui	a1,0x6b00
    7b2a:	9d2e                	add	s10,s10,a1
    7b2c:	419d0d33          	sub	s10,s10,s9
    7b30:	4552                	lw	a0,20(sp)
    7b32:	45e2                	lw	a1,24(sp)
    7b34:	da3e                	sw	a5,52(sp)
    7b36:	d23a                	sw	a4,36(sp)
    7b38:	7b5010ef          	jal	ra,9aec <__ulp>
    7b3c:	862a                	mv	a2,a0
    7b3e:	86ae                	mv	a3,a1
    7b40:	856e                	mv	a0,s11
    7b42:	85ea                	mv	a1,s10
    7b44:	cf8fc0ef          	jal	ra,403c <__muldf3>
    7b48:	4652                	lw	a2,20(sp)
    7b4a:	46e2                	lw	a3,24(sp)
    7b4c:	158030ef          	jal	ra,aca4 <__adddf3>
    7b50:	84aa                	mv	s1,a0
    7b52:	842e                	mv	s0,a1
    7b54:	57d2                	lw	a5,52(sp)
    7b56:	5712                	lw	a4,36(sp)
    7b58:	bf11                	j	7a6c <_strtod_l+0xb4e>
    7b5a:	00004797          	auipc	a5,0x4
    7b5e:	53678793          	addi	a5,a5,1334 # c090 <__clz_tab+0x198>
    7b62:	4390                	lw	a2,0(a5)
    7b64:	43d4                	lw	a3,4(a5)
    7b66:	c20fc0ef          	jal	ra,3f86 <__ledf2>
    7b6a:	e40559e3          	bgez	a0,79bc <_strtod_l+0xa9e>
    7b6e:	ba19                	j	7484 <_strtod_l+0x566>
    7b70:	06500713          	li	a4,101
    7b74:	00e78763          	beq	a5,a4,7b82 <_strtod_l+0xc64>
    7b78:	04500713          	li	a4,69
    7b7c:	4505                	li	a0,1
    7b7e:	eee79963          	bne	a5,a4,7270 <_strtod_l+0x352>
    7b82:	4b01                	li	s6,0
    7b84:	4505                	li	a0,1
    7b86:	d84ff06f          	j	710a <_strtod_l+0x1ec>

00007b8a <_strtod_r>:
    7b8a:	81018793          	addi	a5,gp,-2032 # 20000200 <_impure_ptr>
    7b8e:	439c                	lw	a5,0(a5)
    7b90:	5394                	lw	a3,32(a5)
    7b92:	e689                	bnez	a3,7b9c <_strtod_r+0x12>
    7b94:	1fff8697          	auipc	a3,0x1fff8
    7b98:	4ec68693          	addi	a3,a3,1260 # 20000080 <__global_locale>
    7b9c:	b82ff06f          	j	6f1e <_strtod_l>

00007ba0 <_strtol_l.isra.0>:
    7ba0:	7179                	addi	sp,sp,-48
    7ba2:	d04a                	sw	s2,32(sp)
    7ba4:	ce4e                	sw	s3,28(sp)
    7ba6:	d606                	sw	ra,44(sp)
    7ba8:	d422                	sw	s0,40(sp)
    7baa:	d226                	sw	s1,36(sp)
    7bac:	89aa                	mv	s3,a0
    7bae:	892e                	mv	s2,a1
    7bb0:	00190493          	addi	s1,s2,1
    7bb4:	fff4c403          	lbu	s0,-1(s1)
    7bb8:	853a                	mv	a0,a4
    7bba:	c636                	sw	a3,12(sp)
    7bbc:	c432                	sw	a2,8(sp)
    7bbe:	c22e                	sw	a1,4(sp)
    7bc0:	c03a                	sw	a4,0(sp)
    7bc2:	7e4010ef          	jal	ra,93a6 <__locale_ctype_ptr_l>
    7bc6:	9522                	add	a0,a0,s0
    7bc8:	311c                	lbu	a5,1(a0)
    7bca:	4702                	lw	a4,0(sp)
    7bcc:	4592                	lw	a1,4(sp)
    7bce:	8ba1                	andi	a5,a5,8
    7bd0:	4622                	lw	a2,8(sp)
    7bd2:	46b2                	lw	a3,12(sp)
    7bd4:	e3d1                	bnez	a5,7c58 <_strtol_l.isra.0+0xb8>
    7bd6:	02d00793          	li	a5,45
    7bda:	08f41163          	bne	s0,a5,7c5c <_strtol_l.isra.0+0xbc>
    7bde:	209c                	lbu	a5,0(s1)
    7be0:	4305                	li	t1,1
    7be2:	00290493          	addi	s1,s2,2
    7be6:	c6e5                	beqz	a3,7cce <_strtol_l.isra.0+0x12e>
    7be8:	4741                	li	a4,16
    7bea:	02e69063          	bne	a3,a4,7c0a <_strtol_l.isra.0+0x6a>
    7bee:	03000713          	li	a4,48
    7bf2:	00e79c63          	bne	a5,a4,7c0a <_strtol_l.isra.0+0x6a>
    7bf6:	209c                	lbu	a5,0(s1)
    7bf8:	05800713          	li	a4,88
    7bfc:	0df7f793          	andi	a5,a5,223
    7c00:	0ce79263          	bne	a5,a4,7cc4 <_strtol_l.isra.0+0x124>
    7c04:	309c                	lbu	a5,1(s1)
    7c06:	46c1                	li	a3,16
    7c08:	0489                	addi	s1,s1,2
    7c0a:	800008b7          	lui	a7,0x80000
    7c0e:	00031463          	bnez	t1,7c16 <_strtol_l.isra.0+0x76>
    7c12:	fff8c893          	not	a7,a7
    7c16:	02d8ff33          	remu	t5,a7,a3
    7c1a:	4801                	li	a6,0
    7c1c:	4501                	li	a0,0
    7c1e:	4fa5                	li	t6,9
    7c20:	4ee5                	li	t4,25
    7c22:	52fd                	li	t0,-1
    7c24:	02d8de33          	divu	t3,a7,a3
    7c28:	fd078713          	addi	a4,a5,-48
    7c2c:	04efe363          	bltu	t6,a4,7c72 <_strtol_l.isra.0+0xd2>
    7c30:	87ba                	mv	a5,a4
    7c32:	04d7de63          	bge	a5,a3,7c8e <_strtol_l.isra.0+0xee>
    7c36:	00580d63          	beq	a6,t0,7c50 <_strtol_l.isra.0+0xb0>
    7c3a:	587d                	li	a6,-1
    7c3c:	00ae6a63          	bltu	t3,a0,7c50 <_strtol_l.isra.0+0xb0>
    7c40:	00ae1463          	bne	t3,a0,7c48 <_strtol_l.isra.0+0xa8>
    7c44:	00ff4663          	blt	t5,a5,7c50 <_strtol_l.isra.0+0xb0>
    7c48:	4805                	li	a6,1
    7c4a:	02a68533          	mul	a0,a3,a0
    7c4e:	953e                	add	a0,a0,a5
    7c50:	0485                	addi	s1,s1,1
    7c52:	fff4c783          	lbu	a5,-1(s1)
    7c56:	bfc9                	j	7c28 <_strtol_l.isra.0+0x88>
    7c58:	8926                	mv	s2,s1
    7c5a:	bf99                	j	7bb0 <_strtol_l.isra.0+0x10>
    7c5c:	02b00793          	li	a5,43
    7c60:	00f40563          	beq	s0,a5,7c6a <_strtol_l.isra.0+0xca>
    7c64:	87a2                	mv	a5,s0
    7c66:	4301                	li	t1,0
    7c68:	bfbd                	j	7be6 <_strtol_l.isra.0+0x46>
    7c6a:	209c                	lbu	a5,0(s1)
    7c6c:	00290493          	addi	s1,s2,2
    7c70:	bfdd                	j	7c66 <_strtol_l.isra.0+0xc6>
    7c72:	fbf78713          	addi	a4,a5,-65
    7c76:	00eee563          	bltu	t4,a4,7c80 <_strtol_l.isra.0+0xe0>
    7c7a:	fc978793          	addi	a5,a5,-55
    7c7e:	bf55                	j	7c32 <_strtol_l.isra.0+0x92>
    7c80:	f9f78713          	addi	a4,a5,-97
    7c84:	00eee563          	bltu	t4,a4,7c8e <_strtol_l.isra.0+0xee>
    7c88:	fa978793          	addi	a5,a5,-87
    7c8c:	b75d                	j	7c32 <_strtol_l.isra.0+0x92>
    7c8e:	57fd                	li	a5,-1
    7c90:	00f81f63          	bne	a6,a5,7cae <_strtol_l.isra.0+0x10e>
    7c94:	02200793          	li	a5,34
    7c98:	00f9a023          	sw	a5,0(s3)
    7c9c:	8546                	mv	a0,a7
    7c9e:	ee19                	bnez	a2,7cbc <_strtol_l.isra.0+0x11c>
    7ca0:	50b2                	lw	ra,44(sp)
    7ca2:	5422                	lw	s0,40(sp)
    7ca4:	5492                	lw	s1,36(sp)
    7ca6:	5902                	lw	s2,32(sp)
    7ca8:	49f2                	lw	s3,28(sp)
    7caa:	6145                	addi	sp,sp,48
    7cac:	8082                	ret
    7cae:	00030463          	beqz	t1,7cb6 <_strtol_l.isra.0+0x116>
    7cb2:	40a00533          	neg	a0,a0
    7cb6:	d66d                	beqz	a2,7ca0 <_strtol_l.isra.0+0x100>
    7cb8:	00080463          	beqz	a6,7cc0 <_strtol_l.isra.0+0x120>
    7cbc:	fff48593          	addi	a1,s1,-1
    7cc0:	c20c                	sw	a1,0(a2)
    7cc2:	bff9                	j	7ca0 <_strtol_l.isra.0+0x100>
    7cc4:	03000793          	li	a5,48
    7cc8:	f2a9                	bnez	a3,7c0a <_strtol_l.isra.0+0x6a>
    7cca:	46a1                	li	a3,8
    7ccc:	bf3d                	j	7c0a <_strtol_l.isra.0+0x6a>
    7cce:	03000713          	li	a4,48
    7cd2:	f2e782e3          	beq	a5,a4,7bf6 <_strtol_l.isra.0+0x56>
    7cd6:	46a9                	li	a3,10
    7cd8:	bf0d                	j	7c0a <_strtol_l.isra.0+0x6a>

00007cda <_strtol_r>:
    7cda:	81018793          	addi	a5,gp,-2032 # 20000200 <_impure_ptr>
    7cde:	439c                	lw	a5,0(a5)
    7ce0:	5398                	lw	a4,32(a5)
    7ce2:	e709                	bnez	a4,7cec <_strtol_r+0x12>
    7ce4:	1fff8717          	auipc	a4,0x1fff8
    7ce8:	39c70713          	addi	a4,a4,924 # 20000080 <__global_locale>
    7cec:	eb5ff06f          	j	7ba0 <_strtol_l.isra.0>

00007cf0 <quorem>:
    7cf0:	1101                	addi	sp,sp,-32
    7cf2:	cc22                	sw	s0,24(sp)
    7cf4:	491c                	lw	a5,16(a0)
    7cf6:	4980                	lw	s0,16(a1)
    7cf8:	ce06                	sw	ra,28(sp)
    7cfa:	ca26                	sw	s1,20(sp)
    7cfc:	c84a                	sw	s2,16(sp)
    7cfe:	c64e                	sw	s3,12(sp)
    7d00:	c452                	sw	s4,8(sp)
    7d02:	c256                	sw	s5,4(sp)
    7d04:	1287c163          	blt	a5,s0,7e26 <quorem+0x136>
    7d08:	147d                	addi	s0,s0,-1
    7d0a:	00241813          	slli	a6,s0,0x2
    7d0e:	01458993          	addi	s3,a1,20 # 6b00014 <_data_lma+0x6af3c50>
    7d12:	01098a33          	add	s4,s3,a6
    7d16:	01450913          	addi	s2,a0,20
    7d1a:	984a                	add	a6,a6,s2
    7d1c:	000a2783          	lw	a5,0(s4)
    7d20:	00082703          	lw	a4,0(a6)
    7d24:	0785                	addi	a5,a5,1
    7d26:	02f754b3          	divu	s1,a4,a5
    7d2a:	06f76663          	bltu	a4,a5,7d96 <quorem+0xa6>
    7d2e:	68c1                	lui	a7,0x10
    7d30:	834e                	mv	t1,s3
    7d32:	8e4a                	mv	t3,s2
    7d34:	4e81                	li	t4,0
    7d36:	4f01                	li	t5,0
    7d38:	18fd                	addi	a7,a7,-1
    7d3a:	0311                	addi	t1,t1,4
    7d3c:	ffc32603          	lw	a2,-4(t1)
    7d40:	0e11                	addi	t3,t3,4
    7d42:	01167733          	and	a4,a2,a7
    7d46:	8241                	srli	a2,a2,0x10
    7d48:	02970733          	mul	a4,a4,s1
    7d4c:	02960633          	mul	a2,a2,s1
    7d50:	9776                	add	a4,a4,t4
    7d52:	01075693          	srli	a3,a4,0x10
    7d56:	011777b3          	and	a5,a4,a7
    7d5a:	40ff07b3          	sub	a5,t5,a5
    7d5e:	9636                	add	a2,a2,a3
    7d60:	ffce2683          	lw	a3,-4(t3)
    7d64:	01065e93          	srli	t4,a2,0x10
    7d68:	01167633          	and	a2,a2,a7
    7d6c:	0116f733          	and	a4,a3,a7
    7d70:	97ba                	add	a5,a5,a4
    7d72:	82c1                	srli	a3,a3,0x10
    7d74:	4107d713          	srai	a4,a5,0x10
    7d78:	8e91                	sub	a3,a3,a2
    7d7a:	96ba                	add	a3,a3,a4
    7d7c:	4106df13          	srai	t5,a3,0x10
    7d80:	0117f7b3          	and	a5,a5,a7
    7d84:	06c2                	slli	a3,a3,0x10
    7d86:	8fd5                	or	a5,a5,a3
    7d88:	fefe2e23          	sw	a5,-4(t3)
    7d8c:	fa6a77e3          	bgeu	s4,t1,7d3a <quorem+0x4a>
    7d90:	00082783          	lw	a5,0(a6)
    7d94:	cbbd                	beqz	a5,7e0a <quorem+0x11a>
    7d96:	8aaa                	mv	s5,a0
    7d98:	431010ef          	jal	ra,99c8 <__mcmp>
    7d9c:	04054963          	bltz	a0,7dee <quorem+0xfe>
    7da0:	6641                	lui	a2,0x10
    7da2:	0485                	addi	s1,s1,1
    7da4:	85ca                	mv	a1,s2
    7da6:	4501                	li	a0,0
    7da8:	167d                	addi	a2,a2,-1
    7daa:	0991                	addi	s3,s3,4
    7dac:	ffc9a803          	lw	a6,-4(s3)
    7db0:	4198                	lw	a4,0(a1)
    7db2:	0591                	addi	a1,a1,4
    7db4:	00c876b3          	and	a3,a6,a2
    7db8:	8d15                	sub	a0,a0,a3
    7dba:	00c776b3          	and	a3,a4,a2
    7dbe:	96aa                	add	a3,a3,a0
    7dc0:	01075793          	srli	a5,a4,0x10
    7dc4:	01085813          	srli	a6,a6,0x10
    7dc8:	4106d713          	srai	a4,a3,0x10
    7dcc:	410787b3          	sub	a5,a5,a6
    7dd0:	97ba                	add	a5,a5,a4
    7dd2:	4107d513          	srai	a0,a5,0x10
    7dd6:	8ef1                	and	a3,a3,a2
    7dd8:	07c2                	slli	a5,a5,0x10
    7dda:	8fd5                	or	a5,a5,a3
    7ddc:	fef5ae23          	sw	a5,-4(a1)
    7de0:	fd3a75e3          	bgeu	s4,s3,7daa <quorem+0xba>
    7de4:	00241793          	slli	a5,s0,0x2
    7de8:	97ca                	add	a5,a5,s2
    7dea:	4398                	lw	a4,0(a5)
    7dec:	c71d                	beqz	a4,7e1a <quorem+0x12a>
    7dee:	8526                	mv	a0,s1
    7df0:	40f2                	lw	ra,28(sp)
    7df2:	4462                	lw	s0,24(sp)
    7df4:	44d2                	lw	s1,20(sp)
    7df6:	4942                	lw	s2,16(sp)
    7df8:	49b2                	lw	s3,12(sp)
    7dfa:	4a22                	lw	s4,8(sp)
    7dfc:	4a92                	lw	s5,4(sp)
    7dfe:	6105                	addi	sp,sp,32
    7e00:	8082                	ret
    7e02:	00082783          	lw	a5,0(a6)
    7e06:	e789                	bnez	a5,7e10 <quorem+0x120>
    7e08:	147d                	addi	s0,s0,-1
    7e0a:	1871                	addi	a6,a6,-4
    7e0c:	ff096be3          	bltu	s2,a6,7e02 <quorem+0x112>
    7e10:	c900                	sw	s0,16(a0)
    7e12:	b751                	j	7d96 <quorem+0xa6>
    7e14:	4398                	lw	a4,0(a5)
    7e16:	e709                	bnez	a4,7e20 <quorem+0x130>
    7e18:	147d                	addi	s0,s0,-1
    7e1a:	17f1                	addi	a5,a5,-4
    7e1c:	fef96ce3          	bltu	s2,a5,7e14 <quorem+0x124>
    7e20:	008aa823          	sw	s0,16(s5)
    7e24:	b7e9                	j	7dee <quorem+0xfe>
    7e26:	4501                	li	a0,0
    7e28:	b7e1                	j	7df0 <quorem+0x100>

00007e2a <_dtoa_r>:
    7e2a:	7175                	addi	sp,sp,-144
    7e2c:	d83e                	sw	a5,48(sp)
    7e2e:	515c                	lw	a5,36(a0)
    7e30:	c522                	sw	s0,136(sp)
    7e32:	c326                	sw	s1,132(sp)
    7e34:	c14a                	sw	s2,128(sp)
    7e36:	dece                	sw	s3,124(sp)
    7e38:	dcd2                	sw	s4,120(sp)
    7e3a:	d4e2                	sw	s8,104(sp)
    7e3c:	c706                	sw	ra,140(sp)
    7e3e:	dad6                	sw	s5,116(sp)
    7e40:	d8da                	sw	s6,112(sp)
    7e42:	d6de                	sw	s7,108(sp)
    7e44:	d2e6                	sw	s9,100(sp)
    7e46:	d0ea                	sw	s10,96(sp)
    7e48:	ceee                	sw	s11,92(sp)
    7e4a:	c236                	sw	a3,4(sp)
    7e4c:	c63a                	sw	a4,12(sp)
    7e4e:	ca46                	sw	a7,20(sp)
    7e50:	84aa                	mv	s1,a0
    7e52:	842e                	mv	s0,a1
    7e54:	8932                	mv	s2,a2
    7e56:	89c2                	mv	s3,a6
    7e58:	8a2e                	mv	s4,a1
    7e5a:	8c32                	mv	s8,a2
    7e5c:	ef89                	bnez	a5,7e76 <_dtoa_r+0x4c>
    7e5e:	4541                	li	a0,16
    7e60:	56a010ef          	jal	ra,93ca <malloc>
    7e64:	d0c8                	sw	a0,36(s1)
    7e66:	00052223          	sw	zero,4(a0)
    7e6a:	00052423          	sw	zero,8(a0)
    7e6e:	00052023          	sw	zero,0(a0)
    7e72:	00052623          	sw	zero,12(a0)
    7e76:	50dc                	lw	a5,36(s1)
    7e78:	438c                	lw	a1,0(a5)
    7e7a:	cd89                	beqz	a1,7e94 <_dtoa_r+0x6a>
    7e7c:	43d8                	lw	a4,4(a5)
    7e7e:	4785                	li	a5,1
    7e80:	8526                	mv	a0,s1
    7e82:	00e797b3          	sll	a5,a5,a4
    7e86:	c59c                	sw	a5,8(a1)
    7e88:	c1d8                	sw	a4,4(a1)
    7e8a:	622010ef          	jal	ra,94ac <_Bfree>
    7e8e:	50dc                	lw	a5,36(s1)
    7e90:	0007a023          	sw	zero,0(a5)
    7e94:	04095363          	bgez	s2,7eda <_dtoa_r+0xb0>
    7e98:	4785                	li	a5,1
    7e9a:	00191c13          	slli	s8,s2,0x1
    7e9e:	00f9a023          	sw	a5,0(s3)
    7ea2:	001c5c13          	srli	s8,s8,0x1
    7ea6:	7ff007b7          	lui	a5,0x7ff00
    7eaa:	00fc7733          	and	a4,s8,a5
    7eae:	06f71463          	bne	a4,a5,7f16 <_dtoa_r+0xec>
    7eb2:	5742                	lw	a4,48(sp)
    7eb4:	6789                	lui	a5,0x2
    7eb6:	0c32                	slli	s8,s8,0xc
    7eb8:	70f78793          	addi	a5,a5,1807 # 270f <SPI2_IRQHandler+0x1>
    7ebc:	00cc5c13          	srli	s8,s8,0xc
    7ec0:	c31c                	sw	a5,0(a4)
    7ec2:	008c6c33          	or	s8,s8,s0
    7ec6:	320c00e3          	beqz	s8,89e6 <_dtoa_r+0xbbc>
    7eca:	47d2                	lw	a5,20(sp)
    7ecc:	eb91                	bnez	a5,7ee0 <_dtoa_r+0xb6>
    7ece:	00004797          	auipc	a5,0x4
    7ed2:	26e78793          	addi	a5,a5,622 # c13c <tinytens+0x6c>
    7ed6:	c03e                	sw	a5,0(sp)
    7ed8:	a839                	j	7ef6 <_dtoa_r+0xcc>
    7eda:	0009a023          	sw	zero,0(s3)
    7ede:	b7e1                	j	7ea6 <_dtoa_r+0x7c>
    7ee0:	00004797          	auipc	a5,0x4
    7ee4:	25c78793          	addi	a5,a5,604 # c13c <tinytens+0x6c>
    7ee8:	c03e                	sw	a5,0(sp)
    7eea:	00004797          	auipc	a5,0x4
    7eee:	25578793          	addi	a5,a5,597 # c13f <tinytens+0x6f>
    7ef2:	4752                	lw	a4,20(sp)
    7ef4:	c31c                	sw	a5,0(a4)
    7ef6:	40ba                	lw	ra,140(sp)
    7ef8:	442a                	lw	s0,136(sp)
    7efa:	4502                	lw	a0,0(sp)
    7efc:	449a                	lw	s1,132(sp)
    7efe:	490a                	lw	s2,128(sp)
    7f00:	59f6                	lw	s3,124(sp)
    7f02:	5a66                	lw	s4,120(sp)
    7f04:	5ad6                	lw	s5,116(sp)
    7f06:	5b46                	lw	s6,112(sp)
    7f08:	5bb6                	lw	s7,108(sp)
    7f0a:	5c26                	lw	s8,104(sp)
    7f0c:	5c96                	lw	s9,100(sp)
    7f0e:	5d06                	lw	s10,96(sp)
    7f10:	4df6                	lw	s11,92(sp)
    7f12:	6149                	addi	sp,sp,144
    7f14:	8082                	ret
    7f16:	4601                	li	a2,0
    7f18:	4681                	li	a3,0
    7f1a:	8522                	mv	a0,s0
    7f1c:	85e2                	mv	a1,s8
    7f1e:	ce22                	sw	s0,28(sp)
    7f20:	d462                	sw	s8,40(sp)
    7f22:	4b2030ef          	jal	ra,b3d4 <__eqdf2>
    7f26:	e105                	bnez	a0,7f46 <_dtoa_r+0x11c>
    7f28:	5742                	lw	a4,48(sp)
    7f2a:	4785                	li	a5,1
    7f2c:	c31c                	sw	a5,0(a4)
    7f2e:	00004797          	auipc	a5,0x4
    7f32:	0e278793          	addi	a5,a5,226 # c010 <__clz_tab+0x118>
    7f36:	c03e                	sw	a5,0(sp)
    7f38:	47d2                	lw	a5,20(sp)
    7f3a:	dfd5                	beqz	a5,7ef6 <_dtoa_r+0xcc>
    7f3c:	00004797          	auipc	a5,0x4
    7f40:	0d578793          	addi	a5,a5,213 # c011 <__clz_tab+0x119>
    7f44:	b77d                	j	7ef2 <_dtoa_r+0xc8>
    7f46:	00b8                	addi	a4,sp,72
    7f48:	00f4                	addi	a3,sp,76
    7f4a:	8662                	mv	a2,s8
    7f4c:	85a2                	mv	a1,s0
    7f4e:	8526                	mv	a0,s1
    7f50:	014c5913          	srli	s2,s8,0x14
    7f54:	493010ef          	jal	ra,9be6 <__d2b>
    7f58:	7ff97913          	andi	s2,s2,2047
    7f5c:	89aa                	mv	s3,a0
    7f5e:	4aa6                	lw	s5,72(sp)
    7f60:	10090d63          	beqz	s2,807a <_dtoa_r+0x250>
    7f64:	57a2                	lw	a5,40(sp)
    7f66:	4572                	lw	a0,28(sp)
    7f68:	c0190913          	addi	s2,s2,-1023
    7f6c:	00c79593          	slli	a1,a5,0xc
    7f70:	81b1                	srli	a1,a1,0xc
    7f72:	3ff007b7          	lui	a5,0x3ff00
    7f76:	8ddd                	or	a1,a1,a5
    7f78:	dc02                	sw	zero,56(sp)
    7f7a:	00004797          	auipc	a5,0x4
    7f7e:	17e78793          	addi	a5,a5,382 # c0f8 <tinytens+0x28>
    7f82:	4390                	lw	a2,0(a5)
    7f84:	43d4                	lw	a3,4(a5)
    7f86:	d6efc0ef          	jal	ra,44f4 <__subdf3>
    7f8a:	00004797          	auipc	a5,0x4
    7f8e:	17678793          	addi	a5,a5,374 # c100 <tinytens+0x30>
    7f92:	4390                	lw	a2,0(a5)
    7f94:	43d4                	lw	a3,4(a5)
    7f96:	8a6fc0ef          	jal	ra,403c <__muldf3>
    7f9a:	00004797          	auipc	a5,0x4
    7f9e:	16e78793          	addi	a5,a5,366 # c108 <tinytens+0x38>
    7fa2:	4390                	lw	a2,0(a5)
    7fa4:	43d4                	lw	a3,4(a5)
    7fa6:	4ff020ef          	jal	ra,aca4 <__adddf3>
    7faa:	8b2a                	mv	s6,a0
    7fac:	854a                	mv	a0,s2
    7fae:	8bae                	mv	s7,a1
    7fb0:	c83fc0ef          	jal	ra,4c32 <__floatsidf>
    7fb4:	00004797          	auipc	a5,0x4
    7fb8:	15c78793          	addi	a5,a5,348 # c110 <tinytens+0x40>
    7fbc:	4390                	lw	a2,0(a5)
    7fbe:	43d4                	lw	a3,4(a5)
    7fc0:	87cfc0ef          	jal	ra,403c <__muldf3>
    7fc4:	862a                	mv	a2,a0
    7fc6:	86ae                	mv	a3,a1
    7fc8:	855a                	mv	a0,s6
    7fca:	85de                	mv	a1,s7
    7fcc:	4d9020ef          	jal	ra,aca4 <__adddf3>
    7fd0:	8b2a                	mv	s6,a0
    7fd2:	8bae                	mv	s7,a1
    7fd4:	4a6030ef          	jal	ra,b47a <__fixdfsi>
    7fd8:	842a                	mv	s0,a0
    7fda:	4601                	li	a2,0
    7fdc:	4681                	li	a3,0
    7fde:	855a                	mv	a0,s6
    7fe0:	85de                	mv	a1,s7
    7fe2:	fa5fb0ef          	jal	ra,3f86 <__ledf2>
    7fe6:	00055b63          	bgez	a0,7ffc <_dtoa_r+0x1d2>
    7fea:	8522                	mv	a0,s0
    7fec:	c47fc0ef          	jal	ra,4c32 <__floatsidf>
    7ff0:	865a                	mv	a2,s6
    7ff2:	86de                	mv	a3,s7
    7ff4:	3e0030ef          	jal	ra,b3d4 <__eqdf2>
    7ff8:	c111                	beqz	a0,7ffc <_dtoa_r+0x1d2>
    7ffa:	147d                	addi	s0,s0,-1
    7ffc:	4705                	li	a4,1
    7ffe:	47d9                	li	a5,22
    8000:	d63a                	sw	a4,44(sp)
    8002:	0287e363          	bltu	a5,s0,8028 <_dtoa_r+0x1fe>
    8006:	00341713          	slli	a4,s0,0x3
    800a:	00004797          	auipc	a5,0x4
    800e:	1ce78793          	addi	a5,a5,462 # c1d8 <__mprec_tens>
    8012:	97ba                	add	a5,a5,a4
    8014:	4390                	lw	a2,0(a5)
    8016:	43d4                	lw	a3,4(a5)
    8018:	4572                	lw	a0,28(sp)
    801a:	55a2                	lw	a1,40(sp)
    801c:	f6bfb0ef          	jal	ra,3f86 <__ledf2>
    8020:	00055363          	bgez	a0,8026 <_dtoa_r+0x1fc>
    8024:	147d                	addi	s0,s0,-1
    8026:	d602                	sw	zero,44(sp)
    8028:	412a8933          	sub	s2,s5,s2
    802c:	fff90b93          	addi	s7,s2,-1
    8030:	4b01                	li	s6,0
    8032:	000bd663          	bgez	s7,803e <_dtoa_r+0x214>
    8036:	4b05                	li	s6,1
    8038:	412b0b33          	sub	s6,s6,s2
    803c:	4b81                	li	s7,0
    803e:	06044e63          	bltz	s0,80ba <_dtoa_r+0x290>
    8042:	9ba2                	add	s7,s7,s0
    8044:	cc22                	sw	s0,24(sp)
    8046:	4a81                	li	s5,0
    8048:	4712                	lw	a4,4(sp)
    804a:	47a5                	li	a5,9
    804c:	14e7e563          	bltu	a5,a4,8196 <_dtoa_r+0x36c>
    8050:	4795                	li	a5,5
    8052:	4c85                	li	s9,1
    8054:	00e7d663          	bge	a5,a4,8060 <_dtoa_r+0x236>
    8058:	ffc70793          	addi	a5,a4,-4
    805c:	c23e                	sw	a5,4(sp)
    805e:	4c81                	li	s9,0
    8060:	4712                	lw	a4,4(sp)
    8062:	478d                	li	a5,3
    8064:	10f70e63          	beq	a4,a5,8180 <_dtoa_r+0x356>
    8068:	04e7cf63          	blt	a5,a4,80c6 <_dtoa_r+0x29c>
    806c:	4789                	li	a5,2
    806e:	c802                	sw	zero,16(sp)
    8070:	06f70d63          	beq	a4,a5,80ea <_dtoa_r+0x2c0>
    8074:	4785                	li	a5,1
    8076:	c83e                	sw	a5,16(sp)
    8078:	a08d                	j	80da <_dtoa_r+0x2b0>
    807a:	4936                	lw	s2,76(sp)
    807c:	02000793          	li	a5,32
    8080:	9956                	add	s2,s2,s5
    8082:	43290713          	addi	a4,s2,1074
    8086:	02e7d563          	bge	a5,a4,80b0 <_dtoa_r+0x286>
    808a:	04000513          	li	a0,64
    808e:	8d19                	sub	a0,a0,a4
    8090:	41290793          	addi	a5,s2,1042
    8094:	00ac1533          	sll	a0,s8,a0
    8098:	00f45433          	srl	s0,s0,a5
    809c:	8d41                	or	a0,a0,s0
    809e:	4a0030ef          	jal	ra,b53e <__floatunsidf>
    80a2:	fe1007b7          	lui	a5,0xfe100
    80a6:	95be                	add	a1,a1,a5
    80a8:	4785                	li	a5,1
    80aa:	197d                	addi	s2,s2,-1
    80ac:	dc3e                	sw	a5,56(sp)
    80ae:	b5f1                	j	7f7a <_dtoa_r+0x150>
    80b0:	40e78533          	sub	a0,a5,a4
    80b4:	00a41533          	sll	a0,s0,a0
    80b8:	b7dd                	j	809e <_dtoa_r+0x274>
    80ba:	408b0b33          	sub	s6,s6,s0
    80be:	40800ab3          	neg	s5,s0
    80c2:	cc02                	sw	zero,24(sp)
    80c4:	b751                	j	8048 <_dtoa_r+0x21e>
    80c6:	4712                	lw	a4,4(sp)
    80c8:	4791                	li	a5,4
    80ca:	00f70e63          	beq	a4,a5,80e6 <_dtoa_r+0x2bc>
    80ce:	4705                	li	a4,1
    80d0:	c83a                	sw	a4,16(sp)
    80d2:	4712                	lw	a4,4(sp)
    80d4:	4795                	li	a5,5
    80d6:	0af70663          	beq	a4,a5,8182 <_dtoa_r+0x358>
    80da:	57fd                	li	a5,-1
    80dc:	c43e                	sw	a5,8(sp)
    80de:	5dfd                	li	s11,-1
    80e0:	47c9                	li	a5,18
    80e2:	c602                	sw	zero,12(sp)
    80e4:	a819                	j	80fa <_dtoa_r+0x2d0>
    80e6:	4785                	li	a5,1
    80e8:	c83e                	sw	a5,16(sp)
    80ea:	47b2                	lw	a5,12(sp)
    80ec:	0af04863          	bgtz	a5,819c <_dtoa_r+0x372>
    80f0:	4785                	li	a5,1
    80f2:	4705                	li	a4,1
    80f4:	c43e                	sw	a5,8(sp)
    80f6:	4d85                	li	s11,1
    80f8:	c63a                	sw	a4,12(sp)
    80fa:	0244a903          	lw	s2,36(s1)
    80fe:	4711                	li	a4,4
    8100:	00092223          	sw	zero,4(s2)
    8104:	01470693          	addi	a3,a4,20
    8108:	00492583          	lw	a1,4(s2)
    810c:	08d7fc63          	bgeu	a5,a3,81a4 <_dtoa_r+0x37a>
    8110:	8526                	mv	a0,s1
    8112:	30e010ef          	jal	ra,9420 <_Balloc>
    8116:	50dc                	lw	a5,36(s1)
    8118:	00a92023          	sw	a0,0(s2)
    811c:	439c                	lw	a5,0(a5)
    811e:	c03e                	sw	a5,0(sp)
    8120:	47b9                	li	a5,14
    8122:	1db7e663          	bltu	a5,s11,82ee <_dtoa_r+0x4c4>
    8126:	1c0c8463          	beqz	s9,82ee <_dtoa_r+0x4c4>
    812a:	0a805e63          	blez	s0,81e6 <_dtoa_r+0x3bc>
    812e:	00f47793          	andi	a5,s0,15
    8132:	00379713          	slli	a4,a5,0x3
    8136:	40445c93          	srai	s9,s0,0x4
    813a:	00004797          	auipc	a5,0x4
    813e:	09e78793          	addi	a5,a5,158 # c1d8 <__mprec_tens>
    8142:	97ba                	add	a5,a5,a4
    8144:	010cf693          	andi	a3,s9,16
    8148:	4398                	lw	a4,0(a5)
    814a:	4909                	li	s2,2
    814c:	43dc                	lw	a5,4(a5)
    814e:	c685                	beqz	a3,8176 <_dtoa_r+0x34c>
    8150:	00004697          	auipc	a3,0x4
    8154:	06068693          	addi	a3,a3,96 # c1b0 <__mprec_bigtens>
    8158:	5290                	lw	a2,32(a3)
    815a:	4572                	lw	a0,28(sp)
    815c:	52d4                	lw	a3,36(a3)
    815e:	55a2                	lw	a1,40(sp)
    8160:	d03a                	sw	a4,32(sp)
    8162:	d23e                	sw	a5,36(sp)
    8164:	fc0fb0ef          	jal	ra,3924 <__divdf3>
    8168:	5702                	lw	a4,32(sp)
    816a:	5792                	lw	a5,36(sp)
    816c:	00fcfc93          	andi	s9,s9,15
    8170:	8a2a                	mv	s4,a0
    8172:	8c2e                	mv	s8,a1
    8174:	490d                	li	s2,3
    8176:	00004d17          	auipc	s10,0x4
    817a:	03ad0d13          	addi	s10,s10,58 # c1b0 <__mprec_bigtens>
    817e:	a889                	j	81d0 <_dtoa_r+0x3a6>
    8180:	c802                	sw	zero,16(sp)
    8182:	47b2                	lw	a5,12(sp)
    8184:	97a2                	add	a5,a5,s0
    8186:	c43e                	sw	a5,8(sp)
    8188:	00178d93          	addi	s11,a5,1
    818c:	87ee                	mv	a5,s11
    818e:	f7b046e3          	bgtz	s11,80fa <_dtoa_r+0x2d0>
    8192:	4785                	li	a5,1
    8194:	b79d                	j	80fa <_dtoa_r+0x2d0>
    8196:	4c85                	li	s9,1
    8198:	c202                	sw	zero,4(sp)
    819a:	bde9                	j	8074 <_dtoa_r+0x24a>
    819c:	47b2                	lw	a5,12(sp)
    819e:	c43e                	sw	a5,8(sp)
    81a0:	8dbe                	mv	s11,a5
    81a2:	bfa1                	j	80fa <_dtoa_r+0x2d0>
    81a4:	0585                	addi	a1,a1,1
    81a6:	00b92223          	sw	a1,4(s2)
    81aa:	0706                	slli	a4,a4,0x1
    81ac:	bfa1                	j	8104 <_dtoa_r+0x2da>
    81ae:	001cf693          	andi	a3,s9,1
    81b2:	ce81                	beqz	a3,81ca <_dtoa_r+0x3a0>
    81b4:	000d2603          	lw	a2,0(s10)
    81b8:	004d2683          	lw	a3,4(s10)
    81bc:	853a                	mv	a0,a4
    81be:	85be                	mv	a1,a5
    81c0:	e7dfb0ef          	jal	ra,403c <__muldf3>
    81c4:	0905                	addi	s2,s2,1
    81c6:	872a                	mv	a4,a0
    81c8:	87ae                	mv	a5,a1
    81ca:	401cdc93          	srai	s9,s9,0x1
    81ce:	0d21                	addi	s10,s10,8
    81d0:	fc0c9fe3          	bnez	s9,81ae <_dtoa_r+0x384>
    81d4:	863a                	mv	a2,a4
    81d6:	86be                	mv	a3,a5
    81d8:	8552                	mv	a0,s4
    81da:	85e2                	mv	a1,s8
    81dc:	f48fb0ef          	jal	ra,3924 <__divdf3>
    81e0:	8a2a                	mv	s4,a0
    81e2:	8c2e                	mv	s8,a1
    81e4:	a081                	j	8224 <_dtoa_r+0x3fa>
    81e6:	4909                	li	s2,2
    81e8:	cc15                	beqz	s0,8224 <_dtoa_r+0x3fa>
    81ea:	40800cb3          	neg	s9,s0
    81ee:	00fcf793          	andi	a5,s9,15
    81f2:	00379713          	slli	a4,a5,0x3
    81f6:	00004797          	auipc	a5,0x4
    81fa:	fe278793          	addi	a5,a5,-30 # c1d8 <__mprec_tens>
    81fe:	97ba                	add	a5,a5,a4
    8200:	4390                	lw	a2,0(a5)
    8202:	43d4                	lw	a3,4(a5)
    8204:	4572                	lw	a0,28(sp)
    8206:	55a2                	lw	a1,40(sp)
    8208:	404cdc93          	srai	s9,s9,0x4
    820c:	00004d17          	auipc	s10,0x4
    8210:	fa4d0d13          	addi	s10,s10,-92 # c1b0 <__mprec_bigtens>
    8214:	e29fb0ef          	jal	ra,403c <__muldf3>
    8218:	8a2a                	mv	s4,a0
    821a:	8c2e                	mv	s8,a1
    821c:	4781                	li	a5,0
    821e:	120c9b63          	bnez	s9,8354 <_dtoa_r+0x52a>
    8222:	ffdd                	bnez	a5,81e0 <_dtoa_r+0x3b6>
    8224:	57b2                	lw	a5,44(sp)
    8226:	14078663          	beqz	a5,8372 <_dtoa_r+0x548>
    822a:	00004717          	auipc	a4,0x4
    822e:	e3e70713          	addi	a4,a4,-450 # c068 <__clz_tab+0x170>
    8232:	4310                	lw	a2,0(a4)
    8234:	4354                	lw	a3,4(a4)
    8236:	8552                	mv	a0,s4
    8238:	85e2                	mv	a1,s8
    823a:	d052                	sw	s4,32(sp)
    823c:	d4bfb0ef          	jal	ra,3f86 <__ledf2>
    8240:	12055963          	bgez	a0,8372 <_dtoa_r+0x548>
    8244:	120d8a63          	beqz	s11,8378 <_dtoa_r+0x54e>
    8248:	47a2                	lw	a5,8(sp)
    824a:	0af05063          	blez	a5,82ea <_dtoa_r+0x4c0>
    824e:	00004717          	auipc	a4,0x4
    8252:	eca70713          	addi	a4,a4,-310 # c118 <tinytens+0x48>
    8256:	5782                	lw	a5,32(sp)
    8258:	4310                	lw	a2,0(a4)
    825a:	4354                	lw	a3,4(a4)
    825c:	853e                	mv	a0,a5
    825e:	85e2                	mv	a1,s8
    8260:	dddfb0ef          	jal	ra,403c <__muldf3>
    8264:	47a2                	lw	a5,8(sp)
    8266:	fff40d13          	addi	s10,s0,-1 # 34fffff <_data_lma+0x34f3c3b>
    826a:	8a2a                	mv	s4,a0
    826c:	8c2e                	mv	s8,a1
    826e:	0905                	addi	s2,s2,1
    8270:	8762                	mv	a4,s8
    8272:	854a                	mv	a0,s2
    8274:	de3e                	sw	a5,60(sp)
    8276:	da52                	sw	s4,52(sp)
    8278:	8cba                	mv	s9,a4
    827a:	d03a                	sw	a4,32(sp)
    827c:	9b7fc0ef          	jal	ra,4c32 <__floatsidf>
    8280:	5852                	lw	a6,52(sp)
    8282:	5702                	lw	a4,32(sp)
    8284:	fcc00937          	lui	s2,0xfcc00
    8288:	8642                	mv	a2,a6
    828a:	86ba                	mv	a3,a4
    828c:	db1fb0ef          	jal	ra,403c <__muldf3>
    8290:	00004697          	auipc	a3,0x4
    8294:	e9068693          	addi	a3,a3,-368 # c120 <tinytens+0x50>
    8298:	4290                	lw	a2,0(a3)
    829a:	42d4                	lw	a3,4(a3)
    829c:	8c52                	mv	s8,s4
    829e:	207020ef          	jal	ra,aca4 <__adddf3>
    82a2:	57f2                	lw	a5,60(sp)
    82a4:	8a2a                	mv	s4,a0
    82a6:	992e                	add	s2,s2,a1
    82a8:	ebf9                	bnez	a5,837e <_dtoa_r+0x554>
    82aa:	00004797          	auipc	a5,0x4
    82ae:	e7e78793          	addi	a5,a5,-386 # c128 <tinytens+0x58>
    82b2:	5852                	lw	a6,52(sp)
    82b4:	5702                	lw	a4,32(sp)
    82b6:	4390                	lw	a2,0(a5)
    82b8:	43d4                	lw	a3,4(a5)
    82ba:	8542                	mv	a0,a6
    82bc:	85ba                	mv	a1,a4
    82be:	a36fc0ef          	jal	ra,44f4 <__subdf3>
    82c2:	8652                	mv	a2,s4
    82c4:	86ca                	mv	a3,s2
    82c6:	8c2a                	mv	s8,a0
    82c8:	8cae                	mv	s9,a1
    82ca:	c0ffb0ef          	jal	ra,3ed8 <__gedf2>
    82ce:	54a04663          	bgtz	a0,881a <_dtoa_r+0x9f0>
    82d2:	800007b7          	lui	a5,0x80000
    82d6:	0127c7b3          	xor	a5,a5,s2
    82da:	8652                	mv	a2,s4
    82dc:	86be                	mv	a3,a5
    82de:	8562                	mv	a0,s8
    82e0:	85e6                	mv	a1,s9
    82e2:	ca5fb0ef          	jal	ra,3f86 <__ledf2>
    82e6:	52054763          	bltz	a0,8814 <_dtoa_r+0x9ea>
    82ea:	4a72                	lw	s4,28(sp)
    82ec:	5c22                	lw	s8,40(sp)
    82ee:	47b6                	lw	a5,76(sp)
    82f0:	3007c363          	bltz	a5,85f6 <_dtoa_r+0x7cc>
    82f4:	4739                	li	a4,14
    82f6:	30874063          	blt	a4,s0,85f6 <_dtoa_r+0x7cc>
    82fa:	00341713          	slli	a4,s0,0x3
    82fe:	00004797          	auipc	a5,0x4
    8302:	eda78793          	addi	a5,a5,-294 # c1d8 <__mprec_tens>
    8306:	97ba                	add	a5,a5,a4
    8308:	0007ab03          	lw	s6,0(a5)
    830c:	0047ab83          	lw	s7,4(a5)
    8310:	47b2                	lw	a5,12(sp)
    8312:	2007d163          	bgez	a5,8514 <_dtoa_r+0x6ea>
    8316:	1fb04f63          	bgtz	s11,8514 <_dtoa_r+0x6ea>
    831a:	4e0d9d63          	bnez	s11,8814 <_dtoa_r+0x9ea>
    831e:	00004797          	auipc	a5,0x4
    8322:	e0a78793          	addi	a5,a5,-502 # c128 <tinytens+0x58>
    8326:	4390                	lw	a2,0(a5)
    8328:	43d4                	lw	a3,4(a5)
    832a:	855a                	mv	a0,s6
    832c:	85de                	mv	a1,s7
    832e:	d0ffb0ef          	jal	ra,403c <__muldf3>
    8332:	8652                	mv	a2,s4
    8334:	86e2                	mv	a3,s8
    8336:	ba3fb0ef          	jal	ra,3ed8 <__gedf2>
    833a:	4a81                	li	s5,0
    833c:	4901                	li	s2,0
    833e:	4a055363          	bgez	a0,87e4 <_dtoa_r+0x9ba>
    8342:	4782                	lw	a5,0(sp)
    8344:	4702                	lw	a4,0(sp)
    8346:	0405                	addi	s0,s0,1
    8348:	00178a13          	addi	s4,a5,1
    834c:	03100793          	li	a5,49
    8350:	a31c                	sb	a5,0(a4)
    8352:	a969                	j	87ec <_dtoa_r+0x9c2>
    8354:	001cf713          	andi	a4,s9,1
    8358:	cb09                	beqz	a4,836a <_dtoa_r+0x540>
    835a:	000d2603          	lw	a2,0(s10)
    835e:	004d2683          	lw	a3,4(s10)
    8362:	0905                	addi	s2,s2,1
    8364:	cd9fb0ef          	jal	ra,403c <__muldf3>
    8368:	4785                	li	a5,1
    836a:	401cdc93          	srai	s9,s9,0x1
    836e:	0d21                	addi	s10,s10,8
    8370:	b57d                	j	821e <_dtoa_r+0x3f4>
    8372:	8d22                	mv	s10,s0
    8374:	87ee                	mv	a5,s11
    8376:	bded                	j	8270 <_dtoa_r+0x446>
    8378:	8d22                	mv	s10,s0
    837a:	4781                	li	a5,0
    837c:	bdd5                	j	8270 <_dtoa_r+0x446>
    837e:	fff78693          	addi	a3,a5,-1
    8382:	00369613          	slli	a2,a3,0x3
    8386:	00004697          	auipc	a3,0x4
    838a:	e5268693          	addi	a3,a3,-430 # c1d8 <__mprec_tens>
    838e:	96b2                	add	a3,a3,a2
    8390:	4288                	lw	a0,0(a3)
    8392:	42cc                	lw	a1,4(a3)
    8394:	4682                	lw	a3,0(sp)
    8396:	97b6                	add	a5,a5,a3
    8398:	da3e                	sw	a5,52(sp)
    839a:	47c2                	lw	a5,16(sp)
    839c:	c3e9                	beqz	a5,845e <_dtoa_r+0x634>
    839e:	00004797          	auipc	a5,0x4
    83a2:	cc278793          	addi	a5,a5,-830 # c060 <__clz_tab+0x168>
    83a6:	862a                	mv	a2,a0
    83a8:	86ae                	mv	a3,a1
    83aa:	4388                	lw	a0,0(a5)
    83ac:	43cc                	lw	a1,4(a5)
    83ae:	de4a                	sw	s2,60(sp)
    83b0:	d052                	sw	s4,32(sp)
    83b2:	d72fb0ef          	jal	ra,3924 <__divdf3>
    83b6:	5802                	lw	a6,32(sp)
    83b8:	5772                	lw	a4,60(sp)
    83ba:	00004917          	auipc	s2,0x4
    83be:	d5e90913          	addi	s2,s2,-674 # c118 <tinytens+0x48>
    83c2:	8642                	mv	a2,a6
    83c4:	86ba                	mv	a3,a4
    83c6:	92efc0ef          	jal	ra,44f4 <__subdf3>
    83ca:	4a02                	lw	s4,0(sp)
    83cc:	d02a                	sw	a0,32(sp)
    83ce:	d22e                	sw	a1,36(sp)
    83d0:	85e6                	mv	a1,s9
    83d2:	8562                	mv	a0,s8
    83d4:	0a6030ef          	jal	ra,b47a <__fixdfsi>
    83d8:	de2a                	sw	a0,60(sp)
    83da:	859fc0ef          	jal	ra,4c32 <__floatsidf>
    83de:	862a                	mv	a2,a0
    83e0:	86ae                	mv	a3,a1
    83e2:	8562                	mv	a0,s8
    83e4:	85e6                	mv	a1,s9
    83e6:	90efc0ef          	jal	ra,44f4 <__subdf3>
    83ea:	57f2                	lw	a5,60(sp)
    83ec:	8c2a                	mv	s8,a0
    83ee:	8cae                	mv	s9,a1
    83f0:	862a                	mv	a2,a0
    83f2:	86ae                	mv	a3,a1
    83f4:	5502                	lw	a0,32(sp)
    83f6:	5592                	lw	a1,36(sp)
    83f8:	0a05                	addi	s4,s4,1
    83fa:	03078793          	addi	a5,a5,48
    83fe:	fefa0fa3          	sb	a5,-1(s4)
    8402:	ad7fb0ef          	jal	ra,3ed8 <__gedf2>
    8406:	0ea04863          	bgtz	a0,84f6 <_dtoa_r+0x6cc>
    840a:	00004797          	auipc	a5,0x4
    840e:	c5e78793          	addi	a5,a5,-930 # c068 <__clz_tab+0x170>
    8412:	4388                	lw	a0,0(a5)
    8414:	43cc                	lw	a1,4(a5)
    8416:	8662                	mv	a2,s8
    8418:	86e6                	mv	a3,s9
    841a:	8dafc0ef          	jal	ra,44f4 <__subdf3>
    841e:	862a                	mv	a2,a0
    8420:	86ae                	mv	a3,a1
    8422:	5502                	lw	a0,32(sp)
    8424:	5592                	lw	a1,36(sp)
    8426:	ab3fb0ef          	jal	ra,3ed8 <__gedf2>
    842a:	18a04263          	bgtz	a0,85ae <_dtoa_r+0x784>
    842e:	57d2                	lw	a5,52(sp)
    8430:	eafa0de3          	beq	s4,a5,82ea <_dtoa_r+0x4c0>
    8434:	00092603          	lw	a2,0(s2)
    8438:	00492683          	lw	a3,4(s2)
    843c:	5502                	lw	a0,32(sp)
    843e:	5592                	lw	a1,36(sp)
    8440:	bfdfb0ef          	jal	ra,403c <__muldf3>
    8444:	00092603          	lw	a2,0(s2)
    8448:	00492683          	lw	a3,4(s2)
    844c:	d02a                	sw	a0,32(sp)
    844e:	d22e                	sw	a1,36(sp)
    8450:	8562                	mv	a0,s8
    8452:	85e6                	mv	a1,s9
    8454:	be9fb0ef          	jal	ra,403c <__muldf3>
    8458:	8c2a                	mv	s8,a0
    845a:	8cae                	mv	s9,a1
    845c:	bf95                	j	83d0 <_dtoa_r+0x5a6>
    845e:	8652                	mv	a2,s4
    8460:	86ca                	mv	a3,s2
    8462:	bdbfb0ef          	jal	ra,403c <__muldf3>
    8466:	5a52                	lw	s4,52(sp)
    8468:	4902                	lw	s2,0(sp)
    846a:	d02a                	sw	a0,32(sp)
    846c:	d22e                	sw	a1,36(sp)
    846e:	85e6                	mv	a1,s9
    8470:	8562                	mv	a0,s8
    8472:	008030ef          	jal	ra,b47a <__fixdfsi>
    8476:	de2a                	sw	a0,60(sp)
    8478:	fbafc0ef          	jal	ra,4c32 <__floatsidf>
    847c:	862a                	mv	a2,a0
    847e:	86ae                	mv	a3,a1
    8480:	8562                	mv	a0,s8
    8482:	85e6                	mv	a1,s9
    8484:	870fc0ef          	jal	ra,44f4 <__subdf3>
    8488:	5772                	lw	a4,60(sp)
    848a:	57d2                	lw	a5,52(sp)
    848c:	0905                	addi	s2,s2,1
    848e:	03070713          	addi	a4,a4,48
    8492:	fee90fa3          	sb	a4,-1(s2)
    8496:	8c2a                	mv	s8,a0
    8498:	8cae                	mv	s9,a1
    849a:	06f91263          	bne	s2,a5,84fe <_dtoa_r+0x6d4>
    849e:	00004917          	auipc	s2,0x4
    84a2:	bc290913          	addi	s2,s2,-1086 # c060 <__clz_tab+0x168>
    84a6:	00092603          	lw	a2,0(s2)
    84aa:	00492683          	lw	a3,4(s2)
    84ae:	5502                	lw	a0,32(sp)
    84b0:	5592                	lw	a1,36(sp)
    84b2:	7f2020ef          	jal	ra,aca4 <__adddf3>
    84b6:	862a                	mv	a2,a0
    84b8:	86ae                	mv	a3,a1
    84ba:	8562                	mv	a0,s8
    84bc:	85e6                	mv	a1,s9
    84be:	a1bfb0ef          	jal	ra,3ed8 <__gedf2>
    84c2:	0ea04663          	bgtz	a0,85ae <_dtoa_r+0x784>
    84c6:	5602                	lw	a2,32(sp)
    84c8:	5692                	lw	a3,36(sp)
    84ca:	00092503          	lw	a0,0(s2)
    84ce:	00492583          	lw	a1,4(s2)
    84d2:	822fc0ef          	jal	ra,44f4 <__subdf3>
    84d6:	862a                	mv	a2,a0
    84d8:	86ae                	mv	a3,a1
    84da:	8562                	mv	a0,s8
    84dc:	85e6                	mv	a1,s9
    84de:	aa9fb0ef          	jal	ra,3f86 <__ledf2>
    84e2:	03000793          	li	a5,48
    84e6:	e00552e3          	bgez	a0,82ea <_dtoa_r+0x4c0>
    84ea:	fffa4703          	lbu	a4,-1(s4)
    84ee:	fffa0693          	addi	a3,s4,-1
    84f2:	00f70463          	beq	a4,a5,84fa <_dtoa_r+0x6d0>
    84f6:	846a                	mv	s0,s10
    84f8:	a859                	j	858e <_dtoa_r+0x764>
    84fa:	8a36                	mv	s4,a3
    84fc:	b7fd                	j	84ea <_dtoa_r+0x6c0>
    84fe:	00004797          	auipc	a5,0x4
    8502:	c1a78793          	addi	a5,a5,-998 # c118 <tinytens+0x48>
    8506:	4390                	lw	a2,0(a5)
    8508:	43d4                	lw	a3,4(a5)
    850a:	b33fb0ef          	jal	ra,403c <__muldf3>
    850e:	8c2a                	mv	s8,a0
    8510:	8cae                	mv	s9,a1
    8512:	bfb1                	j	846e <_dtoa_r+0x644>
    8514:	87e2                	mv	a5,s8
    8516:	8cbe                	mv	s9,a5
    8518:	4782                	lw	a5,0(sp)
    851a:	8c52                	mv	s8,s4
    851c:	00004a97          	auipc	s5,0x4
    8520:	bfca8a93          	addi	s5,s5,-1028 # c118 <tinytens+0x48>
    8524:	00178913          	addi	s2,a5,1
    8528:	9dbe                	add	s11,s11,a5
    852a:	865a                	mv	a2,s6
    852c:	86de                	mv	a3,s7
    852e:	8562                	mv	a0,s8
    8530:	85e6                	mv	a1,s9
    8532:	bf2fb0ef          	jal	ra,3924 <__divdf3>
    8536:	745020ef          	jal	ra,b47a <__fixdfsi>
    853a:	8d2a                	mv	s10,a0
    853c:	ef6fc0ef          	jal	ra,4c32 <__floatsidf>
    8540:	865a                	mv	a2,s6
    8542:	86de                	mv	a3,s7
    8544:	af9fb0ef          	jal	ra,403c <__muldf3>
    8548:	862a                	mv	a2,a0
    854a:	86ae                	mv	a3,a1
    854c:	8562                	mv	a0,s8
    854e:	85e6                	mv	a1,s9
    8550:	fa5fb0ef          	jal	ra,44f4 <__subdf3>
    8554:	030d0793          	addi	a5,s10,48
    8558:	fef90fa3          	sb	a5,-1(s2)
    855c:	862a                	mv	a2,a0
    855e:	86ae                	mv	a3,a1
    8560:	8a4a                	mv	s4,s2
    8562:	072d9b63          	bne	s11,s2,85d8 <_dtoa_r+0x7ae>
    8566:	73e020ef          	jal	ra,aca4 <__adddf3>
    856a:	865a                	mv	a2,s6
    856c:	86de                	mv	a3,s7
    856e:	8c2a                	mv	s8,a0
    8570:	8cae                	mv	s9,a1
    8572:	967fb0ef          	jal	ra,3ed8 <__gedf2>
    8576:	02a04b63          	bgtz	a0,85ac <_dtoa_r+0x782>
    857a:	865a                	mv	a2,s6
    857c:	86de                	mv	a3,s7
    857e:	8562                	mv	a0,s8
    8580:	85e6                	mv	a1,s9
    8582:	653020ef          	jal	ra,b3d4 <__eqdf2>
    8586:	e501                	bnez	a0,858e <_dtoa_r+0x764>
    8588:	001d7793          	andi	a5,s10,1
    858c:	e385                	bnez	a5,85ac <_dtoa_r+0x782>
    858e:	85ce                	mv	a1,s3
    8590:	8526                	mv	a0,s1
    8592:	71b000ef          	jal	ra,94ac <_Bfree>
    8596:	57c2                	lw	a5,48(sp)
    8598:	000a0023          	sb	zero,0(s4)
    859c:	0405                	addi	s0,s0,1
    859e:	c380                	sw	s0,0(a5)
    85a0:	47d2                	lw	a5,20(sp)
    85a2:	94078ae3          	beqz	a5,7ef6 <_dtoa_r+0xcc>
    85a6:	0147a023          	sw	s4,0(a5)
    85aa:	b2b1                	j	7ef6 <_dtoa_r+0xcc>
    85ac:	8d22                	mv	s10,s0
    85ae:	03900713          	li	a4,57
    85b2:	fffa4683          	lbu	a3,-1(s4)
    85b6:	fffa0793          	addi	a5,s4,-1
    85ba:	00e69963          	bne	a3,a4,85cc <_dtoa_r+0x7a2>
    85be:	4682                	lw	a3,0(sp)
    85c0:	00f69a63          	bne	a3,a5,85d4 <_dtoa_r+0x7aa>
    85c4:	03000713          	li	a4,48
    85c8:	0d05                	addi	s10,s10,1
    85ca:	a298                	sb	a4,0(a3)
    85cc:	2398                	lbu	a4,0(a5)
    85ce:	0705                	addi	a4,a4,1
    85d0:	a398                	sb	a4,0(a5)
    85d2:	b715                	j	84f6 <_dtoa_r+0x6cc>
    85d4:	8a3e                	mv	s4,a5
    85d6:	bff1                	j	85b2 <_dtoa_r+0x788>
    85d8:	000aa603          	lw	a2,0(s5)
    85dc:	004aa683          	lw	a3,4(s5)
    85e0:	0905                	addi	s2,s2,1
    85e2:	a5bfb0ef          	jal	ra,403c <__muldf3>
    85e6:	4601                	li	a2,0
    85e8:	4681                	li	a3,0
    85ea:	8c2a                	mv	s8,a0
    85ec:	8cae                	mv	s9,a1
    85ee:	5e7020ef          	jal	ra,b3d4 <__eqdf2>
    85f2:	fd05                	bnez	a0,852a <_dtoa_r+0x700>
    85f4:	bf69                	j	858e <_dtoa_r+0x764>
    85f6:	4742                	lw	a4,16(sp)
    85f8:	10070063          	beqz	a4,86f8 <_dtoa_r+0x8ce>
    85fc:	4692                	lw	a3,4(sp)
    85fe:	4705                	li	a4,1
    8600:	0cd74563          	blt	a4,a3,86ca <_dtoa_r+0x8a0>
    8604:	5762                	lw	a4,56(sp)
    8606:	43378793          	addi	a5,a5,1075
    860a:	e709                	bnez	a4,8614 <_dtoa_r+0x7ea>
    860c:	4726                	lw	a4,72(sp)
    860e:	03600793          	li	a5,54
    8612:	8f99                	sub	a5,a5,a4
    8614:	8d56                	mv	s10,s5
    8616:	8cda                	mv	s9,s6
    8618:	4585                	li	a1,1
    861a:	8526                	mv	a0,s1
    861c:	9b3e                	add	s6,s6,a5
    861e:	9bbe                	add	s7,s7,a5
    8620:	0bc010ef          	jal	ra,96dc <__i2b>
    8624:	892a                	mv	s2,a0
    8626:	01905e63          	blez	s9,8642 <_dtoa_r+0x818>
    862a:	01705c63          	blez	s7,8642 <_dtoa_r+0x818>
    862e:	87e6                	mv	a5,s9
    8630:	019bd363          	bge	s7,s9,8636 <_dtoa_r+0x80c>
    8634:	87de                	mv	a5,s7
    8636:	40fb0b33          	sub	s6,s6,a5
    863a:	40fc8cb3          	sub	s9,s9,a5
    863e:	40fb8bb3          	sub	s7,s7,a5
    8642:	040a8063          	beqz	s5,8682 <_dtoa_r+0x858>
    8646:	47c2                	lw	a5,16(sp)
    8648:	cfc5                	beqz	a5,8700 <_dtoa_r+0x8d6>
    864a:	03a05463          	blez	s10,8672 <_dtoa_r+0x848>
    864e:	85ca                	mv	a1,s2
    8650:	866a                	mv	a2,s10
    8652:	8526                	mv	a0,s1
    8654:	1e8010ef          	jal	ra,983c <__pow5mult>
    8658:	864e                	mv	a2,s3
    865a:	85aa                	mv	a1,a0
    865c:	892a                	mv	s2,a0
    865e:	8526                	mv	a0,s1
    8660:	098010ef          	jal	ra,96f8 <__multiply>
    8664:	ce2a                	sw	a0,28(sp)
    8666:	85ce                	mv	a1,s3
    8668:	8526                	mv	a0,s1
    866a:	643000ef          	jal	ra,94ac <_Bfree>
    866e:	47f2                	lw	a5,28(sp)
    8670:	89be                	mv	s3,a5
    8672:	41aa8633          	sub	a2,s5,s10
    8676:	c611                	beqz	a2,8682 <_dtoa_r+0x858>
    8678:	85ce                	mv	a1,s3
    867a:	8526                	mv	a0,s1
    867c:	1c0010ef          	jal	ra,983c <__pow5mult>
    8680:	89aa                	mv	s3,a0
    8682:	4585                	li	a1,1
    8684:	8526                	mv	a0,s1
    8686:	056010ef          	jal	ra,96dc <__i2b>
    868a:	47e2                	lw	a5,24(sp)
    868c:	8aaa                	mv	s5,a0
    868e:	06f05b63          	blez	a5,8704 <_dtoa_r+0x8da>
    8692:	863e                	mv	a2,a5
    8694:	85aa                	mv	a1,a0
    8696:	8526                	mv	a0,s1
    8698:	1a4010ef          	jal	ra,983c <__pow5mult>
    869c:	4712                	lw	a4,4(sp)
    869e:	4785                	li	a5,1
    86a0:	8aaa                	mv	s5,a0
    86a2:	4d01                	li	s10,0
    86a4:	06e7c863          	blt	a5,a4,8714 <_dtoa_r+0x8ea>
    86a8:	4d01                	li	s10,0
    86aa:	060a1263          	bnez	s4,870e <_dtoa_r+0x8e4>
    86ae:	00cc1793          	slli	a5,s8,0xc
    86b2:	8d52                	mv	s10,s4
    86b4:	efa9                	bnez	a5,870e <_dtoa_r+0x8e4>
    86b6:	7ff005b7          	lui	a1,0x7ff00
    86ba:	00bc7c33          	and	s8,s8,a1
    86be:	040c0863          	beqz	s8,870e <_dtoa_r+0x8e4>
    86c2:	0b05                	addi	s6,s6,1
    86c4:	0b85                	addi	s7,s7,1
    86c6:	4d05                	li	s10,1
    86c8:	a099                	j	870e <_dtoa_r+0x8e4>
    86ca:	fffd8d13          	addi	s10,s11,-1
    86ce:	01aaca63          	blt	s5,s10,86e2 <_dtoa_r+0x8b8>
    86d2:	41aa8d33          	sub	s10,s5,s10
    86d6:	000dde63          	bgez	s11,86f2 <_dtoa_r+0x8c8>
    86da:	41bb0cb3          	sub	s9,s6,s11
    86de:	4781                	li	a5,0
    86e0:	bf25                	j	8618 <_dtoa_r+0x7ee>
    86e2:	47e2                	lw	a5,24(sp)
    86e4:	415d0ab3          	sub	s5,s10,s5
    86e8:	97d6                	add	a5,a5,s5
    86ea:	cc3e                	sw	a5,24(sp)
    86ec:	8aea                	mv	s5,s10
    86ee:	4d01                	li	s10,0
    86f0:	b7dd                	j	86d6 <_dtoa_r+0x8ac>
    86f2:	8cda                	mv	s9,s6
    86f4:	87ee                	mv	a5,s11
    86f6:	b70d                	j	8618 <_dtoa_r+0x7ee>
    86f8:	8d56                	mv	s10,s5
    86fa:	8cda                	mv	s9,s6
    86fc:	4901                	li	s2,0
    86fe:	b725                	j	8626 <_dtoa_r+0x7fc>
    8700:	8656                	mv	a2,s5
    8702:	bf9d                	j	8678 <_dtoa_r+0x84e>
    8704:	4712                	lw	a4,4(sp)
    8706:	4785                	li	a5,1
    8708:	4d01                	li	s10,0
    870a:	f8e7dfe3          	bge	a5,a4,86a8 <_dtoa_r+0x87e>
    870e:	47e2                	lw	a5,24(sp)
    8710:	4505                	li	a0,1
    8712:	cf89                	beqz	a5,872c <_dtoa_r+0x902>
    8714:	010aa783          	lw	a5,16(s5)
    8718:	078d                	addi	a5,a5,3
    871a:	078a                	slli	a5,a5,0x2
    871c:	97d6                	add	a5,a5,s5
    871e:	43c8                	lw	a0,4(a5)
    8720:	70d000ef          	jal	ra,962c <__hi0bits>
    8724:	02000793          	li	a5,32
    8728:	40a78533          	sub	a0,a5,a0
    872c:	955e                	add	a0,a0,s7
    872e:	897d                	andi	a0,a0,31
    8730:	c151                	beqz	a0,87b4 <_dtoa_r+0x98a>
    8732:	02000793          	li	a5,32
    8736:	8f89                	sub	a5,a5,a0
    8738:	4711                	li	a4,4
    873a:	06f75a63          	bge	a4,a5,87ae <_dtoa_r+0x984>
    873e:	47f1                	li	a5,28
    8740:	40a78533          	sub	a0,a5,a0
    8744:	9b2a                	add	s6,s6,a0
    8746:	9caa                	add	s9,s9,a0
    8748:	9baa                	add	s7,s7,a0
    874a:	01605863          	blez	s6,875a <_dtoa_r+0x930>
    874e:	85ce                	mv	a1,s3
    8750:	865a                	mv	a2,s6
    8752:	8526                	mv	a0,s1
    8754:	1a6010ef          	jal	ra,98fa <__lshift>
    8758:	89aa                	mv	s3,a0
    875a:	01705863          	blez	s7,876a <_dtoa_r+0x940>
    875e:	85d6                	mv	a1,s5
    8760:	865e                	mv	a2,s7
    8762:	8526                	mv	a0,s1
    8764:	196010ef          	jal	ra,98fa <__lshift>
    8768:	8aaa                	mv	s5,a0
    876a:	57b2                	lw	a5,44(sp)
    876c:	c7b1                	beqz	a5,87b8 <_dtoa_r+0x98e>
    876e:	85d6                	mv	a1,s5
    8770:	854e                	mv	a0,s3
    8772:	256010ef          	jal	ra,99c8 <__mcmp>
    8776:	04055163          	bgez	a0,87b8 <_dtoa_r+0x98e>
    877a:	85ce                	mv	a1,s3
    877c:	4681                	li	a3,0
    877e:	4629                	li	a2,10
    8780:	8526                	mv	a0,s1
    8782:	56f000ef          	jal	ra,94f0 <__multadd>
    8786:	47c2                	lw	a5,16(sp)
    8788:	147d                	addi	s0,s0,-1
    878a:	89aa                	mv	s3,a0
    878c:	26078b63          	beqz	a5,8a02 <_dtoa_r+0xbd8>
    8790:	85ca                	mv	a1,s2
    8792:	4681                	li	a3,0
    8794:	4629                	li	a2,10
    8796:	8526                	mv	a0,s1
    8798:	559000ef          	jal	ra,94f0 <__multadd>
    879c:	47a2                	lw	a5,8(sp)
    879e:	892a                	mv	s2,a0
    87a0:	08f04563          	bgtz	a5,882a <_dtoa_r+0xa00>
    87a4:	4712                	lw	a4,4(sp)
    87a6:	4789                	li	a5,2
    87a8:	08e7d163          	bge	a5,a4,882a <_dtoa_r+0xa00>
    87ac:	a829                	j	87c6 <_dtoa_r+0x99c>
    87ae:	f8e78ee3          	beq	a5,a4,874a <_dtoa_r+0x920>
    87b2:	853e                	mv	a0,a5
    87b4:	0571                	addi	a0,a0,28
    87b6:	b779                	j	8744 <_dtoa_r+0x91a>
    87b8:	07b04563          	bgtz	s11,8822 <_dtoa_r+0x9f8>
    87bc:	4712                	lw	a4,4(sp)
    87be:	4789                	li	a5,2
    87c0:	06e7d163          	bge	a5,a4,8822 <_dtoa_r+0x9f8>
    87c4:	c46e                	sw	s11,8(sp)
    87c6:	47a2                	lw	a5,8(sp)
    87c8:	ef91                	bnez	a5,87e4 <_dtoa_r+0x9ba>
    87ca:	85d6                	mv	a1,s5
    87cc:	4681                	li	a3,0
    87ce:	4615                	li	a2,5
    87d0:	8526                	mv	a0,s1
    87d2:	51f000ef          	jal	ra,94f0 <__multadd>
    87d6:	8aaa                	mv	s5,a0
    87d8:	85aa                	mv	a1,a0
    87da:	854e                	mv	a0,s3
    87dc:	1ec010ef          	jal	ra,99c8 <__mcmp>
    87e0:	b6a041e3          	bgtz	a0,8342 <_dtoa_r+0x518>
    87e4:	47b2                	lw	a5,12(sp)
    87e6:	4a02                	lw	s4,0(sp)
    87e8:	fff7c413          	not	s0,a5
    87ec:	4b01                	li	s6,0
    87ee:	85d6                	mv	a1,s5
    87f0:	8526                	mv	a0,s1
    87f2:	4bb000ef          	jal	ra,94ac <_Bfree>
    87f6:	d8090ce3          	beqz	s2,858e <_dtoa_r+0x764>
    87fa:	000b0863          	beqz	s6,880a <_dtoa_r+0x9e0>
    87fe:	012b0663          	beq	s6,s2,880a <_dtoa_r+0x9e0>
    8802:	85da                	mv	a1,s6
    8804:	8526                	mv	a0,s1
    8806:	4a7000ef          	jal	ra,94ac <_Bfree>
    880a:	85ca                	mv	a1,s2
    880c:	8526                	mv	a0,s1
    880e:	49f000ef          	jal	ra,94ac <_Bfree>
    8812:	bbb5                	j	858e <_dtoa_r+0x764>
    8814:	4a81                	li	s5,0
    8816:	4901                	li	s2,0
    8818:	b7f1                	j	87e4 <_dtoa_r+0x9ba>
    881a:	846a                	mv	s0,s10
    881c:	4a81                	li	s5,0
    881e:	4901                	li	s2,0
    8820:	b60d                	j	8342 <_dtoa_r+0x518>
    8822:	47c2                	lw	a5,16(sp)
    8824:	c46e                	sw	s11,8(sp)
    8826:	1e078563          	beqz	a5,8a10 <_dtoa_r+0xbe6>
    882a:	01905863          	blez	s9,883a <_dtoa_r+0xa10>
    882e:	85ca                	mv	a1,s2
    8830:	8666                	mv	a2,s9
    8832:	8526                	mv	a0,s1
    8834:	0c6010ef          	jal	ra,98fa <__lshift>
    8838:	892a                	mv	s2,a0
    883a:	854a                	mv	a0,s2
    883c:	020d0663          	beqz	s10,8868 <_dtoa_r+0xa3e>
    8840:	00492583          	lw	a1,4(s2)
    8844:	8526                	mv	a0,s1
    8846:	3db000ef          	jal	ra,9420 <_Balloc>
    884a:	01092603          	lw	a2,16(s2)
    884e:	8b2a                	mv	s6,a0
    8850:	00c90593          	addi	a1,s2,12
    8854:	0609                	addi	a2,a2,2
    8856:	060a                	slli	a2,a2,0x2
    8858:	0531                	addi	a0,a0,12
    885a:	ec0fd0ef          	jal	ra,5f1a <memcpy>
    885e:	4605                	li	a2,1
    8860:	85da                	mv	a1,s6
    8862:	8526                	mv	a0,s1
    8864:	096010ef          	jal	ra,98fa <__lshift>
    8868:	4782                	lw	a5,0(sp)
    886a:	4722                	lw	a4,8(sp)
    886c:	8b4a                	mv	s6,s2
    886e:	00178c13          	addi	s8,a5,1
    8872:	97ba                	add	a5,a5,a4
    8874:	c63e                	sw	a5,12(sp)
    8876:	001a7793          	andi	a5,s4,1
    887a:	892a                	mv	s2,a0
    887c:	c43e                	sw	a5,8(sp)
    887e:	85d6                	mv	a1,s5
    8880:	854e                	mv	a0,s3
    8882:	c6eff0ef          	jal	ra,7cf0 <quorem>
    8886:	85da                	mv	a1,s6
    8888:	8d2a                	mv	s10,a0
    888a:	03050d93          	addi	s11,a0,48
    888e:	854e                	mv	a0,s3
    8890:	138010ef          	jal	ra,99c8 <__mcmp>
    8894:	864a                	mv	a2,s2
    8896:	8baa                	mv	s7,a0
    8898:	85d6                	mv	a1,s5
    889a:	8526                	mv	a0,s1
    889c:	15e010ef          	jal	ra,99fa <__mdiff>
    88a0:	4550                	lw	a2,12(a0)
    88a2:	fffc0c93          	addi	s9,s8,-1
    88a6:	8a2a                	mv	s4,a0
    88a8:	4705                	li	a4,1
    88aa:	e611                	bnez	a2,88b6 <_dtoa_r+0xa8c>
    88ac:	85aa                	mv	a1,a0
    88ae:	854e                	mv	a0,s3
    88b0:	118010ef          	jal	ra,99c8 <__mcmp>
    88b4:	872a                	mv	a4,a0
    88b6:	85d2                	mv	a1,s4
    88b8:	8526                	mv	a0,s1
    88ba:	c83a                	sw	a4,16(sp)
    88bc:	3f1000ef          	jal	ra,94ac <_Bfree>
    88c0:	4792                	lw	a5,4(sp)
    88c2:	4742                	lw	a4,16(sp)
    88c4:	8a62                	mv	s4,s8
    88c6:	00e7e6b3          	or	a3,a5,a4
    88ca:	47a2                	lw	a5,8(sp)
    88cc:	8edd                	or	a3,a3,a5
    88ce:	ee81                	bnez	a3,88e6 <_dtoa_r+0xabc>
    88d0:	03900713          	li	a4,57
    88d4:	04ed8863          	beq	s11,a4,8924 <_dtoa_r+0xafa>
    88d8:	01705463          	blez	s7,88e0 <_dtoa_r+0xab6>
    88dc:	031d0d93          	addi	s11,s10,49
    88e0:	01bc8023          	sb	s11,0(s9)
    88e4:	b729                	j	87ee <_dtoa_r+0x9c4>
    88e6:	000bca63          	bltz	s7,88fa <_dtoa_r+0xad0>
    88ea:	4792                	lw	a5,4(sp)
    88ec:	0177ebb3          	or	s7,a5,s7
    88f0:	47a2                	lw	a5,8(sp)
    88f2:	00fbebb3          	or	s7,s7,a5
    88f6:	040b9563          	bnez	s7,8940 <_dtoa_r+0xb16>
    88fa:	fee053e3          	blez	a4,88e0 <_dtoa_r+0xab6>
    88fe:	85ce                	mv	a1,s3
    8900:	4605                	li	a2,1
    8902:	8526                	mv	a0,s1
    8904:	7f7000ef          	jal	ra,98fa <__lshift>
    8908:	85d6                	mv	a1,s5
    890a:	89aa                	mv	s3,a0
    890c:	0bc010ef          	jal	ra,99c8 <__mcmp>
    8910:	00a04663          	bgtz	a0,891c <_dtoa_r+0xaf2>
    8914:	f571                	bnez	a0,88e0 <_dtoa_r+0xab6>
    8916:	001df713          	andi	a4,s11,1
    891a:	d379                	beqz	a4,88e0 <_dtoa_r+0xab6>
    891c:	03900713          	li	a4,57
    8920:	faed9ee3          	bne	s11,a4,88dc <_dtoa_r+0xab2>
    8924:	03900793          	li	a5,57
    8928:	00fc8023          	sb	a5,0(s9)
    892c:	03900693          	li	a3,57
    8930:	fffa4783          	lbu	a5,-1(s4)
    8934:	fffa0713          	addi	a4,s4,-1
    8938:	08d78c63          	beq	a5,a3,89d0 <_dtoa_r+0xba6>
    893c:	0785                	addi	a5,a5,1
    893e:	a045                	j	89de <_dtoa_r+0xbb4>
    8940:	00e05b63          	blez	a4,8956 <_dtoa_r+0xb2c>
    8944:	03900713          	li	a4,57
    8948:	fced8ee3          	beq	s11,a4,8924 <_dtoa_r+0xafa>
    894c:	001d8793          	addi	a5,s11,1
    8950:	00fc8023          	sb	a5,0(s9)
    8954:	bd69                	j	87ee <_dtoa_r+0x9c4>
    8956:	47b2                	lw	a5,12(sp)
    8958:	ffbc0fa3          	sb	s11,-1(s8)
    895c:	05878163          	beq	a5,s8,899e <_dtoa_r+0xb74>
    8960:	85ce                	mv	a1,s3
    8962:	4681                	li	a3,0
    8964:	4629                	li	a2,10
    8966:	8526                	mv	a0,s1
    8968:	389000ef          	jal	ra,94f0 <__multadd>
    896c:	89aa                	mv	s3,a0
    896e:	4681                	li	a3,0
    8970:	4629                	li	a2,10
    8972:	85da                	mv	a1,s6
    8974:	8526                	mv	a0,s1
    8976:	012b1863          	bne	s6,s2,8986 <_dtoa_r+0xb5c>
    897a:	377000ef          	jal	ra,94f0 <__multadd>
    897e:	8b2a                	mv	s6,a0
    8980:	892a                	mv	s2,a0
    8982:	0c05                	addi	s8,s8,1
    8984:	bded                	j	887e <_dtoa_r+0xa54>
    8986:	36b000ef          	jal	ra,94f0 <__multadd>
    898a:	85ca                	mv	a1,s2
    898c:	8b2a                	mv	s6,a0
    898e:	4681                	li	a3,0
    8990:	4629                	li	a2,10
    8992:	8526                	mv	a0,s1
    8994:	35d000ef          	jal	ra,94f0 <__multadd>
    8998:	892a                	mv	s2,a0
    899a:	b7e5                	j	8982 <_dtoa_r+0xb58>
    899c:	4b01                	li	s6,0
    899e:	85ce                	mv	a1,s3
    89a0:	4605                	li	a2,1
    89a2:	8526                	mv	a0,s1
    89a4:	757000ef          	jal	ra,98fa <__lshift>
    89a8:	85d6                	mv	a1,s5
    89aa:	89aa                	mv	s3,a0
    89ac:	01c010ef          	jal	ra,99c8 <__mcmp>
    89b0:	f6a04ee3          	bgtz	a0,892c <_dtoa_r+0xb02>
    89b4:	e501                	bnez	a0,89bc <_dtoa_r+0xb92>
    89b6:	001df793          	andi	a5,s11,1
    89ba:	fbad                	bnez	a5,892c <_dtoa_r+0xb02>
    89bc:	03000793          	li	a5,48
    89c0:	fffa4703          	lbu	a4,-1(s4)
    89c4:	fffa0693          	addi	a3,s4,-1
    89c8:	e2f713e3          	bne	a4,a5,87ee <_dtoa_r+0x9c4>
    89cc:	8a36                	mv	s4,a3
    89ce:	bfcd                	j	89c0 <_dtoa_r+0xb96>
    89d0:	4782                	lw	a5,0(sp)
    89d2:	00e79863          	bne	a5,a4,89e2 <_dtoa_r+0xbb8>
    89d6:	4702                	lw	a4,0(sp)
    89d8:	0405                	addi	s0,s0,1
    89da:	03100793          	li	a5,49
    89de:	a31c                	sb	a5,0(a4)
    89e0:	b539                	j	87ee <_dtoa_r+0x9c4>
    89e2:	8a3a                	mv	s4,a4
    89e4:	b7b1                	j	8930 <_dtoa_r+0xb06>
    89e6:	4752                	lw	a4,20(sp)
    89e8:	00003797          	auipc	a5,0x3
    89ec:	74878793          	addi	a5,a5,1864 # c130 <tinytens+0x60>
    89f0:	c03e                	sw	a5,0(sp)
    89f2:	00003797          	auipc	a5,0x3
    89f6:	74678793          	addi	a5,a5,1862 # c138 <tinytens+0x68>
    89fa:	ce071c63          	bnez	a4,7ef2 <_dtoa_r+0xc8>
    89fe:	cf8ff06f          	j	7ef6 <_dtoa_r+0xcc>
    8a02:	47a2                	lw	a5,8(sp)
    8a04:	00f04663          	bgtz	a5,8a10 <_dtoa_r+0xbe6>
    8a08:	4712                	lw	a4,4(sp)
    8a0a:	4789                	li	a5,2
    8a0c:	dae7cde3          	blt	a5,a4,87c6 <_dtoa_r+0x99c>
    8a10:	4a02                	lw	s4,0(sp)
    8a12:	85d6                	mv	a1,s5
    8a14:	854e                	mv	a0,s3
    8a16:	adaff0ef          	jal	ra,7cf0 <quorem>
    8a1a:	4782                	lw	a5,0(sp)
    8a1c:	0a05                	addi	s4,s4,1
    8a1e:	03050d93          	addi	s11,a0,48
    8a22:	40fa0733          	sub	a4,s4,a5
    8a26:	47a2                	lw	a5,8(sp)
    8a28:	ffba0fa3          	sb	s11,-1(s4)
    8a2c:	f6f758e3          	bge	a4,a5,899c <_dtoa_r+0xb72>
    8a30:	85ce                	mv	a1,s3
    8a32:	4681                	li	a3,0
    8a34:	4629                	li	a2,10
    8a36:	8526                	mv	a0,s1
    8a38:	2b9000ef          	jal	ra,94f0 <__multadd>
    8a3c:	89aa                	mv	s3,a0
    8a3e:	bfd1                	j	8a12 <_dtoa_r+0xbe8>

00008a40 <std>:
    8a40:	1141                	addi	sp,sp,-16
    8a42:	c422                	sw	s0,8(sp)
    8a44:	c606                	sw	ra,12(sp)
    8a46:	842a                	mv	s0,a0
    8a48:	a54e                	sh	a1,12(a0)
    8a4a:	a572                	sh	a2,14(a0)
    8a4c:	00052023          	sw	zero,0(a0)
    8a50:	00052223          	sw	zero,4(a0)
    8a54:	00052423          	sw	zero,8(a0)
    8a58:	06052223          	sw	zero,100(a0)
    8a5c:	00052823          	sw	zero,16(a0)
    8a60:	00052a23          	sw	zero,20(a0)
    8a64:	00052c23          	sw	zero,24(a0)
    8a68:	4621                	li	a2,8
    8a6a:	4581                	li	a1,0
    8a6c:	05c50513          	addi	a0,a0,92
    8a70:	ff0f70ef          	jal	ra,260 <memset>
    8a74:	00002797          	auipc	a5,0x2
    8a78:	b4078793          	addi	a5,a5,-1216 # a5b4 <__sread>
    8a7c:	d05c                	sw	a5,36(s0)
    8a7e:	00002797          	auipc	a5,0x2
    8a82:	b6278793          	addi	a5,a5,-1182 # a5e0 <__swrite>
    8a86:	d41c                	sw	a5,40(s0)
    8a88:	00002797          	auipc	a5,0x2
    8a8c:	ba078793          	addi	a5,a5,-1120 # a628 <__sseek>
    8a90:	d45c                	sw	a5,44(s0)
    8a92:	00002797          	auipc	a5,0x2
    8a96:	bc678793          	addi	a5,a5,-1082 # a658 <__sclose>
    8a9a:	d000                	sw	s0,32(s0)
    8a9c:	d81c                	sw	a5,48(s0)
    8a9e:	40b2                	lw	ra,12(sp)
    8aa0:	4422                	lw	s0,8(sp)
    8aa2:	0141                	addi	sp,sp,16
    8aa4:	8082                	ret

00008aa6 <_cleanup_r>:
    8aa6:	00002597          	auipc	a1,0x2
    8aaa:	f4658593          	addi	a1,a1,-186 # a9ec <_fflush_r>
    8aae:	aa99                	j	8c04 <_fwalk_reent>

00008ab0 <__sfmoreglue>:
    8ab0:	1141                	addi	sp,sp,-16
    8ab2:	c226                	sw	s1,4(sp)
    8ab4:	06800613          	li	a2,104
    8ab8:	fff58493          	addi	s1,a1,-1
    8abc:	02c484b3          	mul	s1,s1,a2
    8ac0:	c04a                	sw	s2,0(sp)
    8ac2:	892e                	mv	s2,a1
    8ac4:	c422                	sw	s0,8(sp)
    8ac6:	c606                	sw	ra,12(sp)
    8ac8:	07448593          	addi	a1,s1,116
    8acc:	3ac010ef          	jal	ra,9e78 <_malloc_r>
    8ad0:	842a                	mv	s0,a0
    8ad2:	cd01                	beqz	a0,8aea <__sfmoreglue+0x3a>
    8ad4:	00052023          	sw	zero,0(a0)
    8ad8:	01252223          	sw	s2,4(a0)
    8adc:	0531                	addi	a0,a0,12
    8ade:	c408                	sw	a0,8(s0)
    8ae0:	06848613          	addi	a2,s1,104
    8ae4:	4581                	li	a1,0
    8ae6:	f7af70ef          	jal	ra,260 <memset>
    8aea:	8522                	mv	a0,s0
    8aec:	40b2                	lw	ra,12(sp)
    8aee:	4422                	lw	s0,8(sp)
    8af0:	4492                	lw	s1,4(sp)
    8af2:	4902                	lw	s2,0(sp)
    8af4:	0141                	addi	sp,sp,16
    8af6:	8082                	ret

00008af8 <__sinit>:
    8af8:	4d1c                	lw	a5,24(a0)
    8afa:	e7a5                	bnez	a5,8b62 <__sinit+0x6a>
    8afc:	1141                	addi	sp,sp,-16
    8afe:	c606                	sw	ra,12(sp)
    8b00:	c422                	sw	s0,8(sp)
    8b02:	00000797          	auipc	a5,0x0
    8b06:	fa478793          	addi	a5,a5,-92 # 8aa6 <_cleanup_r>
    8b0a:	d51c                	sw	a5,40(a0)
    8b0c:	81418793          	addi	a5,gp,-2028 # 20000204 <_global_impure_ptr>
    8b10:	439c                	lw	a5,0(a5)
    8b12:	04052423          	sw	zero,72(a0)
    8b16:	04052623          	sw	zero,76(a0)
    8b1a:	04052823          	sw	zero,80(a0)
    8b1e:	00f51463          	bne	a0,a5,8b26 <__sinit+0x2e>
    8b22:	4785                	li	a5,1
    8b24:	cd1c                	sw	a5,24(a0)
    8b26:	842a                	mv	s0,a0
    8b28:	2835                	jal	8b64 <__sfp>
    8b2a:	c048                	sw	a0,4(s0)
    8b2c:	8522                	mv	a0,s0
    8b2e:	281d                	jal	8b64 <__sfp>
    8b30:	c408                	sw	a0,8(s0)
    8b32:	8522                	mv	a0,s0
    8b34:	2805                	jal	8b64 <__sfp>
    8b36:	c448                	sw	a0,12(s0)
    8b38:	4048                	lw	a0,4(s0)
    8b3a:	4601                	li	a2,0
    8b3c:	4591                	li	a1,4
    8b3e:	f03ff0ef          	jal	ra,8a40 <std>
    8b42:	4408                	lw	a0,8(s0)
    8b44:	4605                	li	a2,1
    8b46:	45a5                	li	a1,9
    8b48:	ef9ff0ef          	jal	ra,8a40 <std>
    8b4c:	4448                	lw	a0,12(s0)
    8b4e:	4609                	li	a2,2
    8b50:	45c9                	li	a1,18
    8b52:	eefff0ef          	jal	ra,8a40 <std>
    8b56:	4785                	li	a5,1
    8b58:	cc1c                	sw	a5,24(s0)
    8b5a:	40b2                	lw	ra,12(sp)
    8b5c:	4422                	lw	s0,8(sp)
    8b5e:	0141                	addi	sp,sp,16
    8b60:	8082                	ret
    8b62:	8082                	ret

00008b64 <__sfp>:
    8b64:	1141                	addi	sp,sp,-16
    8b66:	81418793          	addi	a5,gp,-2028 # 20000204 <_global_impure_ptr>
    8b6a:	c226                	sw	s1,4(sp)
    8b6c:	4384                	lw	s1,0(a5)
    8b6e:	c04a                	sw	s2,0(sp)
    8b70:	c606                	sw	ra,12(sp)
    8b72:	4c9c                	lw	a5,24(s1)
    8b74:	c422                	sw	s0,8(sp)
    8b76:	892a                	mv	s2,a0
    8b78:	e781                	bnez	a5,8b80 <__sfp+0x1c>
    8b7a:	8526                	mv	a0,s1
    8b7c:	f7dff0ef          	jal	ra,8af8 <__sinit>
    8b80:	04848493          	addi	s1,s1,72
    8b84:	4480                	lw	s0,8(s1)
    8b86:	40dc                	lw	a5,4(s1)
    8b88:	17fd                	addi	a5,a5,-1
    8b8a:	0007d663          	bgez	a5,8b96 <__sfp+0x32>
    8b8e:	409c                	lw	a5,0(s1)
    8b90:	cfb9                	beqz	a5,8bee <__sfp+0x8a>
    8b92:	4084                	lw	s1,0(s1)
    8b94:	bfc5                	j	8b84 <__sfp+0x20>
    8b96:	00c41703          	lh	a4,12(s0)
    8b9a:	e739                	bnez	a4,8be8 <__sfp+0x84>
    8b9c:	77c1                	lui	a5,0xffff0
    8b9e:	0785                	addi	a5,a5,1
    8ba0:	06042223          	sw	zero,100(s0)
    8ba4:	00042023          	sw	zero,0(s0)
    8ba8:	00042223          	sw	zero,4(s0)
    8bac:	00042423          	sw	zero,8(s0)
    8bb0:	c45c                	sw	a5,12(s0)
    8bb2:	00042823          	sw	zero,16(s0)
    8bb6:	00042a23          	sw	zero,20(s0)
    8bba:	00042c23          	sw	zero,24(s0)
    8bbe:	4621                	li	a2,8
    8bc0:	4581                	li	a1,0
    8bc2:	05c40513          	addi	a0,s0,92
    8bc6:	e9af70ef          	jal	ra,260 <memset>
    8bca:	02042a23          	sw	zero,52(s0)
    8bce:	02042c23          	sw	zero,56(s0)
    8bd2:	04042423          	sw	zero,72(s0)
    8bd6:	04042623          	sw	zero,76(s0)
    8bda:	8522                	mv	a0,s0
    8bdc:	40b2                	lw	ra,12(sp)
    8bde:	4422                	lw	s0,8(sp)
    8be0:	4492                	lw	s1,4(sp)
    8be2:	4902                	lw	s2,0(sp)
    8be4:	0141                	addi	sp,sp,16
    8be6:	8082                	ret
    8be8:	06840413          	addi	s0,s0,104
    8bec:	bf71                	j	8b88 <__sfp+0x24>
    8bee:	4591                	li	a1,4
    8bf0:	854a                	mv	a0,s2
    8bf2:	ebfff0ef          	jal	ra,8ab0 <__sfmoreglue>
    8bf6:	c088                	sw	a0,0(s1)
    8bf8:	fd49                	bnez	a0,8b92 <__sfp+0x2e>
    8bfa:	47b1                	li	a5,12
    8bfc:	00f92023          	sw	a5,0(s2)
    8c00:	4401                	li	s0,0
    8c02:	bfe1                	j	8bda <__sfp+0x76>

00008c04 <_fwalk_reent>:
    8c04:	7179                	addi	sp,sp,-48
    8c06:	d422                	sw	s0,40(sp)
    8c08:	d04a                	sw	s2,32(sp)
    8c0a:	cc52                	sw	s4,24(sp)
    8c0c:	ca56                	sw	s5,20(sp)
    8c0e:	c85a                	sw	s6,16(sp)
    8c10:	c65e                	sw	s7,12(sp)
    8c12:	d606                	sw	ra,44(sp)
    8c14:	d226                	sw	s1,36(sp)
    8c16:	ce4e                	sw	s3,28(sp)
    8c18:	8a2a                	mv	s4,a0
    8c1a:	8aae                	mv	s5,a1
    8c1c:	04850413          	addi	s0,a0,72
    8c20:	4901                	li	s2,0
    8c22:	4b05                	li	s6,1
    8c24:	5bfd                	li	s7,-1
    8c26:	ec09                	bnez	s0,8c40 <_fwalk_reent+0x3c>
    8c28:	50b2                	lw	ra,44(sp)
    8c2a:	5422                	lw	s0,40(sp)
    8c2c:	854a                	mv	a0,s2
    8c2e:	5492                	lw	s1,36(sp)
    8c30:	5902                	lw	s2,32(sp)
    8c32:	49f2                	lw	s3,28(sp)
    8c34:	4a62                	lw	s4,24(sp)
    8c36:	4ad2                	lw	s5,20(sp)
    8c38:	4b42                	lw	s6,16(sp)
    8c3a:	4bb2                	lw	s7,12(sp)
    8c3c:	6145                	addi	sp,sp,48
    8c3e:	8082                	ret
    8c40:	4404                	lw	s1,8(s0)
    8c42:	00442983          	lw	s3,4(s0)
    8c46:	19fd                	addi	s3,s3,-1
    8c48:	0009d463          	bgez	s3,8c50 <_fwalk_reent+0x4c>
    8c4c:	4000                	lw	s0,0(s0)
    8c4e:	bfe1                	j	8c26 <_fwalk_reent+0x22>
    8c50:	24de                	lhu	a5,12(s1)
    8c52:	00fb7b63          	bgeu	s6,a5,8c68 <_fwalk_reent+0x64>
    8c56:	00e49783          	lh	a5,14(s1)
    8c5a:	01778763          	beq	a5,s7,8c68 <_fwalk_reent+0x64>
    8c5e:	85a6                	mv	a1,s1
    8c60:	8552                	mv	a0,s4
    8c62:	9a82                	jalr	s5
    8c64:	00a96933          	or	s2,s2,a0
    8c68:	06848493          	addi	s1,s1,104
    8c6c:	bfe9                	j	8c46 <_fwalk_reent+0x42>

00008c6e <rshift>:
    8c6e:	4910                	lw	a2,16(a0)
    8c70:	01450693          	addi	a3,a0,20
    8c74:	4055d713          	srai	a4,a1,0x5
    8c78:	87b6                	mv	a5,a3
    8c7a:	02c75663          	bge	a4,a2,8ca6 <rshift+0x38>
    8c7e:	060a                	slli	a2,a2,0x2
    8c80:	070a                	slli	a4,a4,0x2
    8c82:	89fd                	andi	a1,a1,31
    8c84:	9636                	add	a2,a2,a3
    8c86:	9736                	add	a4,a4,a3
    8c88:	c9b9                	beqz	a1,8cde <rshift+0x70>
    8c8a:	00470813          	addi	a6,a4,4
    8c8e:	4318                	lw	a4,0(a4)
    8c90:	02000313          	li	t1,32
    8c94:	40b30333          	sub	t1,t1,a1
    8c98:	00b75733          	srl	a4,a4,a1
    8c9c:	00c86e63          	bltu	a6,a2,8cb8 <rshift+0x4a>
    8ca0:	c398                	sw	a4,0(a5)
    8ca2:	c311                	beqz	a4,8ca6 <rshift+0x38>
    8ca4:	0791                	addi	a5,a5,4
    8ca6:	40d78733          	sub	a4,a5,a3
    8caa:	8709                	srai	a4,a4,0x2
    8cac:	c918                	sw	a4,16(a0)
    8cae:	00d79463          	bne	a5,a3,8cb6 <rshift+0x48>
    8cb2:	00052a23          	sw	zero,20(a0)
    8cb6:	8082                	ret
    8cb8:	00082883          	lw	a7,0(a6)
    8cbc:	0791                	addi	a5,a5,4
    8cbe:	0811                	addi	a6,a6,4
    8cc0:	006898b3          	sll	a7,a7,t1
    8cc4:	00e8e733          	or	a4,a7,a4
    8cc8:	fee7ae23          	sw	a4,-4(a5) # fffefffc <_eusrstack+0xdffe7ffc>
    8ccc:	ffc82703          	lw	a4,-4(a6)
    8cd0:	b7e1                	j	8c98 <rshift+0x2a>
    8cd2:	0711                	addi	a4,a4,4
    8cd4:	ffc72583          	lw	a1,-4(a4)
    8cd8:	0791                	addi	a5,a5,4
    8cda:	feb7ae23          	sw	a1,-4(a5)
    8cde:	fec76ae3          	bltu	a4,a2,8cd2 <rshift+0x64>
    8ce2:	b7d1                	j	8ca6 <rshift+0x38>

00008ce4 <__hexdig_fun>:
    8ce4:	fd050793          	addi	a5,a0,-48
    8ce8:	0ff7f793          	andi	a5,a5,255
    8cec:	4725                	li	a4,9
    8cee:	00f76763          	bltu	a4,a5,8cfc <__hexdig_fun+0x18>
    8cf2:	1501                	addi	a0,a0,-32
    8cf4:	0ff57793          	andi	a5,a0,255
    8cf8:	853e                	mv	a0,a5
    8cfa:	8082                	ret
    8cfc:	f9f50793          	addi	a5,a0,-97
    8d00:	0ff7f793          	andi	a5,a5,255
    8d04:	4695                	li	a3,5
    8d06:	00f6e563          	bltu	a3,a5,8d10 <__hexdig_fun+0x2c>
    8d0a:	fb950513          	addi	a0,a0,-71
    8d0e:	b7dd                	j	8cf4 <__hexdig_fun+0x10>
    8d10:	fbf50713          	addi	a4,a0,-65
    8d14:	0ff77713          	andi	a4,a4,255
    8d18:	4781                	li	a5,0
    8d1a:	fce6efe3          	bltu	a3,a4,8cf8 <__hexdig_fun+0x14>
    8d1e:	fd950513          	addi	a0,a0,-39
    8d22:	bfc9                	j	8cf4 <__hexdig_fun+0x10>

00008d24 <__gethex>:
    8d24:	711d                	addi	sp,sp,-96
    8d26:	c2d6                	sw	s5,68(sp)
    8d28:	8aaa                	mv	s5,a0
    8d2a:	8542                	mv	a0,a6
    8d2c:	c636                	sw	a3,12(sp)
    8d2e:	c23a                	sw	a4,4(sp)
    8d30:	ce86                	sw	ra,92(sp)
    8d32:	c8ca                	sw	s2,80(sp)
    8d34:	c4d2                	sw	s4,72(sp)
    8d36:	c0da                	sw	s6,64(sp)
    8d38:	de5e                	sw	s7,60(sp)
    8d3a:	8b3e                	mv	s6,a5
    8d3c:	d66e                	sw	s11,44(sp)
    8d3e:	8932                	mv	s2,a2
    8d40:	8dae                	mv	s11,a1
    8d42:	cca2                	sw	s0,88(sp)
    8d44:	caa6                	sw	s1,84(sp)
    8d46:	c6ce                	sw	s3,76(sp)
    8d48:	dc62                	sw	s8,56(sp)
    8d4a:	da66                	sw	s9,52(sp)
    8d4c:	d86a                	sw	s10,48(sp)
    8d4e:	2db9                	jal	93ac <__localeconv_l>
    8d50:	00052b83          	lw	s7,0(a0)
    8d54:	855e                	mv	a0,s7
    8d56:	968fe0ef          	jal	ra,6ebe <strlen>
    8d5a:	00ab87b3          	add	a5,s7,a0
    8d5e:	000da683          	lw	a3,0(s11)
    8d62:	fff7c783          	lbu	a5,-1(a5)
    8d66:	5779                	li	a4,-2
    8d68:	8f15                	sub	a4,a4,a3
    8d6a:	c83e                	sw	a5,16(sp)
    8d6c:	8a2a                	mv	s4,a0
    8d6e:	00268793          	addi	a5,a3,2
    8d72:	03000693          	li	a3,48
    8d76:	00f70633          	add	a2,a4,a5
    8d7a:	84be                	mv	s1,a5
    8d7c:	0785                	addi	a5,a5,1
    8d7e:	fff7c503          	lbu	a0,-1(a5)
    8d82:	c432                	sw	a2,8(sp)
    8d84:	fed509e3          	beq	a0,a3,8d76 <__gethex+0x52>
    8d88:	f5dff0ef          	jal	ra,8ce4 <__hexdig_fun>
    8d8c:	10051e63          	bnez	a0,8ea8 <__gethex+0x184>
    8d90:	8652                	mv	a2,s4
    8d92:	85de                	mv	a1,s7
    8d94:	8526                	mv	a0,s1
    8d96:	0c9010ef          	jal	ra,a65e <strncmp>
    8d9a:	10051c63          	bnez	a0,8eb2 <__gethex+0x18e>
    8d9e:	01448c33          	add	s8,s1,s4
    8da2:	000c4503          	lbu	a0,0(s8)
    8da6:	f3fff0ef          	jal	ra,8ce4 <__hexdig_fun>
    8daa:	10050563          	beqz	a0,8eb4 <__gethex+0x190>
    8dae:	84e2                	mv	s1,s8
    8db0:	03000793          	li	a5,48
    8db4:	2088                	lbu	a0,0(s1)
    8db6:	00f50b63          	beq	a0,a5,8dcc <__gethex+0xa8>
    8dba:	f2bff0ef          	jal	ra,8ce4 <__hexdig_fun>
    8dbe:	4785                	li	a5,1
    8dc0:	00153993          	seqz	s3,a0
    8dc4:	8ce2                	mv	s9,s8
    8dc6:	c43e                	sw	a5,8(sp)
    8dc8:	8c26                	mv	s8,s1
    8dca:	a021                	j	8dd2 <__gethex+0xae>
    8dcc:	0485                	addi	s1,s1,1
    8dce:	b7dd                	j	8db4 <__gethex+0x90>
    8dd0:	0c05                	addi	s8,s8,1
    8dd2:	000c4503          	lbu	a0,0(s8)
    8dd6:	f0fff0ef          	jal	ra,8ce4 <__hexdig_fun>
    8dda:	f97d                	bnez	a0,8dd0 <__gethex+0xac>
    8ddc:	8652                	mv	a2,s4
    8dde:	85de                	mv	a1,s7
    8de0:	8562                	mv	a0,s8
    8de2:	07d010ef          	jal	ra,a65e <strncmp>
    8de6:	e911                	bnez	a0,8dfa <__gethex+0xd6>
    8de8:	000c9c63          	bnez	s9,8e00 <__gethex+0xdc>
    8dec:	9c52                	add	s8,s8,s4
    8dee:	8ce2                	mv	s9,s8
    8df0:	000c4503          	lbu	a0,0(s8)
    8df4:	ef1ff0ef          	jal	ra,8ce4 <__hexdig_fun>
    8df8:	e95d                	bnez	a0,8eae <__gethex+0x18a>
    8dfa:	4401                	li	s0,0
    8dfc:	000c8563          	beqz	s9,8e06 <__gethex+0xe2>
    8e00:	418c8433          	sub	s0,s9,s8
    8e04:	040a                	slli	s0,s0,0x2
    8e06:	000c4783          	lbu	a5,0(s8)
    8e0a:	05000713          	li	a4,80
    8e0e:	00e78763          	beq	a5,a4,8e1c <__gethex+0xf8>
    8e12:	07000613          	li	a2,112
    8e16:	8ce2                	mv	s9,s8
    8e18:	06c79063          	bne	a5,a2,8e78 <__gethex+0x154>
    8e1c:	001c4783          	lbu	a5,1(s8)
    8e20:	02b00713          	li	a4,43
    8e24:	08e78b63          	beq	a5,a4,8eba <__gethex+0x196>
    8e28:	02d00713          	li	a4,45
    8e2c:	08e78b63          	beq	a5,a4,8ec2 <__gethex+0x19e>
    8e30:	001c0c93          	addi	s9,s8,1
    8e34:	4d01                	li	s10,0
    8e36:	000cc503          	lbu	a0,0(s9)
    8e3a:	eabff0ef          	jal	ra,8ce4 <__hexdig_fun>
    8e3e:	fff50793          	addi	a5,a0,-1
    8e42:	0ff7f793          	andi	a5,a5,255
    8e46:	45e1                	li	a1,24
    8e48:	08f5e463          	bltu	a1,a5,8ed0 <__gethex+0x1ac>
    8e4c:	ff050793          	addi	a5,a0,-16
    8e50:	0c85                	addi	s9,s9,1
    8e52:	000cc503          	lbu	a0,0(s9)
    8e56:	ca3e                	sw	a5,20(sp)
    8e58:	e8dff0ef          	jal	ra,8ce4 <__hexdig_fun>
    8e5c:	fff50593          	addi	a1,a0,-1
    8e60:	0ff5f593          	andi	a1,a1,255
    8e64:	4861                	li	a6,24
    8e66:	47d2                	lw	a5,20(sp)
    8e68:	48a9                	li	a7,10
    8e6a:	04b87e63          	bgeu	a6,a1,8ec6 <__gethex+0x1a2>
    8e6e:	000d0463          	beqz	s10,8e76 <__gethex+0x152>
    8e72:	40f007b3          	neg	a5,a5
    8e76:	943e                	add	s0,s0,a5
    8e78:	019da023          	sw	s9,0(s11)
    8e7c:	04098c63          	beqz	s3,8ed4 <__gethex+0x1b0>
    8e80:	47a2                	lw	a5,8(sp)
    8e82:	4481                	li	s1,0
    8e84:	e391                	bnez	a5,8e88 <__gethex+0x164>
    8e86:	4499                	li	s1,6
    8e88:	40f6                	lw	ra,92(sp)
    8e8a:	4466                	lw	s0,88(sp)
    8e8c:	8526                	mv	a0,s1
    8e8e:	4946                	lw	s2,80(sp)
    8e90:	44d6                	lw	s1,84(sp)
    8e92:	49b6                	lw	s3,76(sp)
    8e94:	4a26                	lw	s4,72(sp)
    8e96:	4a96                	lw	s5,68(sp)
    8e98:	4b06                	lw	s6,64(sp)
    8e9a:	5bf2                	lw	s7,60(sp)
    8e9c:	5c62                	lw	s8,56(sp)
    8e9e:	5cd2                	lw	s9,52(sp)
    8ea0:	5d42                	lw	s10,48(sp)
    8ea2:	5db2                	lw	s11,44(sp)
    8ea4:	6125                	addi	sp,sp,96
    8ea6:	8082                	ret
    8ea8:	4981                	li	s3,0
    8eaa:	4c81                	li	s9,0
    8eac:	bf31                	j	8dc8 <__gethex+0xa4>
    8eae:	0c05                	addi	s8,s8,1
    8eb0:	b781                	j	8df0 <__gethex+0xcc>
    8eb2:	8c26                	mv	s8,s1
    8eb4:	4401                	li	s0,0
    8eb6:	4985                	li	s3,1
    8eb8:	b7b9                	j	8e06 <__gethex+0xe2>
    8eba:	4d01                	li	s10,0
    8ebc:	002c0c93          	addi	s9,s8,2
    8ec0:	bf9d                	j	8e36 <__gethex+0x112>
    8ec2:	4d05                	li	s10,1
    8ec4:	bfe5                	j	8ebc <__gethex+0x198>
    8ec6:	031787b3          	mul	a5,a5,a7
    8eca:	97aa                	add	a5,a5,a0
    8ecc:	17c1                	addi	a5,a5,-16
    8ece:	b749                	j	8e50 <__gethex+0x12c>
    8ed0:	8ce2                	mv	s9,s8
    8ed2:	b75d                	j	8e78 <__gethex+0x154>
    8ed4:	409c07b3          	sub	a5,s8,s1
    8ed8:	17fd                	addi	a5,a5,-1
    8eda:	4581                	li	a1,0
    8edc:	471d                	li	a4,7
    8ede:	0af74363          	blt	a4,a5,8f84 <__gethex+0x260>
    8ee2:	8556                	mv	a0,s5
    8ee4:	2b35                	jal	9420 <_Balloc>
    8ee6:	4605                	li	a2,1
    8ee8:	01450993          	addi	s3,a0,20
    8eec:	414607b3          	sub	a5,a2,s4
    8ef0:	8daa                	mv	s11,a0
    8ef2:	8d4e                	mv	s10,s3
    8ef4:	4881                	li	a7,0
    8ef6:	4c81                	li	s9,0
    8ef8:	ca3e                	sw	a5,20(sp)
    8efa:	0984e863          	bltu	s1,s8,8f8a <__gethex+0x266>
    8efe:	004d0513          	addi	a0,s10,4
    8f02:	41350533          	sub	a0,a0,s3
    8f06:	8509                	srai	a0,a0,0x2
    8f08:	019d2023          	sw	s9,0(s10)
    8f0c:	00ada823          	sw	a0,16(s11)
    8f10:	00551493          	slli	s1,a0,0x5
    8f14:	8566                	mv	a0,s9
    8f16:	2f19                	jal	962c <__hi0bits>
    8f18:	00092b83          	lw	s7,0(s2)
    8f1c:	8c89                	sub	s1,s1,a0
    8f1e:	0c9bd863          	bge	s7,s1,8fee <__gethex+0x2ca>
    8f22:	417484b3          	sub	s1,s1,s7
    8f26:	85a6                	mv	a1,s1
    8f28:	856e                	mv	a0,s11
    8f2a:	63b000ef          	jal	ra,9d64 <__any_on>
    8f2e:	8a2a                	mv	s4,a0
    8f30:	c905                	beqz	a0,8f60 <__gethex+0x23c>
    8f32:	fff48613          	addi	a2,s1,-1
    8f36:	40565693          	srai	a3,a2,0x5
    8f3a:	068a                	slli	a3,a3,0x2
    8f3c:	96ce                	add	a3,a3,s3
    8f3e:	4294                	lw	a3,0(a3)
    8f40:	4705                	li	a4,1
    8f42:	00c71733          	sll	a4,a4,a2
    8f46:	8f75                	and	a4,a4,a3
    8f48:	4a05                	li	s4,1
    8f4a:	cb19                	beqz	a4,8f60 <__gethex+0x23c>
    8f4c:	00ca5963          	bge	s4,a2,8f5e <__gethex+0x23a>
    8f50:	ffe48593          	addi	a1,s1,-2
    8f54:	856e                	mv	a0,s11
    8f56:	60f000ef          	jal	ra,9d64 <__any_on>
    8f5a:	4a0d                	li	s4,3
    8f5c:	e111                	bnez	a0,8f60 <__gethex+0x23c>
    8f5e:	4a09                	li	s4,2
    8f60:	85a6                	mv	a1,s1
    8f62:	856e                	mv	a0,s11
    8f64:	d0bff0ef          	jal	ra,8c6e <rshift>
    8f68:	9426                	add	s0,s0,s1
    8f6a:	00892703          	lw	a4,8(s2)
    8f6e:	08875f63          	bge	a4,s0,900c <__gethex+0x2e8>
    8f72:	85ee                	mv	a1,s11
    8f74:	8556                	mv	a0,s5
    8f76:	2b1d                	jal	94ac <_Bfree>
    8f78:	4792                	lw	a5,4(sp)
    8f7a:	0a300493          	li	s1,163
    8f7e:	0007a023          	sw	zero,0(a5)
    8f82:	b719                	j	8e88 <__gethex+0x164>
    8f84:	0585                	addi	a1,a1,1
    8f86:	8785                	srai	a5,a5,0x1
    8f88:	bf99                	j	8ede <__gethex+0x1ba>
    8f8a:	fffc0793          	addi	a5,s8,-1
    8f8e:	c43e                	sw	a5,8(sp)
    8f90:	fffc4603          	lbu	a2,-1(s8)
    8f94:	47c2                	lw	a5,16(sp)
    8f96:	02f60963          	beq	a2,a5,8fc8 <__gethex+0x2a4>
    8f9a:	02000793          	li	a5,32
    8f9e:	00f89763          	bne	a7,a5,8fac <__gethex+0x288>
    8fa2:	019d2023          	sw	s9,0(s10)
    8fa6:	4881                	li	a7,0
    8fa8:	0d11                	addi	s10,s10,4
    8faa:	4c81                	li	s9,0
    8fac:	fffc4503          	lbu	a0,-1(s8)
    8fb0:	cc46                	sw	a7,24(sp)
    8fb2:	d33ff0ef          	jal	ra,8ce4 <__hexdig_fun>
    8fb6:	48e2                	lw	a7,24(sp)
    8fb8:	893d                	andi	a0,a0,15
    8fba:	4322                	lw	t1,8(sp)
    8fbc:	01151533          	sll	a0,a0,a7
    8fc0:	00acecb3          	or	s9,s9,a0
    8fc4:	0891                	addi	a7,a7,4
    8fc6:	a015                	j	8fea <__gethex+0x2c6>
    8fc8:	4752                	lw	a4,20(sp)
    8fca:	fffc0793          	addi	a5,s8,-1
    8fce:	00e78333          	add	t1,a5,a4
    8fd2:	fc9364e3          	bltu	t1,s1,8f9a <__gethex+0x276>
    8fd6:	851a                	mv	a0,t1
    8fd8:	8652                	mv	a2,s4
    8fda:	85de                	mv	a1,s7
    8fdc:	ce46                	sw	a7,28(sp)
    8fde:	cc1a                	sw	t1,24(sp)
    8fe0:	67e010ef          	jal	ra,a65e <strncmp>
    8fe4:	4362                	lw	t1,24(sp)
    8fe6:	48f2                	lw	a7,28(sp)
    8fe8:	f94d                	bnez	a0,8f9a <__gethex+0x276>
    8fea:	8c1a                	mv	s8,t1
    8fec:	b739                	j	8efa <__gethex+0x1d6>
    8fee:	4a01                	li	s4,0
    8ff0:	f774dde3          	bge	s1,s7,8f6a <__gethex+0x246>
    8ff4:	409b84b3          	sub	s1,s7,s1
    8ff8:	85ee                	mv	a1,s11
    8ffa:	8626                	mv	a2,s1
    8ffc:	8556                	mv	a0,s5
    8ffe:	0fd000ef          	jal	ra,98fa <__lshift>
    9002:	8daa                	mv	s11,a0
    9004:	8c05                	sub	s0,s0,s1
    9006:	01450993          	addi	s3,a0,20
    900a:	b785                	j	8f6a <__gethex+0x246>
    900c:	00492703          	lw	a4,4(s2)
    9010:	0ee45563          	bge	s0,a4,90fa <__gethex+0x3d6>
    9014:	40870433          	sub	s0,a4,s0
    9018:	07744563          	blt	s0,s7,9082 <__gethex+0x35e>
    901c:	00c92703          	lw	a4,12(s2)
    9020:	4689                	li	a3,2
    9022:	04d70a63          	beq	a4,a3,9076 <__gethex+0x352>
    9026:	468d                	li	a3,3
    9028:	04d70a63          	beq	a4,a3,907c <__gethex+0x358>
    902c:	4685                	li	a3,1
    902e:	02d71b63          	bne	a4,a3,9064 <__gethex+0x340>
    9032:	028b9963          	bne	s7,s0,9064 <__gethex+0x340>
    9036:	02eb9163          	bne	s7,a4,9058 <__gethex+0x334>
    903a:	00492703          	lw	a4,4(s2)
    903e:	47b2                	lw	a5,12(sp)
    9040:	06200493          	li	s1,98
    9044:	c398                	sw	a4,0(a5)
    9046:	4705                	li	a4,1
    9048:	4792                	lw	a5,4(sp)
    904a:	00eda823          	sw	a4,16(s11)
    904e:	00e9a023          	sw	a4,0(s3)
    9052:	01b7a023          	sw	s11,0(a5)
    9056:	bd0d                	j	8e88 <__gethex+0x164>
    9058:	fffb8593          	addi	a1,s7,-1
    905c:	856e                	mv	a0,s11
    905e:	507000ef          	jal	ra,9d64 <__any_on>
    9062:	fd61                	bnez	a0,903a <__gethex+0x316>
    9064:	85ee                	mv	a1,s11
    9066:	8556                	mv	a0,s5
    9068:	2191                	jal	94ac <_Bfree>
    906a:	4792                	lw	a5,4(sp)
    906c:	05000493          	li	s1,80
    9070:	0007a023          	sw	zero,0(a5)
    9074:	bd11                	j	8e88 <__gethex+0x164>
    9076:	fe0b17e3          	bnez	s6,9064 <__gethex+0x340>
    907a:	b7c1                	j	903a <__gethex+0x316>
    907c:	fa0b1fe3          	bnez	s6,903a <__gethex+0x316>
    9080:	b7d5                	j	9064 <__gethex+0x340>
    9082:	fff40493          	addi	s1,s0,-1
    9086:	060a1863          	bnez	s4,90f6 <__gethex+0x3d2>
    908a:	c491                	beqz	s1,9096 <__gethex+0x372>
    908c:	85a6                	mv	a1,s1
    908e:	856e                	mv	a0,s11
    9090:	4d5000ef          	jal	ra,9d64 <__any_on>
    9094:	8a2a                	mv	s4,a0
    9096:	4054d713          	srai	a4,s1,0x5
    909a:	070a                	slli	a4,a4,0x2
    909c:	974e                	add	a4,a4,s3
    909e:	4318                	lw	a4,0(a4)
    90a0:	4585                	li	a1,1
    90a2:	009595b3          	sll	a1,a1,s1
    90a6:	8df9                	and	a1,a1,a4
    90a8:	c199                	beqz	a1,90ae <__gethex+0x38a>
    90aa:	002a6a13          	ori	s4,s4,2
    90ae:	85a2                	mv	a1,s0
    90b0:	856e                	mv	a0,s11
    90b2:	408b8bb3          	sub	s7,s7,s0
    90b6:	bb9ff0ef          	jal	ra,8c6e <rshift>
    90ba:	00492403          	lw	s0,4(s2)
    90be:	4489                	li	s1,2
    90c0:	080a0b63          	beqz	s4,9156 <__gethex+0x432>
    90c4:	00c92703          	lw	a4,12(s2)
    90c8:	4689                	li	a3,2
    90ca:	02d70a63          	beq	a4,a3,90fe <__gethex+0x3da>
    90ce:	468d                	li	a3,3
    90d0:	02d70a63          	beq	a4,a3,9104 <__gethex+0x3e0>
    90d4:	4685                	li	a3,1
    90d6:	00d71d63          	bne	a4,a3,90f0 <__gethex+0x3cc>
    90da:	002a7713          	andi	a4,s4,2
    90de:	cb09                	beqz	a4,90f0 <__gethex+0x3cc>
    90e0:	0009a703          	lw	a4,0(s3)
    90e4:	00ea6a33          	or	s4,s4,a4
    90e8:	001a7a13          	andi	s4,s4,1
    90ec:	000a1e63          	bnez	s4,9108 <__gethex+0x3e4>
    90f0:	0104e493          	ori	s1,s1,16
    90f4:	a08d                	j	9156 <__gethex+0x432>
    90f6:	4a05                	li	s4,1
    90f8:	bf79                	j	9096 <__gethex+0x372>
    90fa:	4485                	li	s1,1
    90fc:	b7d1                	j	90c0 <__gethex+0x39c>
    90fe:	4705                	li	a4,1
    9100:	41670b33          	sub	s6,a4,s6
    9104:	fe0b06e3          	beqz	s6,90f0 <__gethex+0x3cc>
    9108:	010da983          	lw	s3,16(s11)
    910c:	014d8713          	addi	a4,s11,20
    9110:	55fd                	li	a1,-1
    9112:	00299a13          	slli	s4,s3,0x2
    9116:	01470633          	add	a2,a4,s4
    911a:	4314                	lw	a3,0(a4)
    911c:	04b68363          	beq	a3,a1,9162 <__gethex+0x43e>
    9120:	0685                	addi	a3,a3,1
    9122:	c314                	sw	a3,0(a4)
    9124:	4689                	li	a3,2
    9126:	014d8713          	addi	a4,s11,20
    912a:	08d49463          	bne	s1,a3,91b2 <__gethex+0x48e>
    912e:	00092683          	lw	a3,0(s2)
    9132:	16fd                	addi	a3,a3,-1
    9134:	01769f63          	bne	a3,s7,9152 <__gethex+0x42e>
    9138:	405bd693          	srai	a3,s7,0x5
    913c:	068a                	slli	a3,a3,0x2
    913e:	9736                	add	a4,a4,a3
    9140:	4318                	lw	a4,0(a4)
    9142:	4685                	li	a3,1
    9144:	01769bb3          	sll	s7,a3,s7
    9148:	00ebfbb3          	and	s7,s7,a4
    914c:	000b8363          	beqz	s7,9152 <__gethex+0x42e>
    9150:	4485                	li	s1,1
    9152:	0204e493          	ori	s1,s1,32
    9156:	4792                	lw	a5,4(sp)
    9158:	01b7a023          	sw	s11,0(a5)
    915c:	47b2                	lw	a5,12(sp)
    915e:	c380                	sw	s0,0(a5)
    9160:	b325                	j	8e88 <__gethex+0x164>
    9162:	0711                	addi	a4,a4,4
    9164:	fe072e23          	sw	zero,-4(a4)
    9168:	fac769e3          	bltu	a4,a2,911a <__gethex+0x3f6>
    916c:	008da703          	lw	a4,8(s11)
    9170:	02e9c563          	blt	s3,a4,919a <__gethex+0x476>
    9174:	004da583          	lw	a1,4(s11)
    9178:	8556                	mv	a0,s5
    917a:	0585                	addi	a1,a1,1
    917c:	2455                	jal	9420 <_Balloc>
    917e:	010da603          	lw	a2,16(s11)
    9182:	00cd8593          	addi	a1,s11,12
    9186:	8b2a                	mv	s6,a0
    9188:	0609                	addi	a2,a2,2
    918a:	060a                	slli	a2,a2,0x2
    918c:	0531                	addi	a0,a0,12
    918e:	d8dfc0ef          	jal	ra,5f1a <memcpy>
    9192:	85ee                	mv	a1,s11
    9194:	8556                	mv	a0,s5
    9196:	2e19                	jal	94ac <_Bfree>
    9198:	8dda                	mv	s11,s6
    919a:	010da703          	lw	a4,16(s11)
    919e:	00170693          	addi	a3,a4,1
    91a2:	0711                	addi	a4,a4,4
    91a4:	070a                	slli	a4,a4,0x2
    91a6:	00dda823          	sw	a3,16(s11)
    91aa:	976e                	add	a4,a4,s11
    91ac:	4685                	li	a3,1
    91ae:	c354                	sw	a3,4(a4)
    91b0:	bf95                	j	9124 <__gethex+0x400>
    91b2:	010da683          	lw	a3,16(s11)
    91b6:	00d9dc63          	bge	s3,a3,91ce <__gethex+0x4aa>
    91ba:	4585                	li	a1,1
    91bc:	856e                	mv	a0,s11
    91be:	ab1ff0ef          	jal	ra,8c6e <rshift>
    91c2:	00892703          	lw	a4,8(s2)
    91c6:	0405                	addi	s0,s0,1
    91c8:	f88754e3          	bge	a4,s0,9150 <__gethex+0x42c>
    91cc:	b35d                	j	8f72 <__gethex+0x24e>
    91ce:	01fbfb93          	andi	s7,s7,31
    91d2:	4485                	li	s1,1
    91d4:	f60b8fe3          	beqz	s7,9152 <__gethex+0x42e>
    91d8:	9752                	add	a4,a4,s4
    91da:	ffc72503          	lw	a0,-4(a4)
    91de:	21b9                	jal	962c <__hi0bits>
    91e0:	02000713          	li	a4,32
    91e4:	41770bb3          	sub	s7,a4,s7
    91e8:	fd7549e3          	blt	a0,s7,91ba <__gethex+0x496>
    91ec:	b79d                	j	9152 <__gethex+0x42e>

000091ee <L_shift>:
    91ee:	47a1                	li	a5,8
    91f0:	40c78633          	sub	a2,a5,a2
    91f4:	060a                	slli	a2,a2,0x2
    91f6:	02000693          	li	a3,32
    91fa:	8e91                	sub	a3,a3,a2
    91fc:	415c                	lw	a5,4(a0)
    91fe:	4118                	lw	a4,0(a0)
    9200:	0511                	addi	a0,a0,4
    9202:	00d79833          	sll	a6,a5,a3
    9206:	01076733          	or	a4,a4,a6
    920a:	00c7d7b3          	srl	a5,a5,a2
    920e:	fee52e23          	sw	a4,-4(a0)
    9212:	c11c                	sw	a5,0(a0)
    9214:	feb564e3          	bltu	a0,a1,91fc <L_shift+0xe>
    9218:	8082                	ret

0000921a <__match>:
    921a:	411c                	lw	a5,0(a0)
    921c:	4865                	li	a6,25
    921e:	0585                	addi	a1,a1,1
    9220:	fff5c603          	lbu	a2,-1(a1)
    9224:	0785                	addi	a5,a5,1
    9226:	e601                	bnez	a2,922e <__match+0x14>
    9228:	c11c                	sw	a5,0(a0)
    922a:	4505                	li	a0,1
    922c:	8082                	ret
    922e:	2398                	lbu	a4,0(a5)
    9230:	fbf70693          	addi	a3,a4,-65
    9234:	0ff6f693          	andi	a3,a3,255
    9238:	00d86463          	bltu	a6,a3,9240 <__match+0x26>
    923c:	02070713          	addi	a4,a4,32
    9240:	fcc70fe3          	beq	a4,a2,921e <__match+0x4>
    9244:	4501                	li	a0,0
    9246:	8082                	ret

00009248 <__hexnan>:
    9248:	715d                	addi	sp,sp,-80
    924a:	dc52                	sw	s4,56(sp)
    924c:	0005aa03          	lw	s4,0(a1)
    9250:	c2a6                	sw	s1,68(sp)
    9252:	de4e                	sw	s3,60(sp)
    9254:	405a5493          	srai	s1,s4,0x5
    9258:	d85a                	sw	s6,48(sp)
    925a:	048a                	slli	s1,s1,0x2
    925c:	c686                	sw	ra,76(sp)
    925e:	c4a2                	sw	s0,72(sp)
    9260:	c0ca                	sw	s2,64(sp)
    9262:	da56                	sw	s5,52(sp)
    9264:	d65e                	sw	s7,44(sp)
    9266:	d462                	sw	s8,40(sp)
    9268:	d266                	sw	s9,36(sp)
    926a:	d06a                	sw	s10,32(sp)
    926c:	ce6e                	sw	s11,28(sp)
    926e:	01fa7a13          	andi	s4,s4,31
    9272:	8b2a                	mv	s6,a0
    9274:	89b2                	mv	s3,a2
    9276:	94b2                	add	s1,s1,a2
    9278:	000a0363          	beqz	s4,927e <__hexnan+0x36>
    927c:	0491                	addi	s1,s1,4
    927e:	000b2783          	lw	a5,0(s6)
    9282:	ffc48913          	addi	s2,s1,-4
    9286:	fe04ae23          	sw	zero,-4(s1)
    928a:	8dca                	mv	s11,s2
    928c:	844a                	mv	s0,s2
    928e:	4601                	li	a2,0
    9290:	4a81                	li	s5,0
    9292:	4b81                	li	s7,0
    9294:	4c21                	li	s8,8
    9296:	02000c93          	li	s9,32
    929a:	4d1d                	li	s10,7
    929c:	3394                	lbu	a3,1(a5)
    929e:	00178713          	addi	a4,a5,1
    92a2:	c03a                	sw	a4,0(sp)
    92a4:	cab1                	beqz	a3,92f8 <__hexnan+0xb0>
    92a6:	8536                	mv	a0,a3
    92a8:	c632                	sw	a2,12(sp)
    92aa:	c43e                	sw	a5,8(sp)
    92ac:	c236                	sw	a3,4(sp)
    92ae:	a37ff0ef          	jal	ra,8ce4 <__hexdig_fun>
    92b2:	4632                	lw	a2,12(sp)
    92b4:	e559                	bnez	a0,9342 <__hexnan+0xfa>
    92b6:	4692                	lw	a3,4(sp)
    92b8:	47a2                	lw	a5,8(sp)
    92ba:	02dce863          	bltu	s9,a3,92ea <__hexnan+0xa2>
    92be:	037ad463          	bge	s5,s7,92e6 <__hexnan+0x9e>
    92c2:	01b47863          	bgeu	s0,s11,92d2 <__hexnan+0x8a>
    92c6:	00cd4663          	blt	s10,a2,92d2 <__hexnan+0x8a>
    92ca:	85ee                	mv	a1,s11
    92cc:	8522                	mv	a0,s0
    92ce:	f21ff0ef          	jal	ra,91ee <L_shift>
    92d2:	4621                	li	a2,8
    92d4:	0089f963          	bgeu	s3,s0,92e6 <__hexnan+0x9e>
    92d8:	ffc40d93          	addi	s11,s0,-4
    92dc:	fe042e23          	sw	zero,-4(s0)
    92e0:	8ade                	mv	s5,s7
    92e2:	846e                	mv	s0,s11
    92e4:	4601                	li	a2,0
    92e6:	4782                	lw	a5,0(sp)
    92e8:	bf55                	j	929c <__hexnan+0x54>
    92ea:	02900593          	li	a1,41
    92ee:	08b69c63          	bne	a3,a1,9386 <__hexnan+0x13e>
    92f2:	0789                	addi	a5,a5,2
    92f4:	00fb2023          	sw	a5,0(s6)
    92f8:	080b8763          	beqz	s7,9386 <__hexnan+0x13e>
    92fc:	01b47963          	bgeu	s0,s11,930e <__hexnan+0xc6>
    9300:	479d                	li	a5,7
    9302:	00c7c663          	blt	a5,a2,930e <__hexnan+0xc6>
    9306:	85ee                	mv	a1,s11
    9308:	8522                	mv	a0,s0
    930a:	ee5ff0ef          	jal	ra,91ee <L_shift>
    930e:	0489fa63          	bgeu	s3,s0,9362 <__hexnan+0x11a>
    9312:	87ce                	mv	a5,s3
    9314:	0411                	addi	s0,s0,4
    9316:	ffc42703          	lw	a4,-4(s0)
    931a:	0791                	addi	a5,a5,4
    931c:	fee7ae23          	sw	a4,-4(a5)
    9320:	fe897ae3          	bgeu	s2,s0,9314 <__hexnan+0xcc>
    9324:	0791                	addi	a5,a5,4
    9326:	fe07ae23          	sw	zero,-4(a5)
    932a:	fef97de3          	bgeu	s2,a5,9324 <__hexnan+0xdc>
    932e:	00092783          	lw	a5,0(s2)
    9332:	e791                	bnez	a5,933e <__hexnan+0xf6>
    9334:	05391763          	bne	s2,s3,9382 <__hexnan+0x13a>
    9338:	4785                	li	a5,1
    933a:	00f92023          	sw	a5,0(s2)
    933e:	4515                	li	a0,5
    9340:	a0a1                	j	9388 <__hexnan+0x140>
    9342:	0605                	addi	a2,a2,1
    9344:	0b85                	addi	s7,s7,1
    9346:	00cc5863          	bge	s8,a2,9356 <__hexnan+0x10e>
    934a:	f889fee3          	bgeu	s3,s0,92e6 <__hexnan+0x9e>
    934e:	fe042e23          	sw	zero,-4(s0)
    9352:	4605                	li	a2,1
    9354:	1471                	addi	s0,s0,-4
    9356:	401c                	lw	a5,0(s0)
    9358:	893d                	andi	a0,a0,15
    935a:	0792                	slli	a5,a5,0x4
    935c:	8fc9                	or	a5,a5,a0
    935e:	c01c                	sw	a5,0(s0)
    9360:	b759                	j	92e6 <__hexnan+0x9e>
    9362:	fc0a06e3          	beqz	s4,932e <__hexnan+0xe6>
    9366:	02000793          	li	a5,32
    936a:	414787b3          	sub	a5,a5,s4
    936e:	5a7d                	li	s4,-1
    9370:	00fa57b3          	srl	a5,s4,a5
    9374:	ffc4aa03          	lw	s4,-4(s1)
    9378:	00fa7a33          	and	s4,s4,a5
    937c:	ff44ae23          	sw	s4,-4(s1)
    9380:	b77d                	j	932e <__hexnan+0xe6>
    9382:	1971                	addi	s2,s2,-4
    9384:	b76d                	j	932e <__hexnan+0xe6>
    9386:	4511                	li	a0,4
    9388:	40b6                	lw	ra,76(sp)
    938a:	4426                	lw	s0,72(sp)
    938c:	4496                	lw	s1,68(sp)
    938e:	4906                	lw	s2,64(sp)
    9390:	59f2                	lw	s3,60(sp)
    9392:	5a62                	lw	s4,56(sp)
    9394:	5ad2                	lw	s5,52(sp)
    9396:	5b42                	lw	s6,48(sp)
    9398:	5bb2                	lw	s7,44(sp)
    939a:	5c22                	lw	s8,40(sp)
    939c:	5c92                	lw	s9,36(sp)
    939e:	5d02                	lw	s10,32(sp)
    93a0:	4df2                	lw	s11,28(sp)
    93a2:	6161                	addi	sp,sp,80
    93a4:	8082                	ret

000093a6 <__locale_ctype_ptr_l>:
    93a6:	0ec52503          	lw	a0,236(a0)
    93aa:	8082                	ret

000093ac <__localeconv_l>:
    93ac:	0f050513          	addi	a0,a0,240
    93b0:	8082                	ret

000093b2 <_localeconv_r>:
    93b2:	81018793          	addi	a5,gp,-2032 # 20000200 <_impure_ptr>
    93b6:	439c                	lw	a5,0(a5)
    93b8:	5388                	lw	a0,32(a5)
    93ba:	e509                	bnez	a0,93c4 <_localeconv_r+0x12>
    93bc:	1fff7517          	auipc	a0,0x1fff7
    93c0:	cc450513          	addi	a0,a0,-828 # 20000080 <__global_locale>
    93c4:	0f050513          	addi	a0,a0,240
    93c8:	8082                	ret

000093ca <malloc>:
    93ca:	81018793          	addi	a5,gp,-2032 # 20000200 <_impure_ptr>
    93ce:	85aa                	mv	a1,a0
    93d0:	4388                	lw	a0,0(a5)
    93d2:	2a70006f          	j	9e78 <_malloc_r>

000093d6 <__ascii_mbtowc>:
    93d6:	ed91                	bnez	a1,93f2 <__ascii_mbtowc+0x1c>
    93d8:	1141                	addi	sp,sp,-16
    93da:	006c                	addi	a1,sp,12
    93dc:	4501                	li	a0,0
    93de:	ca01                	beqz	a2,93ee <__ascii_mbtowc+0x18>
    93e0:	5579                	li	a0,-2
    93e2:	c691                	beqz	a3,93ee <__ascii_mbtowc+0x18>
    93e4:	221c                	lbu	a5,0(a2)
    93e6:	c19c                	sw	a5,0(a1)
    93e8:	2208                	lbu	a0,0(a2)
    93ea:	00a03533          	snez	a0,a0
    93ee:	0141                	addi	sp,sp,16
    93f0:	8082                	ret
    93f2:	4501                	li	a0,0
    93f4:	ca09                	beqz	a2,9406 <__ascii_mbtowc+0x30>
    93f6:	5579                	li	a0,-2
    93f8:	c699                	beqz	a3,9406 <__ascii_mbtowc+0x30>
    93fa:	221c                	lbu	a5,0(a2)
    93fc:	c19c                	sw	a5,0(a1)
    93fe:	2208                	lbu	a0,0(a2)
    9400:	00a03533          	snez	a0,a0
    9404:	8082                	ret
    9406:	8082                	ret

00009408 <memchr>:
    9408:	0ff5f593          	andi	a1,a1,255
    940c:	962a                	add	a2,a2,a0
    940e:	00c51463          	bne	a0,a2,9416 <memchr+0xe>
    9412:	4501                	li	a0,0
    9414:	8082                	ret
    9416:	211c                	lbu	a5,0(a0)
    9418:	feb78ee3          	beq	a5,a1,9414 <memchr+0xc>
    941c:	0505                	addi	a0,a0,1
    941e:	bfc5                	j	940e <memchr+0x6>

00009420 <_Balloc>:
    9420:	515c                	lw	a5,36(a0)
    9422:	1141                	addi	sp,sp,-16
    9424:	c422                	sw	s0,8(sp)
    9426:	c04a                	sw	s2,0(sp)
    9428:	c606                	sw	ra,12(sp)
    942a:	c226                	sw	s1,4(sp)
    942c:	842a                	mv	s0,a0
    942e:	892e                	mv	s2,a1
    9430:	ef89                	bnez	a5,944a <_Balloc+0x2a>
    9432:	4541                	li	a0,16
    9434:	f97ff0ef          	jal	ra,93ca <malloc>
    9438:	d048                	sw	a0,36(s0)
    943a:	00052223          	sw	zero,4(a0)
    943e:	00052423          	sw	zero,8(a0)
    9442:	00052023          	sw	zero,0(a0)
    9446:	00052623          	sw	zero,12(a0)
    944a:	5044                	lw	s1,36(s0)
    944c:	44dc                	lw	a5,12(s1)
    944e:	c79d                	beqz	a5,947c <_Balloc+0x5c>
    9450:	5058                	lw	a4,36(s0)
    9452:	00291793          	slli	a5,s2,0x2
    9456:	4758                	lw	a4,12(a4)
    9458:	97ba                	add	a5,a5,a4
    945a:	4388                	lw	a0,0(a5)
    945c:	e129                	bnez	a0,949e <_Balloc+0x7e>
    945e:	4485                	li	s1,1
    9460:	012494b3          	sll	s1,s1,s2
    9464:	00548613          	addi	a2,s1,5
    9468:	060a                	slli	a2,a2,0x2
    946a:	4585                	li	a1,1
    946c:	8522                	mv	a0,s0
    946e:	13d000ef          	jal	ra,9daa <_calloc_r>
    9472:	cd19                	beqz	a0,9490 <_Balloc+0x70>
    9474:	01252223          	sw	s2,4(a0)
    9478:	c504                	sw	s1,8(a0)
    947a:	a025                	j	94a2 <_Balloc+0x82>
    947c:	02100613          	li	a2,33
    9480:	4591                	li	a1,4
    9482:	8522                	mv	a0,s0
    9484:	127000ef          	jal	ra,9daa <_calloc_r>
    9488:	505c                	lw	a5,36(s0)
    948a:	c4c8                	sw	a0,12(s1)
    948c:	47dc                	lw	a5,12(a5)
    948e:	f3e9                	bnez	a5,9450 <_Balloc+0x30>
    9490:	4501                	li	a0,0
    9492:	40b2                	lw	ra,12(sp)
    9494:	4422                	lw	s0,8(sp)
    9496:	4492                	lw	s1,4(sp)
    9498:	4902                	lw	s2,0(sp)
    949a:	0141                	addi	sp,sp,16
    949c:	8082                	ret
    949e:	4118                	lw	a4,0(a0)
    94a0:	c398                	sw	a4,0(a5)
    94a2:	00052823          	sw	zero,16(a0)
    94a6:	00052623          	sw	zero,12(a0)
    94aa:	b7e5                	j	9492 <_Balloc+0x72>

000094ac <_Bfree>:
    94ac:	515c                	lw	a5,36(a0)
    94ae:	1101                	addi	sp,sp,-32
    94b0:	cc22                	sw	s0,24(sp)
    94b2:	ce06                	sw	ra,28(sp)
    94b4:	842a                	mv	s0,a0
    94b6:	ef99                	bnez	a5,94d4 <_Bfree+0x28>
    94b8:	4541                	li	a0,16
    94ba:	c62e                	sw	a1,12(sp)
    94bc:	f0fff0ef          	jal	ra,93ca <malloc>
    94c0:	45b2                	lw	a1,12(sp)
    94c2:	d048                	sw	a0,36(s0)
    94c4:	00052223          	sw	zero,4(a0)
    94c8:	00052423          	sw	zero,8(a0)
    94cc:	00052023          	sw	zero,0(a0)
    94d0:	00052623          	sw	zero,12(a0)
    94d4:	c991                	beqz	a1,94e8 <_Bfree+0x3c>
    94d6:	5054                	lw	a3,36(s0)
    94d8:	41dc                	lw	a5,4(a1)
    94da:	00279713          	slli	a4,a5,0x2
    94de:	46dc                	lw	a5,12(a3)
    94e0:	97ba                	add	a5,a5,a4
    94e2:	4398                	lw	a4,0(a5)
    94e4:	c198                	sw	a4,0(a1)
    94e6:	c38c                	sw	a1,0(a5)
    94e8:	40f2                	lw	ra,28(sp)
    94ea:	4462                	lw	s0,24(sp)
    94ec:	6105                	addi	sp,sp,32
    94ee:	8082                	ret

000094f0 <__multadd>:
    94f0:	7179                	addi	sp,sp,-48
    94f2:	ce4e                	sw	s3,28(sp)
    94f4:	89aa                	mv	s3,a0
    94f6:	6541                	lui	a0,0x10
    94f8:	d422                	sw	s0,40(sp)
    94fa:	d226                	sw	s1,36(sp)
    94fc:	842e                	mv	s0,a1
    94fe:	4984                	lw	s1,16(a1)
    9500:	d606                	sw	ra,44(sp)
    9502:	d04a                	sw	s2,32(sp)
    9504:	05d1                	addi	a1,a1,20
    9506:	4801                	li	a6,0
    9508:	157d                	addi	a0,a0,-1
    950a:	419c                	lw	a5,0(a1)
    950c:	0591                	addi	a1,a1,4
    950e:	0805                	addi	a6,a6,1
    9510:	00a7f733          	and	a4,a5,a0
    9514:	02c70733          	mul	a4,a4,a2
    9518:	83c1                	srli	a5,a5,0x10
    951a:	02c787b3          	mul	a5,a5,a2
    951e:	9736                	add	a4,a4,a3
    9520:	01075693          	srli	a3,a4,0x10
    9524:	8f69                	and	a4,a4,a0
    9526:	97b6                	add	a5,a5,a3
    9528:	0107d693          	srli	a3,a5,0x10
    952c:	07c2                	slli	a5,a5,0x10
    952e:	97ba                	add	a5,a5,a4
    9530:	fef5ae23          	sw	a5,-4(a1)
    9534:	fc984be3          	blt	a6,s1,950a <__multadd+0x1a>
    9538:	c2a1                	beqz	a3,9578 <__multadd+0x88>
    953a:	441c                	lw	a5,8(s0)
    953c:	02f4c763          	blt	s1,a5,956a <__multadd+0x7a>
    9540:	404c                	lw	a1,4(s0)
    9542:	854e                	mv	a0,s3
    9544:	c636                	sw	a3,12(sp)
    9546:	0585                	addi	a1,a1,1
    9548:	ed9ff0ef          	jal	ra,9420 <_Balloc>
    954c:	4810                	lw	a2,16(s0)
    954e:	00c40593          	addi	a1,s0,12
    9552:	892a                	mv	s2,a0
    9554:	0609                	addi	a2,a2,2
    9556:	060a                	slli	a2,a2,0x2
    9558:	0531                	addi	a0,a0,12
    955a:	9c1fc0ef          	jal	ra,5f1a <memcpy>
    955e:	85a2                	mv	a1,s0
    9560:	854e                	mv	a0,s3
    9562:	f4bff0ef          	jal	ra,94ac <_Bfree>
    9566:	46b2                	lw	a3,12(sp)
    9568:	844a                	mv	s0,s2
    956a:	00448793          	addi	a5,s1,4
    956e:	078a                	slli	a5,a5,0x2
    9570:	97a2                	add	a5,a5,s0
    9572:	c3d4                	sw	a3,4(a5)
    9574:	0485                	addi	s1,s1,1
    9576:	c804                	sw	s1,16(s0)
    9578:	8522                	mv	a0,s0
    957a:	50b2                	lw	ra,44(sp)
    957c:	5422                	lw	s0,40(sp)
    957e:	5492                	lw	s1,36(sp)
    9580:	5902                	lw	s2,32(sp)
    9582:	49f2                	lw	s3,28(sp)
    9584:	6145                	addi	sp,sp,48
    9586:	8082                	ret

00009588 <__s2b>:
    9588:	7179                	addi	sp,sp,-48
    958a:	00868793          	addi	a5,a3,8
    958e:	cc52                	sw	s4,24(sp)
    9590:	8a36                	mv	s4,a3
    9592:	46a5                	li	a3,9
    9594:	d422                	sw	s0,40(sp)
    9596:	d226                	sw	s1,36(sp)
    9598:	ce4e                	sw	s3,28(sp)
    959a:	842e                	mv	s0,a1
    959c:	02d7c7b3          	div	a5,a5,a3
    95a0:	d606                	sw	ra,44(sp)
    95a2:	d04a                	sw	s2,32(sp)
    95a4:	ca56                	sw	s5,20(sp)
    95a6:	89aa                	mv	s3,a0
    95a8:	84b2                	mv	s1,a2
    95aa:	4685                	li	a3,1
    95ac:	4581                	li	a1,0
    95ae:	04f6cc63          	blt	a3,a5,9606 <__s2b+0x7e>
    95b2:	854e                	mv	a0,s3
    95b4:	c63a                	sw	a4,12(sp)
    95b6:	e6bff0ef          	jal	ra,9420 <_Balloc>
    95ba:	4732                	lw	a4,12(sp)
    95bc:	4785                	li	a5,1
    95be:	c91c                	sw	a5,16(a0)
    95c0:	c958                	sw	a4,20(a0)
    95c2:	47a5                	li	a5,9
    95c4:	0497d463          	bge	a5,s1,960c <__s2b+0x84>
    95c8:	00940a93          	addi	s5,s0,9
    95cc:	8956                	mv	s2,s5
    95ce:	9426                	add	s0,s0,s1
    95d0:	0905                	addi	s2,s2,1
    95d2:	fff94683          	lbu	a3,-1(s2)
    95d6:	85aa                	mv	a1,a0
    95d8:	4629                	li	a2,10
    95da:	fd068693          	addi	a3,a3,-48
    95de:	854e                	mv	a0,s3
    95e0:	f11ff0ef          	jal	ra,94f0 <__multadd>
    95e4:	fe8916e3          	bne	s2,s0,95d0 <__s2b+0x48>
    95e8:	ff848413          	addi	s0,s1,-8
    95ec:	9456                	add	s0,s0,s5
    95ee:	8926                	mv	s2,s1
    95f0:	03494163          	blt	s2,s4,9612 <__s2b+0x8a>
    95f4:	50b2                	lw	ra,44(sp)
    95f6:	5422                	lw	s0,40(sp)
    95f8:	5492                	lw	s1,36(sp)
    95fa:	5902                	lw	s2,32(sp)
    95fc:	49f2                	lw	s3,28(sp)
    95fe:	4a62                	lw	s4,24(sp)
    9600:	4ad2                	lw	s5,20(sp)
    9602:	6145                	addi	sp,sp,48
    9604:	8082                	ret
    9606:	0686                	slli	a3,a3,0x1
    9608:	0585                	addi	a1,a1,1
    960a:	b755                	j	95ae <__s2b+0x26>
    960c:	0429                	addi	s0,s0,10
    960e:	44a5                	li	s1,9
    9610:	bff9                	j	95ee <__s2b+0x66>
    9612:	409907b3          	sub	a5,s2,s1
    9616:	97a2                	add	a5,a5,s0
    9618:	2394                	lbu	a3,0(a5)
    961a:	85aa                	mv	a1,a0
    961c:	4629                	li	a2,10
    961e:	fd068693          	addi	a3,a3,-48
    9622:	854e                	mv	a0,s3
    9624:	ecdff0ef          	jal	ra,94f0 <__multadd>
    9628:	0905                	addi	s2,s2,1
    962a:	b7d9                	j	95f0 <__s2b+0x68>

0000962c <__hi0bits>:
    962c:	7741                	lui	a4,0xffff0
    962e:	8f69                	and	a4,a4,a0
    9630:	87aa                	mv	a5,a0
    9632:	4501                	li	a0,0
    9634:	e319                	bnez	a4,963a <__hi0bits+0xe>
    9636:	07c2                	slli	a5,a5,0x10
    9638:	4541                	li	a0,16
    963a:	ff000737          	lui	a4,0xff000
    963e:	8f7d                	and	a4,a4,a5
    9640:	e319                	bnez	a4,9646 <__hi0bits+0x1a>
    9642:	0521                	addi	a0,a0,8
    9644:	07a2                	slli	a5,a5,0x8
    9646:	f0000737          	lui	a4,0xf0000
    964a:	8f7d                	and	a4,a4,a5
    964c:	e319                	bnez	a4,9652 <__hi0bits+0x26>
    964e:	0511                	addi	a0,a0,4
    9650:	0792                	slli	a5,a5,0x4
    9652:	c0000737          	lui	a4,0xc0000
    9656:	8f7d                	and	a4,a4,a5
    9658:	e319                	bnez	a4,965e <__hi0bits+0x32>
    965a:	0509                	addi	a0,a0,2
    965c:	078a                	slli	a5,a5,0x2
    965e:	0007c963          	bltz	a5,9670 <__hi0bits+0x44>
    9662:	00179713          	slli	a4,a5,0x1
    9666:	0505                	addi	a0,a0,1
    9668:	00074463          	bltz	a4,9670 <__hi0bits+0x44>
    966c:	02000513          	li	a0,32
    9670:	8082                	ret

00009672 <__lo0bits>:
    9672:	411c                	lw	a5,0(a0)
    9674:	0077f713          	andi	a4,a5,7
    9678:	c30d                	beqz	a4,969a <__lo0bits+0x28>
    967a:	0017f693          	andi	a3,a5,1
    967e:	4701                	li	a4,0
    9680:	e699                	bnez	a3,968e <__lo0bits+0x1c>
    9682:	0027f713          	andi	a4,a5,2
    9686:	c711                	beqz	a4,9692 <__lo0bits+0x20>
    9688:	8385                	srli	a5,a5,0x1
    968a:	c11c                	sw	a5,0(a0)
    968c:	4705                	li	a4,1
    968e:	853a                	mv	a0,a4
    9690:	8082                	ret
    9692:	8389                	srli	a5,a5,0x2
    9694:	c11c                	sw	a5,0(a0)
    9696:	4709                	li	a4,2
    9698:	bfdd                	j	968e <__lo0bits+0x1c>
    969a:	01079693          	slli	a3,a5,0x10
    969e:	82c1                	srli	a3,a3,0x10
    96a0:	4701                	li	a4,0
    96a2:	e299                	bnez	a3,96a8 <__lo0bits+0x36>
    96a4:	83c1                	srli	a5,a5,0x10
    96a6:	4741                	li	a4,16
    96a8:	0ff7f693          	andi	a3,a5,255
    96ac:	e299                	bnez	a3,96b2 <__lo0bits+0x40>
    96ae:	0721                	addi	a4,a4,8
    96b0:	83a1                	srli	a5,a5,0x8
    96b2:	00f7f693          	andi	a3,a5,15
    96b6:	e299                	bnez	a3,96bc <__lo0bits+0x4a>
    96b8:	0711                	addi	a4,a4,4
    96ba:	8391                	srli	a5,a5,0x4
    96bc:	0037f693          	andi	a3,a5,3
    96c0:	e299                	bnez	a3,96c6 <__lo0bits+0x54>
    96c2:	0709                	addi	a4,a4,2
    96c4:	8389                	srli	a5,a5,0x2
    96c6:	0017f693          	andi	a3,a5,1
    96ca:	e681                	bnez	a3,96d2 <__lo0bits+0x60>
    96cc:	8385                	srli	a5,a5,0x1
    96ce:	0705                	addi	a4,a4,1
    96d0:	c399                	beqz	a5,96d6 <__lo0bits+0x64>
    96d2:	c11c                	sw	a5,0(a0)
    96d4:	bf6d                	j	968e <__lo0bits+0x1c>
    96d6:	02000713          	li	a4,32
    96da:	bf55                	j	968e <__lo0bits+0x1c>

000096dc <__i2b>:
    96dc:	1141                	addi	sp,sp,-16
    96de:	c422                	sw	s0,8(sp)
    96e0:	842e                	mv	s0,a1
    96e2:	4585                	li	a1,1
    96e4:	c606                	sw	ra,12(sp)
    96e6:	d3bff0ef          	jal	ra,9420 <_Balloc>
    96ea:	c940                	sw	s0,20(a0)
    96ec:	40b2                	lw	ra,12(sp)
    96ee:	4422                	lw	s0,8(sp)
    96f0:	4705                	li	a4,1
    96f2:	c918                	sw	a4,16(a0)
    96f4:	0141                	addi	sp,sp,16
    96f6:	8082                	ret

000096f8 <__multiply>:
    96f8:	4998                	lw	a4,16(a1)
    96fa:	4a1c                	lw	a5,16(a2)
    96fc:	7179                	addi	sp,sp,-48
    96fe:	d226                	sw	s1,36(sp)
    9700:	d606                	sw	ra,44(sp)
    9702:	d422                	sw	s0,40(sp)
    9704:	d04a                	sw	s2,32(sp)
    9706:	ce4e                	sw	s3,28(sp)
    9708:	84ae                	mv	s1,a1
    970a:	00f75463          	bge	a4,a5,9712 <__multiply+0x1a>
    970e:	84b2                	mv	s1,a2
    9710:	862e                	mv	a2,a1
    9712:	0104a983          	lw	s3,16(s1)
    9716:	01062903          	lw	s2,16(a2) # 10010 <_data_lma+0x3c4c>
    971a:	449c                	lw	a5,8(s1)
    971c:	40cc                	lw	a1,4(s1)
    971e:	01298433          	add	s0,s3,s2
    9722:	0087d363          	bge	a5,s0,9728 <__multiply+0x30>
    9726:	0585                	addi	a1,a1,1
    9728:	c632                	sw	a2,12(sp)
    972a:	cf7ff0ef          	jal	ra,9420 <_Balloc>
    972e:	4632                	lw	a2,12(sp)
    9730:	01450813          	addi	a6,a0,20 # 10014 <_data_lma+0x3c50>
    9734:	00241313          	slli	t1,s0,0x2
    9738:	9342                	add	t1,t1,a6
    973a:	87c2                	mv	a5,a6
    973c:	0267ed63          	bltu	a5,t1,9776 <__multiply+0x7e>
    9740:	01448593          	addi	a1,s1,20
    9744:	00299893          	slli	a7,s3,0x2
    9748:	0651                	addi	a2,a2,20
    974a:	00291e13          	slli	t3,s2,0x2
    974e:	66c1                	lui	a3,0x10
    9750:	98ae                	add	a7,a7,a1
    9752:	9e32                	add	t3,t3,a2
    9754:	16fd                	addi	a3,a3,-1
    9756:	03c66463          	bltu	a2,t3,977e <__multiply+0x86>
    975a:	00805663          	blez	s0,9766 <__multiply+0x6e>
    975e:	1371                	addi	t1,t1,-4
    9760:	00032783          	lw	a5,0(t1)
    9764:	cbf1                	beqz	a5,9838 <__multiply+0x140>
    9766:	c900                	sw	s0,16(a0)
    9768:	50b2                	lw	ra,44(sp)
    976a:	5422                	lw	s0,40(sp)
    976c:	5492                	lw	s1,36(sp)
    976e:	5902                	lw	s2,32(sp)
    9770:	49f2                	lw	s3,28(sp)
    9772:	6145                	addi	sp,sp,48
    9774:	8082                	ret
    9776:	0007a023          	sw	zero,0(a5)
    977a:	0791                	addi	a5,a5,4
    977c:	b7c1                	j	973c <__multiply+0x44>
    977e:	00062f83          	lw	t6,0(a2)
    9782:	00dfffb3          	and	t6,t6,a3
    9786:	040f8a63          	beqz	t6,97da <__multiply+0xe2>
    978a:	8f42                	mv	t5,a6
    978c:	82ae                	mv	t0,a1
    978e:	4481                	li	s1,0
    9790:	0002a703          	lw	a4,0(t0)
    9794:	000f2383          	lw	t2,0(t5)
    9798:	0f11                	addi	t5,t5,4
    979a:	00d77eb3          	and	t4,a4,a3
    979e:	03fe8eb3          	mul	t4,t4,t6
    97a2:	00d3f7b3          	and	a5,t2,a3
    97a6:	0103d393          	srli	t2,t2,0x10
    97aa:	0291                	addi	t0,t0,4
    97ac:	9ebe                	add	t4,t4,a5
    97ae:	01075793          	srli	a5,a4,0x10
    97b2:	03f787b3          	mul	a5,a5,t6
    97b6:	9ea6                	add	t4,t4,s1
    97b8:	010ed713          	srli	a4,t4,0x10
    97bc:	00defeb3          	and	t4,t4,a3
    97c0:	979e                	add	a5,a5,t2
    97c2:	97ba                	add	a5,a5,a4
    97c4:	0107d493          	srli	s1,a5,0x10
    97c8:	07c2                	slli	a5,a5,0x10
    97ca:	01d7e7b3          	or	a5,a5,t4
    97ce:	feff2e23          	sw	a5,-4(t5)
    97d2:	fb12efe3          	bltu	t0,a7,9790 <__multiply+0x98>
    97d6:	009f2023          	sw	s1,0(t5)
    97da:	00265283          	lhu	t0,2(a2)
    97de:	04028a63          	beqz	t0,9832 <__multiply+0x13a>
    97e2:	00082783          	lw	a5,0(a6)
    97e6:	8ec2                	mv	t4,a6
    97e8:	8f2e                	mv	t5,a1
    97ea:	4f81                	li	t6,0
    97ec:	000f2703          	lw	a4,0(t5)
    97f0:	002ed383          	lhu	t2,2(t4)
    97f4:	8ff5                	and	a5,a5,a3
    97f6:	8f75                	and	a4,a4,a3
    97f8:	02570733          	mul	a4,a4,t0
    97fc:	0e91                	addi	t4,t4,4
    97fe:	0f11                	addi	t5,t5,4
    9800:	971e                	add	a4,a4,t2
    9802:	977e                	add	a4,a4,t6
    9804:	01071f93          	slli	t6,a4,0x10
    9808:	00ffe7b3          	or	a5,t6,a5
    980c:	fefeae23          	sw	a5,-4(t4)
    9810:	ffef5783          	lhu	a5,-2(t5)
    9814:	000eaf83          	lw	t6,0(t4)
    9818:	8341                	srli	a4,a4,0x10
    981a:	025787b3          	mul	a5,a5,t0
    981e:	00dfffb3          	and	t6,t6,a3
    9822:	97fe                	add	a5,a5,t6
    9824:	97ba                	add	a5,a5,a4
    9826:	0107df93          	srli	t6,a5,0x10
    982a:	fd1f61e3          	bltu	t5,a7,97ec <__multiply+0xf4>
    982e:	00fea023          	sw	a5,0(t4)
    9832:	0611                	addi	a2,a2,4
    9834:	0811                	addi	a6,a6,4
    9836:	b705                	j	9756 <__multiply+0x5e>
    9838:	147d                	addi	s0,s0,-1
    983a:	b705                	j	975a <__multiply+0x62>

0000983c <__pow5mult>:
    983c:	1101                	addi	sp,sp,-32
    983e:	ca26                	sw	s1,20(sp)
    9840:	c84a                	sw	s2,16(sp)
    9842:	c64e                	sw	s3,12(sp)
    9844:	ce06                	sw	ra,28(sp)
    9846:	cc22                	sw	s0,24(sp)
    9848:	c452                	sw	s4,8(sp)
    984a:	00367793          	andi	a5,a2,3
    984e:	892a                	mv	s2,a0
    9850:	84b2                	mv	s1,a2
    9852:	89ae                	mv	s3,a1
    9854:	cf89                	beqz	a5,986e <__pow5mult+0x32>
    9856:	17fd                	addi	a5,a5,-1
    9858:	00003717          	auipc	a4,0x3
    985c:	a4870713          	addi	a4,a4,-1464 # c2a0 <p05.3319>
    9860:	078a                	slli	a5,a5,0x2
    9862:	97ba                	add	a5,a5,a4
    9864:	4390                	lw	a2,0(a5)
    9866:	4681                	li	a3,0
    9868:	c89ff0ef          	jal	ra,94f0 <__multadd>
    986c:	89aa                	mv	s3,a0
    986e:	8489                	srai	s1,s1,0x2
    9870:	cca5                	beqz	s1,98e8 <__pow5mult+0xac>
    9872:	02492783          	lw	a5,36(s2)
    9876:	ef91                	bnez	a5,9892 <__pow5mult+0x56>
    9878:	4541                	li	a0,16
    987a:	b51ff0ef          	jal	ra,93ca <malloc>
    987e:	02a92223          	sw	a0,36(s2)
    9882:	00052223          	sw	zero,4(a0)
    9886:	00052423          	sw	zero,8(a0)
    988a:	00052023          	sw	zero,0(a0)
    988e:	00052623          	sw	zero,12(a0)
    9892:	02492a03          	lw	s4,36(s2)
    9896:	008a2403          	lw	s0,8(s4)
    989a:	e819                	bnez	s0,98b0 <__pow5mult+0x74>
    989c:	27100593          	li	a1,625
    98a0:	854a                	mv	a0,s2
    98a2:	e3bff0ef          	jal	ra,96dc <__i2b>
    98a6:	00aa2423          	sw	a0,8(s4)
    98aa:	842a                	mv	s0,a0
    98ac:	00052023          	sw	zero,0(a0)
    98b0:	0014f793          	andi	a5,s1,1
    98b4:	cf81                	beqz	a5,98cc <__pow5mult+0x90>
    98b6:	85ce                	mv	a1,s3
    98b8:	8622                	mv	a2,s0
    98ba:	854a                	mv	a0,s2
    98bc:	e3dff0ef          	jal	ra,96f8 <__multiply>
    98c0:	8a2a                	mv	s4,a0
    98c2:	85ce                	mv	a1,s3
    98c4:	854a                	mv	a0,s2
    98c6:	be7ff0ef          	jal	ra,94ac <_Bfree>
    98ca:	89d2                	mv	s3,s4
    98cc:	8485                	srai	s1,s1,0x1
    98ce:	cc89                	beqz	s1,98e8 <__pow5mult+0xac>
    98d0:	4008                	lw	a0,0(s0)
    98d2:	e909                	bnez	a0,98e4 <__pow5mult+0xa8>
    98d4:	8622                	mv	a2,s0
    98d6:	85a2                	mv	a1,s0
    98d8:	854a                	mv	a0,s2
    98da:	e1fff0ef          	jal	ra,96f8 <__multiply>
    98de:	c008                	sw	a0,0(s0)
    98e0:	00052023          	sw	zero,0(a0)
    98e4:	842a                	mv	s0,a0
    98e6:	b7e9                	j	98b0 <__pow5mult+0x74>
    98e8:	40f2                	lw	ra,28(sp)
    98ea:	4462                	lw	s0,24(sp)
    98ec:	854e                	mv	a0,s3
    98ee:	44d2                	lw	s1,20(sp)
    98f0:	4942                	lw	s2,16(sp)
    98f2:	49b2                	lw	s3,12(sp)
    98f4:	4a22                	lw	s4,8(sp)
    98f6:	6105                	addi	sp,sp,32
    98f8:	8082                	ret

000098fa <__lshift>:
    98fa:	7179                	addi	sp,sp,-48
    98fc:	d226                	sw	s1,36(sp)
    98fe:	84ae                	mv	s1,a1
    9900:	ce4e                	sw	s3,28(sp)
    9902:	0104a983          	lw	s3,16(s1)
    9906:	d422                	sw	s0,40(sp)
    9908:	41cc                	lw	a1,4(a1)
    990a:	40565413          	srai	s0,a2,0x5
    990e:	449c                	lw	a5,8(s1)
    9910:	99a2                	add	s3,s3,s0
    9912:	d04a                	sw	s2,32(sp)
    9914:	ca56                	sw	s5,20(sp)
    9916:	d606                	sw	ra,44(sp)
    9918:	cc52                	sw	s4,24(sp)
    991a:	8aaa                	mv	s5,a0
    991c:	00198913          	addi	s2,s3,1
    9920:	0927c463          	blt	a5,s2,99a8 <__lshift+0xae>
    9924:	8556                	mv	a0,s5
    9926:	c632                	sw	a2,12(sp)
    9928:	af9ff0ef          	jal	ra,9420 <_Balloc>
    992c:	4632                	lw	a2,12(sp)
    992e:	01450793          	addi	a5,a0,20
    9932:	8a2a                	mv	s4,a0
    9934:	86be                	mv	a3,a5
    9936:	4701                	li	a4,0
    9938:	0691                	addi	a3,a3,4
    993a:	06874a63          	blt	a4,s0,99ae <__lshift+0xb4>
    993e:	00045363          	bgez	s0,9944 <__lshift+0x4a>
    9942:	4401                	li	s0,0
    9944:	4894                	lw	a3,16(s1)
    9946:	040a                	slli	s0,s0,0x2
    9948:	00878733          	add	a4,a5,s0
    994c:	068a                	slli	a3,a3,0x2
    994e:	01448793          	addi	a5,s1,20
    9952:	8a7d                	andi	a2,a2,31
    9954:	96be                	add	a3,a3,a5
    9956:	c225                	beqz	a2,99b6 <__lshift+0xbc>
    9958:	02000813          	li	a6,32
    995c:	40c80833          	sub	a6,a6,a2
    9960:	4581                	li	a1,0
    9962:	4388                	lw	a0,0(a5)
    9964:	0711                	addi	a4,a4,4
    9966:	0791                	addi	a5,a5,4
    9968:	00c51533          	sll	a0,a0,a2
    996c:	8dc9                	or	a1,a1,a0
    996e:	feb72e23          	sw	a1,-4(a4)
    9972:	ffc7a583          	lw	a1,-4(a5)
    9976:	0105d5b3          	srl	a1,a1,a6
    997a:	fed7e4e3          	bltu	a5,a3,9962 <__lshift+0x68>
    997e:	c30c                	sw	a1,0(a4)
    9980:	c199                	beqz	a1,9986 <__lshift+0x8c>
    9982:	00298913          	addi	s2,s3,2
    9986:	197d                	addi	s2,s2,-1
    9988:	012a2823          	sw	s2,16(s4)
    998c:	8556                	mv	a0,s5
    998e:	85a6                	mv	a1,s1
    9990:	b1dff0ef          	jal	ra,94ac <_Bfree>
    9994:	50b2                	lw	ra,44(sp)
    9996:	5422                	lw	s0,40(sp)
    9998:	8552                	mv	a0,s4
    999a:	5492                	lw	s1,36(sp)
    999c:	5902                	lw	s2,32(sp)
    999e:	49f2                	lw	s3,28(sp)
    99a0:	4a62                	lw	s4,24(sp)
    99a2:	4ad2                	lw	s5,20(sp)
    99a4:	6145                	addi	sp,sp,48
    99a6:	8082                	ret
    99a8:	0585                	addi	a1,a1,1
    99aa:	0786                	slli	a5,a5,0x1
    99ac:	bf95                	j	9920 <__lshift+0x26>
    99ae:	fe06ae23          	sw	zero,-4(a3) # fffc <_data_lma+0x3c38>
    99b2:	0705                	addi	a4,a4,1
    99b4:	b751                	j	9938 <__lshift+0x3e>
    99b6:	0791                	addi	a5,a5,4
    99b8:	ffc7a603          	lw	a2,-4(a5)
    99bc:	0711                	addi	a4,a4,4
    99be:	fec72e23          	sw	a2,-4(a4)
    99c2:	fed7eae3          	bltu	a5,a3,99b6 <__lshift+0xbc>
    99c6:	b7c1                	j	9986 <__lshift+0x8c>

000099c8 <__mcmp>:
    99c8:	491c                	lw	a5,16(a0)
    99ca:	4998                	lw	a4,16(a1)
    99cc:	8f99                	sub	a5,a5,a4
    99ce:	e38d                	bnez	a5,99f0 <__mcmp+0x28>
    99d0:	070a                	slli	a4,a4,0x2
    99d2:	0551                	addi	a0,a0,20
    99d4:	05d1                	addi	a1,a1,20
    99d6:	00e506b3          	add	a3,a0,a4
    99da:	95ba                	add	a1,a1,a4
    99dc:	16f1                	addi	a3,a3,-4
    99de:	15f1                	addi	a1,a1,-4
    99e0:	4290                	lw	a2,0(a3)
    99e2:	4198                	lw	a4,0(a1)
    99e4:	00e60863          	beq	a2,a4,99f4 <__mcmp+0x2c>
    99e8:	57fd                	li	a5,-1
    99ea:	00e66363          	bltu	a2,a4,99f0 <__mcmp+0x28>
    99ee:	4785                	li	a5,1
    99f0:	853e                	mv	a0,a5
    99f2:	8082                	ret
    99f4:	fed564e3          	bltu	a0,a3,99dc <__mcmp+0x14>
    99f8:	bfe5                	j	99f0 <__mcmp+0x28>

000099fa <__mdiff>:
    99fa:	1101                	addi	sp,sp,-32
    99fc:	ca26                	sw	s1,20(sp)
    99fe:	84ae                	mv	s1,a1
    9a00:	c64e                	sw	s3,12(sp)
    9a02:	85b2                	mv	a1,a2
    9a04:	89aa                	mv	s3,a0
    9a06:	8526                	mv	a0,s1
    9a08:	cc22                	sw	s0,24(sp)
    9a0a:	ce06                	sw	ra,28(sp)
    9a0c:	c84a                	sw	s2,16(sp)
    9a0e:	8432                	mv	s0,a2
    9a10:	fb9ff0ef          	jal	ra,99c8 <__mcmp>
    9a14:	e105                	bnez	a0,9a34 <__mdiff+0x3a>
    9a16:	4581                	li	a1,0
    9a18:	854e                	mv	a0,s3
    9a1a:	a07ff0ef          	jal	ra,9420 <_Balloc>
    9a1e:	4785                	li	a5,1
    9a20:	c91c                	sw	a5,16(a0)
    9a22:	00052a23          	sw	zero,20(a0)
    9a26:	40f2                	lw	ra,28(sp)
    9a28:	4462                	lw	s0,24(sp)
    9a2a:	44d2                	lw	s1,20(sp)
    9a2c:	4942                	lw	s2,16(sp)
    9a2e:	49b2                	lw	s3,12(sp)
    9a30:	6105                	addi	sp,sp,32
    9a32:	8082                	ret
    9a34:	4905                	li	s2,1
    9a36:	00054663          	bltz	a0,9a42 <__mdiff+0x48>
    9a3a:	87a2                	mv	a5,s0
    9a3c:	4901                	li	s2,0
    9a3e:	8426                	mv	s0,s1
    9a40:	84be                	mv	s1,a5
    9a42:	404c                	lw	a1,4(s0)
    9a44:	854e                	mv	a0,s3
    9a46:	9dbff0ef          	jal	ra,9420 <_Balloc>
    9a4a:	01042303          	lw	t1,16(s0)
    9a4e:	0104a883          	lw	a7,16(s1)
    9a52:	01440613          	addi	a2,s0,20
    9a56:	00231e13          	slli	t3,t1,0x2
    9a5a:	01448813          	addi	a6,s1,20
    9a5e:	088a                	slli	a7,a7,0x2
    9a60:	6ec1                	lui	t4,0x10
    9a62:	01252623          	sw	s2,12(a0)
    9a66:	9e32                	add	t3,t3,a2
    9a68:	98c2                	add	a7,a7,a6
    9a6a:	01450693          	addi	a3,a0,20
    9a6e:	4f01                	li	t5,0
    9a70:	1efd                	addi	t4,t4,-1
    9a72:	4218                	lw	a4,0(a2)
    9a74:	00082f83          	lw	t6,0(a6)
    9a78:	0691                	addi	a3,a3,4
    9a7a:	01d775b3          	and	a1,a4,t4
    9a7e:	01dff7b3          	and	a5,t6,t4
    9a82:	95fa                	add	a1,a1,t5
    9a84:	8d9d                	sub	a1,a1,a5
    9a86:	010fdf93          	srli	t6,t6,0x10
    9a8a:	01075793          	srli	a5,a4,0x10
    9a8e:	41f787b3          	sub	a5,a5,t6
    9a92:	4105d713          	srai	a4,a1,0x10
    9a96:	97ba                	add	a5,a5,a4
    9a98:	4107df13          	srai	t5,a5,0x10
    9a9c:	01d5f5b3          	and	a1,a1,t4
    9aa0:	07c2                	slli	a5,a5,0x10
    9aa2:	8fcd                	or	a5,a5,a1
    9aa4:	0811                	addi	a6,a6,4
    9aa6:	fef6ae23          	sw	a5,-4(a3)
    9aaa:	0611                	addi	a2,a2,4
    9aac:	fd1863e3          	bltu	a6,a7,9a72 <__mdiff+0x78>
    9ab0:	65c1                	lui	a1,0x10
    9ab2:	15fd                	addi	a1,a1,-1
    9ab4:	01c66863          	bltu	a2,t3,9ac4 <__mdiff+0xca>
    9ab8:	16f1                	addi	a3,a3,-4
    9aba:	429c                	lw	a5,0(a3)
    9abc:	c795                	beqz	a5,9ae8 <__mdiff+0xee>
    9abe:	00652823          	sw	t1,16(a0)
    9ac2:	b795                	j	9a26 <__mdiff+0x2c>
    9ac4:	421c                	lw	a5,0(a2)
    9ac6:	0691                	addi	a3,a3,4
    9ac8:	0611                	addi	a2,a2,4
    9aca:	00b7f733          	and	a4,a5,a1
    9ace:	977a                	add	a4,a4,t5
    9ad0:	41075813          	srai	a6,a4,0x10
    9ad4:	83c1                	srli	a5,a5,0x10
    9ad6:	97c2                	add	a5,a5,a6
    9ad8:	4107df13          	srai	t5,a5,0x10
    9adc:	8f6d                	and	a4,a4,a1
    9ade:	07c2                	slli	a5,a5,0x10
    9ae0:	8fd9                	or	a5,a5,a4
    9ae2:	fef6ae23          	sw	a5,-4(a3)
    9ae6:	b7f9                	j	9ab4 <__mdiff+0xba>
    9ae8:	137d                	addi	t1,t1,-1
    9aea:	b7f9                	j	9ab8 <__mdiff+0xbe>

00009aec <__ulp>:
    9aec:	7ff007b7          	lui	a5,0x7ff00
    9af0:	8dfd                	and	a1,a1,a5
    9af2:	fcc007b7          	lui	a5,0xfcc00
    9af6:	95be                	add	a1,a1,a5
    9af8:	00b05563          	blez	a1,9b02 <__ulp+0x16>
    9afc:	4781                	li	a5,0
    9afe:	853e                	mv	a0,a5
    9b00:	8082                	ret
    9b02:	40b005b3          	neg	a1,a1
    9b06:	4145d793          	srai	a5,a1,0x14
    9b0a:	474d                	li	a4,19
    9b0c:	00f74763          	blt	a4,a5,9b1a <__ulp+0x2e>
    9b10:	000805b7          	lui	a1,0x80
    9b14:	40f5d5b3          	sra	a1,a1,a5
    9b18:	b7d5                	j	9afc <__ulp+0x10>
    9b1a:	fec78713          	addi	a4,a5,-20 # fcbfffec <_eusrstack+0xdcbf7fec>
    9b1e:	46f9                	li	a3,30
    9b20:	4581                	li	a1,0
    9b22:	4785                	li	a5,1
    9b24:	fce6cde3          	blt	a3,a4,9afe <__ulp+0x12>
    9b28:	800007b7          	lui	a5,0x80000
    9b2c:	00e7d7b3          	srl	a5,a5,a4
    9b30:	b7f9                	j	9afe <__ulp+0x12>

00009b32 <__b2d>:
    9b32:	7179                	addi	sp,sp,-48
    9b34:	d226                	sw	s1,36(sp)
    9b36:	4904                	lw	s1,16(a0)
    9b38:	ce4e                	sw	s3,28(sp)
    9b3a:	01450993          	addi	s3,a0,20
    9b3e:	048a                	slli	s1,s1,0x2
    9b40:	94ce                	add	s1,s1,s3
    9b42:	d422                	sw	s0,40(sp)
    9b44:	ffc4a403          	lw	s0,-4(s1)
    9b48:	d04a                	sw	s2,32(sp)
    9b4a:	c62e                	sw	a1,12(sp)
    9b4c:	8522                	mv	a0,s0
    9b4e:	d606                	sw	ra,44(sp)
    9b50:	addff0ef          	jal	ra,962c <__hi0bits>
    9b54:	45b2                	lw	a1,12(sp)
    9b56:	02000793          	li	a5,32
    9b5a:	8f89                	sub	a5,a5,a0
    9b5c:	c19c                	sw	a5,0(a1)
    9b5e:	47a9                	li	a5,10
    9b60:	ffc48913          	addi	s2,s1,-4
    9b64:	02a7cd63          	blt	a5,a0,9b9e <__b2d+0x6c>
    9b68:	47ad                	li	a5,11
    9b6a:	8f89                	sub	a5,a5,a0
    9b6c:	3ff00737          	lui	a4,0x3ff00
    9b70:	00f456b3          	srl	a3,s0,a5
    9b74:	8ed9                	or	a3,a3,a4
    9b76:	4701                	li	a4,0
    9b78:	0129f463          	bgeu	s3,s2,9b80 <__b2d+0x4e>
    9b7c:	ff84a703          	lw	a4,-8(s1)
    9b80:	0555                	addi	a0,a0,21
    9b82:	00a41533          	sll	a0,s0,a0
    9b86:	00f757b3          	srl	a5,a4,a5
    9b8a:	8fc9                	or	a5,a5,a0
    9b8c:	50b2                	lw	ra,44(sp)
    9b8e:	5422                	lw	s0,40(sp)
    9b90:	5492                	lw	s1,36(sp)
    9b92:	5902                	lw	s2,32(sp)
    9b94:	49f2                	lw	s3,28(sp)
    9b96:	853e                	mv	a0,a5
    9b98:	85b6                	mv	a1,a3
    9b9a:	6145                	addi	sp,sp,48
    9b9c:	8082                	ret
    9b9e:	4781                	li	a5,0
    9ba0:	0129f663          	bgeu	s3,s2,9bac <__b2d+0x7a>
    9ba4:	ff84a783          	lw	a5,-8(s1)
    9ba8:	ff848913          	addi	s2,s1,-8
    9bac:	1555                	addi	a0,a0,-11
    9bae:	c905                	beqz	a0,9bde <__b2d+0xac>
    9bb0:	02000713          	li	a4,32
    9bb4:	40a70633          	sub	a2,a4,a0
    9bb8:	00c7d733          	srl	a4,a5,a2
    9bbc:	00a41433          	sll	s0,s0,a0
    9bc0:	8c59                	or	s0,s0,a4
    9bc2:	3ff006b7          	lui	a3,0x3ff00
    9bc6:	8ec1                	or	a3,a3,s0
    9bc8:	4701                	li	a4,0
    9bca:	0129f463          	bgeu	s3,s2,9bd2 <__b2d+0xa0>
    9bce:	ffc92703          	lw	a4,-4(s2)
    9bd2:	00a797b3          	sll	a5,a5,a0
    9bd6:	00c75733          	srl	a4,a4,a2
    9bda:	8fd9                	or	a5,a5,a4
    9bdc:	bf45                	j	9b8c <__b2d+0x5a>
    9bde:	3ff006b7          	lui	a3,0x3ff00
    9be2:	8ec1                	or	a3,a3,s0
    9be4:	b765                	j	9b8c <__b2d+0x5a>

00009be6 <__d2b>:
    9be6:	7179                	addi	sp,sp,-48
    9be8:	d422                	sw	s0,40(sp)
    9bea:	842e                	mv	s0,a1
    9bec:	4585                	li	a1,1
    9bee:	d226                	sw	s1,36(sp)
    9bf0:	d04a                	sw	s2,32(sp)
    9bf2:	84b2                	mv	s1,a2
    9bf4:	ce4e                	sw	s3,28(sp)
    9bf6:	cc52                	sw	s4,24(sp)
    9bf8:	893a                	mv	s2,a4
    9bfa:	d606                	sw	ra,44(sp)
    9bfc:	8a36                	mv	s4,a3
    9bfe:	823ff0ef          	jal	ra,9420 <_Balloc>
    9c02:	00100737          	lui	a4,0x100
    9c06:	fff70793          	addi	a5,a4,-1 # fffff <_data_lma+0xf3c3b>
    9c0a:	8fe5                	and	a5,a5,s1
    9c0c:	80d1                	srli	s1,s1,0x14
    9c0e:	7ff4f493          	andi	s1,s1,2047
    9c12:	89aa                	mv	s3,a0
    9c14:	e0b5                	bnez	s1,9c78 <__d2b+0x92>
    9c16:	c63e                	sw	a5,12(sp)
    9c18:	c42d                	beqz	s0,9c82 <__d2b+0x9c>
    9c1a:	0028                	addi	a0,sp,8
    9c1c:	c422                	sw	s0,8(sp)
    9c1e:	a55ff0ef          	jal	ra,9672 <__lo0bits>
    9c22:	46a2                	lw	a3,8(sp)
    9c24:	cd21                	beqz	a0,9c7c <__d2b+0x96>
    9c26:	4732                	lw	a4,12(sp)
    9c28:	02000793          	li	a5,32
    9c2c:	8f89                	sub	a5,a5,a0
    9c2e:	00f717b3          	sll	a5,a4,a5
    9c32:	8fd5                	or	a5,a5,a3
    9c34:	00a75733          	srl	a4,a4,a0
    9c38:	00f9aa23          	sw	a5,20(s3)
    9c3c:	c63a                	sw	a4,12(sp)
    9c3e:	4432                	lw	s0,12(sp)
    9c40:	0089ac23          	sw	s0,24(s3)
    9c44:	00803433          	snez	s0,s0
    9c48:	0405                	addi	s0,s0,1
    9c4a:	0089a823          	sw	s0,16(s3)
    9c4e:	c4b9                	beqz	s1,9c9c <__d2b+0xb6>
    9c50:	bcd48493          	addi	s1,s1,-1075
    9c54:	94aa                	add	s1,s1,a0
    9c56:	03500793          	li	a5,53
    9c5a:	009a2023          	sw	s1,0(s4)
    9c5e:	40a78533          	sub	a0,a5,a0
    9c62:	00a92023          	sw	a0,0(s2)
    9c66:	50b2                	lw	ra,44(sp)
    9c68:	5422                	lw	s0,40(sp)
    9c6a:	854e                	mv	a0,s3
    9c6c:	5492                	lw	s1,36(sp)
    9c6e:	5902                	lw	s2,32(sp)
    9c70:	49f2                	lw	s3,28(sp)
    9c72:	4a62                	lw	s4,24(sp)
    9c74:	6145                	addi	sp,sp,48
    9c76:	8082                	ret
    9c78:	8fd9                	or	a5,a5,a4
    9c7a:	bf71                	j	9c16 <__d2b+0x30>
    9c7c:	00d9aa23          	sw	a3,20(s3)
    9c80:	bf7d                	j	9c3e <__d2b+0x58>
    9c82:	0068                	addi	a0,sp,12
    9c84:	9efff0ef          	jal	ra,9672 <__lo0bits>
    9c88:	47b2                	lw	a5,12(sp)
    9c8a:	02050513          	addi	a0,a0,32
    9c8e:	4405                	li	s0,1
    9c90:	00f9aa23          	sw	a5,20(s3)
    9c94:	4785                	li	a5,1
    9c96:	00f9a823          	sw	a5,16(s3)
    9c9a:	bf55                	j	9c4e <__d2b+0x68>
    9c9c:	00241793          	slli	a5,s0,0x2
    9ca0:	bce50513          	addi	a0,a0,-1074
    9ca4:	97ce                	add	a5,a5,s3
    9ca6:	00aa2023          	sw	a0,0(s4)
    9caa:	4b88                	lw	a0,16(a5)
    9cac:	0416                	slli	s0,s0,0x5
    9cae:	97fff0ef          	jal	ra,962c <__hi0bits>
    9cb2:	8c09                	sub	s0,s0,a0
    9cb4:	00892023          	sw	s0,0(s2)
    9cb8:	b77d                	j	9c66 <__d2b+0x80>

00009cba <__ratio>:
    9cba:	7179                	addi	sp,sp,-48
    9cbc:	d04a                	sw	s2,32(sp)
    9cbe:	892e                	mv	s2,a1
    9cc0:	002c                	addi	a1,sp,8
    9cc2:	d606                	sw	ra,44(sp)
    9cc4:	d422                	sw	s0,40(sp)
    9cc6:	d226                	sw	s1,36(sp)
    9cc8:	ce4e                	sw	s3,28(sp)
    9cca:	cc52                	sw	s4,24(sp)
    9ccc:	8a2a                	mv	s4,a0
    9cce:	e65ff0ef          	jal	ra,9b32 <__b2d>
    9cd2:	89aa                	mv	s3,a0
    9cd4:	84ae                	mv	s1,a1
    9cd6:	842e                	mv	s0,a1
    9cd8:	854a                	mv	a0,s2
    9cda:	006c                	addi	a1,sp,12
    9cdc:	e57ff0ef          	jal	ra,9b32 <__b2d>
    9ce0:	01092783          	lw	a5,16(s2)
    9ce4:	010a2703          	lw	a4,16(s4)
    9ce8:	46a2                	lw	a3,8(sp)
    9cea:	8f1d                	sub	a4,a4,a5
    9cec:	47b2                	lw	a5,12(sp)
    9cee:	0716                	slli	a4,a4,0x5
    9cf0:	8e9d                	sub	a3,a3,a5
    9cf2:	00d707b3          	add	a5,a4,a3
    9cf6:	02f05563          	blez	a5,9d20 <__ratio+0x66>
    9cfa:	07d2                	slli	a5,a5,0x14
    9cfc:	862e                	mv	a2,a1
    9cfe:	00978433          	add	s0,a5,s1
    9d02:	8732                	mv	a4,a2
    9d04:	85a2                	mv	a1,s0
    9d06:	862a                	mv	a2,a0
    9d08:	86ba                	mv	a3,a4
    9d0a:	854e                	mv	a0,s3
    9d0c:	c19f90ef          	jal	ra,3924 <__divdf3>
    9d10:	50b2                	lw	ra,44(sp)
    9d12:	5422                	lw	s0,40(sp)
    9d14:	5492                	lw	s1,36(sp)
    9d16:	5902                	lw	s2,32(sp)
    9d18:	49f2                	lw	s3,28(sp)
    9d1a:	4a62                	lw	s4,24(sp)
    9d1c:	6145                	addi	sp,sp,48
    9d1e:	8082                	ret
    9d20:	fff00737          	lui	a4,0xfff00
    9d24:	02e787b3          	mul	a5,a5,a4
    9d28:	00b78633          	add	a2,a5,a1
    9d2c:	bfd9                	j	9d02 <__ratio+0x48>

00009d2e <__copybits>:
    9d2e:	fff58793          	addi	a5,a1,-1 # 7ffff <_data_lma+0x73c3b>
    9d32:	4a18                	lw	a4,16(a2)
    9d34:	8795                	srai	a5,a5,0x5
    9d36:	0785                	addi	a5,a5,1
    9d38:	078a                	slli	a5,a5,0x2
    9d3a:	01460693          	addi	a3,a2,20
    9d3e:	070a                	slli	a4,a4,0x2
    9d40:	97aa                	add	a5,a5,a0
    9d42:	9736                	add	a4,a4,a3
    9d44:	00e6e563          	bltu	a3,a4,9d4e <__copybits+0x20>
    9d48:	00f56a63          	bltu	a0,a5,9d5c <__copybits+0x2e>
    9d4c:	8082                	ret
    9d4e:	0691                	addi	a3,a3,4
    9d50:	ffc6a603          	lw	a2,-4(a3) # 3feffffc <_eusrstack+0x1fef7ffc>
    9d54:	0511                	addi	a0,a0,4
    9d56:	fec52e23          	sw	a2,-4(a0)
    9d5a:	b7ed                	j	9d44 <__copybits+0x16>
    9d5c:	0511                	addi	a0,a0,4
    9d5e:	fe052e23          	sw	zero,-4(a0)
    9d62:	b7dd                	j	9d48 <__copybits+0x1a>

00009d64 <__any_on>:
    9d64:	4914                	lw	a3,16(a0)
    9d66:	4055d793          	srai	a5,a1,0x5
    9d6a:	01450713          	addi	a4,a0,20
    9d6e:	02f6c763          	blt	a3,a5,9d9c <__any_on+0x38>
    9d72:	00d7df63          	bge	a5,a3,9d90 <__any_on+0x2c>
    9d76:	89fd                	andi	a1,a1,31
    9d78:	cd81                	beqz	a1,9d90 <__any_on+0x2c>
    9d7a:	00279693          	slli	a3,a5,0x2
    9d7e:	96ba                	add	a3,a3,a4
    9d80:	4290                	lw	a2,0(a3)
    9d82:	4505                	li	a0,1
    9d84:	00b656b3          	srl	a3,a2,a1
    9d88:	00b695b3          	sll	a1,a3,a1
    9d8c:	00b61e63          	bne	a2,a1,9da8 <__any_on+0x44>
    9d90:	078a                	slli	a5,a5,0x2
    9d92:	97ba                	add	a5,a5,a4
    9d94:	00f76663          	bltu	a4,a5,9da0 <__any_on+0x3c>
    9d98:	4501                	li	a0,0
    9d9a:	8082                	ret
    9d9c:	87b6                	mv	a5,a3
    9d9e:	bfcd                	j	9d90 <__any_on+0x2c>
    9da0:	17f1                	addi	a5,a5,-4
    9da2:	4394                	lw	a3,0(a5)
    9da4:	dae5                	beqz	a3,9d94 <__any_on+0x30>
    9da6:	4505                	li	a0,1
    9da8:	8082                	ret

00009daa <_calloc_r>:
    9daa:	02c58633          	mul	a2,a1,a2
    9dae:	1101                	addi	sp,sp,-32
    9db0:	cc22                	sw	s0,24(sp)
    9db2:	ce06                	sw	ra,28(sp)
    9db4:	85b2                	mv	a1,a2
    9db6:	c632                	sw	a2,12(sp)
    9db8:	20c1                	jal	9e78 <_malloc_r>
    9dba:	842a                	mv	s0,a0
    9dbc:	c509                	beqz	a0,9dc6 <_calloc_r+0x1c>
    9dbe:	4632                	lw	a2,12(sp)
    9dc0:	4581                	li	a1,0
    9dc2:	c9ef60ef          	jal	ra,260 <memset>
    9dc6:	8522                	mv	a0,s0
    9dc8:	40f2                	lw	ra,28(sp)
    9dca:	4462                	lw	s0,24(sp)
    9dcc:	6105                	addi	sp,sp,32
    9dce:	8082                	ret

00009dd0 <_free_r>:
    9dd0:	c1dd                	beqz	a1,9e76 <_free_r+0xa6>
    9dd2:	ffc5a783          	lw	a5,-4(a1)
    9dd6:	1141                	addi	sp,sp,-16
    9dd8:	c422                	sw	s0,8(sp)
    9dda:	c606                	sw	ra,12(sp)
    9ddc:	c226                	sw	s1,4(sp)
    9dde:	ffc58413          	addi	s0,a1,-4
    9de2:	0007d363          	bgez	a5,9de8 <_free_r+0x18>
    9de6:	943e                	add	s0,s0,a5
    9de8:	84aa                	mv	s1,a0
    9dea:	5c7000ef          	jal	ra,abb0 <__malloc_lock>
    9dee:	8f418793          	addi	a5,gp,-1804 # 200002e4 <__malloc_free_list>
    9df2:	439c                	lw	a5,0(a5)
    9df4:	ef81                	bnez	a5,9e0c <_free_r+0x3c>
    9df6:	00042223          	sw	zero,4(s0)
    9dfa:	8e81aa23          	sw	s0,-1804(gp) # 200002e4 <__malloc_free_list>
    9dfe:	4422                	lw	s0,8(sp)
    9e00:	40b2                	lw	ra,12(sp)
    9e02:	8526                	mv	a0,s1
    9e04:	4492                	lw	s1,4(sp)
    9e06:	0141                	addi	sp,sp,16
    9e08:	5ab0006f          	j	abb2 <__malloc_unlock>
    9e0c:	00f47e63          	bgeu	s0,a5,9e28 <_free_r+0x58>
    9e10:	4014                	lw	a3,0(s0)
    9e12:	00d40733          	add	a4,s0,a3
    9e16:	00e79663          	bne	a5,a4,9e22 <_free_r+0x52>
    9e1a:	4398                	lw	a4,0(a5)
    9e1c:	43dc                	lw	a5,4(a5)
    9e1e:	9736                	add	a4,a4,a3
    9e20:	c018                	sw	a4,0(s0)
    9e22:	c05c                	sw	a5,4(s0)
    9e24:	bfd9                	j	9dfa <_free_r+0x2a>
    9e26:	87ba                	mv	a5,a4
    9e28:	43d8                	lw	a4,4(a5)
    9e2a:	c319                	beqz	a4,9e30 <_free_r+0x60>
    9e2c:	fee47de3          	bgeu	s0,a4,9e26 <_free_r+0x56>
    9e30:	4394                	lw	a3,0(a5)
    9e32:	00d78633          	add	a2,a5,a3
    9e36:	00861f63          	bne	a2,s0,9e54 <_free_r+0x84>
    9e3a:	4010                	lw	a2,0(s0)
    9e3c:	96b2                	add	a3,a3,a2
    9e3e:	c394                	sw	a3,0(a5)
    9e40:	00d78633          	add	a2,a5,a3
    9e44:	fac71de3          	bne	a4,a2,9dfe <_free_r+0x2e>
    9e48:	4310                	lw	a2,0(a4)
    9e4a:	4358                	lw	a4,4(a4)
    9e4c:	96b2                	add	a3,a3,a2
    9e4e:	c394                	sw	a3,0(a5)
    9e50:	c3d8                	sw	a4,4(a5)
    9e52:	b775                	j	9dfe <_free_r+0x2e>
    9e54:	00c47563          	bgeu	s0,a2,9e5e <_free_r+0x8e>
    9e58:	47b1                	li	a5,12
    9e5a:	c09c                	sw	a5,0(s1)
    9e5c:	b74d                	j	9dfe <_free_r+0x2e>
    9e5e:	4010                	lw	a2,0(s0)
    9e60:	00c406b3          	add	a3,s0,a2
    9e64:	00d71663          	bne	a4,a3,9e70 <_free_r+0xa0>
    9e68:	4314                	lw	a3,0(a4)
    9e6a:	4358                	lw	a4,4(a4)
    9e6c:	96b2                	add	a3,a3,a2
    9e6e:	c014                	sw	a3,0(s0)
    9e70:	c058                	sw	a4,4(s0)
    9e72:	c3c0                	sw	s0,4(a5)
    9e74:	b769                	j	9dfe <_free_r+0x2e>
    9e76:	8082                	ret

00009e78 <_malloc_r>:
    9e78:	1101                	addi	sp,sp,-32
    9e7a:	ca26                	sw	s1,20(sp)
    9e7c:	00358493          	addi	s1,a1,3
    9e80:	98f1                	andi	s1,s1,-4
    9e82:	ce06                	sw	ra,28(sp)
    9e84:	cc22                	sw	s0,24(sp)
    9e86:	c84a                	sw	s2,16(sp)
    9e88:	c64e                	sw	s3,12(sp)
    9e8a:	04a1                	addi	s1,s1,8
    9e8c:	47b1                	li	a5,12
    9e8e:	04f4f363          	bgeu	s1,a5,9ed4 <_malloc_r+0x5c>
    9e92:	44b1                	li	s1,12
    9e94:	04b4e263          	bltu	s1,a1,9ed8 <_malloc_r+0x60>
    9e98:	892a                	mv	s2,a0
    9e9a:	517000ef          	jal	ra,abb0 <__malloc_lock>
    9e9e:	8f418793          	addi	a5,gp,-1804 # 200002e4 <__malloc_free_list>
    9ea2:	4398                	lw	a4,0(a5)
    9ea4:	843a                	mv	s0,a4
    9ea6:	e039                	bnez	s0,9eec <_malloc_r+0x74>
    9ea8:	8f818793          	addi	a5,gp,-1800 # 200002e8 <__malloc_sbrk_start>
    9eac:	439c                	lw	a5,0(a5)
    9eae:	e791                	bnez	a5,9eba <_malloc_r+0x42>
    9eb0:	4581                	li	a1,0
    9eb2:	854a                	mv	a0,s2
    9eb4:	2dd9                	jal	a58a <_sbrk_r>
    9eb6:	8ea1ac23          	sw	a0,-1800(gp) # 200002e8 <__malloc_sbrk_start>
    9eba:	85a6                	mv	a1,s1
    9ebc:	854a                	mv	a0,s2
    9ebe:	25f1                	jal	a58a <_sbrk_r>
    9ec0:	59fd                	li	s3,-1
    9ec2:	07351963          	bne	a0,s3,9f34 <_malloc_r+0xbc>
    9ec6:	47b1                	li	a5,12
    9ec8:	00f92023          	sw	a5,0(s2)
    9ecc:	854a                	mv	a0,s2
    9ece:	4e5000ef          	jal	ra,abb2 <__malloc_unlock>
    9ed2:	a029                	j	9edc <_malloc_r+0x64>
    9ed4:	fc04d0e3          	bgez	s1,9e94 <_malloc_r+0x1c>
    9ed8:	47b1                	li	a5,12
    9eda:	c11c                	sw	a5,0(a0)
    9edc:	4501                	li	a0,0
    9ede:	40f2                	lw	ra,28(sp)
    9ee0:	4462                	lw	s0,24(sp)
    9ee2:	44d2                	lw	s1,20(sp)
    9ee4:	4942                	lw	s2,16(sp)
    9ee6:	49b2                	lw	s3,12(sp)
    9ee8:	6105                	addi	sp,sp,32
    9eea:	8082                	ret
    9eec:	401c                	lw	a5,0(s0)
    9eee:	8f85                	sub	a5,a5,s1
    9ef0:	0207cf63          	bltz	a5,9f2e <_malloc_r+0xb6>
    9ef4:	46ad                	li	a3,11
    9ef6:	00f6f663          	bgeu	a3,a5,9f02 <_malloc_r+0x8a>
    9efa:	c01c                	sw	a5,0(s0)
    9efc:	943e                	add	s0,s0,a5
    9efe:	c004                	sw	s1,0(s0)
    9f00:	a031                	j	9f0c <_malloc_r+0x94>
    9f02:	405c                	lw	a5,4(s0)
    9f04:	02871363          	bne	a4,s0,9f2a <_malloc_r+0xb2>
    9f08:	8ef1aa23          	sw	a5,-1804(gp) # 200002e4 <__malloc_free_list>
    9f0c:	854a                	mv	a0,s2
    9f0e:	4a5000ef          	jal	ra,abb2 <__malloc_unlock>
    9f12:	00b40513          	addi	a0,s0,11
    9f16:	00440793          	addi	a5,s0,4
    9f1a:	9961                	andi	a0,a0,-8
    9f1c:	40f50733          	sub	a4,a0,a5
    9f20:	df5d                	beqz	a4,9ede <_malloc_r+0x66>
    9f22:	943a                	add	s0,s0,a4
    9f24:	8f89                	sub	a5,a5,a0
    9f26:	c01c                	sw	a5,0(s0)
    9f28:	bf5d                	j	9ede <_malloc_r+0x66>
    9f2a:	c35c                	sw	a5,4(a4)
    9f2c:	b7c5                	j	9f0c <_malloc_r+0x94>
    9f2e:	8722                	mv	a4,s0
    9f30:	4040                	lw	s0,4(s0)
    9f32:	bf95                	j	9ea6 <_malloc_r+0x2e>
    9f34:	00350413          	addi	s0,a0,3
    9f38:	9871                	andi	s0,s0,-4
    9f3a:	fc8502e3          	beq	a0,s0,9efe <_malloc_r+0x86>
    9f3e:	40a405b3          	sub	a1,s0,a0
    9f42:	854a                	mv	a0,s2
    9f44:	2599                	jal	a58a <_sbrk_r>
    9f46:	fb351ce3          	bne	a0,s3,9efe <_malloc_r+0x86>
    9f4a:	bfb5                	j	9ec6 <_malloc_r+0x4e>

00009f4c <__ssputs_r>:
    9f4c:	1101                	addi	sp,sp,-32
    9f4e:	c84a                	sw	s2,16(sp)
    9f50:	0085a903          	lw	s2,8(a1)
    9f54:	cc22                	sw	s0,24(sp)
    9f56:	c452                	sw	s4,8(sp)
    9f58:	c05a                	sw	s6,0(sp)
    9f5a:	ce06                	sw	ra,28(sp)
    9f5c:	ca26                	sw	s1,20(sp)
    9f5e:	c64e                	sw	s3,12(sp)
    9f60:	c256                	sw	s5,4(sp)
    9f62:	842e                	mv	s0,a1
    9f64:	8b32                	mv	s6,a2
    9f66:	8a36                	mv	s4,a3
    9f68:	0926e963          	bltu	a3,s2,9ffa <__ssputs_r+0xae>
    9f6c:	25de                	lhu	a5,12(a1)
    9f6e:	4807f713          	andi	a4,a5,1152
    9f72:	c351                	beqz	a4,9ff6 <__ssputs_r+0xaa>
    9f74:	4004                	lw	s1,0(s0)
    9f76:	498c                	lw	a1,16(a1)
    9f78:	4858                	lw	a4,20(s0)
    9f7a:	8aaa                	mv	s5,a0
    9f7c:	40b489b3          	sub	s3,s1,a1
    9f80:	448d                	li	s1,3
    9f82:	02e484b3          	mul	s1,s1,a4
    9f86:	4709                	li	a4,2
    9f88:	02e4c4b3          	div	s1,s1,a4
    9f8c:	00168713          	addi	a4,a3,1
    9f90:	974e                	add	a4,a4,s3
    9f92:	00e4f363          	bgeu	s1,a4,9f98 <__ssputs_r+0x4c>
    9f96:	84ba                	mv	s1,a4
    9f98:	4007f793          	andi	a5,a5,1024
    9f9c:	cfbd                	beqz	a5,a01a <__ssputs_r+0xce>
    9f9e:	85a6                	mv	a1,s1
    9fa0:	8556                	mv	a0,s5
    9fa2:	ed7ff0ef          	jal	ra,9e78 <_malloc_r>
    9fa6:	892a                	mv	s2,a0
    9fa8:	e11d                	bnez	a0,9fce <__ssputs_r+0x82>
    9faa:	47b1                	li	a5,12
    9fac:	00faa023          	sw	a5,0(s5)
    9fb0:	245e                	lhu	a5,12(s0)
    9fb2:	557d                	li	a0,-1
    9fb4:	0407e793          	ori	a5,a5,64
    9fb8:	a45e                	sh	a5,12(s0)
    9fba:	40f2                	lw	ra,28(sp)
    9fbc:	4462                	lw	s0,24(sp)
    9fbe:	44d2                	lw	s1,20(sp)
    9fc0:	4942                	lw	s2,16(sp)
    9fc2:	49b2                	lw	s3,12(sp)
    9fc4:	4a22                	lw	s4,8(sp)
    9fc6:	4a92                	lw	s5,4(sp)
    9fc8:	4b02                	lw	s6,0(sp)
    9fca:	6105                	addi	sp,sp,32
    9fcc:	8082                	ret
    9fce:	480c                	lw	a1,16(s0)
    9fd0:	864e                	mv	a2,s3
    9fd2:	f49fb0ef          	jal	ra,5f1a <memcpy>
    9fd6:	245e                	lhu	a5,12(s0)
    9fd8:	b7f7f793          	andi	a5,a5,-1153
    9fdc:	0807e793          	ori	a5,a5,128
    9fe0:	a45e                	sh	a5,12(s0)
    9fe2:	01242823          	sw	s2,16(s0)
    9fe6:	c844                	sw	s1,20(s0)
    9fe8:	994e                	add	s2,s2,s3
    9fea:	413484b3          	sub	s1,s1,s3
    9fee:	01242023          	sw	s2,0(s0)
    9ff2:	c404                	sw	s1,8(s0)
    9ff4:	8952                	mv	s2,s4
    9ff6:	012a7363          	bgeu	s4,s2,9ffc <__ssputs_r+0xb0>
    9ffa:	8952                	mv	s2,s4
    9ffc:	4008                	lw	a0,0(s0)
    9ffe:	864a                	mv	a2,s2
    a000:	85da                	mv	a1,s6
    a002:	369000ef          	jal	ra,ab6a <memmove>
    a006:	441c                	lw	a5,8(s0)
    a008:	4501                	li	a0,0
    a00a:	412787b3          	sub	a5,a5,s2
    a00e:	c41c                	sw	a5,8(s0)
    a010:	401c                	lw	a5,0(s0)
    a012:	993e                	add	s2,s2,a5
    a014:	01242023          	sw	s2,0(s0)
    a018:	b74d                	j	9fba <__ssputs_r+0x6e>
    a01a:	8626                	mv	a2,s1
    a01c:	8556                	mv	a0,s5
    a01e:	397000ef          	jal	ra,abb4 <_realloc_r>
    a022:	892a                	mv	s2,a0
    a024:	fd5d                	bnez	a0,9fe2 <__ssputs_r+0x96>
    a026:	480c                	lw	a1,16(s0)
    a028:	8556                	mv	a0,s5
    a02a:	da7ff0ef          	jal	ra,9dd0 <_free_r>
    a02e:	bfb5                	j	9faa <__ssputs_r+0x5e>

0000a030 <_svfiprintf_r>:
    a030:	25de                	lhu	a5,12(a1)
    a032:	7171                	addi	sp,sp,-176
    a034:	d326                	sw	s1,164(sp)
    a036:	d14a                	sw	s2,160(sp)
    a038:	cf4e                	sw	s3,156(sp)
    a03a:	d706                	sw	ra,172(sp)
    a03c:	d522                	sw	s0,168(sp)
    a03e:	cd52                	sw	s4,152(sp)
    a040:	cb56                	sw	s5,148(sp)
    a042:	c95a                	sw	s6,144(sp)
    a044:	c75e                	sw	s7,140(sp)
    a046:	c562                	sw	s8,136(sp)
    a048:	c366                	sw	s9,132(sp)
    a04a:	0807f793          	andi	a5,a5,128
    a04e:	89aa                	mv	s3,a0
    a050:	892e                	mv	s2,a1
    a052:	84b2                	mv	s1,a2
    a054:	c3b9                	beqz	a5,a09a <_svfiprintf_r+0x6a>
    a056:	499c                	lw	a5,16(a1)
    a058:	e3a9                	bnez	a5,a09a <_svfiprintf_r+0x6a>
    a05a:	04000593          	li	a1,64
    a05e:	c636                	sw	a3,12(sp)
    a060:	e19ff0ef          	jal	ra,9e78 <_malloc_r>
    a064:	00a92023          	sw	a0,0(s2)
    a068:	00a92823          	sw	a0,16(s2)
    a06c:	46b2                	lw	a3,12(sp)
    a06e:	e115                	bnez	a0,a092 <_svfiprintf_r+0x62>
    a070:	47b1                	li	a5,12
    a072:	00f9a023          	sw	a5,0(s3)
    a076:	557d                	li	a0,-1
    a078:	50ba                	lw	ra,172(sp)
    a07a:	542a                	lw	s0,168(sp)
    a07c:	549a                	lw	s1,164(sp)
    a07e:	590a                	lw	s2,160(sp)
    a080:	49fa                	lw	s3,156(sp)
    a082:	4a6a                	lw	s4,152(sp)
    a084:	4ada                	lw	s5,148(sp)
    a086:	4b4a                	lw	s6,144(sp)
    a088:	4bba                	lw	s7,140(sp)
    a08a:	4c2a                	lw	s8,136(sp)
    a08c:	4c9a                	lw	s9,132(sp)
    a08e:	614d                	addi	sp,sp,176
    a090:	8082                	ret
    a092:	04000793          	li	a5,64
    a096:	00f92a23          	sw	a5,20(s2)
    a09a:	02000793          	li	a5,32
    a09e:	02f10ca3          	sb	a5,57(sp)
    a0a2:	03000793          	li	a5,48
    a0a6:	da02                	sw	zero,52(sp)
    a0a8:	02f10d23          	sb	a5,58(sp)
    a0ac:	ce36                	sw	a3,28(sp)
    a0ae:	02500b93          	li	s7,37
    a0b2:	00002a97          	auipc	s5,0x2
    a0b6:	1faa8a93          	addi	s5,s5,506 # c2ac <p05.3319+0xc>
    a0ba:	4c05                	li	s8,1
    a0bc:	4b29                	li	s6,10
    a0be:	8426                	mv	s0,s1
    a0c0:	201c                	lbu	a5,0(s0)
    a0c2:	c399                	beqz	a5,a0c8 <_svfiprintf_r+0x98>
    a0c4:	09779963          	bne	a5,s7,a156 <_svfiprintf_r+0x126>
    a0c8:	40940cb3          	sub	s9,s0,s1
    a0cc:	000c8e63          	beqz	s9,a0e8 <_svfiprintf_r+0xb8>
    a0d0:	86e6                	mv	a3,s9
    a0d2:	8626                	mv	a2,s1
    a0d4:	85ca                	mv	a1,s2
    a0d6:	854e                	mv	a0,s3
    a0d8:	e75ff0ef          	jal	ra,9f4c <__ssputs_r>
    a0dc:	57fd                	li	a5,-1
    a0de:	18f50963          	beq	a0,a5,a270 <_svfiprintf_r+0x240>
    a0e2:	56d2                	lw	a3,52(sp)
    a0e4:	96e6                	add	a3,a3,s9
    a0e6:	da36                	sw	a3,52(sp)
    a0e8:	201c                	lbu	a5,0(s0)
    a0ea:	18078363          	beqz	a5,a270 <_svfiprintf_r+0x240>
    a0ee:	57fd                	li	a5,-1
    a0f0:	00140493          	addi	s1,s0,1
    a0f4:	d002                	sw	zero,32(sp)
    a0f6:	d602                	sw	zero,44(sp)
    a0f8:	d23e                	sw	a5,36(sp)
    a0fa:	d402                	sw	zero,40(sp)
    a0fc:	060101a3          	sb	zero,99(sp)
    a100:	dc82                	sw	zero,120(sp)
    a102:	208c                	lbu	a1,0(s1)
    a104:	4615                	li	a2,5
    a106:	8556                	mv	a0,s5
    a108:	b00ff0ef          	jal	ra,9408 <memchr>
    a10c:	00148413          	addi	s0,s1,1
    a110:	5782                	lw	a5,32(sp)
    a112:	e521                	bnez	a0,a15a <_svfiprintf_r+0x12a>
    a114:	0107f713          	andi	a4,a5,16
    a118:	c709                	beqz	a4,a122 <_svfiprintf_r+0xf2>
    a11a:	02000713          	li	a4,32
    a11e:	06e101a3          	sb	a4,99(sp)
    a122:	0087f713          	andi	a4,a5,8
    a126:	c709                	beqz	a4,a130 <_svfiprintf_r+0x100>
    a128:	02b00713          	li	a4,43
    a12c:	06e101a3          	sb	a4,99(sp)
    a130:	2094                	lbu	a3,0(s1)
    a132:	02a00713          	li	a4,42
    a136:	02e68a63          	beq	a3,a4,a16a <_svfiprintf_r+0x13a>
    a13a:	57b2                	lw	a5,44(sp)
    a13c:	8426                	mv	s0,s1
    a13e:	4681                	li	a3,0
    a140:	4625                	li	a2,9
    a142:	2018                	lbu	a4,0(s0)
    a144:	00140593          	addi	a1,s0,1
    a148:	fd070713          	addi	a4,a4,-48 # ffefffd0 <_eusrstack+0xdfef7fd0>
    a14c:	06e67263          	bgeu	a2,a4,a1b0 <_svfiprintf_r+0x180>
    a150:	c68d                	beqz	a3,a17a <_svfiprintf_r+0x14a>
    a152:	d63e                	sw	a5,44(sp)
    a154:	a01d                	j	a17a <_svfiprintf_r+0x14a>
    a156:	0405                	addi	s0,s0,1
    a158:	b7a5                	j	a0c0 <_svfiprintf_r+0x90>
    a15a:	41550533          	sub	a0,a0,s5
    a15e:	00ac1533          	sll	a0,s8,a0
    a162:	8fc9                	or	a5,a5,a0
    a164:	d03e                	sw	a5,32(sp)
    a166:	84a2                	mv	s1,s0
    a168:	bf69                	j	a102 <_svfiprintf_r+0xd2>
    a16a:	4772                	lw	a4,28(sp)
    a16c:	00470693          	addi	a3,a4,4
    a170:	4318                	lw	a4,0(a4)
    a172:	ce36                	sw	a3,28(sp)
    a174:	02074763          	bltz	a4,a1a2 <_svfiprintf_r+0x172>
    a178:	d63a                	sw	a4,44(sp)
    a17a:	2018                	lbu	a4,0(s0)
    a17c:	02e00793          	li	a5,46
    a180:	04f71d63          	bne	a4,a5,a1da <_svfiprintf_r+0x1aa>
    a184:	3018                	lbu	a4,1(s0)
    a186:	02a00793          	li	a5,42
    a18a:	02f71b63          	bne	a4,a5,a1c0 <_svfiprintf_r+0x190>
    a18e:	47f2                	lw	a5,28(sp)
    a190:	0409                	addi	s0,s0,2
    a192:	00478713          	addi	a4,a5,4 # 80000004 <_eusrstack+0x5fff8004>
    a196:	439c                	lw	a5,0(a5)
    a198:	ce3a                	sw	a4,28(sp)
    a19a:	0207c163          	bltz	a5,a1bc <_svfiprintf_r+0x18c>
    a19e:	d23e                	sw	a5,36(sp)
    a1a0:	a82d                	j	a1da <_svfiprintf_r+0x1aa>
    a1a2:	40e00733          	neg	a4,a4
    a1a6:	0027e793          	ori	a5,a5,2
    a1aa:	d63a                	sw	a4,44(sp)
    a1ac:	d03e                	sw	a5,32(sp)
    a1ae:	b7f1                	j	a17a <_svfiprintf_r+0x14a>
    a1b0:	036787b3          	mul	a5,a5,s6
    a1b4:	4685                	li	a3,1
    a1b6:	842e                	mv	s0,a1
    a1b8:	97ba                	add	a5,a5,a4
    a1ba:	b761                	j	a142 <_svfiprintf_r+0x112>
    a1bc:	57fd                	li	a5,-1
    a1be:	b7c5                	j	a19e <_svfiprintf_r+0x16e>
    a1c0:	0405                	addi	s0,s0,1
    a1c2:	d202                	sw	zero,36(sp)
    a1c4:	4681                	li	a3,0
    a1c6:	4781                	li	a5,0
    a1c8:	4625                	li	a2,9
    a1ca:	2018                	lbu	a4,0(s0)
    a1cc:	00140593          	addi	a1,s0,1
    a1d0:	fd070713          	addi	a4,a4,-48
    a1d4:	06e67663          	bgeu	a2,a4,a240 <_svfiprintf_r+0x210>
    a1d8:	f2f9                	bnez	a3,a19e <_svfiprintf_r+0x16e>
    a1da:	200c                	lbu	a1,0(s0)
    a1dc:	460d                	li	a2,3
    a1de:	00002517          	auipc	a0,0x2
    a1e2:	0d650513          	addi	a0,a0,214 # c2b4 <p05.3319+0x14>
    a1e6:	a22ff0ef          	jal	ra,9408 <memchr>
    a1ea:	cd11                	beqz	a0,a206 <_svfiprintf_r+0x1d6>
    a1ec:	00002797          	auipc	a5,0x2
    a1f0:	0c878793          	addi	a5,a5,200 # c2b4 <p05.3319+0x14>
    a1f4:	8d1d                	sub	a0,a0,a5
    a1f6:	04000793          	li	a5,64
    a1fa:	00a797b3          	sll	a5,a5,a0
    a1fe:	5502                	lw	a0,32(sp)
    a200:	0405                	addi	s0,s0,1
    a202:	8d5d                	or	a0,a0,a5
    a204:	d02a                	sw	a0,32(sp)
    a206:	200c                	lbu	a1,0(s0)
    a208:	4619                	li	a2,6
    a20a:	00002517          	auipc	a0,0x2
    a20e:	0ae50513          	addi	a0,a0,174 # c2b8 <p05.3319+0x18>
    a212:	00140493          	addi	s1,s0,1
    a216:	02b10c23          	sb	a1,56(sp)
    a21a:	9eeff0ef          	jal	ra,9408 <memchr>
    a21e:	c135                	beqz	a0,a282 <_svfiprintf_r+0x252>
    a220:	ffffc797          	auipc	a5,0xffffc
    a224:	f1a78793          	addi	a5,a5,-230 # 613a <_printf_float>
    a228:	e795                	bnez	a5,a254 <_svfiprintf_r+0x224>
    a22a:	5702                	lw	a4,32(sp)
    a22c:	47f2                	lw	a5,28(sp)
    a22e:	10077713          	andi	a4,a4,256
    a232:	cf09                	beqz	a4,a24c <_svfiprintf_r+0x21c>
    a234:	0791                	addi	a5,a5,4
    a236:	ce3e                	sw	a5,28(sp)
    a238:	57d2                	lw	a5,52(sp)
    a23a:	97d2                	add	a5,a5,s4
    a23c:	da3e                	sw	a5,52(sp)
    a23e:	b541                	j	a0be <_svfiprintf_r+0x8e>
    a240:	036787b3          	mul	a5,a5,s6
    a244:	4685                	li	a3,1
    a246:	842e                	mv	s0,a1
    a248:	97ba                	add	a5,a5,a4
    a24a:	b741                	j	a1ca <_svfiprintf_r+0x19a>
    a24c:	079d                	addi	a5,a5,7
    a24e:	9be1                	andi	a5,a5,-8
    a250:	07a1                	addi	a5,a5,8
    a252:	b7d5                	j	a236 <_svfiprintf_r+0x206>
    a254:	0878                	addi	a4,sp,28
    a256:	00000697          	auipc	a3,0x0
    a25a:	cf668693          	addi	a3,a3,-778 # 9f4c <__ssputs_r>
    a25e:	864a                	mv	a2,s2
    a260:	100c                	addi	a1,sp,32
    a262:	854e                	mv	a0,s3
    a264:	ed7fb0ef          	jal	ra,613a <_printf_float>
    a268:	57fd                	li	a5,-1
    a26a:	8a2a                	mv	s4,a0
    a26c:	fcf516e3          	bne	a0,a5,a238 <_svfiprintf_r+0x208>
    a270:	00c95783          	lhu	a5,12(s2)
    a274:	557d                	li	a0,-1
    a276:	0407f793          	andi	a5,a5,64
    a27a:	de079fe3          	bnez	a5,a078 <_svfiprintf_r+0x48>
    a27e:	5552                	lw	a0,52(sp)
    a280:	bbe5                	j	a078 <_svfiprintf_r+0x48>
    a282:	0878                	addi	a4,sp,28
    a284:	00000697          	auipc	a3,0x0
    a288:	cc868693          	addi	a3,a3,-824 # 9f4c <__ssputs_r>
    a28c:	864a                	mv	a2,s2
    a28e:	100c                	addi	a1,sp,32
    a290:	854e                	mv	a0,s3
    a292:	c78fc0ef          	jal	ra,670a <_printf_i>
    a296:	bfc9                	j	a268 <_svfiprintf_r+0x238>

0000a298 <__sfputc_r>:
    a298:	461c                	lw	a5,8(a2)
    a29a:	17fd                	addi	a5,a5,-1
    a29c:	c61c                	sw	a5,8(a2)
    a29e:	0007d963          	bgez	a5,a2b0 <__sfputc_r+0x18>
    a2a2:	4e18                	lw	a4,24(a2)
    a2a4:	00e7c563          	blt	a5,a4,a2ae <__sfputc_r+0x16>
    a2a8:	47a9                	li	a5,10
    a2aa:	00f59363          	bne	a1,a5,a2b0 <__sfputc_r+0x18>
    a2ae:	aee1                	j	a686 <__swbuf_r>
    a2b0:	421c                	lw	a5,0(a2)
    a2b2:	852e                	mv	a0,a1
    a2b4:	00178713          	addi	a4,a5,1
    a2b8:	c218                	sw	a4,0(a2)
    a2ba:	a38c                	sb	a1,0(a5)
    a2bc:	8082                	ret

0000a2be <__sfputs_r>:
    a2be:	1101                	addi	sp,sp,-32
    a2c0:	cc22                	sw	s0,24(sp)
    a2c2:	ca26                	sw	s1,20(sp)
    a2c4:	c84a                	sw	s2,16(sp)
    a2c6:	c64e                	sw	s3,12(sp)
    a2c8:	c452                	sw	s4,8(sp)
    a2ca:	ce06                	sw	ra,28(sp)
    a2cc:	892a                	mv	s2,a0
    a2ce:	89ae                	mv	s3,a1
    a2d0:	8432                	mv	s0,a2
    a2d2:	00d604b3          	add	s1,a2,a3
    a2d6:	5a7d                	li	s4,-1
    a2d8:	00941463          	bne	s0,s1,a2e0 <__sfputs_r+0x22>
    a2dc:	4501                	li	a0,0
    a2de:	a809                	j	a2f0 <__sfputs_r+0x32>
    a2e0:	200c                	lbu	a1,0(s0)
    a2e2:	864e                	mv	a2,s3
    a2e4:	854a                	mv	a0,s2
    a2e6:	fb3ff0ef          	jal	ra,a298 <__sfputc_r>
    a2ea:	0405                	addi	s0,s0,1
    a2ec:	ff4516e3          	bne	a0,s4,a2d8 <__sfputs_r+0x1a>
    a2f0:	40f2                	lw	ra,28(sp)
    a2f2:	4462                	lw	s0,24(sp)
    a2f4:	44d2                	lw	s1,20(sp)
    a2f6:	4942                	lw	s2,16(sp)
    a2f8:	49b2                	lw	s3,12(sp)
    a2fa:	4a22                	lw	s4,8(sp)
    a2fc:	6105                	addi	sp,sp,32
    a2fe:	8082                	ret

0000a300 <_vfiprintf_r>:
    a300:	7135                	addi	sp,sp,-160
    a302:	cd22                	sw	s0,152(sp)
    a304:	cb26                	sw	s1,148(sp)
    a306:	c94a                	sw	s2,144(sp)
    a308:	c74e                	sw	s3,140(sp)
    a30a:	cf06                	sw	ra,156(sp)
    a30c:	c552                	sw	s4,136(sp)
    a30e:	c356                	sw	s5,132(sp)
    a310:	c15a                	sw	s6,128(sp)
    a312:	dede                	sw	s7,124(sp)
    a314:	dce2                	sw	s8,120(sp)
    a316:	dae6                	sw	s9,116(sp)
    a318:	89aa                	mv	s3,a0
    a31a:	84ae                	mv	s1,a1
    a31c:	8932                	mv	s2,a2
    a31e:	8436                	mv	s0,a3
    a320:	c509                	beqz	a0,a32a <_vfiprintf_r+0x2a>
    a322:	4d1c                	lw	a5,24(a0)
    a324:	e399                	bnez	a5,a32a <_vfiprintf_r+0x2a>
    a326:	fd2fe0ef          	jal	ra,8af8 <__sinit>
    a32a:	00002797          	auipc	a5,0x2
    a32e:	e3678793          	addi	a5,a5,-458 # c160 <__sf_fake_stdin>
    a332:	0cf49963          	bne	s1,a5,a404 <_vfiprintf_r+0x104>
    a336:	0049a483          	lw	s1,4(s3)
    a33a:	24de                	lhu	a5,12(s1)
    a33c:	8ba1                	andi	a5,a5,8
    a33e:	c7ed                	beqz	a5,a428 <_vfiprintf_r+0x128>
    a340:	489c                	lw	a5,16(s1)
    a342:	c3fd                	beqz	a5,a428 <_vfiprintf_r+0x128>
    a344:	02000793          	li	a5,32
    a348:	02f104a3          	sb	a5,41(sp)
    a34c:	03000793          	li	a5,48
    a350:	d202                	sw	zero,36(sp)
    a352:	02f10523          	sb	a5,42(sp)
    a356:	c622                	sw	s0,12(sp)
    a358:	02500b93          	li	s7,37
    a35c:	00002a97          	auipc	s5,0x2
    a360:	f50a8a93          	addi	s5,s5,-176 # c2ac <p05.3319+0xc>
    a364:	4c05                	li	s8,1
    a366:	4b29                	li	s6,10
    a368:	844a                	mv	s0,s2
    a36a:	201c                	lbu	a5,0(s0)
    a36c:	c399                	beqz	a5,a372 <_vfiprintf_r+0x72>
    a36e:	0d779f63          	bne	a5,s7,a44c <_vfiprintf_r+0x14c>
    a372:	41240cb3          	sub	s9,s0,s2
    a376:	000c8e63          	beqz	s9,a392 <_vfiprintf_r+0x92>
    a37a:	86e6                	mv	a3,s9
    a37c:	864a                	mv	a2,s2
    a37e:	85a6                	mv	a1,s1
    a380:	854e                	mv	a0,s3
    a382:	f3dff0ef          	jal	ra,a2be <__sfputs_r>
    a386:	57fd                	li	a5,-1
    a388:	1cf50f63          	beq	a0,a5,a566 <_vfiprintf_r+0x266>
    a38c:	5692                	lw	a3,36(sp)
    a38e:	96e6                	add	a3,a3,s9
    a390:	d236                	sw	a3,36(sp)
    a392:	201c                	lbu	a5,0(s0)
    a394:	1c078963          	beqz	a5,a566 <_vfiprintf_r+0x266>
    a398:	57fd                	li	a5,-1
    a39a:	00140913          	addi	s2,s0,1
    a39e:	c802                	sw	zero,16(sp)
    a3a0:	ce02                	sw	zero,28(sp)
    a3a2:	ca3e                	sw	a5,20(sp)
    a3a4:	cc02                	sw	zero,24(sp)
    a3a6:	040109a3          	sb	zero,83(sp)
    a3aa:	d482                	sw	zero,104(sp)
    a3ac:	00094583          	lbu	a1,0(s2)
    a3b0:	4615                	li	a2,5
    a3b2:	8556                	mv	a0,s5
    a3b4:	854ff0ef          	jal	ra,9408 <memchr>
    a3b8:	00190413          	addi	s0,s2,1
    a3bc:	47c2                	lw	a5,16(sp)
    a3be:	e949                	bnez	a0,a450 <_vfiprintf_r+0x150>
    a3c0:	0107f713          	andi	a4,a5,16
    a3c4:	c709                	beqz	a4,a3ce <_vfiprintf_r+0xce>
    a3c6:	02000713          	li	a4,32
    a3ca:	04e109a3          	sb	a4,83(sp)
    a3ce:	0087f713          	andi	a4,a5,8
    a3d2:	c709                	beqz	a4,a3dc <_vfiprintf_r+0xdc>
    a3d4:	02b00713          	li	a4,43
    a3d8:	04e109a3          	sb	a4,83(sp)
    a3dc:	00094683          	lbu	a3,0(s2)
    a3e0:	02a00713          	li	a4,42
    a3e4:	06e68e63          	beq	a3,a4,a460 <_vfiprintf_r+0x160>
    a3e8:	47f2                	lw	a5,28(sp)
    a3ea:	844a                	mv	s0,s2
    a3ec:	4681                	li	a3,0
    a3ee:	4625                	li	a2,9
    a3f0:	2018                	lbu	a4,0(s0)
    a3f2:	00140593          	addi	a1,s0,1
    a3f6:	fd070713          	addi	a4,a4,-48
    a3fa:	0ae67663          	bgeu	a2,a4,a4a6 <_vfiprintf_r+0x1a6>
    a3fe:	caad                	beqz	a3,a470 <_vfiprintf_r+0x170>
    a400:	ce3e                	sw	a5,28(sp)
    a402:	a0bd                	j	a470 <_vfiprintf_r+0x170>
    a404:	00002797          	auipc	a5,0x2
    a408:	d7c78793          	addi	a5,a5,-644 # c180 <__sf_fake_stdout>
    a40c:	00f49563          	bne	s1,a5,a416 <_vfiprintf_r+0x116>
    a410:	0089a483          	lw	s1,8(s3)
    a414:	b71d                	j	a33a <_vfiprintf_r+0x3a>
    a416:	00002797          	auipc	a5,0x2
    a41a:	d2a78793          	addi	a5,a5,-726 # c140 <__sf_fake_stderr>
    a41e:	f0f49ee3          	bne	s1,a5,a33a <_vfiprintf_r+0x3a>
    a422:	00c9a483          	lw	s1,12(s3)
    a426:	bf11                	j	a33a <_vfiprintf_r+0x3a>
    a428:	85a6                	mv	a1,s1
    a42a:	854e                	mv	a0,s3
    a42c:	2695                	jal	a790 <__swsetup_r>
    a42e:	d919                	beqz	a0,a344 <_vfiprintf_r+0x44>
    a430:	557d                	li	a0,-1
    a432:	40fa                	lw	ra,156(sp)
    a434:	446a                	lw	s0,152(sp)
    a436:	44da                	lw	s1,148(sp)
    a438:	494a                	lw	s2,144(sp)
    a43a:	49ba                	lw	s3,140(sp)
    a43c:	4a2a                	lw	s4,136(sp)
    a43e:	4a9a                	lw	s5,132(sp)
    a440:	4b0a                	lw	s6,128(sp)
    a442:	5bf6                	lw	s7,124(sp)
    a444:	5c66                	lw	s8,120(sp)
    a446:	5cd6                	lw	s9,116(sp)
    a448:	610d                	addi	sp,sp,160
    a44a:	8082                	ret
    a44c:	0405                	addi	s0,s0,1
    a44e:	bf31                	j	a36a <_vfiprintf_r+0x6a>
    a450:	41550533          	sub	a0,a0,s5
    a454:	00ac1533          	sll	a0,s8,a0
    a458:	8fc9                	or	a5,a5,a0
    a45a:	c83e                	sw	a5,16(sp)
    a45c:	8922                	mv	s2,s0
    a45e:	b7b9                	j	a3ac <_vfiprintf_r+0xac>
    a460:	4732                	lw	a4,12(sp)
    a462:	00470693          	addi	a3,a4,4
    a466:	4318                	lw	a4,0(a4)
    a468:	c636                	sw	a3,12(sp)
    a46a:	02074763          	bltz	a4,a498 <_vfiprintf_r+0x198>
    a46e:	ce3a                	sw	a4,28(sp)
    a470:	2018                	lbu	a4,0(s0)
    a472:	02e00793          	li	a5,46
    a476:	04f71d63          	bne	a4,a5,a4d0 <_vfiprintf_r+0x1d0>
    a47a:	3018                	lbu	a4,1(s0)
    a47c:	02a00793          	li	a5,42
    a480:	02f71b63          	bne	a4,a5,a4b6 <_vfiprintf_r+0x1b6>
    a484:	47b2                	lw	a5,12(sp)
    a486:	0409                	addi	s0,s0,2
    a488:	00478713          	addi	a4,a5,4
    a48c:	439c                	lw	a5,0(a5)
    a48e:	c63a                	sw	a4,12(sp)
    a490:	0207c163          	bltz	a5,a4b2 <_vfiprintf_r+0x1b2>
    a494:	ca3e                	sw	a5,20(sp)
    a496:	a82d                	j	a4d0 <_vfiprintf_r+0x1d0>
    a498:	40e00733          	neg	a4,a4
    a49c:	0027e793          	ori	a5,a5,2
    a4a0:	ce3a                	sw	a4,28(sp)
    a4a2:	c83e                	sw	a5,16(sp)
    a4a4:	b7f1                	j	a470 <_vfiprintf_r+0x170>
    a4a6:	036787b3          	mul	a5,a5,s6
    a4aa:	4685                	li	a3,1
    a4ac:	842e                	mv	s0,a1
    a4ae:	97ba                	add	a5,a5,a4
    a4b0:	b781                	j	a3f0 <_vfiprintf_r+0xf0>
    a4b2:	57fd                	li	a5,-1
    a4b4:	b7c5                	j	a494 <_vfiprintf_r+0x194>
    a4b6:	0405                	addi	s0,s0,1
    a4b8:	ca02                	sw	zero,20(sp)
    a4ba:	4681                	li	a3,0
    a4bc:	4781                	li	a5,0
    a4be:	4625                	li	a2,9
    a4c0:	2018                	lbu	a4,0(s0)
    a4c2:	00140593          	addi	a1,s0,1
    a4c6:	fd070713          	addi	a4,a4,-48
    a4ca:	06e67663          	bgeu	a2,a4,a536 <_vfiprintf_r+0x236>
    a4ce:	f2f9                	bnez	a3,a494 <_vfiprintf_r+0x194>
    a4d0:	200c                	lbu	a1,0(s0)
    a4d2:	460d                	li	a2,3
    a4d4:	00002517          	auipc	a0,0x2
    a4d8:	de050513          	addi	a0,a0,-544 # c2b4 <p05.3319+0x14>
    a4dc:	f2dfe0ef          	jal	ra,9408 <memchr>
    a4e0:	cd11                	beqz	a0,a4fc <_vfiprintf_r+0x1fc>
    a4e2:	00002797          	auipc	a5,0x2
    a4e6:	dd278793          	addi	a5,a5,-558 # c2b4 <p05.3319+0x14>
    a4ea:	8d1d                	sub	a0,a0,a5
    a4ec:	04000793          	li	a5,64
    a4f0:	00a797b3          	sll	a5,a5,a0
    a4f4:	4542                	lw	a0,16(sp)
    a4f6:	0405                	addi	s0,s0,1
    a4f8:	8d5d                	or	a0,a0,a5
    a4fa:	c82a                	sw	a0,16(sp)
    a4fc:	200c                	lbu	a1,0(s0)
    a4fe:	4619                	li	a2,6
    a500:	00002517          	auipc	a0,0x2
    a504:	db850513          	addi	a0,a0,-584 # c2b8 <p05.3319+0x18>
    a508:	00140913          	addi	s2,s0,1
    a50c:	02b10423          	sb	a1,40(sp)
    a510:	ef9fe0ef          	jal	ra,9408 <memchr>
    a514:	c125                	beqz	a0,a574 <_vfiprintf_r+0x274>
    a516:	ffffc797          	auipc	a5,0xffffc
    a51a:	c2478793          	addi	a5,a5,-988 # 613a <_printf_float>
    a51e:	e795                	bnez	a5,a54a <_vfiprintf_r+0x24a>
    a520:	4742                	lw	a4,16(sp)
    a522:	47b2                	lw	a5,12(sp)
    a524:	10077713          	andi	a4,a4,256
    a528:	cf09                	beqz	a4,a542 <_vfiprintf_r+0x242>
    a52a:	0791                	addi	a5,a5,4
    a52c:	c63e                	sw	a5,12(sp)
    a52e:	5792                	lw	a5,36(sp)
    a530:	97d2                	add	a5,a5,s4
    a532:	d23e                	sw	a5,36(sp)
    a534:	bd15                	j	a368 <_vfiprintf_r+0x68>
    a536:	036787b3          	mul	a5,a5,s6
    a53a:	4685                	li	a3,1
    a53c:	842e                	mv	s0,a1
    a53e:	97ba                	add	a5,a5,a4
    a540:	b741                	j	a4c0 <_vfiprintf_r+0x1c0>
    a542:	079d                	addi	a5,a5,7
    a544:	9be1                	andi	a5,a5,-8
    a546:	07a1                	addi	a5,a5,8
    a548:	b7d5                	j	a52c <_vfiprintf_r+0x22c>
    a54a:	0078                	addi	a4,sp,12
    a54c:	00000697          	auipc	a3,0x0
    a550:	d7268693          	addi	a3,a3,-654 # a2be <__sfputs_r>
    a554:	8626                	mv	a2,s1
    a556:	080c                	addi	a1,sp,16
    a558:	854e                	mv	a0,s3
    a55a:	be1fb0ef          	jal	ra,613a <_printf_float>
    a55e:	57fd                	li	a5,-1
    a560:	8a2a                	mv	s4,a0
    a562:	fcf516e3          	bne	a0,a5,a52e <_vfiprintf_r+0x22e>
    a566:	24de                	lhu	a5,12(s1)
    a568:	0407f793          	andi	a5,a5,64
    a56c:	ec0792e3          	bnez	a5,a430 <_vfiprintf_r+0x130>
    a570:	5512                	lw	a0,36(sp)
    a572:	b5c1                	j	a432 <_vfiprintf_r+0x132>
    a574:	0078                	addi	a4,sp,12
    a576:	00000697          	auipc	a3,0x0
    a57a:	d4868693          	addi	a3,a3,-696 # a2be <__sfputs_r>
    a57e:	8626                	mv	a2,s1
    a580:	080c                	addi	a1,sp,16
    a582:	854e                	mv	a0,s3
    a584:	986fc0ef          	jal	ra,670a <_printf_i>
    a588:	bfd9                	j	a55e <_vfiprintf_r+0x25e>

0000a58a <_sbrk_r>:
    a58a:	1141                	addi	sp,sp,-16
    a58c:	c422                	sw	s0,8(sp)
    a58e:	842a                	mv	s0,a0
    a590:	852e                	mv	a0,a1
    a592:	ba01ae23          	sw	zero,-1092(gp) # 200005ac <errno>
    a596:	c606                	sw	ra,12(sp)
    a598:	b66f90ef          	jal	ra,38fe <_sbrk>
    a59c:	57fd                	li	a5,-1
    a59e:	00f51763          	bne	a0,a5,a5ac <_sbrk_r+0x22>
    a5a2:	bbc18793          	addi	a5,gp,-1092 # 200005ac <errno>
    a5a6:	439c                	lw	a5,0(a5)
    a5a8:	c391                	beqz	a5,a5ac <_sbrk_r+0x22>
    a5aa:	c01c                	sw	a5,0(s0)
    a5ac:	40b2                	lw	ra,12(sp)
    a5ae:	4422                	lw	s0,8(sp)
    a5b0:	0141                	addi	sp,sp,16
    a5b2:	8082                	ret

0000a5b4 <__sread>:
    a5b4:	1141                	addi	sp,sp,-16
    a5b6:	c422                	sw	s0,8(sp)
    a5b8:	842e                	mv	s0,a1
    a5ba:	00e59583          	lh	a1,14(a1)
    a5be:	c606                	sw	ra,12(sp)
    a5c0:	25b1                	jal	ac0c <_read_r>
    a5c2:	00054963          	bltz	a0,a5d4 <__sread+0x20>
    a5c6:	487c                	lw	a5,84(s0)
    a5c8:	97aa                	add	a5,a5,a0
    a5ca:	c87c                	sw	a5,84(s0)
    a5cc:	40b2                	lw	ra,12(sp)
    a5ce:	4422                	lw	s0,8(sp)
    a5d0:	0141                	addi	sp,sp,16
    a5d2:	8082                	ret
    a5d4:	245e                	lhu	a5,12(s0)
    a5d6:	777d                	lui	a4,0xfffff
    a5d8:	177d                	addi	a4,a4,-1
    a5da:	8ff9                	and	a5,a5,a4
    a5dc:	a45e                	sh	a5,12(s0)
    a5de:	b7fd                	j	a5cc <__sread+0x18>

0000a5e0 <__swrite>:
    a5e0:	25de                	lhu	a5,12(a1)
    a5e2:	1101                	addi	sp,sp,-32
    a5e4:	cc22                	sw	s0,24(sp)
    a5e6:	ca26                	sw	s1,20(sp)
    a5e8:	c84a                	sw	s2,16(sp)
    a5ea:	c64e                	sw	s3,12(sp)
    a5ec:	ce06                	sw	ra,28(sp)
    a5ee:	1007f793          	andi	a5,a5,256
    a5f2:	84aa                	mv	s1,a0
    a5f4:	842e                	mv	s0,a1
    a5f6:	8932                	mv	s2,a2
    a5f8:	89b6                	mv	s3,a3
    a5fa:	c791                	beqz	a5,a606 <__swrite+0x26>
    a5fc:	00e59583          	lh	a1,14(a1)
    a600:	4689                	li	a3,2
    a602:	4601                	li	a2,0
    a604:	2981                	jal	aa54 <_lseek_r>
    a606:	245e                	lhu	a5,12(s0)
    a608:	777d                	lui	a4,0xfffff
    a60a:	177d                	addi	a4,a4,-1
    a60c:	8ff9                	and	a5,a5,a4
    a60e:	a45e                	sh	a5,12(s0)
    a610:	00e41583          	lh	a1,14(s0)
    a614:	4462                	lw	s0,24(sp)
    a616:	40f2                	lw	ra,28(sp)
    a618:	86ce                	mv	a3,s3
    a61a:	864a                	mv	a2,s2
    a61c:	49b2                	lw	s3,12(sp)
    a61e:	4942                	lw	s2,16(sp)
    a620:	8526                	mv	a0,s1
    a622:	44d2                	lw	s1,20(sp)
    a624:	6105                	addi	sp,sp,32
    a626:	aa35                	j	a762 <_write_r>

0000a628 <__sseek>:
    a628:	1141                	addi	sp,sp,-16
    a62a:	c422                	sw	s0,8(sp)
    a62c:	842e                	mv	s0,a1
    a62e:	00e59583          	lh	a1,14(a1)
    a632:	c606                	sw	ra,12(sp)
    a634:	2105                	jal	aa54 <_lseek_r>
    a636:	57fd                	li	a5,-1
    a638:	245a                	lhu	a4,12(s0)
    a63a:	00f51a63          	bne	a0,a5,a64e <__sseek+0x26>
    a63e:	77fd                	lui	a5,0xfffff
    a640:	17fd                	addi	a5,a5,-1
    a642:	8ff9                	and	a5,a5,a4
    a644:	a45e                	sh	a5,12(s0)
    a646:	40b2                	lw	ra,12(sp)
    a648:	4422                	lw	s0,8(sp)
    a64a:	0141                	addi	sp,sp,16
    a64c:	8082                	ret
    a64e:	6785                	lui	a5,0x1
    a650:	8fd9                	or	a5,a5,a4
    a652:	a45e                	sh	a5,12(s0)
    a654:	c868                	sw	a0,84(s0)
    a656:	bfc5                	j	a646 <__sseek+0x1e>

0000a658 <__sclose>:
    a658:	00e59583          	lh	a1,14(a1)
    a65c:	ac15                	j	a890 <_close_r>

0000a65e <strncmp>:
    a65e:	c215                	beqz	a2,a682 <strncmp+0x24>
    a660:	167d                	addi	a2,a2,-1
    a662:	4701                	li	a4,0
    a664:	00e507b3          	add	a5,a0,a4
    a668:	00e586b3          	add	a3,a1,a4
    a66c:	239c                	lbu	a5,0(a5)
    a66e:	2294                	lbu	a3,0(a3)
    a670:	00d79663          	bne	a5,a3,a67c <strncmp+0x1e>
    a674:	00c70463          	beq	a4,a2,a67c <strncmp+0x1e>
    a678:	0705                	addi	a4,a4,1
    a67a:	f7ed                	bnez	a5,a664 <strncmp+0x6>
    a67c:	40d78533          	sub	a0,a5,a3
    a680:	8082                	ret
    a682:	4501                	li	a0,0
    a684:	8082                	ret

0000a686 <__swbuf_r>:
    a686:	1101                	addi	sp,sp,-32
    a688:	cc22                	sw	s0,24(sp)
    a68a:	ca26                	sw	s1,20(sp)
    a68c:	c84a                	sw	s2,16(sp)
    a68e:	ce06                	sw	ra,28(sp)
    a690:	c64e                	sw	s3,12(sp)
    a692:	84aa                	mv	s1,a0
    a694:	892e                	mv	s2,a1
    a696:	8432                	mv	s0,a2
    a698:	c509                	beqz	a0,a6a2 <__swbuf_r+0x1c>
    a69a:	4d1c                	lw	a5,24(a0)
    a69c:	e399                	bnez	a5,a6a2 <__swbuf_r+0x1c>
    a69e:	c5afe0ef          	jal	ra,8af8 <__sinit>
    a6a2:	00002797          	auipc	a5,0x2
    a6a6:	abe78793          	addi	a5,a5,-1346 # c160 <__sf_fake_stdin>
    a6aa:	06f41763          	bne	s0,a5,a718 <__swbuf_r+0x92>
    a6ae:	40c0                	lw	s0,4(s1)
    a6b0:	4c1c                	lw	a5,24(s0)
    a6b2:	c41c                	sw	a5,8(s0)
    a6b4:	245e                	lhu	a5,12(s0)
    a6b6:	8ba1                	andi	a5,a5,8
    a6b8:	c3c1                	beqz	a5,a738 <__swbuf_r+0xb2>
    a6ba:	481c                	lw	a5,16(s0)
    a6bc:	cfb5                	beqz	a5,a738 <__swbuf_r+0xb2>
    a6be:	481c                	lw	a5,16(s0)
    a6c0:	4008                	lw	a0,0(s0)
    a6c2:	0ff97993          	andi	s3,s2,255
    a6c6:	0ff97913          	andi	s2,s2,255
    a6ca:	8d1d                	sub	a0,a0,a5
    a6cc:	485c                	lw	a5,20(s0)
    a6ce:	00f54663          	blt	a0,a5,a6da <__swbuf_r+0x54>
    a6d2:	85a2                	mv	a1,s0
    a6d4:	8526                	mv	a0,s1
    a6d6:	2e19                	jal	a9ec <_fflush_r>
    a6d8:	e525                	bnez	a0,a740 <__swbuf_r+0xba>
    a6da:	441c                	lw	a5,8(s0)
    a6dc:	0505                	addi	a0,a0,1
    a6de:	17fd                	addi	a5,a5,-1
    a6e0:	c41c                	sw	a5,8(s0)
    a6e2:	401c                	lw	a5,0(s0)
    a6e4:	00178713          	addi	a4,a5,1
    a6e8:	c018                	sw	a4,0(s0)
    a6ea:	01378023          	sb	s3,0(a5)
    a6ee:	485c                	lw	a5,20(s0)
    a6f0:	00a78863          	beq	a5,a0,a700 <__swbuf_r+0x7a>
    a6f4:	245e                	lhu	a5,12(s0)
    a6f6:	8b85                	andi	a5,a5,1
    a6f8:	cb81                	beqz	a5,a708 <__swbuf_r+0x82>
    a6fa:	47a9                	li	a5,10
    a6fc:	00f91663          	bne	s2,a5,a708 <__swbuf_r+0x82>
    a700:	85a2                	mv	a1,s0
    a702:	8526                	mv	a0,s1
    a704:	24e5                	jal	a9ec <_fflush_r>
    a706:	ed0d                	bnez	a0,a740 <__swbuf_r+0xba>
    a708:	40f2                	lw	ra,28(sp)
    a70a:	4462                	lw	s0,24(sp)
    a70c:	854a                	mv	a0,s2
    a70e:	44d2                	lw	s1,20(sp)
    a710:	4942                	lw	s2,16(sp)
    a712:	49b2                	lw	s3,12(sp)
    a714:	6105                	addi	sp,sp,32
    a716:	8082                	ret
    a718:	00002797          	auipc	a5,0x2
    a71c:	a6878793          	addi	a5,a5,-1432 # c180 <__sf_fake_stdout>
    a720:	00f41463          	bne	s0,a5,a728 <__swbuf_r+0xa2>
    a724:	4480                	lw	s0,8(s1)
    a726:	b769                	j	a6b0 <__swbuf_r+0x2a>
    a728:	00002797          	auipc	a5,0x2
    a72c:	a1878793          	addi	a5,a5,-1512 # c140 <__sf_fake_stderr>
    a730:	f8f410e3          	bne	s0,a5,a6b0 <__swbuf_r+0x2a>
    a734:	44c0                	lw	s0,12(s1)
    a736:	bfad                	j	a6b0 <__swbuf_r+0x2a>
    a738:	85a2                	mv	a1,s0
    a73a:	8526                	mv	a0,s1
    a73c:	2891                	jal	a790 <__swsetup_r>
    a73e:	d141                	beqz	a0,a6be <__swbuf_r+0x38>
    a740:	597d                	li	s2,-1
    a742:	b7d9                	j	a708 <__swbuf_r+0x82>

0000a744 <__ascii_wctomb>:
    a744:	cd89                	beqz	a1,a75e <__ascii_wctomb+0x1a>
    a746:	0ff00793          	li	a5,255
    a74a:	00c7f763          	bgeu	a5,a2,a758 <__ascii_wctomb+0x14>
    a74e:	08a00793          	li	a5,138
    a752:	c11c                	sw	a5,0(a0)
    a754:	557d                	li	a0,-1
    a756:	8082                	ret
    a758:	a190                	sb	a2,0(a1)
    a75a:	4505                	li	a0,1
    a75c:	8082                	ret
    a75e:	4501                	li	a0,0
    a760:	8082                	ret

0000a762 <_write_r>:
    a762:	1141                	addi	sp,sp,-16
    a764:	c422                	sw	s0,8(sp)
    a766:	842a                	mv	s0,a0
    a768:	852e                	mv	a0,a1
    a76a:	85b2                	mv	a1,a2
    a76c:	8636                	mv	a2,a3
    a76e:	ba01ae23          	sw	zero,-1092(gp) # 200005ac <errno>
    a772:	c606                	sw	ra,12(sp)
    a774:	94cf90ef          	jal	ra,38c0 <_write>
    a778:	57fd                	li	a5,-1
    a77a:	00f51763          	bne	a0,a5,a788 <_write_r+0x26>
    a77e:	bbc18793          	addi	a5,gp,-1092 # 200005ac <errno>
    a782:	439c                	lw	a5,0(a5)
    a784:	c391                	beqz	a5,a788 <_write_r+0x26>
    a786:	c01c                	sw	a5,0(s0)
    a788:	40b2                	lw	ra,12(sp)
    a78a:	4422                	lw	s0,8(sp)
    a78c:	0141                	addi	sp,sp,16
    a78e:	8082                	ret

0000a790 <__swsetup_r>:
    a790:	1141                	addi	sp,sp,-16
    a792:	81018793          	addi	a5,gp,-2032 # 20000200 <_impure_ptr>
    a796:	c226                	sw	s1,4(sp)
    a798:	4384                	lw	s1,0(a5)
    a79a:	c422                	sw	s0,8(sp)
    a79c:	c04a                	sw	s2,0(sp)
    a79e:	c606                	sw	ra,12(sp)
    a7a0:	892a                	mv	s2,a0
    a7a2:	842e                	mv	s0,a1
    a7a4:	c491                	beqz	s1,a7b0 <__swsetup_r+0x20>
    a7a6:	4c9c                	lw	a5,24(s1)
    a7a8:	e781                	bnez	a5,a7b0 <__swsetup_r+0x20>
    a7aa:	8526                	mv	a0,s1
    a7ac:	b4cfe0ef          	jal	ra,8af8 <__sinit>
    a7b0:	00002797          	auipc	a5,0x2
    a7b4:	9b078793          	addi	a5,a5,-1616 # c160 <__sf_fake_stdin>
    a7b8:	02f41b63          	bne	s0,a5,a7ee <__swsetup_r+0x5e>
    a7bc:	40c0                	lw	s0,4(s1)
    a7be:	00c41703          	lh	a4,12(s0)
    a7c2:	01071793          	slli	a5,a4,0x10
    a7c6:	83c1                	srli	a5,a5,0x10
    a7c8:	0087f693          	andi	a3,a5,8
    a7cc:	eab5                	bnez	a3,a840 <__swsetup_r+0xb0>
    a7ce:	0107f693          	andi	a3,a5,16
    a7d2:	ee95                	bnez	a3,a80e <__swsetup_r+0x7e>
    a7d4:	47a5                	li	a5,9
    a7d6:	00f92023          	sw	a5,0(s2)
    a7da:	04076713          	ori	a4,a4,64
    a7de:	a45a                	sh	a4,12(s0)
    a7e0:	557d                	li	a0,-1
    a7e2:	40b2                	lw	ra,12(sp)
    a7e4:	4422                	lw	s0,8(sp)
    a7e6:	4492                	lw	s1,4(sp)
    a7e8:	4902                	lw	s2,0(sp)
    a7ea:	0141                	addi	sp,sp,16
    a7ec:	8082                	ret
    a7ee:	00002797          	auipc	a5,0x2
    a7f2:	99278793          	addi	a5,a5,-1646 # c180 <__sf_fake_stdout>
    a7f6:	00f41463          	bne	s0,a5,a7fe <__swsetup_r+0x6e>
    a7fa:	4480                	lw	s0,8(s1)
    a7fc:	b7c9                	j	a7be <__swsetup_r+0x2e>
    a7fe:	00002797          	auipc	a5,0x2
    a802:	94278793          	addi	a5,a5,-1726 # c140 <__sf_fake_stderr>
    a806:	faf41ce3          	bne	s0,a5,a7be <__swsetup_r+0x2e>
    a80a:	44c0                	lw	s0,12(s1)
    a80c:	bf4d                	j	a7be <__swsetup_r+0x2e>
    a80e:	8b91                	andi	a5,a5,4
    a810:	c785                	beqz	a5,a838 <__swsetup_r+0xa8>
    a812:	584c                	lw	a1,52(s0)
    a814:	c991                	beqz	a1,a828 <__swsetup_r+0x98>
    a816:	04440793          	addi	a5,s0,68
    a81a:	00f58563          	beq	a1,a5,a824 <__swsetup_r+0x94>
    a81e:	854a                	mv	a0,s2
    a820:	db0ff0ef          	jal	ra,9dd0 <_free_r>
    a824:	02042a23          	sw	zero,52(s0)
    a828:	245e                	lhu	a5,12(s0)
    a82a:	00042223          	sw	zero,4(s0)
    a82e:	fdb7f793          	andi	a5,a5,-37
    a832:	a45e                	sh	a5,12(s0)
    a834:	481c                	lw	a5,16(s0)
    a836:	c01c                	sw	a5,0(s0)
    a838:	245e                	lhu	a5,12(s0)
    a83a:	0087e793          	ori	a5,a5,8
    a83e:	a45e                	sh	a5,12(s0)
    a840:	481c                	lw	a5,16(s0)
    a842:	eb99                	bnez	a5,a858 <__swsetup_r+0xc8>
    a844:	245e                	lhu	a5,12(s0)
    a846:	20000713          	li	a4,512
    a84a:	2807f793          	andi	a5,a5,640
    a84e:	00e78563          	beq	a5,a4,a858 <__swsetup_r+0xc8>
    a852:	85a2                	mv	a1,s0
    a854:	854a                	mv	a0,s2
    a856:	2449                	jal	aad8 <__smakebuf_r>
    a858:	245e                	lhu	a5,12(s0)
    a85a:	0017f713          	andi	a4,a5,1
    a85e:	c31d                	beqz	a4,a884 <__swsetup_r+0xf4>
    a860:	485c                	lw	a5,20(s0)
    a862:	00042423          	sw	zero,8(s0)
    a866:	40f007b3          	neg	a5,a5
    a86a:	cc1c                	sw	a5,24(s0)
    a86c:	481c                	lw	a5,16(s0)
    a86e:	4501                	li	a0,0
    a870:	fbad                	bnez	a5,a7e2 <__swsetup_r+0x52>
    a872:	00c41783          	lh	a5,12(s0)
    a876:	0807f713          	andi	a4,a5,128
    a87a:	d725                	beqz	a4,a7e2 <__swsetup_r+0x52>
    a87c:	0407e793          	ori	a5,a5,64
    a880:	a45e                	sh	a5,12(s0)
    a882:	bfb9                	j	a7e0 <__swsetup_r+0x50>
    a884:	8b89                	andi	a5,a5,2
    a886:	4701                	li	a4,0
    a888:	e391                	bnez	a5,a88c <__swsetup_r+0xfc>
    a88a:	4858                	lw	a4,20(s0)
    a88c:	c418                	sw	a4,8(s0)
    a88e:	bff9                	j	a86c <__swsetup_r+0xdc>

0000a890 <_close_r>:
    a890:	1141                	addi	sp,sp,-16
    a892:	c422                	sw	s0,8(sp)
    a894:	842a                	mv	s0,a0
    a896:	852e                	mv	a0,a1
    a898:	ba01ae23          	sw	zero,-1092(gp) # 200005ac <errno>
    a89c:	c606                	sw	ra,12(sp)
    a89e:	0c6010ef          	jal	ra,b964 <_close>
    a8a2:	57fd                	li	a5,-1
    a8a4:	00f51763          	bne	a0,a5,a8b2 <_close_r+0x22>
    a8a8:	bbc18793          	addi	a5,gp,-1092 # 200005ac <errno>
    a8ac:	439c                	lw	a5,0(a5)
    a8ae:	c391                	beqz	a5,a8b2 <_close_r+0x22>
    a8b0:	c01c                	sw	a5,0(s0)
    a8b2:	40b2                	lw	ra,12(sp)
    a8b4:	4422                	lw	s0,8(sp)
    a8b6:	0141                	addi	sp,sp,16
    a8b8:	8082                	ret

0000a8ba <__sflush_r>:
    a8ba:	25de                	lhu	a5,12(a1)
    a8bc:	1101                	addi	sp,sp,-32
    a8be:	cc22                	sw	s0,24(sp)
    a8c0:	ca26                	sw	s1,20(sp)
    a8c2:	ce06                	sw	ra,28(sp)
    a8c4:	c84a                	sw	s2,16(sp)
    a8c6:	c64e                	sw	s3,12(sp)
    a8c8:	0087f713          	andi	a4,a5,8
    a8cc:	84aa                	mv	s1,a0
    a8ce:	842e                	mv	s0,a1
    a8d0:	ef61                	bnez	a4,a9a8 <__sflush_r+0xee>
    a8d2:	41d8                	lw	a4,4(a1)
    a8d4:	00e04d63          	bgtz	a4,a8ee <__sflush_r+0x34>
    a8d8:	41b8                	lw	a4,64(a1)
    a8da:	00e04a63          	bgtz	a4,a8ee <__sflush_r+0x34>
    a8de:	4501                	li	a0,0
    a8e0:	40f2                	lw	ra,28(sp)
    a8e2:	4462                	lw	s0,24(sp)
    a8e4:	44d2                	lw	s1,20(sp)
    a8e6:	4942                	lw	s2,16(sp)
    a8e8:	49b2                	lw	s3,12(sp)
    a8ea:	6105                	addi	sp,sp,32
    a8ec:	8082                	ret
    a8ee:	5458                	lw	a4,44(s0)
    a8f0:	d77d                	beqz	a4,a8de <__sflush_r+0x24>
    a8f2:	0004a903          	lw	s2,0(s1)
    a8f6:	01379693          	slli	a3,a5,0x13
    a8fa:	0004a023          	sw	zero,0(s1)
    a8fe:	0606dc63          	bgez	a3,a976 <__sflush_r+0xbc>
    a902:	4870                	lw	a2,84(s0)
    a904:	245e                	lhu	a5,12(s0)
    a906:	8b91                	andi	a5,a5,4
    a908:	c799                	beqz	a5,a916 <__sflush_r+0x5c>
    a90a:	405c                	lw	a5,4(s0)
    a90c:	8e1d                	sub	a2,a2,a5
    a90e:	585c                	lw	a5,52(s0)
    a910:	c399                	beqz	a5,a916 <__sflush_r+0x5c>
    a912:	403c                	lw	a5,64(s0)
    a914:	8e1d                	sub	a2,a2,a5
    a916:	545c                	lw	a5,44(s0)
    a918:	500c                	lw	a1,32(s0)
    a91a:	4681                	li	a3,0
    a91c:	8526                	mv	a0,s1
    a91e:	9782                	jalr	a5
    a920:	57fd                	li	a5,-1
    a922:	245a                	lhu	a4,12(s0)
    a924:	00f51d63          	bne	a0,a5,a93e <__sflush_r+0x84>
    a928:	4094                	lw	a3,0(s1)
    a92a:	47f5                	li	a5,29
    a92c:	06d7e963          	bltu	a5,a3,a99e <__sflush_r+0xe4>
    a930:	204007b7          	lui	a5,0x20400
    a934:	0785                	addi	a5,a5,1
    a936:	00d7d7b3          	srl	a5,a5,a3
    a93a:	8b85                	andi	a5,a5,1
    a93c:	c3ad                	beqz	a5,a99e <__sflush_r+0xe4>
    a93e:	481c                	lw	a5,16(s0)
    a940:	00042223          	sw	zero,4(s0)
    a944:	c01c                	sw	a5,0(s0)
    a946:	01371793          	slli	a5,a4,0x13
    a94a:	0007d863          	bgez	a5,a95a <__sflush_r+0xa0>
    a94e:	57fd                	li	a5,-1
    a950:	00f51463          	bne	a0,a5,a958 <__sflush_r+0x9e>
    a954:	409c                	lw	a5,0(s1)
    a956:	e391                	bnez	a5,a95a <__sflush_r+0xa0>
    a958:	c868                	sw	a0,84(s0)
    a95a:	584c                	lw	a1,52(s0)
    a95c:	0124a023          	sw	s2,0(s1)
    a960:	ddbd                	beqz	a1,a8de <__sflush_r+0x24>
    a962:	04440793          	addi	a5,s0,68
    a966:	00f58563          	beq	a1,a5,a970 <__sflush_r+0xb6>
    a96a:	8526                	mv	a0,s1
    a96c:	c64ff0ef          	jal	ra,9dd0 <_free_r>
    a970:	02042a23          	sw	zero,52(s0)
    a974:	b7ad                	j	a8de <__sflush_r+0x24>
    a976:	500c                	lw	a1,32(s0)
    a978:	4601                	li	a2,0
    a97a:	4685                	li	a3,1
    a97c:	8526                	mv	a0,s1
    a97e:	9702                	jalr	a4
    a980:	57fd                	li	a5,-1
    a982:	862a                	mv	a2,a0
    a984:	f8f510e3          	bne	a0,a5,a904 <__sflush_r+0x4a>
    a988:	409c                	lw	a5,0(s1)
    a98a:	dfad                	beqz	a5,a904 <__sflush_r+0x4a>
    a98c:	4775                	li	a4,29
    a98e:	00e78563          	beq	a5,a4,a998 <__sflush_r+0xde>
    a992:	4759                	li	a4,22
    a994:	04e79363          	bne	a5,a4,a9da <__sflush_r+0x120>
    a998:	0124a023          	sw	s2,0(s1)
    a99c:	b789                	j	a8de <__sflush_r+0x24>
    a99e:	04076713          	ori	a4,a4,64
    a9a2:	a45a                	sh	a4,12(s0)
    a9a4:	557d                	li	a0,-1
    a9a6:	bf2d                	j	a8e0 <__sflush_r+0x26>
    a9a8:	0105a983          	lw	s3,16(a1)
    a9ac:	f20989e3          	beqz	s3,a8de <__sflush_r+0x24>
    a9b0:	0005a903          	lw	s2,0(a1)
    a9b4:	8b8d                	andi	a5,a5,3
    a9b6:	0135a023          	sw	s3,0(a1)
    a9ba:	41390933          	sub	s2,s2,s3
    a9be:	4701                	li	a4,0
    a9c0:	e391                	bnez	a5,a9c4 <__sflush_r+0x10a>
    a9c2:	49d8                	lw	a4,20(a1)
    a9c4:	c418                	sw	a4,8(s0)
    a9c6:	f1205ce3          	blez	s2,a8de <__sflush_r+0x24>
    a9ca:	541c                	lw	a5,40(s0)
    a9cc:	500c                	lw	a1,32(s0)
    a9ce:	86ca                	mv	a3,s2
    a9d0:	864e                	mv	a2,s3
    a9d2:	8526                	mv	a0,s1
    a9d4:	9782                	jalr	a5
    a9d6:	00a04763          	bgtz	a0,a9e4 <__sflush_r+0x12a>
    a9da:	245e                	lhu	a5,12(s0)
    a9dc:	0407e793          	ori	a5,a5,64
    a9e0:	a45e                	sh	a5,12(s0)
    a9e2:	b7c9                	j	a9a4 <__sflush_r+0xea>
    a9e4:	99aa                	add	s3,s3,a0
    a9e6:	40a90933          	sub	s2,s2,a0
    a9ea:	bff1                	j	a9c6 <__sflush_r+0x10c>

0000a9ec <_fflush_r>:
    a9ec:	499c                	lw	a5,16(a1)
    a9ee:	c3ad                	beqz	a5,aa50 <_fflush_r+0x64>
    a9f0:	1101                	addi	sp,sp,-32
    a9f2:	cc22                	sw	s0,24(sp)
    a9f4:	ce06                	sw	ra,28(sp)
    a9f6:	842a                	mv	s0,a0
    a9f8:	c519                	beqz	a0,aa06 <_fflush_r+0x1a>
    a9fa:	4d1c                	lw	a5,24(a0)
    a9fc:	e789                	bnez	a5,aa06 <_fflush_r+0x1a>
    a9fe:	c62e                	sw	a1,12(sp)
    aa00:	8f8fe0ef          	jal	ra,8af8 <__sinit>
    aa04:	45b2                	lw	a1,12(sp)
    aa06:	00001797          	auipc	a5,0x1
    aa0a:	75a78793          	addi	a5,a5,1882 # c160 <__sf_fake_stdin>
    aa0e:	00f59c63          	bne	a1,a5,aa26 <_fflush_r+0x3a>
    aa12:	404c                	lw	a1,4(s0)
    aa14:	00c59783          	lh	a5,12(a1)
    aa18:	c79d                	beqz	a5,aa46 <_fflush_r+0x5a>
    aa1a:	8522                	mv	a0,s0
    aa1c:	4462                	lw	s0,24(sp)
    aa1e:	40f2                	lw	ra,28(sp)
    aa20:	6105                	addi	sp,sp,32
    aa22:	e99ff06f          	j	a8ba <__sflush_r>
    aa26:	00001797          	auipc	a5,0x1
    aa2a:	75a78793          	addi	a5,a5,1882 # c180 <__sf_fake_stdout>
    aa2e:	00f59463          	bne	a1,a5,aa36 <_fflush_r+0x4a>
    aa32:	440c                	lw	a1,8(s0)
    aa34:	b7c5                	j	aa14 <_fflush_r+0x28>
    aa36:	00001797          	auipc	a5,0x1
    aa3a:	70a78793          	addi	a5,a5,1802 # c140 <__sf_fake_stderr>
    aa3e:	fcf59be3          	bne	a1,a5,aa14 <_fflush_r+0x28>
    aa42:	444c                	lw	a1,12(s0)
    aa44:	bfc1                	j	aa14 <_fflush_r+0x28>
    aa46:	40f2                	lw	ra,28(sp)
    aa48:	4462                	lw	s0,24(sp)
    aa4a:	4501                	li	a0,0
    aa4c:	6105                	addi	sp,sp,32
    aa4e:	8082                	ret
    aa50:	4501                	li	a0,0
    aa52:	8082                	ret

0000aa54 <_lseek_r>:
    aa54:	1141                	addi	sp,sp,-16
    aa56:	c422                	sw	s0,8(sp)
    aa58:	842a                	mv	s0,a0
    aa5a:	852e                	mv	a0,a1
    aa5c:	85b2                	mv	a1,a2
    aa5e:	8636                	mv	a2,a3
    aa60:	ba01ae23          	sw	zero,-1092(gp) # 200005ac <errno>
    aa64:	c606                	sw	ra,12(sp)
    aa66:	723000ef          	jal	ra,b988 <_lseek>
    aa6a:	57fd                	li	a5,-1
    aa6c:	00f51763          	bne	a0,a5,aa7a <_lseek_r+0x26>
    aa70:	bbc18793          	addi	a5,gp,-1092 # 200005ac <errno>
    aa74:	439c                	lw	a5,0(a5)
    aa76:	c391                	beqz	a5,aa7a <_lseek_r+0x26>
    aa78:	c01c                	sw	a5,0(s0)
    aa7a:	40b2                	lw	ra,12(sp)
    aa7c:	4422                	lw	s0,8(sp)
    aa7e:	0141                	addi	sp,sp,16
    aa80:	8082                	ret

0000aa82 <__swhatbuf_r>:
    aa82:	7119                	addi	sp,sp,-128
    aa84:	daa6                	sw	s1,116(sp)
    aa86:	84ae                	mv	s1,a1
    aa88:	00e59583          	lh	a1,14(a1)
    aa8c:	dca2                	sw	s0,120(sp)
    aa8e:	de86                	sw	ra,124(sp)
    aa90:	8432                	mv	s0,a2
    aa92:	0005db63          	bgez	a1,aaa8 <__swhatbuf_r+0x26>
    aa96:	24de                	lhu	a5,12(s1)
    aa98:	0006a023          	sw	zero,0(a3)
    aa9c:	0807f793          	andi	a5,a5,128
    aaa0:	e39d                	bnez	a5,aac6 <__swhatbuf_r+0x44>
    aaa2:	40000793          	li	a5,1024
    aaa6:	a015                	j	aaca <__swhatbuf_r+0x48>
    aaa8:	0830                	addi	a2,sp,24
    aaaa:	c636                	sw	a3,12(sp)
    aaac:	2279                	jal	ac3a <_fstat_r>
    aaae:	46b2                	lw	a3,12(sp)
    aab0:	fe0543e3          	bltz	a0,aa96 <__swhatbuf_r+0x14>
    aab4:	4772                	lw	a4,28(sp)
    aab6:	67bd                	lui	a5,0xf
    aab8:	8ff9                	and	a5,a5,a4
    aaba:	7779                	lui	a4,0xffffe
    aabc:	97ba                	add	a5,a5,a4
    aabe:	0017b793          	seqz	a5,a5
    aac2:	c29c                	sw	a5,0(a3)
    aac4:	bff9                	j	aaa2 <__swhatbuf_r+0x20>
    aac6:	04000793          	li	a5,64
    aaca:	c01c                	sw	a5,0(s0)
    aacc:	50f6                	lw	ra,124(sp)
    aace:	5466                	lw	s0,120(sp)
    aad0:	54d6                	lw	s1,116(sp)
    aad2:	4501                	li	a0,0
    aad4:	6109                	addi	sp,sp,128
    aad6:	8082                	ret

0000aad8 <__smakebuf_r>:
    aad8:	25de                	lhu	a5,12(a1)
    aada:	1101                	addi	sp,sp,-32
    aadc:	cc22                	sw	s0,24(sp)
    aade:	ce06                	sw	ra,28(sp)
    aae0:	ca26                	sw	s1,20(sp)
    aae2:	c84a                	sw	s2,16(sp)
    aae4:	8b89                	andi	a5,a5,2
    aae6:	842e                	mv	s0,a1
    aae8:	cf89                	beqz	a5,ab02 <__smakebuf_r+0x2a>
    aaea:	04740793          	addi	a5,s0,71
    aaee:	c01c                	sw	a5,0(s0)
    aaf0:	c81c                	sw	a5,16(s0)
    aaf2:	4785                	li	a5,1
    aaf4:	c85c                	sw	a5,20(s0)
    aaf6:	40f2                	lw	ra,28(sp)
    aaf8:	4462                	lw	s0,24(sp)
    aafa:	44d2                	lw	s1,20(sp)
    aafc:	4942                	lw	s2,16(sp)
    aafe:	6105                	addi	sp,sp,32
    ab00:	8082                	ret
    ab02:	0074                	addi	a3,sp,12
    ab04:	0030                	addi	a2,sp,8
    ab06:	84aa                	mv	s1,a0
    ab08:	f7bff0ef          	jal	ra,aa82 <__swhatbuf_r>
    ab0c:	45a2                	lw	a1,8(sp)
    ab0e:	892a                	mv	s2,a0
    ab10:	8526                	mv	a0,s1
    ab12:	b66ff0ef          	jal	ra,9e78 <_malloc_r>
    ab16:	e919                	bnez	a0,ab2c <__smakebuf_r+0x54>
    ab18:	00c41783          	lh	a5,12(s0)
    ab1c:	2007f713          	andi	a4,a5,512
    ab20:	fb79                	bnez	a4,aaf6 <__smakebuf_r+0x1e>
    ab22:	9bf1                	andi	a5,a5,-4
    ab24:	0027e793          	ori	a5,a5,2
    ab28:	a45e                	sh	a5,12(s0)
    ab2a:	b7c1                	j	aaea <__smakebuf_r+0x12>
    ab2c:	ffffe797          	auipc	a5,0xffffe
    ab30:	f7a78793          	addi	a5,a5,-134 # 8aa6 <_cleanup_r>
    ab34:	d49c                	sw	a5,40(s1)
    ab36:	245e                	lhu	a5,12(s0)
    ab38:	c008                	sw	a0,0(s0)
    ab3a:	c808                	sw	a0,16(s0)
    ab3c:	0807e793          	ori	a5,a5,128
    ab40:	a45e                	sh	a5,12(s0)
    ab42:	47a2                	lw	a5,8(sp)
    ab44:	c85c                	sw	a5,20(s0)
    ab46:	47b2                	lw	a5,12(sp)
    ab48:	cb99                	beqz	a5,ab5e <__smakebuf_r+0x86>
    ab4a:	00e41583          	lh	a1,14(s0)
    ab4e:	8526                	mv	a0,s1
    ab50:	2a19                	jal	ac66 <_isatty_r>
    ab52:	c511                	beqz	a0,ab5e <__smakebuf_r+0x86>
    ab54:	245e                	lhu	a5,12(s0)
    ab56:	9bf1                	andi	a5,a5,-4
    ab58:	0017e793          	ori	a5,a5,1
    ab5c:	a45e                	sh	a5,12(s0)
    ab5e:	245e                	lhu	a5,12(s0)
    ab60:	00f96933          	or	s2,s2,a5
    ab64:	01241623          	sh	s2,12(s0)
    ab68:	b779                	j	aaf6 <__smakebuf_r+0x1e>

0000ab6a <memmove>:
    ab6a:	04a5f163          	bgeu	a1,a0,abac <memmove+0x42>
    ab6e:	00c586b3          	add	a3,a1,a2
    ab72:	02d57d63          	bgeu	a0,a3,abac <memmove+0x42>
    ab76:	fff64593          	not	a1,a2
    ab7a:	4781                	li	a5,0
    ab7c:	17fd                	addi	a5,a5,-1
    ab7e:	00f59363          	bne	a1,a5,ab84 <memmove+0x1a>
    ab82:	8082                	ret
    ab84:	00f68733          	add	a4,a3,a5
    ab88:	00074803          	lbu	a6,0(a4) # ffffe000 <_eusrstack+0xdfff6000>
    ab8c:	00c78733          	add	a4,a5,a2
    ab90:	972a                	add	a4,a4,a0
    ab92:	01070023          	sb	a6,0(a4)
    ab96:	b7dd                	j	ab7c <memmove+0x12>
    ab98:	00f58733          	add	a4,a1,a5
    ab9c:	2314                	lbu	a3,0(a4)
    ab9e:	00f50733          	add	a4,a0,a5
    aba2:	0785                	addi	a5,a5,1
    aba4:	a314                	sb	a3,0(a4)
    aba6:	fef619e3          	bne	a2,a5,ab98 <memmove+0x2e>
    abaa:	8082                	ret
    abac:	4781                	li	a5,0
    abae:	bfe5                	j	aba6 <memmove+0x3c>

0000abb0 <__malloc_lock>:
    abb0:	8082                	ret

0000abb2 <__malloc_unlock>:
    abb2:	8082                	ret

0000abb4 <_realloc_r>:
    abb4:	e581                	bnez	a1,abbc <_realloc_r+0x8>
    abb6:	85b2                	mv	a1,a2
    abb8:	ac0ff06f          	j	9e78 <_malloc_r>
    abbc:	1101                	addi	sp,sp,-32
    abbe:	cc22                	sw	s0,24(sp)
    abc0:	ce06                	sw	ra,28(sp)
    abc2:	ca26                	sw	s1,20(sp)
    abc4:	c84a                	sw	s2,16(sp)
    abc6:	c64e                	sw	s3,12(sp)
    abc8:	8432                	mv	s0,a2
    abca:	ee01                	bnez	a2,abe2 <_realloc_r+0x2e>
    abcc:	a04ff0ef          	jal	ra,9dd0 <_free_r>
    abd0:	4901                	li	s2,0
    abd2:	40f2                	lw	ra,28(sp)
    abd4:	4462                	lw	s0,24(sp)
    abd6:	854a                	mv	a0,s2
    abd8:	44d2                	lw	s1,20(sp)
    abda:	4942                	lw	s2,16(sp)
    abdc:	49b2                	lw	s3,12(sp)
    abde:	6105                	addi	sp,sp,32
    abe0:	8082                	ret
    abe2:	84ae                	mv	s1,a1
    abe4:	89aa                	mv	s3,a0
    abe6:	206d                	jal	ac90 <_malloc_usable_size_r>
    abe8:	8926                	mv	s2,s1
    abea:	fe8574e3          	bgeu	a0,s0,abd2 <_realloc_r+0x1e>
    abee:	85a2                	mv	a1,s0
    abf0:	854e                	mv	a0,s3
    abf2:	a86ff0ef          	jal	ra,9e78 <_malloc_r>
    abf6:	892a                	mv	s2,a0
    abf8:	dd69                	beqz	a0,abd2 <_realloc_r+0x1e>
    abfa:	85a6                	mv	a1,s1
    abfc:	8622                	mv	a2,s0
    abfe:	b1cfb0ef          	jal	ra,5f1a <memcpy>
    ac02:	85a6                	mv	a1,s1
    ac04:	854e                	mv	a0,s3
    ac06:	9caff0ef          	jal	ra,9dd0 <_free_r>
    ac0a:	b7e1                	j	abd2 <_realloc_r+0x1e>

0000ac0c <_read_r>:
    ac0c:	1141                	addi	sp,sp,-16
    ac0e:	c422                	sw	s0,8(sp)
    ac10:	842a                	mv	s0,a0
    ac12:	852e                	mv	a0,a1
    ac14:	85b2                	mv	a1,a2
    ac16:	8636                	mv	a2,a3
    ac18:	ba01ae23          	sw	zero,-1092(gp) # 200005ac <errno>
    ac1c:	c606                	sw	ra,12(sp)
    ac1e:	577000ef          	jal	ra,b994 <_read>
    ac22:	57fd                	li	a5,-1
    ac24:	00f51763          	bne	a0,a5,ac32 <_read_r+0x26>
    ac28:	bbc18793          	addi	a5,gp,-1092 # 200005ac <errno>
    ac2c:	439c                	lw	a5,0(a5)
    ac2e:	c391                	beqz	a5,ac32 <_read_r+0x26>
    ac30:	c01c                	sw	a5,0(s0)
    ac32:	40b2                	lw	ra,12(sp)
    ac34:	4422                	lw	s0,8(sp)
    ac36:	0141                	addi	sp,sp,16
    ac38:	8082                	ret

0000ac3a <_fstat_r>:
    ac3a:	1141                	addi	sp,sp,-16
    ac3c:	c422                	sw	s0,8(sp)
    ac3e:	842a                	mv	s0,a0
    ac40:	852e                	mv	a0,a1
    ac42:	85b2                	mv	a1,a2
    ac44:	ba01ae23          	sw	zero,-1092(gp) # 200005ac <errno>
    ac48:	c606                	sw	ra,12(sp)
    ac4a:	527000ef          	jal	ra,b970 <_fstat>
    ac4e:	57fd                	li	a5,-1
    ac50:	00f51763          	bne	a0,a5,ac5e <_fstat_r+0x24>
    ac54:	bbc18793          	addi	a5,gp,-1092 # 200005ac <errno>
    ac58:	439c                	lw	a5,0(a5)
    ac5a:	c391                	beqz	a5,ac5e <_fstat_r+0x24>
    ac5c:	c01c                	sw	a5,0(s0)
    ac5e:	40b2                	lw	ra,12(sp)
    ac60:	4422                	lw	s0,8(sp)
    ac62:	0141                	addi	sp,sp,16
    ac64:	8082                	ret

0000ac66 <_isatty_r>:
    ac66:	1141                	addi	sp,sp,-16
    ac68:	c422                	sw	s0,8(sp)
    ac6a:	842a                	mv	s0,a0
    ac6c:	852e                	mv	a0,a1
    ac6e:	ba01ae23          	sw	zero,-1092(gp) # 200005ac <errno>
    ac72:	c606                	sw	ra,12(sp)
    ac74:	509000ef          	jal	ra,b97c <_isatty>
    ac78:	57fd                	li	a5,-1
    ac7a:	00f51763          	bne	a0,a5,ac88 <_isatty_r+0x22>
    ac7e:	bbc18793          	addi	a5,gp,-1092 # 200005ac <errno>
    ac82:	439c                	lw	a5,0(a5)
    ac84:	c391                	beqz	a5,ac88 <_isatty_r+0x22>
    ac86:	c01c                	sw	a5,0(s0)
    ac88:	40b2                	lw	ra,12(sp)
    ac8a:	4422                	lw	s0,8(sp)
    ac8c:	0141                	addi	sp,sp,16
    ac8e:	8082                	ret

0000ac90 <_malloc_usable_size_r>:
    ac90:	ffc5a783          	lw	a5,-4(a1)
    ac94:	ffc78513          	addi	a0,a5,-4
    ac98:	0007d563          	bgez	a5,aca2 <_malloc_usable_size_r+0x12>
    ac9c:	95aa                	add	a1,a1,a0
    ac9e:	419c                	lw	a5,0(a1)
    aca0:	953e                	add	a0,a0,a5
    aca2:	8082                	ret

0000aca4 <__adddf3>:
    aca4:	00100837          	lui	a6,0x100
    aca8:	1101                	addi	sp,sp,-32
    acaa:	187d                	addi	a6,a6,-1
    acac:	00b87733          	and	a4,a6,a1
    acb0:	ca26                	sw	s1,20(sp)
    acb2:	00d87833          	and	a6,a6,a3
    acb6:	0145d493          	srli	s1,a1,0x14
    acba:	0146d313          	srli	t1,a3,0x14
    acbe:	00371e13          	slli	t3,a4,0x3
    acc2:	c64e                	sw	s3,12(sp)
    acc4:	01d55713          	srli	a4,a0,0x1d
    acc8:	080e                	slli	a6,a6,0x3
    acca:	01d65793          	srli	a5,a2,0x1d
    acce:	7ff4f493          	andi	s1,s1,2047
    acd2:	7ff37313          	andi	t1,t1,2047
    acd6:	ce06                	sw	ra,28(sp)
    acd8:	cc22                	sw	s0,24(sp)
    acda:	c84a                	sw	s2,16(sp)
    acdc:	01f5d993          	srli	s3,a1,0x1f
    ace0:	01f6de93          	srli	t4,a3,0x1f
    ace4:	01c76733          	or	a4,a4,t3
    ace8:	00351f13          	slli	t5,a0,0x3
    acec:	0107e833          	or	a6,a5,a6
    acf0:	00361f93          	slli	t6,a2,0x3
    acf4:	40648e33          	sub	t3,s1,t1
    acf8:	19d98063          	beq	s3,t4,ae78 <__adddf3+0x1d4>
    acfc:	13c05663          	blez	t3,ae28 <__adddf3+0x184>
    ad00:	1c030463          	beqz	t1,aec8 <__adddf3+0x224>
    ad04:	008006b7          	lui	a3,0x800
    ad08:	7ff00793          	li	a5,2047
    ad0c:	00d86833          	or	a6,a6,a3
    ad10:	36f48f63          	beq	s1,a5,b08e <__adddf3+0x3ea>
    ad14:	03800793          	li	a5,56
    ad18:	35c7c063          	blt	a5,t3,b058 <__adddf3+0x3b4>
    ad1c:	47fd                	li	a5,31
    ad1e:	47c7cd63          	blt	a5,t3,b198 <__adddf3+0x4f4>
    ad22:	02000513          	li	a0,32
    ad26:	41c50533          	sub	a0,a0,t3
    ad2a:	01cfd7b3          	srl	a5,t6,t3
    ad2e:	00a816b3          	sll	a3,a6,a0
    ad32:	00af9933          	sll	s2,t6,a0
    ad36:	8edd                	or	a3,a3,a5
    ad38:	01203933          	snez	s2,s2
    ad3c:	01c857b3          	srl	a5,a6,t3
    ad40:	0126e933          	or	s2,a3,s2
    ad44:	8f1d                	sub	a4,a4,a5
    ad46:	412f0933          	sub	s2,t5,s2
    ad4a:	012f37b3          	sltu	a5,t5,s2
    ad4e:	40f70633          	sub	a2,a4,a5
    ad52:	00861793          	slli	a5,a2,0x8
    ad56:	2407d463          	bgez	a5,af9e <__adddf3+0x2fa>
    ad5a:	00800737          	lui	a4,0x800
    ad5e:	177d                	addi	a4,a4,-1
    ad60:	00e67433          	and	s0,a2,a4
    ad64:	2c040c63          	beqz	s0,b03c <__adddf3+0x398>
    ad68:	8522                	mv	a0,s0
    ad6a:	942fb0ef          	jal	ra,5eac <__clzsi2>
    ad6e:	ff850713          	addi	a4,a0,-8
    ad72:	02000793          	li	a5,32
    ad76:	8f99                	sub	a5,a5,a4
    ad78:	00f957b3          	srl	a5,s2,a5
    ad7c:	00e41633          	sll	a2,s0,a4
    ad80:	8fd1                	or	a5,a5,a2
    ad82:	00e91933          	sll	s2,s2,a4
    ad86:	2a974163          	blt	a4,s1,b028 <__adddf3+0x384>
    ad8a:	40970533          	sub	a0,a4,s1
    ad8e:	00150613          	addi	a2,a0,1
    ad92:	477d                	li	a4,31
    ad94:	38c74d63          	blt	a4,a2,b12e <__adddf3+0x48a>
    ad98:	02000713          	li	a4,32
    ad9c:	8f11                	sub	a4,a4,a2
    ad9e:	00c956b3          	srl	a3,s2,a2
    ada2:	00e91933          	sll	s2,s2,a4
    ada6:	00e79733          	sll	a4,a5,a4
    adaa:	8f55                	or	a4,a4,a3
    adac:	01203933          	snez	s2,s2
    adb0:	01276933          	or	s2,a4,s2
    adb4:	00c7d633          	srl	a2,a5,a2
    adb8:	4481                	li	s1,0
    adba:	00797793          	andi	a5,s2,7
    adbe:	cf81                	beqz	a5,add6 <__adddf3+0x132>
    adc0:	00f97713          	andi	a4,s2,15
    adc4:	4791                	li	a5,4
    adc6:	00f70863          	beq	a4,a5,add6 <__adddf3+0x132>
    adca:	00490713          	addi	a4,s2,4
    adce:	01273933          	sltu	s2,a4,s2
    add2:	964a                	add	a2,a2,s2
    add4:	893a                	mv	s2,a4
    add6:	00861793          	slli	a5,a2,0x8
    adda:	1c07d663          	bgez	a5,afa6 <__adddf3+0x302>
    adde:	00148513          	addi	a0,s1,1
    ade2:	7ff00793          	li	a5,2047
    ade6:	85ce                	mv	a1,s3
    ade8:	20f50463          	beq	a0,a5,aff0 <__adddf3+0x34c>
    adec:	ff8007b7          	lui	a5,0xff800
    adf0:	17fd                	addi	a5,a5,-1
    adf2:	8ff1                	and	a5,a5,a2
    adf4:	01d79893          	slli	a7,a5,0x1d
    adf8:	00395913          	srli	s2,s2,0x3
    adfc:	07a6                	slli	a5,a5,0x9
    adfe:	0128e8b3          	or	a7,a7,s2
    ae02:	83b1                	srli	a5,a5,0xc
    ae04:	7ff57513          	andi	a0,a0,2047
    ae08:	00c79693          	slli	a3,a5,0xc
    ae0c:	0552                	slli	a0,a0,0x14
    ae0e:	40f2                	lw	ra,28(sp)
    ae10:	4462                	lw	s0,24(sp)
    ae12:	82b1                	srli	a3,a3,0xc
    ae14:	05fe                	slli	a1,a1,0x1f
    ae16:	8ec9                	or	a3,a3,a0
    ae18:	8ecd                	or	a3,a3,a1
    ae1a:	44d2                	lw	s1,20(sp)
    ae1c:	4942                	lw	s2,16(sp)
    ae1e:	49b2                	lw	s3,12(sp)
    ae20:	8546                	mv	a0,a7
    ae22:	85b6                	mv	a1,a3
    ae24:	6105                	addi	sp,sp,32
    ae26:	8082                	ret
    ae28:	0a0e1e63          	bnez	t3,aee4 <__adddf3+0x240>
    ae2c:	00148313          	addi	t1,s1,1
    ae30:	7fe37313          	andi	t1,t1,2046
    ae34:	22031763          	bnez	t1,b062 <__adddf3+0x3be>
    ae38:	01e767b3          	or	a5,a4,t5
    ae3c:	01f868b3          	or	a7,a6,t6
    ae40:	1a049d63          	bnez	s1,affa <__adddf3+0x356>
    ae44:	40078763          	beqz	a5,b252 <__adddf3+0x5ae>
    ae48:	44088663          	beqz	a7,b294 <__adddf3+0x5f0>
    ae4c:	41ff0933          	sub	s2,t5,t6
    ae50:	410707b3          	sub	a5,a4,a6
    ae54:	012f3633          	sltu	a2,t5,s2
    ae58:	40c78633          	sub	a2,a5,a2
    ae5c:	00861793          	slli	a5,a2,0x8
    ae60:	4c07d663          	bgez	a5,b32c <__adddf3+0x688>
    ae64:	41ef8933          	sub	s2,t6,t5
    ae68:	40e807b3          	sub	a5,a6,a4
    ae6c:	012fb633          	sltu	a2,t6,s2
    ae70:	40c78633          	sub	a2,a5,a2
    ae74:	89f6                	mv	s3,t4
    ae76:	b791                	j	adba <__adddf3+0x116>
    ae78:	0fc05063          	blez	t3,af58 <__adddf3+0x2b4>
    ae7c:	0c030063          	beqz	t1,af3c <__adddf3+0x298>
    ae80:	008006b7          	lui	a3,0x800
    ae84:	7ff00793          	li	a5,2047
    ae88:	00d86833          	or	a6,a6,a3
    ae8c:	3af48a63          	beq	s1,a5,b240 <__adddf3+0x59c>
    ae90:	03800793          	li	a5,56
    ae94:	13c7cb63          	blt	a5,t3,afca <__adddf3+0x326>
    ae98:	47fd                	li	a5,31
    ae9a:	35c7df63          	bge	a5,t3,b1f8 <__adddf3+0x554>
    ae9e:	fe0e0913          	addi	s2,t3,-32
    aea2:	02000793          	li	a5,32
    aea6:	012856b3          	srl	a3,a6,s2
    aeaa:	00fe0a63          	beq	t3,a5,aebe <__adddf3+0x21a>
    aeae:	04000913          	li	s2,64
    aeb2:	41c90933          	sub	s2,s2,t3
    aeb6:	01281933          	sll	s2,a6,s2
    aeba:	012fefb3          	or	t6,t6,s2
    aebe:	01f03933          	snez	s2,t6
    aec2:	00d96933          	or	s2,s2,a3
    aec6:	a231                	j	afd2 <__adddf3+0x32e>
    aec8:	01f867b3          	or	a5,a6,t6
    aecc:	1c078a63          	beqz	a5,b0a0 <__adddf3+0x3fc>
    aed0:	fffe0793          	addi	a5,t3,-1
    aed4:	38078c63          	beqz	a5,b26c <__adddf3+0x5c8>
    aed8:	7ff00693          	li	a3,2047
    aedc:	1ade0963          	beq	t3,a3,b08e <__adddf3+0x3ea>
    aee0:	8e3e                	mv	t3,a5
    aee2:	bd0d                	j	ad14 <__adddf3+0x70>
    aee4:	409305b3          	sub	a1,t1,s1
    aee8:	22049163          	bnez	s1,b10a <__adddf3+0x466>
    aeec:	01e767b3          	or	a5,a4,t5
    aef0:	32078763          	beqz	a5,b21e <__adddf3+0x57a>
    aef4:	fff58793          	addi	a5,a1,-1
    aef8:	44078163          	beqz	a5,b33a <__adddf3+0x696>
    aefc:	7ff00693          	li	a3,2047
    af00:	20d58c63          	beq	a1,a3,b118 <__adddf3+0x474>
    af04:	85be                	mv	a1,a5
    af06:	03800793          	li	a5,56
    af0a:	2ab7cc63          	blt	a5,a1,b1c2 <__adddf3+0x51e>
    af0e:	47fd                	li	a5,31
    af10:	3cb7cf63          	blt	a5,a1,b2ee <__adddf3+0x64a>
    af14:	02000793          	li	a5,32
    af18:	8f8d                	sub	a5,a5,a1
    af1a:	00f71933          	sll	s2,a4,a5
    af1e:	00bf56b3          	srl	a3,t5,a1
    af22:	00ff17b3          	sll	a5,t5,a5
    af26:	00d96933          	or	s2,s2,a3
    af2a:	00f037b3          	snez	a5,a5
    af2e:	00b75733          	srl	a4,a4,a1
    af32:	00f96933          	or	s2,s2,a5
    af36:	40e80833          	sub	a6,a6,a4
    af3a:	ac41                	j	b1ca <__adddf3+0x526>
    af3c:	01f867b3          	or	a5,a6,t6
    af40:	34078063          	beqz	a5,b280 <__adddf3+0x5dc>
    af44:	fffe0793          	addi	a5,t3,-1
    af48:	20078a63          	beqz	a5,b15c <__adddf3+0x4b8>
    af4c:	7ff00693          	li	a3,2047
    af50:	2ede0863          	beq	t3,a3,b240 <__adddf3+0x59c>
    af54:	8e3e                	mv	t3,a5
    af56:	bf2d                	j	ae90 <__adddf3+0x1ec>
    af58:	140e1e63          	bnez	t3,b0b4 <__adddf3+0x410>
    af5c:	00148693          	addi	a3,s1,1
    af60:	7fe6f793          	andi	a5,a3,2046
    af64:	34079163          	bnez	a5,b2a6 <__adddf3+0x602>
    af68:	01e767b3          	or	a5,a4,t5
    af6c:	2c049563          	bnez	s1,b236 <__adddf3+0x592>
    af70:	3e078063          	beqz	a5,b350 <__adddf3+0x6ac>
    af74:	01f867b3          	or	a5,a6,t6
    af78:	30078e63          	beqz	a5,b294 <__adddf3+0x5f0>
    af7c:	01ff0933          	add	s2,t5,t6
    af80:	010707b3          	add	a5,a4,a6
    af84:	01e93f33          	sltu	t5,s2,t5
    af88:	01e78633          	add	a2,a5,t5
    af8c:	00861793          	slli	a5,a2,0x8
    af90:	0007d763          	bgez	a5,af9e <__adddf3+0x2fa>
    af94:	ff8007b7          	lui	a5,0xff800
    af98:	17fd                	addi	a5,a5,-1
    af9a:	8e7d                	and	a2,a2,a5
    af9c:	4485                	li	s1,1
    af9e:	00797793          	andi	a5,s2,7
    afa2:	e0079fe3          	bnez	a5,adc0 <__adddf3+0x11c>
    afa6:	01d61793          	slli	a5,a2,0x1d
    afaa:	00395893          	srli	a7,s2,0x3
    afae:	00f8e8b3          	or	a7,a7,a5
    afb2:	00365793          	srli	a5,a2,0x3
    afb6:	7ff00713          	li	a4,2047
    afba:	04e48d63          	beq	s1,a4,b014 <__adddf3+0x370>
    afbe:	07b2                	slli	a5,a5,0xc
    afc0:	83b1                	srli	a5,a5,0xc
    afc2:	7ff4f513          	andi	a0,s1,2047
    afc6:	85ce                	mv	a1,s3
    afc8:	b581                	j	ae08 <__adddf3+0x164>
    afca:	01f86933          	or	s2,a6,t6
    afce:	01203933          	snez	s2,s2
    afd2:	997a                	add	s2,s2,t5
    afd4:	01e937b3          	sltu	a5,s2,t5
    afd8:	00e78633          	add	a2,a5,a4
    afdc:	00861793          	slli	a5,a2,0x8
    afe0:	fa07dfe3          	bgez	a5,af9e <__adddf3+0x2fa>
    afe4:	0485                	addi	s1,s1,1
    afe6:	7ff00793          	li	a5,2047
    afea:	18f49663          	bne	s1,a5,b176 <__adddf3+0x4d2>
    afee:	85ce                	mv	a1,s3
    aff0:	7ff00513          	li	a0,2047
    aff4:	4781                	li	a5,0
    aff6:	4881                	li	a7,0
    aff8:	bd01                	j	ae08 <__adddf3+0x164>
    affa:	ebc1                	bnez	a5,b08a <__adddf3+0x3e6>
    affc:	3a088463          	beqz	a7,b3a4 <__adddf3+0x700>
    b000:	00361693          	slli	a3,a2,0x3
    b004:	01d81793          	slli	a5,a6,0x1d
    b008:	828d                	srli	a3,a3,0x3
    b00a:	00d7e8b3          	or	a7,a5,a3
    b00e:	89f6                	mv	s3,t4
    b010:	00385793          	srli	a5,a6,0x3
    b014:	00f8e7b3          	or	a5,a7,a5
    b018:	dbf9                	beqz	a5,afee <__adddf3+0x34a>
    b01a:	4581                	li	a1,0
    b01c:	7ff00513          	li	a0,2047
    b020:	000807b7          	lui	a5,0x80
    b024:	4881                	li	a7,0
    b026:	b3cd                	j	ae08 <__adddf3+0x164>
    b028:	ff800637          	lui	a2,0xff800
    b02c:	167d                	addi	a2,a2,-1
    b02e:	8e7d                	and	a2,a2,a5
    b030:	00797793          	andi	a5,s2,7
    b034:	8c99                	sub	s1,s1,a4
    b036:	d80795e3          	bnez	a5,adc0 <__adddf3+0x11c>
    b03a:	b7b5                	j	afa6 <__adddf3+0x302>
    b03c:	854a                	mv	a0,s2
    b03e:	e6ffa0ef          	jal	ra,5eac <__clzsi2>
    b042:	01850713          	addi	a4,a0,24
    b046:	47fd                	li	a5,31
    b048:	d2e7d5e3          	bge	a5,a4,ad72 <__adddf3+0xce>
    b04c:	ff850613          	addi	a2,a0,-8
    b050:	00c917b3          	sll	a5,s2,a2
    b054:	4901                	li	s2,0
    b056:	bb05                	j	ad86 <__adddf3+0xe2>
    b058:	01f86933          	or	s2,a6,t6
    b05c:	01203933          	snez	s2,s2
    b060:	b1dd                	j	ad46 <__adddf3+0xa2>
    b062:	41ff0933          	sub	s2,t5,t6
    b066:	41070633          	sub	a2,a4,a6
    b06a:	012f3433          	sltu	s0,t5,s2
    b06e:	40860433          	sub	s0,a2,s0
    b072:	00841793          	slli	a5,s0,0x8
    b076:	2407cd63          	bltz	a5,b2d0 <__adddf3+0x62c>
    b07a:	008968b3          	or	a7,s2,s0
    b07e:	ce0893e3          	bnez	a7,ad64 <__adddf3+0xc0>
    b082:	4781                	li	a5,0
    b084:	4981                	li	s3,0
    b086:	4481                	li	s1,0
    b088:	bf1d                	j	afbe <__adddf3+0x31a>
    b08a:	f80898e3          	bnez	a7,b01a <__adddf3+0x376>
    b08e:	050e                	slli	a0,a0,0x3
    b090:	01d71793          	slli	a5,a4,0x1d
    b094:	810d                	srli	a0,a0,0x3
    b096:	00a7e8b3          	or	a7,a5,a0
    b09a:	00375793          	srli	a5,a4,0x3
    b09e:	bf9d                	j	b014 <__adddf3+0x370>
    b0a0:	050e                	slli	a0,a0,0x3
    b0a2:	01d71793          	slli	a5,a4,0x1d
    b0a6:	810d                	srli	a0,a0,0x3
    b0a8:	00a7e8b3          	or	a7,a5,a0
    b0ac:	84f2                	mv	s1,t3
    b0ae:	00375793          	srli	a5,a4,0x3
    b0b2:	b711                	j	afb6 <__adddf3+0x312>
    b0b4:	40930533          	sub	a0,t1,s1
    b0b8:	12048263          	beqz	s1,b1dc <__adddf3+0x538>
    b0bc:	008006b7          	lui	a3,0x800
    b0c0:	7ff00793          	li	a5,2047
    b0c4:	8f55                	or	a4,a4,a3
    b0c6:	2ef30d63          	beq	t1,a5,b3c0 <__adddf3+0x71c>
    b0ca:	03800793          	li	a5,56
    b0ce:	20a7cb63          	blt	a5,a0,b2e4 <__adddf3+0x640>
    b0d2:	47fd                	li	a5,31
    b0d4:	2aa7c363          	blt	a5,a0,b37a <__adddf3+0x6d6>
    b0d8:	02000793          	li	a5,32
    b0dc:	8f89                	sub	a5,a5,a0
    b0de:	00f71933          	sll	s2,a4,a5
    b0e2:	00af56b3          	srl	a3,t5,a0
    b0e6:	00ff17b3          	sll	a5,t5,a5
    b0ea:	00d96933          	or	s2,s2,a3
    b0ee:	00f037b3          	snez	a5,a5
    b0f2:	00a75733          	srl	a4,a4,a0
    b0f6:	00f96933          	or	s2,s2,a5
    b0fa:	983a                	add	a6,a6,a4
    b0fc:	997e                	add	s2,s2,t6
    b0fe:	01f937b3          	sltu	a5,s2,t6
    b102:	01078633          	add	a2,a5,a6
    b106:	849a                	mv	s1,t1
    b108:	bdd1                	j	afdc <__adddf3+0x338>
    b10a:	008006b7          	lui	a3,0x800
    b10e:	7ff00793          	li	a5,2047
    b112:	8f55                	or	a4,a4,a3
    b114:	def319e3          	bne	t1,a5,af06 <__adddf3+0x262>
    b118:	00361793          	slli	a5,a2,0x3
    b11c:	838d                	srli	a5,a5,0x3
    b11e:	01d81893          	slli	a7,a6,0x1d
    b122:	0117e8b3          	or	a7,a5,a7
    b126:	89f6                	mv	s3,t4
    b128:	00385793          	srli	a5,a6,0x3
    b12c:	b5e5                	j	b014 <__adddf3+0x370>
    b12e:	fe150713          	addi	a4,a0,-31
    b132:	02000693          	li	a3,32
    b136:	00e7d733          	srl	a4,a5,a4
    b13a:	00d60a63          	beq	a2,a3,b14e <__adddf3+0x4aa>
    b13e:	04000693          	li	a3,64
    b142:	40c68633          	sub	a2,a3,a2
    b146:	00c79633          	sll	a2,a5,a2
    b14a:	00c96933          	or	s2,s2,a2
    b14e:	01203933          	snez	s2,s2
    b152:	00e96933          	or	s2,s2,a4
    b156:	4601                	li	a2,0
    b158:	4481                	li	s1,0
    b15a:	b591                	j	af9e <__adddf3+0x2fa>
    b15c:	01ff0933          	add	s2,t5,t6
    b160:	010707b3          	add	a5,a4,a6
    b164:	01e93633          	sltu	a2,s2,t5
    b168:	963e                	add	a2,a2,a5
    b16a:	00861793          	slli	a5,a2,0x8
    b16e:	4485                	li	s1,1
    b170:	e207d7e3          	bgez	a5,af9e <__adddf3+0x2fa>
    b174:	4489                	li	s1,2
    b176:	ff8007b7          	lui	a5,0xff800
    b17a:	17fd                	addi	a5,a5,-1
    b17c:	8ff1                	and	a5,a5,a2
    b17e:	00195713          	srli	a4,s2,0x1
    b182:	00197913          	andi	s2,s2,1
    b186:	01276933          	or	s2,a4,s2
    b18a:	01f79893          	slli	a7,a5,0x1f
    b18e:	0128e933          	or	s2,a7,s2
    b192:	0017d613          	srli	a2,a5,0x1
    b196:	b115                	j	adba <__adddf3+0x116>
    b198:	fe0e0913          	addi	s2,t3,-32
    b19c:	02000793          	li	a5,32
    b1a0:	012856b3          	srl	a3,a6,s2
    b1a4:	00fe0a63          	beq	t3,a5,b1b8 <__adddf3+0x514>
    b1a8:	04000913          	li	s2,64
    b1ac:	41c90933          	sub	s2,s2,t3
    b1b0:	01281933          	sll	s2,a6,s2
    b1b4:	012fefb3          	or	t6,t6,s2
    b1b8:	01f03933          	snez	s2,t6
    b1bc:	00d96933          	or	s2,s2,a3
    b1c0:	b659                	j	ad46 <__adddf3+0xa2>
    b1c2:	01e76933          	or	s2,a4,t5
    b1c6:	01203933          	snez	s2,s2
    b1ca:	412f8933          	sub	s2,t6,s2
    b1ce:	012fb7b3          	sltu	a5,t6,s2
    b1d2:	40f80633          	sub	a2,a6,a5
    b1d6:	849a                	mv	s1,t1
    b1d8:	89f6                	mv	s3,t4
    b1da:	bea5                	j	ad52 <__adddf3+0xae>
    b1dc:	01e767b3          	or	a5,a4,t5
    b1e0:	18078263          	beqz	a5,b364 <__adddf3+0x6c0>
    b1e4:	fff50793          	addi	a5,a0,-1
    b1e8:	1c078463          	beqz	a5,b3b0 <__adddf3+0x70c>
    b1ec:	7ff00693          	li	a3,2047
    b1f0:	12d50463          	beq	a0,a3,b318 <__adddf3+0x674>
    b1f4:	853e                	mv	a0,a5
    b1f6:	bdd1                	j	b0ca <__adddf3+0x426>
    b1f8:	02000793          	li	a5,32
    b1fc:	41c787b3          	sub	a5,a5,t3
    b200:	00f816b3          	sll	a3,a6,a5
    b204:	00ff9933          	sll	s2,t6,a5
    b208:	01cfd633          	srl	a2,t6,t3
    b20c:	8ed1                	or	a3,a3,a2
    b20e:	01203933          	snez	s2,s2
    b212:	01c857b3          	srl	a5,a6,t3
    b216:	0126e933          	or	s2,a3,s2
    b21a:	973e                	add	a4,a4,a5
    b21c:	bb5d                	j	afd2 <__adddf3+0x32e>
    b21e:	00361793          	slli	a5,a2,0x3
    b222:	838d                	srli	a5,a5,0x3
    b224:	01d81893          	slli	a7,a6,0x1d
    b228:	0117e8b3          	or	a7,a5,a7
    b22c:	84ae                	mv	s1,a1
    b22e:	00385793          	srli	a5,a6,0x3
    b232:	89f6                	mv	s3,t4
    b234:	b349                	j	afb6 <__adddf3+0x312>
    b236:	c3ed                	beqz	a5,b318 <__adddf3+0x674>
    b238:	01f86933          	or	s2,a6,t6
    b23c:	dc091fe3          	bnez	s2,b01a <__adddf3+0x376>
    b240:	050e                	slli	a0,a0,0x3
    b242:	01d71793          	slli	a5,a4,0x1d
    b246:	810d                	srli	a0,a0,0x3
    b248:	00f568b3          	or	a7,a0,a5
    b24c:	00375793          	srli	a5,a4,0x3
    b250:	b3d1                	j	b014 <__adddf3+0x370>
    b252:	0e088163          	beqz	a7,b334 <__adddf3+0x690>
    b256:	00361693          	slli	a3,a2,0x3
    b25a:	01d81793          	slli	a5,a6,0x1d
    b25e:	828d                	srli	a3,a3,0x3
    b260:	00d7e8b3          	or	a7,a5,a3
    b264:	89f6                	mv	s3,t4
    b266:	00385793          	srli	a5,a6,0x3
    b26a:	bb91                	j	afbe <__adddf3+0x31a>
    b26c:	41ff0933          	sub	s2,t5,t6
    b270:	410707b3          	sub	a5,a4,a6
    b274:	012f3f33          	sltu	t5,t5,s2
    b278:	41e78633          	sub	a2,a5,t5
    b27c:	4485                	li	s1,1
    b27e:	bcd1                	j	ad52 <__adddf3+0xae>
    b280:	050e                	slli	a0,a0,0x3
    b282:	01d71793          	slli	a5,a4,0x1d
    b286:	810d                	srli	a0,a0,0x3
    b288:	00f568b3          	or	a7,a0,a5
    b28c:	84f2                	mv	s1,t3
    b28e:	00375793          	srli	a5,a4,0x3
    b292:	b315                	j	afb6 <__adddf3+0x312>
    b294:	050e                	slli	a0,a0,0x3
    b296:	01d71793          	slli	a5,a4,0x1d
    b29a:	810d                	srli	a0,a0,0x3
    b29c:	00a7e8b3          	or	a7,a5,a0
    b2a0:	00375793          	srli	a5,a4,0x3
    b2a4:	bb29                	j	afbe <__adddf3+0x31a>
    b2a6:	7ff00793          	li	a5,2047
    b2aa:	d4f682e3          	beq	a3,a5,afee <__adddf3+0x34a>
    b2ae:	01ff0933          	add	s2,t5,t6
    b2b2:	01e93633          	sltu	a2,s2,t5
    b2b6:	010707b3          	add	a5,a4,a6
    b2ba:	97b2                	add	a5,a5,a2
    b2bc:	01f79893          	slli	a7,a5,0x1f
    b2c0:	00195913          	srli	s2,s2,0x1
    b2c4:	0128e933          	or	s2,a7,s2
    b2c8:	0017d613          	srli	a2,a5,0x1
    b2cc:	84b6                	mv	s1,a3
    b2ce:	b9c1                	j	af9e <__adddf3+0x2fa>
    b2d0:	41ef8933          	sub	s2,t6,t5
    b2d4:	40e80733          	sub	a4,a6,a4
    b2d8:	012fb633          	sltu	a2,t6,s2
    b2dc:	40c70433          	sub	s0,a4,a2
    b2e0:	89f6                	mv	s3,t4
    b2e2:	b449                	j	ad64 <__adddf3+0xc0>
    b2e4:	01e76933          	or	s2,a4,t5
    b2e8:	01203933          	snez	s2,s2
    b2ec:	bd01                	j	b0fc <__adddf3+0x458>
    b2ee:	fe058793          	addi	a5,a1,-32
    b2f2:	02000693          	li	a3,32
    b2f6:	00f757b3          	srl	a5,a4,a5
    b2fa:	00d58a63          	beq	a1,a3,b30e <__adddf3+0x66a>
    b2fe:	04000693          	li	a3,64
    b302:	40b685b3          	sub	a1,a3,a1
    b306:	00b71733          	sll	a4,a4,a1
    b30a:	00ef6f33          	or	t5,t5,a4
    b30e:	01e03933          	snez	s2,t5
    b312:	00f96933          	or	s2,s2,a5
    b316:	bd55                	j	b1ca <__adddf3+0x526>
    b318:	00361793          	slli	a5,a2,0x3
    b31c:	838d                	srli	a5,a5,0x3
    b31e:	01d81893          	slli	a7,a6,0x1d
    b322:	0117e8b3          	or	a7,a5,a7
    b326:	00385793          	srli	a5,a6,0x3
    b32a:	b1ed                	j	b014 <__adddf3+0x370>
    b32c:	00c968b3          	or	a7,s2,a2
    b330:	c60897e3          	bnez	a7,af9e <__adddf3+0x2fa>
    b334:	4781                	li	a5,0
    b336:	4981                	li	s3,0
    b338:	b159                	j	afbe <__adddf3+0x31a>
    b33a:	41ef8933          	sub	s2,t6,t5
    b33e:	40e807b3          	sub	a5,a6,a4
    b342:	012fb633          	sltu	a2,t6,s2
    b346:	40c78633          	sub	a2,a5,a2
    b34a:	89f6                	mv	s3,t4
    b34c:	4485                	li	s1,1
    b34e:	b411                	j	ad52 <__adddf3+0xae>
    b350:	00361693          	slli	a3,a2,0x3
    b354:	01d81793          	slli	a5,a6,0x1d
    b358:	828d                	srli	a3,a3,0x3
    b35a:	00d7e8b3          	or	a7,a5,a3
    b35e:	00385793          	srli	a5,a6,0x3
    b362:	b9b1                	j	afbe <__adddf3+0x31a>
    b364:	00361693          	slli	a3,a2,0x3
    b368:	01d81793          	slli	a5,a6,0x1d
    b36c:	828d                	srli	a3,a3,0x3
    b36e:	00d7e8b3          	or	a7,a5,a3
    b372:	84aa                	mv	s1,a0
    b374:	00385793          	srli	a5,a6,0x3
    b378:	b93d                	j	afb6 <__adddf3+0x312>
    b37a:	fe050793          	addi	a5,a0,-32
    b37e:	02000693          	li	a3,32
    b382:	00f757b3          	srl	a5,a4,a5
    b386:	00d50a63          	beq	a0,a3,b39a <__adddf3+0x6f6>
    b38a:	04000693          	li	a3,64
    b38e:	40a68533          	sub	a0,a3,a0
    b392:	00a71733          	sll	a4,a4,a0
    b396:	00ef6f33          	or	t5,t5,a4
    b39a:	01e03933          	snez	s2,t5
    b39e:	00f96933          	or	s2,s2,a5
    b3a2:	bba9                	j	b0fc <__adddf3+0x458>
    b3a4:	4581                	li	a1,0
    b3a6:	7ff00513          	li	a0,2047
    b3aa:	000807b7          	lui	a5,0x80
    b3ae:	bca9                	j	ae08 <__adddf3+0x164>
    b3b0:	01ff0933          	add	s2,t5,t6
    b3b4:	010707b3          	add	a5,a4,a6
    b3b8:	01f93633          	sltu	a2,s2,t6
    b3bc:	963e                	add	a2,a2,a5
    b3be:	b375                	j	b16a <__adddf3+0x4c6>
    b3c0:	00361693          	slli	a3,a2,0x3
    b3c4:	01d81793          	slli	a5,a6,0x1d
    b3c8:	828d                	srli	a3,a3,0x3
    b3ca:	00d7e8b3          	or	a7,a5,a3
    b3ce:	00385793          	srli	a5,a6,0x3
    b3d2:	b189                	j	b014 <__adddf3+0x370>

0000b3d4 <__eqdf2>:
    b3d4:	0145d713          	srli	a4,a1,0x14
    b3d8:	001007b7          	lui	a5,0x100
    b3dc:	17fd                	addi	a5,a5,-1
    b3de:	0146d813          	srli	a6,a3,0x14
    b3e2:	7ff77713          	andi	a4,a4,2047
    b3e6:	7ff00893          	li	a7,2047
    b3ea:	00b7fe33          	and	t3,a5,a1
    b3ee:	8eaa                	mv	t4,a0
    b3f0:	8ff5                	and	a5,a5,a3
    b3f2:	81fd                	srli	a1,a1,0x1f
    b3f4:	8f32                	mv	t5,a2
    b3f6:	7ff87813          	andi	a6,a6,2047
    b3fa:	82fd                	srli	a3,a3,0x1f
    b3fc:	01170b63          	beq	a4,a7,b412 <__eqdf2+0x3e>
    b400:	4305                	li	t1,1
    b402:	01180663          	beq	a6,a7,b40e <__eqdf2+0x3a>
    b406:	01071463          	bne	a4,a6,b40e <__eqdf2+0x3a>
    b40a:	00fe0d63          	beq	t3,a5,b424 <__eqdf2+0x50>
    b40e:	851a                	mv	a0,t1
    b410:	8082                	ret
    b412:	00ae68b3          	or	a7,t3,a0
    b416:	4305                	li	t1,1
    b418:	fe089be3          	bnez	a7,b40e <__eqdf2+0x3a>
    b41c:	fee819e3          	bne	a6,a4,b40e <__eqdf2+0x3a>
    b420:	8fd1                	or	a5,a5,a2
    b422:	f7f5                	bnez	a5,b40e <__eqdf2+0x3a>
    b424:	4305                	li	t1,1
    b426:	ffee94e3          	bne	t4,t5,b40e <__eqdf2+0x3a>
    b42a:	4301                	li	t1,0
    b42c:	fed581e3          	beq	a1,a3,b40e <__eqdf2+0x3a>
    b430:	4305                	li	t1,1
    b432:	ff71                	bnez	a4,b40e <__eqdf2+0x3a>
    b434:	00ae6533          	or	a0,t3,a0
    b438:	00a03333          	snez	t1,a0
    b43c:	bfc9                	j	b40e <__eqdf2+0x3a>

0000b43e <__unorddf2>:
    b43e:	0145d713          	srli	a4,a1,0x14
    b442:	001007b7          	lui	a5,0x100
    b446:	17fd                	addi	a5,a5,-1
    b448:	fff74713          	not	a4,a4
    b44c:	0146d813          	srli	a6,a3,0x14
    b450:	8dfd                	and	a1,a1,a5
    b452:	8ff5                	and	a5,a5,a3
    b454:	01571693          	slli	a3,a4,0x15
    b458:	7ff87813          	andi	a6,a6,2047
    b45c:	ca99                	beqz	a3,b472 <__unorddf2+0x34>
    b45e:	7ff00713          	li	a4,2047
    b462:	4501                	li	a0,0
    b464:	00e80363          	beq	a6,a4,b46a <__unorddf2+0x2c>
    b468:	8082                	ret
    b46a:	8fd1                	or	a5,a5,a2
    b46c:	00f03533          	snez	a0,a5
    b470:	8082                	ret
    b472:	8dc9                	or	a1,a1,a0
    b474:	4505                	li	a0,1
    b476:	d5e5                	beqz	a1,b45e <__unorddf2+0x20>
    b478:	8082                	ret

0000b47a <__fixdfsi>:
    b47a:	0145d793          	srli	a5,a1,0x14
    b47e:	001006b7          	lui	a3,0x100
    b482:	fff68713          	addi	a4,a3,-1 # fffff <_data_lma+0xf3c3b>
    b486:	7ff7f793          	andi	a5,a5,2047
    b48a:	3fe00613          	li	a2,1022
    b48e:	8f6d                	and	a4,a4,a1
    b490:	81fd                	srli	a1,a1,0x1f
    b492:	00f65c63          	bge	a2,a5,b4aa <__fixdfsi+0x30>
    b496:	41d00613          	li	a2,1053
    b49a:	00f65a63          	bge	a2,a5,b4ae <__fixdfsi+0x34>
    b49e:	80000537          	lui	a0,0x80000
    b4a2:	fff54513          	not	a0,a0
    b4a6:	952e                	add	a0,a0,a1
    b4a8:	8082                	ret
    b4aa:	4501                	li	a0,0
    b4ac:	8082                	ret
    b4ae:	43300613          	li	a2,1075
    b4b2:	8e1d                	sub	a2,a2,a5
    b4b4:	487d                	li	a6,31
    b4b6:	8f55                	or	a4,a4,a3
    b4b8:	00c85d63          	bge	a6,a2,b4d2 <__fixdfsi+0x58>
    b4bc:	41300693          	li	a3,1043
    b4c0:	40f687b3          	sub	a5,a3,a5
    b4c4:	00f757b3          	srl	a5,a4,a5
    b4c8:	40f00533          	neg	a0,a5
    b4cc:	f1e5                	bnez	a1,b4ac <__fixdfsi+0x32>
    b4ce:	853e                	mv	a0,a5
    b4d0:	8082                	ret
    b4d2:	bed78793          	addi	a5,a5,-1043 # ffbed <_data_lma+0xf3829>
    b4d6:	00f717b3          	sll	a5,a4,a5
    b4da:	00c55533          	srl	a0,a0,a2
    b4de:	8fc9                	or	a5,a5,a0
    b4e0:	b7e5                	j	b4c8 <__fixdfsi+0x4e>

0000b4e2 <__fixunsdfsi>:
    b4e2:	0145d793          	srli	a5,a1,0x14
    b4e6:	001006b7          	lui	a3,0x100
    b4ea:	fff68713          	addi	a4,a3,-1 # fffff <_data_lma+0xf3c3b>
    b4ee:	7ff7f793          	andi	a5,a5,2047
    b4f2:	3fe00613          	li	a2,1022
    b4f6:	882a                	mv	a6,a0
    b4f8:	8f6d                	and	a4,a4,a1
    b4fa:	4501                	li	a0,0
    b4fc:	81fd                	srli	a1,a1,0x1f
    b4fe:	00f65463          	bge	a2,a5,b506 <__fixunsdfsi+0x24>
    b502:	c199                	beqz	a1,b508 <__fixunsdfsi+0x26>
    b504:	8082                	ret
    b506:	8082                	ret
    b508:	41e00613          	li	a2,1054
    b50c:	557d                	li	a0,-1
    b50e:	fef64be3          	blt	a2,a5,b504 <__fixunsdfsi+0x22>
    b512:	43300513          	li	a0,1075
    b516:	8d1d                	sub	a0,a0,a5
    b518:	467d                	li	a2,31
    b51a:	8f55                	or	a4,a4,a3
    b51c:	00a64a63          	blt	a2,a0,b530 <__fixunsdfsi+0x4e>
    b520:	bed78793          	addi	a5,a5,-1043
    b524:	00f71733          	sll	a4,a4,a5
    b528:	00a85533          	srl	a0,a6,a0
    b52c:	8d59                	or	a0,a0,a4
    b52e:	8082                	ret
    b530:	41300513          	li	a0,1043
    b534:	40f507b3          	sub	a5,a0,a5
    b538:	00f75533          	srl	a0,a4,a5
    b53c:	8082                	ret

0000b53e <__floatunsidf>:
    b53e:	cd1d                	beqz	a0,b57c <__floatunsidf+0x3e>
    b540:	1141                	addi	sp,sp,-16
    b542:	c422                	sw	s0,8(sp)
    b544:	c606                	sw	ra,12(sp)
    b546:	842a                	mv	s0,a0
    b548:	965fa0ef          	jal	ra,5eac <__clzsi2>
    b54c:	41e00693          	li	a3,1054
    b550:	8e89                	sub	a3,a3,a0
    b552:	47a9                	li	a5,10
    b554:	7ff6f693          	andi	a3,a3,2047
    b558:	02a7dc63          	bge	a5,a0,b590 <__floatunsidf+0x52>
    b55c:	1555                	addi	a0,a0,-11
    b55e:	00a417b3          	sll	a5,s0,a0
    b562:	07b2                	slli	a5,a5,0xc
    b564:	83b1                	srli	a5,a5,0xc
    b566:	4701                	li	a4,0
    b568:	40b2                	lw	ra,12(sp)
    b56a:	4422                	lw	s0,8(sp)
    b56c:	07b2                	slli	a5,a5,0xc
    b56e:	06d2                	slli	a3,a3,0x14
    b570:	83b1                	srli	a5,a5,0xc
    b572:	8fd5                	or	a5,a5,a3
    b574:	853a                	mv	a0,a4
    b576:	85be                	mv	a1,a5
    b578:	0141                	addi	sp,sp,16
    b57a:	8082                	ret
    b57c:	4781                	li	a5,0
    b57e:	4681                	li	a3,0
    b580:	07b2                	slli	a5,a5,0xc
    b582:	06d2                	slli	a3,a3,0x14
    b584:	83b1                	srli	a5,a5,0xc
    b586:	4701                	li	a4,0
    b588:	8fd5                	or	a5,a5,a3
    b58a:	853a                	mv	a0,a4
    b58c:	85be                	mv	a1,a5
    b58e:	8082                	ret
    b590:	472d                	li	a4,11
    b592:	8f09                	sub	a4,a4,a0
    b594:	00e457b3          	srl	a5,s0,a4
    b598:	07b2                	slli	a5,a5,0xc
    b59a:	01550713          	addi	a4,a0,21 # 80000015 <_eusrstack+0x5fff8015>
    b59e:	00e41733          	sll	a4,s0,a4
    b5a2:	83b1                	srli	a5,a5,0xc
    b5a4:	b7d1                	j	b568 <__floatunsidf+0x2a>

0000b5a6 <__extenddftf2>:
    b5a6:	01465793          	srli	a5,a2,0x14
    b5aa:	00c61713          	slli	a4,a2,0xc
    b5ae:	7ff7f793          	andi	a5,a5,2047
    b5b2:	7179                	addi	sp,sp,-48
    b5b4:	8331                	srli	a4,a4,0xc
    b5b6:	00178693          	addi	a3,a5,1
    b5ba:	d422                	sw	s0,40(sp)
    b5bc:	d226                	sw	s1,36(sp)
    b5be:	d606                	sw	ra,44(sp)
    b5c0:	d04a                	sw	s2,32(sp)
    b5c2:	c82e                	sw	a1,16(sp)
    b5c4:	ca3a                	sw	a4,20(sp)
    b5c6:	ce02                	sw	zero,28(sp)
    b5c8:	cc02                	sw	zero,24(sp)
    b5ca:	7fe6f693          	andi	a3,a3,2046
    b5ce:	842a                	mv	s0,a0
    b5d0:	01f65493          	srli	s1,a2,0x1f
    b5d4:	cab9                	beqz	a3,b62a <__extenddftf2+0x84>
    b5d6:	6691                	lui	a3,0x4
    b5d8:	c0068693          	addi	a3,a3,-1024 # 3c00 <__divdf3+0x2dc>
    b5dc:	97b6                	add	a5,a5,a3
    b5de:	0045d613          	srli	a2,a1,0x4
    b5e2:	01c71693          	slli	a3,a4,0x1c
    b5e6:	07c6                	slli	a5,a5,0x11
    b5e8:	8ed1                	or	a3,a3,a2
    b5ea:	01c59513          	slli	a0,a1,0x1c
    b5ee:	8311                	srli	a4,a4,0x4
    b5f0:	83c5                	srli	a5,a5,0x11
    b5f2:	4801                	li	a6,0
    b5f4:	8678                	sh	a4,12(sp)
    b5f6:	4732                	lw	a4,12(sp)
    b5f8:	07c6                	slli	a5,a5,0x11
    b5fa:	800105b7          	lui	a1,0x80010
    b5fe:	83c5                	srli	a5,a5,0x11
    b600:	15fd                	addi	a1,a1,-1
    b602:	07c2                	slli	a5,a5,0x10
    b604:	8f6d                	and	a4,a4,a1
    b606:	8fd9                	or	a5,a5,a4
    b608:	0786                	slli	a5,a5,0x1
    b60a:	01f49613          	slli	a2,s1,0x1f
    b60e:	8385                	srli	a5,a5,0x1
    b610:	8fd1                	or	a5,a5,a2
    b612:	c048                	sw	a0,4(s0)
    b614:	01042023          	sw	a6,0(s0)
    b618:	c414                	sw	a3,8(s0)
    b61a:	c45c                	sw	a5,12(s0)
    b61c:	8522                	mv	a0,s0
    b61e:	50b2                	lw	ra,44(sp)
    b620:	5422                	lw	s0,40(sp)
    b622:	5492                	lw	s1,36(sp)
    b624:	5902                	lw	s2,32(sp)
    b626:	6145                	addi	sp,sp,48
    b628:	8082                	ret
    b62a:	00b76533          	or	a0,a4,a1
    b62e:	e7bd                	bnez	a5,b69c <__extenddftf2+0xf6>
    b630:	cd51                	beqz	a0,b6cc <__extenddftf2+0x126>
    b632:	c355                	beqz	a4,b6d6 <__extenddftf2+0x130>
    b634:	853a                	mv	a0,a4
    b636:	877fa0ef          	jal	ra,5eac <__clzsi2>
    b63a:	03150713          	addi	a4,a0,49
    b63e:	01f77813          	andi	a6,a4,31
    b642:	8715                	srai	a4,a4,0x5
    b644:	0a081d63          	bnez	a6,b6fe <__extenddftf2+0x158>
    b648:	0810                	addi	a2,sp,16
    b64a:	00271693          	slli	a3,a4,0x2
    b64e:	40d606b3          	sub	a3,a2,a3
    b652:	888a                	mv	a7,sp
    b654:	00271813          	slli	a6,a4,0x2
    b658:	46cc                	lw	a1,12(a3)
    b65a:	010687b3          	add	a5,a3,a6
    b65e:	16f1                	addi	a3,a3,-4
    b660:	c7cc                	sw	a1,12(a5)
    b662:	fed89be3          	bne	a7,a3,b658 <__extenddftf2+0xb2>
    b666:	177d                	addi	a4,a4,-1
    b668:	070a                	slli	a4,a4,0x2
    b66a:	9732                	add	a4,a4,a2
    b66c:	00072023          	sw	zero,0(a4) # 800000 <_data_lma+0x7f3c3c>
    b670:	ffc70693          	addi	a3,a4,-4
    b674:	00e60963          	beq	a2,a4,b686 <__extenddftf2+0xe0>
    b678:	8736                	mv	a4,a3
    b67a:	00072023          	sw	zero,0(a4)
    b67e:	ffc70693          	addi	a3,a4,-4
    b682:	fee61be3          	bne	a2,a4,b678 <__extenddftf2+0xd2>
    b686:	6791                	lui	a5,0x4
    b688:	c0c78793          	addi	a5,a5,-1012 # 3c0c <__divdf3+0x2e8>
    b68c:	8f89                	sub	a5,a5,a0
    b68e:	07c6                	slli	a5,a5,0x11
    b690:	4842                	lw	a6,16(sp)
    b692:	4552                	lw	a0,20(sp)
    b694:	46e2                	lw	a3,24(sp)
    b696:	86b8                	lhu	a4,28(sp)
    b698:	83c5                	srli	a5,a5,0x11
    b69a:	bfa9                	j	b5f4 <__extenddftf2+0x4e>
    b69c:	c115                	beqz	a0,b6c0 <__extenddftf2+0x11a>
    b69e:	67a1                	lui	a5,0x8
    b6a0:	00475513          	srli	a0,a4,0x4
    b6a4:	01c71693          	slli	a3,a4,0x1c
    b6a8:	00f56733          	or	a4,a0,a5
    b6ac:	0045d613          	srli	a2,a1,0x4
    b6b0:	0742                	slli	a4,a4,0x10
    b6b2:	8ed1                	or	a3,a3,a2
    b6b4:	01c59513          	slli	a0,a1,0x1c
    b6b8:	8341                	srli	a4,a4,0x10
    b6ba:	17fd                	addi	a5,a5,-1
    b6bc:	4801                	li	a6,0
    b6be:	bf1d                	j	b5f4 <__extenddftf2+0x4e>
    b6c0:	67a1                	lui	a5,0x8
    b6c2:	4681                	li	a3,0
    b6c4:	17fd                	addi	a5,a5,-1
    b6c6:	4701                	li	a4,0
    b6c8:	4801                	li	a6,0
    b6ca:	b72d                	j	b5f4 <__extenddftf2+0x4e>
    b6cc:	4681                	li	a3,0
    b6ce:	4781                	li	a5,0
    b6d0:	4701                	li	a4,0
    b6d2:	4801                	li	a6,0
    b6d4:	b705                	j	b5f4 <__extenddftf2+0x4e>
    b6d6:	852e                	mv	a0,a1
    b6d8:	892e                	mv	s2,a1
    b6da:	fd2fa0ef          	jal	ra,5eac <__clzsi2>
    b6de:	05150713          	addi	a4,a0,81
    b6e2:	01f77813          	andi	a6,a4,31
    b6e6:	02050513          	addi	a0,a0,32
    b6ea:	8715                	srai	a4,a4,0x5
    b6ec:	f4080ee3          	beqz	a6,b648 <__extenddftf2+0xa2>
    b6f0:	4789                	li	a5,2
    b6f2:	00f70663          	beq	a4,a5,b6fe <__extenddftf2+0x158>
    b6f6:	4709                	li	a4,2
    b6f8:	0810                	addi	a2,sp,16
    b6fa:	48b1                	li	a7,12
    b6fc:	a835                	j	b738 <__extenddftf2+0x192>
    b6fe:	40e006b3          	neg	a3,a4
    b702:	068a                	slli	a3,a3,0x2
    b704:	0810                	addi	a2,sp,16
    b706:	06b1                	addi	a3,a3,12
    b708:	02000e13          	li	t3,32
    b70c:	96b2                	add	a3,a3,a2
    b70e:	00271893          	slli	a7,a4,0x2
    b712:	410e0e33          	sub	t3,t3,a6
    b716:	ffc6a583          	lw	a1,-4(a3)
    b71a:	429c                	lw	a5,0(a3)
    b71c:	01168333          	add	t1,a3,a7
    b720:	01c5d5b3          	srl	a1,a1,t3
    b724:	010797b3          	sll	a5,a5,a6
    b728:	8ddd                	or	a1,a1,a5
    b72a:	00b32023          	sw	a1,0(t1)
    b72e:	16f1                	addi	a3,a3,-4
    b730:	fed613e3          	bne	a2,a3,b716 <__extenddftf2+0x170>
    b734:	4942                	lw	s2,16(sp)
    b736:	177d                	addi	a4,a4,-1
    b738:	101c                	addi	a5,sp,32
    b73a:	98be                	add	a7,a7,a5
    b73c:	01091933          	sll	s2,s2,a6
    b740:	ff28a823          	sw	s2,-16(a7) # fff0 <_data_lma+0x3c2c>
    b744:	b715                	j	b668 <__extenddftf2+0xc2>

0000b746 <__trunctfdf2>:
    b746:	00c52803          	lw	a6,12(a0)
    b74a:	4118                	lw	a4,0(a0)
    b74c:	4154                	lw	a3,4(a0)
    b74e:	450c                	lw	a1,8(a0)
    b750:	6521                	lui	a0,0x8
    b752:	fff50793          	addi	a5,a0,-1 # 7fff <_dtoa_r+0x1d5>
    b756:	01085613          	srli	a2,a6,0x10
    b75a:	00359e13          	slli	t3,a1,0x3
    b75e:	8e7d                	and	a2,a2,a5
    b760:	01d75893          	srli	a7,a4,0x1d
    b764:	01d6d793          	srli	a5,a3,0x1d
    b768:	01081313          	slli	t1,a6,0x10
    b76c:	068e                	slli	a3,a3,0x3
    b76e:	1141                	addi	sp,sp,-16
    b770:	01c7e7b3          	or	a5,a5,t3
    b774:	0116e6b3          	or	a3,a3,a7
    b778:	01035313          	srli	t1,t1,0x10
    b77c:	00371e13          	slli	t3,a4,0x3
    b780:	00160893          	addi	a7,a2,1 # ff800001 <_eusrstack+0xdf7f8001>
    b784:	1579                	addi	a0,a0,-2
    b786:	81f5                	srli	a1,a1,0x1d
    b788:	030e                	slli	t1,t1,0x3
    b78a:	c43e                	sw	a5,8(sp)
    b78c:	c236                	sw	a3,4(sp)
    b78e:	c072                	sw	t3,0(sp)
    b790:	00a8f533          	and	a0,a7,a0
    b794:	01f85813          	srli	a6,a6,0x1f
    b798:	0065e5b3          	or	a1,a1,t1
    b79c:	c905                	beqz	a0,b7cc <__trunctfdf2+0x86>
    b79e:	7771                	lui	a4,0xffffc
    b7a0:	40070713          	addi	a4,a4,1024 # ffffc400 <_eusrstack+0xdfff4400>
    b7a4:	963a                	add	a2,a2,a4
    b7a6:	7fe00713          	li	a4,2046
    b7aa:	04c75d63          	bge	a4,a2,b804 <__trunctfdf2+0xbe>
    b7ae:	7ff00613          	li	a2,2047
    b7b2:	4701                	li	a4,0
    b7b4:	4781                	li	a5,0
    b7b6:	0732                	slli	a4,a4,0xc
    b7b8:	0652                	slli	a2,a2,0x14
    b7ba:	8331                	srli	a4,a4,0xc
    b7bc:	087e                	slli	a6,a6,0x1f
    b7be:	8f51                	or	a4,a4,a2
    b7c0:	01076733          	or	a4,a4,a6
    b7c4:	853e                	mv	a0,a5
    b7c6:	85ba                	mv	a1,a4
    b7c8:	0141                	addi	sp,sp,16
    b7ca:	8082                	ret
    b7cc:	8fd5                	or	a5,a5,a3
    b7ce:	8fcd                	or	a5,a5,a1
    b7d0:	01c7e7b3          	or	a5,a5,t3
    b7d4:	e205                	bnez	a2,b7f4 <__trunctfdf2+0xae>
    b7d6:	cbf1                	beqz	a5,b8aa <__trunctfdf2+0x164>
    b7d8:	4781                	li	a5,0
    b7da:	4695                	li	a3,5
    b7dc:	0036d593          	srli	a1,a3,0x3
    b7e0:	00979713          	slli	a4,a5,0x9
    b7e4:	01d79693          	slli	a3,a5,0x1d
    b7e8:	00b6e7b3          	or	a5,a3,a1
    b7ec:	8331                	srli	a4,a4,0xc
    b7ee:	7ff67613          	andi	a2,a2,2047
    b7f2:	b7d1                	j	b7b6 <__trunctfdf2+0x70>
    b7f4:	dfcd                	beqz	a5,b7ae <__trunctfdf2+0x68>
    b7f6:	4801                	li	a6,0
    b7f8:	7ff00613          	li	a2,2047
    b7fc:	00080737          	lui	a4,0x80
    b800:	4781                	li	a5,0
    b802:	bf55                	j	b7b6 <__trunctfdf2+0x70>
    b804:	0ac04663          	bgtz	a2,b8b0 <__trunctfdf2+0x16a>
    b808:	fcc00793          	li	a5,-52
    b80c:	0ef64f63          	blt	a2,a5,b90a <__trunctfdf2+0x1c4>
    b810:	03d00793          	li	a5,61
    b814:	40c78633          	sub	a2,a5,a2
    b818:	40565793          	srai	a5,a2,0x5
    b81c:	00080737          	lui	a4,0x80
    b820:	8dd9                	or	a1,a1,a4
    b822:	00279513          	slli	a0,a5,0x2
    b826:	870a                	mv	a4,sp
    b828:	4681                	li	a3,0
    b82a:	c62e                	sw	a1,12(sp)
    b82c:	00a108b3          	add	a7,sp,a0
    b830:	0711                	addi	a4,a4,4
    b832:	8a7d                	andi	a2,a2,31
    b834:	01c6e6b3          	or	a3,a3,t3
    b838:	01170963          	beq	a4,a7,b84a <__trunctfdf2+0x104>
    b83c:	00072e03          	lw	t3,0(a4) # 80000 <_data_lma+0x73c3c>
    b840:	0711                	addi	a4,a4,4
    b842:	01c6e6b3          	or	a3,a3,t3
    b846:	ff171be3          	bne	a4,a7,b83c <__trunctfdf2+0xf6>
    b84a:	470d                	li	a4,3
    b84c:	8f1d                	sub	a4,a4,a5
    b84e:	ca79                	beqz	a2,b924 <__trunctfdf2+0x1de>
    b850:	01010893          	addi	a7,sp,16
    b854:	98aa                	add	a7,a7,a0
    b856:	ff08a883          	lw	a7,-16(a7)
    b85a:	02000e13          	li	t3,32
    b85e:	40ce0e33          	sub	t3,t3,a2
    b862:	01c898b3          	sll	a7,a7,t3
    b866:	0116e6b3          	or	a3,a3,a7
    b86a:	cb75                	beqz	a4,b95e <__trunctfdf2+0x218>
    b86c:	070a                	slli	a4,a4,0x2
    b86e:	950a                	add	a0,a0,sp
    b870:	00e10eb3          	add	t4,sp,a4
    b874:	888a                	mv	a7,sp
    b876:	410c                	lw	a1,0(a0)
    b878:	00452303          	lw	t1,4(a0)
    b87c:	0891                	addi	a7,a7,4
    b87e:	00c5d5b3          	srl	a1,a1,a2
    b882:	01c31333          	sll	t1,t1,t3
    b886:	0065e5b3          	or	a1,a1,t1
    b88a:	feb8ae23          	sw	a1,-4(a7)
    b88e:	0511                	addi	a0,a0,4
    b890:	ff1e93e3          	bne	t4,a7,b876 <__trunctfdf2+0x130>
    b894:	4591                	li	a1,4
    b896:	40f587b3          	sub	a5,a1,a5
    b89a:	45b2                	lw	a1,12(sp)
    b89c:	0808                	addi	a0,sp,16
    b89e:	972a                	add	a4,a4,a0
    b8a0:	00c5d5b3          	srl	a1,a1,a2
    b8a4:	feb72823          	sw	a1,-16(a4)
    b8a8:	a861                	j	b940 <__trunctfdf2+0x1fa>
    b8aa:	4601                	li	a2,0
    b8ac:	4701                	li	a4,0
    b8ae:	b721                	j	b7b6 <__trunctfdf2+0x70>
    b8b0:	00469713          	slli	a4,a3,0x4
    b8b4:	00479513          	slli	a0,a5,0x4
    b8b8:	01c76733          	or	a4,a4,t3
    b8bc:	82f1                	srli	a3,a3,0x1c
    b8be:	83f1                	srli	a5,a5,0x1c
    b8c0:	0592                	slli	a1,a1,0x4
    b8c2:	00e03733          	snez	a4,a4
    b8c6:	8ec9                	or	a3,a3,a0
    b8c8:	8fcd                	or	a5,a5,a1
    b8ca:	8ed9                	or	a3,a3,a4
    b8cc:	0076f713          	andi	a4,a3,7
    b8d0:	c711                	beqz	a4,b8dc <__trunctfdf2+0x196>
    b8d2:	00f6f713          	andi	a4,a3,15
    b8d6:	4591                	li	a1,4
    b8d8:	02b71c63          	bne	a4,a1,b910 <__trunctfdf2+0x1ca>
    b8dc:	00800737          	lui	a4,0x800
    b8e0:	8f7d                	and	a4,a4,a5
    b8e2:	ee070de3          	beqz	a4,b7dc <__trunctfdf2+0x96>
    b8e6:	0605                	addi	a2,a2,1
    b8e8:	7ff00713          	li	a4,2047
    b8ec:	ece601e3          	beq	a2,a4,b7ae <__trunctfdf2+0x68>
    b8f0:	ff800737          	lui	a4,0xff800
    b8f4:	177d                	addi	a4,a4,-1
    b8f6:	8f7d                	and	a4,a4,a5
    b8f8:	01d71793          	slli	a5,a4,0x1d
    b8fc:	828d                	srli	a3,a3,0x3
    b8fe:	0726                	slli	a4,a4,0x9
    b900:	7ff67613          	andi	a2,a2,2047
    b904:	8fd5                	or	a5,a5,a3
    b906:	8331                	srli	a4,a4,0xc
    b908:	b57d                	j	b7b6 <__trunctfdf2+0x70>
    b90a:	4685                	li	a3,1
    b90c:	4781                	li	a5,0
    b90e:	4601                	li	a2,0
    b910:	ffc6b713          	sltiu	a4,a3,-4
    b914:	00174713          	xori	a4,a4,1
    b918:	97ba                	add	a5,a5,a4
    b91a:	00800737          	lui	a4,0x800
    b91e:	0691                	addi	a3,a3,4
    b920:	8f7d                	and	a4,a4,a5
    b922:	b7c1                	j	b8e2 <__trunctfdf2+0x19c>
    b924:	858a                	mv	a1,sp
    b926:	00a588b3          	add	a7,a1,a0
    b92a:	0008a883          	lw	a7,0(a7)
    b92e:	0591                	addi	a1,a1,4
    b930:	0605                	addi	a2,a2,1
    b932:	ff15ae23          	sw	a7,-4(a1) # 8000fffc <_eusrstack+0x60007ffc>
    b936:	fec758e3          	bge	a4,a2,b926 <__trunctfdf2+0x1e0>
    b93a:	4711                	li	a4,4
    b93c:	40f707b3          	sub	a5,a4,a5
    b940:	078a                	slli	a5,a5,0x2
    b942:	978a                	add	a5,a5,sp
    b944:	0818                	addi	a4,sp,16
    b946:	0007a023          	sw	zero,0(a5) # 8000 <_dtoa_r+0x1d6>
    b94a:	0791                	addi	a5,a5,4
    b94c:	fee79de3          	bne	a5,a4,b946 <__trunctfdf2+0x200>
    b950:	4702                	lw	a4,0(sp)
    b952:	00d036b3          	snez	a3,a3
    b956:	4792                	lw	a5,4(sp)
    b958:	8ed9                	or	a3,a3,a4
    b95a:	4601                	li	a2,0
    b95c:	bf85                	j	b8cc <__trunctfdf2+0x186>
    b95e:	4785                	li	a5,1
    b960:	4701                	li	a4,0
    b962:	bf2d                	j	b89c <__trunctfdf2+0x156>

0000b964 <_close>:
    b964:	05800793          	li	a5,88
    b968:	baf1ae23          	sw	a5,-1092(gp) # 200005ac <errno>
    b96c:	557d                	li	a0,-1
    b96e:	8082                	ret

0000b970 <_fstat>:
    b970:	05800793          	li	a5,88
    b974:	baf1ae23          	sw	a5,-1092(gp) # 200005ac <errno>
    b978:	557d                	li	a0,-1
    b97a:	8082                	ret

0000b97c <_isatty>:
    b97c:	05800793          	li	a5,88
    b980:	baf1ae23          	sw	a5,-1092(gp) # 200005ac <errno>
    b984:	4501                	li	a0,0
    b986:	8082                	ret

0000b988 <_lseek>:
    b988:	05800793          	li	a5,88
    b98c:	baf1ae23          	sw	a5,-1092(gp) # 200005ac <errno>
    b990:	557d                	li	a0,-1
    b992:	8082                	ret

0000b994 <_read>:
    b994:	05800793          	li	a5,88
    b998:	baf1ae23          	sw	a5,-1092(gp) # 200005ac <errno>
    b99c:	557d                	li	a0,-1
    b99e:	8082                	ret
    b9a0:	6170                	flw	fa2,68(a0)
    b9a2:	2e346567          	0x2e346567
    b9a6:	316e                	lhu	a1,38(a0)
    b9a8:	762e                	flw	fa2,232(sp)
    b9aa:	6c61                	lui	s8,0x18
    b9ac:	253d                	jal	bfda <__clz_tab+0xe2>
    b9ae:	0064                	addi	s1,sp,12
    b9b0:	6170                	flw	fa2,68(a0)
    b9b2:	2e346567          	0x2e346567
    b9b6:	356a                	lhu	a0,46(a0)
    b9b8:	762e                	flw	fa2,232(sp)
    b9ba:	6c61                	lui	s8,0x18
    b9bc:	253d                	jal	bfea <__clz_tab+0xf2>
    b9be:	0064                	addi	s1,sp,12
    b9c0:	6170                	flw	fa2,68(a0)
    b9c2:	2e346567          	0x2e346567
    b9c6:	306a                	lhu	a0,38(s0)
    b9c8:	762e                	flw	fa2,232(sp)
    b9ca:	6c61                	lui	s8,0x18
    b9cc:	253d                	jal	bffa <__clz_tab+0x102>
    b9ce:	0064                	addi	s1,sp,12
    b9d0:	6170                	flw	fa2,68(a0)
    b9d2:	2e346567          	0x2e346567
    b9d6:	316a                	lhu	a0,38(a0)
    b9d8:	762e                	flw	fa2,232(sp)
    b9da:	6c61                	lui	s8,0x18
    b9dc:	253d                	jal	c00a <__clz_tab+0x112>
    b9de:	0064                	addi	s1,sp,12
    b9e0:	6170                	flw	fa2,68(a0)
    b9e2:	2e346567          	0x2e346567
    b9e6:	386a                	lhu	a0,54(s0)
    b9e8:	762e                	flw	fa2,232(sp)
    b9ea:	6c61                	lui	s8,0x18
    b9ec:	253d                	jal	c01a <__clz_tab+0x122>
    b9ee:	0064                	addi	s1,sp,12
    b9f0:	6170                	flw	fa2,68(a0)
    b9f2:	2e346567          	0x2e346567
    b9f6:	326a                	lhu	a0,38(a2)
    b9f8:	762e                	flw	fa2,232(sp)
    b9fa:	6c61                	lui	s8,0x18
    b9fc:	253d                	jal	c02a <__clz_tab+0x132>
    b9fe:	0064                	addi	s1,sp,12
    ba00:	6170                	flw	fa2,68(a0)
    ba02:	2e346567          	0x2e346567
    ba06:	356e                	lhu	a1,46(a0)
    ba08:	762e                	flw	fa2,232(sp)
    ba0a:	6c61                	lui	s8,0x18
    ba0c:	253d                	jal	c03a <__clz_tab+0x142>
    ba0e:	0064                	addi	s1,sp,12
    ba10:	6170                	flw	fa2,68(a0)
    ba12:	2e346567          	0x2e346567
    ba16:	326e                	lhu	a1,38(a2)
    ba18:	762e                	flw	fa2,232(sp)
    ba1a:	6c61                	lui	s8,0x18
    ba1c:	253d                	jal	c04a <__clz_tab+0x152>
    ba1e:	0064                	addi	s1,sp,12
    ba20:	6170                	flw	fa2,68(a0)
    ba22:	2e346567          	0x2e346567
    ba26:	306e                	lhu	a1,38(s0)
    ba28:	762e                	flw	fa2,232(sp)
    ba2a:	6c61                	lui	s8,0x18
    ba2c:	253d                	jal	c05a <__clz_tab+0x162>
    ba2e:	0064                	addi	s1,sp,12
    ba30:	6170                	flw	fa2,68(a0)
    ba32:	2e346567          	0x2e346567
    ba36:	346e                	lhu	a1,46(s0)
    ba38:	762e                	flw	fa2,232(sp)
    ba3a:	6c61                	lui	s8,0x18
    ba3c:	253d                	jal	c06a <__clz_tab+0x172>
    ba3e:	0064                	addi	s1,sp,12
    ba40:	6170                	flw	fa2,68(a0)
    ba42:	2e346567          	0x2e346567
    ba46:	376e                	lhu	a1,46(a4)
    ba48:	762e                	flw	fa2,232(sp)
    ba4a:	6c61                	lui	s8,0x18
    ba4c:	253d                	jal	c07a <__clz_tab+0x182>
    ba4e:	0064                	addi	s1,sp,12
    ba50:	6170                	flw	fa2,68(a0)
    ba52:	2e346567          	0x2e346567
    ba56:	336e                	lhu	a1,38(a4)
    ba58:	762e                	flw	fa2,232(sp)
    ba5a:	6c61                	lui	s8,0x18
    ba5c:	253d                	jal	c08a <__clz_tab+0x192>
    ba5e:	0064                	addi	s1,sp,12
    ba60:	6170                	flw	fa2,68(a0)
    ba62:	2e346567          	0x2e346567
    ba66:	346a                	lhu	a0,46(s0)
    ba68:	762e                	flw	fa2,232(sp)
    ba6a:	6c61                	lui	s8,0x18
    ba6c:	253d                	jal	c09a <__clz_tab+0x1a2>
    ba6e:	0064                	addi	s1,sp,12
    ba70:	6170                	flw	fa2,68(a0)
    ba72:	2e346567          	0x2e346567
    ba76:	3274                	lbu	a3,7(a2)
    ba78:	78742e33          	0x78742e33
    ba7c:	3d74                	lbu	a3,31(a0)
    ba7e:	d322                	sw	s0,164(sp)
    ba80:	d0c5                	beqz	s1,ba20 <_read+0x8c>
    ba82:	000022e3          	0x22e3
    ba86:	0000                	unimp
    ba88:	6170                	flw	fa2,68(a0)
    ba8a:	2e346567          	0x2e346567
    ba8e:	3274                	lbu	a3,7(a2)
    ba90:	78742e33          	0x78742e33
    ba94:	3d74                	lbu	a3,31(a0)
    ba96:	ba22                	sh	s0,50(a2)
    ba98:	22f1b8cf          	fnmadd.d	fa7,ft3,fa5,ft4,rup
    ba9c:	0000                	unimp
    ba9e:	0000                	unimp
    baa0:	6170                	flw	fa2,68(a0)
    baa2:	2e346567          	0x2e346567
    baa6:	3274                	lbu	a3,7(a2)
    baa8:	78742e33          	0x78742e33
    baac:	3d74                	lbu	a3,31(a0)
    baae:	b222                	sh	s0,34(a2)
    bab0:	b8cfbabb          	0xb8cfbabb
    bab4:	22f1                	jal	bc80 <_read+0x2ec>
    bab6:	0000                	unimp
    bab8:	6170                	flw	fa2,68(a0)
    baba:	2e346567          	0x2e346567
    babe:	3874                	lbu	a3,23(s0)
    bac0:	742e                	flw	fs0,232(sp)
    bac2:	7478                	flw	fa4,108(s0)
    bac4:	223d                	jal	bbf2 <_read+0x25e>
    bac6:	6425                	lui	s0,0x9
    bac8:	0022                	c.slli	zero,0x8
    baca:	0000                	unimp
    bacc:	6170                	flw	fa2,68(a0)
    bace:	2e346567          	0x2e346567
    bad2:	3174                	lbu	a3,7(a0)
    bad4:	2e30                	lbu	a2,26(a2)
    bad6:	7874                	flw	fa3,116(s0)
    bad8:	3d74                	lbu	a3,31(a0)
    bada:	2522                	lhu	s0,10(a0)
    badc:	2264                	lbu	s1,6(a2)
    bade:	0000                	unimp
    bae0:	6170                	flw	fa2,68(a0)
    bae2:	2e346567          	0x2e346567
    bae6:	336a                	lhu	a0,38(a4)
    bae8:	762e                	flw	fa2,232(sp)
    baea:	6c61                	lui	s8,0x18
    baec:	253d                	jal	c11a <tinytens+0x4a>
    baee:	0064                	addi	s1,sp,12
    baf0:	6170                	flw	fa2,68(a0)
    baf2:	2e326567          	0x2e326567
    baf6:	3474                	lbu	a3,15(s0)
    baf8:	742e                	flw	fs0,232(sp)
    bafa:	7478                	flw	fa4,108(s0)
    bafc:	223d                	jal	bc2a <_read+0x296>
    bafe:	ecd2                	fsw	fs4,88(sp)
    bb00:	0022a3b3          	slt	t2,t0,sp
    bb04:	6170                	flw	fa2,68(a0)
    bb06:	2e346567          	0x2e346567
    bb0a:	3174                	lbu	a3,7(a0)
    bb0c:	78742e33          	0x78742e33
    bb10:	3d74                	lbu	a3,31(a0)
    bb12:	be22                	sh	s0,58(a2)
    bb14:	bec6                	sh	s1,60(a3)
    bb16:	b6a8c5ab          	0xb6a8c5ab
    bb1a:	d2c8                	sw	a0,36(a3)
    bb1c:	b3ec                	sb	a1,7(a5)
    bb1e:	22a1a3a3          	sw	a0,551(gp) # 20000c17 <__global_pointer$+0x227>
    bb22:	0000                	unimp
    bb24:	6170                	flw	fa2,68(a0)
    bb26:	2e326567          	0x2e326567
    bb2a:	3474                	lbu	a3,15(s0)
    bb2c:	742e                	flw	fs0,232(sp)
    bb2e:	7478                	flw	fa4,108(s0)
    bb30:	223d                	jal	bc5e <_read+0x2ca>
    bb32:	fdd5                	bnez	a1,baee <_read+0x15a>
    bb34:	0022a3b3          	slt	t2,t0,sp
    bb38:	6170                	flw	fa2,68(a0)
    bb3a:	2e346567          	0x2e346567
    bb3e:	3174                	lbu	a3,7(a0)
    bb40:	78742e33          	0x78742e33
    bb44:	3d74                	lbu	a3,31(a0)
    bb46:	be22                	sh	s0,58(a2)
    bb48:	bec6                	sh	s1,60(a3)
    bb4a:	b6a8c5ab          	0xb6a8c5ab
    bb4e:	d5c8                	sw	a0,44(a1)
    bb50:	b3fd                	j	b93e <__trunctfdf2+0x1f8>
    bb52:	000022a3          	sw	zero,5(zero) # 5 <_sinit+0x5>
    bb56:	0000                	unimp
    bb58:	6170                	flw	fa2,68(a0)
    bb5a:	2e336567          	0x2e336567
    bb5e:	3374                	lbu	a3,7(a4)
    bb60:	742e                	flw	fs0,232(sp)
    bb62:	7478                	flw	fa4,108(s0)
    bb64:	223d                	jal	bc92 <_read+0x2fe>
    bb66:	2e25                	jal	be9e <table_week+0x162>
    bb68:	6632                	flw	fa2,12(sp)
    bb6a:	732f6d63          	bltu	t5,s2,c2a4 <p05.3319+0x4>
    bb6e:	0022                	c.slli	zero,0x8
    bb70:	6170                	flw	fa2,68(a0)
    bb72:	2e336567          	0x2e336567
    bb76:	3274                	lbu	a3,7(a2)
    bb78:	742e                	flw	fs0,232(sp)
    bb7a:	7478                	flw	fa4,108(s0)
    bb7c:	223d                	jal	bcaa <_read+0x316>
    bb7e:	2e25                	jal	beb6 <table_week+0x17a>
    bb80:	6631                	lui	a2,0xc
    bb82:	2f72                	lhu	a2,30(a4)
    bb84:	00002273          	csrr	tp,ustatus
    bb88:	6170                	flw	fa2,68(a0)
    bb8a:	2e336567          	0x2e336567
    bb8e:	3574                	lbu	a3,15(a0)
    bb90:	742e                	flw	fs0,232(sp)
    bb92:	7478                	flw	fa4,108(s0)
    bb94:	223d                	jal	bcc2 <_read+0x32e>
    bb96:	2e25                	jal	bece <table_week+0x192>
    bb98:	6631                	lui	a2,0xc
    bb9a:	00226d63          	bltu	tp,sp,bbb4 <_read+0x220>
    bb9e:	0000                	unimp
    bba0:	6170                	flw	fa2,68(a0)
    bba2:	2e336567          	0x2e336567
    bba6:	3174                	lbu	a3,7(a0)
    bba8:	78742e37          	lui	t3,0x78742
    bbac:	3d74                	lbu	a3,31(a0)
    bbae:	2522                	lhu	s0,10(a0)
    bbb0:	312e                	lhu	a1,34(a0)
    bbb2:	6d66                	flw	fs10,88(sp)
    bbb4:	0022                	c.slli	zero,0x8
    bbb6:	0000                	unimp
    bbb8:	6170                	flw	fa2,68(a0)
    bbba:	2e336567          	0x2e336567
    bbbe:	307a                	lhu	a4,38(s0)
    bbc0:	762e                	flw	fa2,232(sp)
    bbc2:	6c61                	lui	s8,0x18
    bbc4:	253d                	jal	c1f2 <__mprec_tens+0x1a>
    bbc6:	0064                	addi	s1,sp,12
    bbc8:	6170                	flw	fa2,68(a0)
    bbca:	2e336567          	0x2e336567
    bbce:	317a                	lhu	a4,38(a0)
    bbd0:	762e                	flw	fa2,232(sp)
    bbd2:	6c61                	lui	s8,0x18
    bbd4:	253d                	jal	c202 <__mprec_tens+0x2a>
    bbd6:	0064                	addi	s1,sp,12
    bbd8:	6170                	flw	fa2,68(a0)
    bbda:	2e346567          	0x2e346567
    bbde:	366a                	lhu	a0,46(a2)
    bbe0:	762e                	flw	fa2,232(sp)
    bbe2:	6c61                	lui	s8,0x18
    bbe4:	253d                	jal	c212 <__mprec_tens+0x3a>
    bbe6:	0064                	addi	s1,sp,12
    bbe8:	6170                	flw	fa2,68(a0)
    bbea:	2e326567          	0x2e326567
    bbee:	3674                	lbu	a3,15(a2)
    bbf0:	742e                	flw	fs0,232(sp)
    bbf2:	7478                	flw	fa4,108(s0)
    bbf4:	223d                	jal	bd22 <_read+0x38e>
    bbf6:	2e25                	jal	bf2e <__clz_tab+0x36>
    bbf8:	6631                	lui	a2,0xc
    bbfa:	0022                	c.slli	zero,0x8
    bbfc:	6170                	flw	fa2,68(a0)
    bbfe:	2e326567          	0x2e326567
    bc02:	3974                	lbu	a3,23(a0)
    bc04:	742e                	flw	fs0,232(sp)
    bc06:	7478                	flw	fa4,108(s0)
    bc08:	223d                	jal	bd36 <mon_table+0x6>
    bc0a:	2e25                	jal	bf42 <__clz_tab+0x4a>
    bc0c:	6631                	lui	a2,0xc
    bc0e:	0022                	c.slli	zero,0x8
    bc10:	6170                	flw	fa2,68(a0)
    bc12:	2e326567          	0x2e326567
    bc16:	3374                	lbu	a3,7(a4)
    bc18:	742e                	flw	fs0,232(sp)
    bc1a:	7478                	flw	fa4,108(s0)
    bc1c:	223d                	jal	bd4a <table_week+0xe>
    bc1e:	fdd5                	bnez	a1,bbda <_read+0x246>
    bc20:	0022a3b3          	slt	t2,t0,sp
    bc24:	6170                	flw	fa2,68(a0)
    bc26:	2e326567          	0x2e326567
    bc2a:	3574                	lbu	a3,15(a0)
    bc2c:	742e                	flw	fs0,232(sp)
    bc2e:	7478                	flw	fa4,108(s0)
    bc30:	223d                	jal	bd5e <table_week+0x22>
    bc32:	fdd5                	bnez	a1,bbee <_read+0x25a>
    bc34:	0022a3b3          	slt	t2,t0,sp
    bc38:	6170                	flw	fa2,68(a0)
    bc3a:	2e326567          	0x2e326567
    bc3e:	307a                	lhu	a4,38(s0)
    bc40:	762e                	flw	fa2,232(sp)
    bc42:	6c61                	lui	s8,0x18
    bc44:	253d                	jal	c272 <__mprec_tens+0x9a>
    bc46:	0064                	addi	s1,sp,12
    bc48:	6170                	flw	fa2,68(a0)
    bc4a:	2e326567          	0x2e326567
    bc4e:	317a                	lhu	a4,38(a0)
    bc50:	762e                	flw	fa2,232(sp)
    bc52:	6c61                	lui	s8,0x18
    bc54:	253d                	jal	c282 <__mprec_tens+0xaa>
    bc56:	0064                	addi	s1,sp,12
    bc58:	6170                	flw	fa2,68(a0)
    bc5a:	2e326567          	0x2e326567
    bc5e:	3374                	lbu	a3,7(a4)
    bc60:	742e                	flw	fs0,232(sp)
    bc62:	7478                	flw	fa4,108(s0)
    bc64:	223d                	jal	bd92 <table_week+0x56>
    bc66:	fdb9                	bnez	a1,bbc4 <_read+0x230>
    bc68:	dfb8                	sw	a4,120(a5)
    bc6a:	0022                	c.slli	zero,0x8
    bc6c:	6170                	flw	fa2,68(a0)
    bc6e:	2e336567          	0x2e336567
    bc72:	3674                	lbu	a3,15(a2)
    bc74:	742e                	flw	fs0,232(sp)
    bc76:	7478                	flw	fa4,108(s0)
    bc78:	223d                	jal	bda6 <table_week+0x6a>
    bc7a:	6425                	lui	s0,0x9
    bc7c:	0022                	c.slli	zero,0x8
    bc7e:	0000                	unimp
    bc80:	6170                	flw	fa2,68(a0)
    bc82:	2e336567          	0x2e336567
    bc86:	3874                	lbu	a3,23(s0)
    bc88:	742e                	flw	fs0,232(sp)
    bc8a:	7478                	flw	fa4,108(s0)
    bc8c:	223d                	jal	bdba <table_week+0x7e>
    bc8e:	6425                	lui	s0,0x9
    bc90:	0022                	c.slli	zero,0x8
    bc92:	0000                	unimp
    bc94:	6170                	flw	fa2,68(a0)
    bc96:	2e336567          	0x2e336567
    bc9a:	3174                	lbu	a3,7(a0)
    bc9c:	2e30                	lbu	a2,26(a2)
    bc9e:	7874                	flw	fa3,116(s0)
    bca0:	3d74                	lbu	a3,31(a0)
    bca2:	2522                	lhu	s0,10(a0)
    bca4:	2264                	lbu	s1,6(a2)
    bca6:	0000                	unimp
    bca8:	6170                	flw	fa2,68(a0)
    bcaa:	2e336567          	0x2e336567
    bcae:	3174                	lbu	a3,7(a0)
    bcb0:	2e31                	jal	bfcc <__clz_tab+0xd4>
    bcb2:	7874                	flw	fa3,116(s0)
    bcb4:	3d74                	lbu	a3,31(a0)
    bcb6:	2522                	lhu	s0,10(a0)
    bcb8:	2264                	lbu	s1,6(a2)
    bcba:	0000                	unimp
    bcbc:	6170                	flw	fa2,68(a0)
    bcbe:	2e336567          	0x2e336567
    bcc2:	3174                	lbu	a3,7(a0)
    bcc4:	78742e33          	0x78742e33
    bcc8:	3d74                	lbu	a3,31(a0)
    bcca:	2522                	lhu	s0,10(a0)
    bccc:	2264                	lbu	s1,6(a2)
    bcce:	0000                	unimp
    bcd0:	6170                	flw	fa2,68(a0)
    bcd2:	2e336567          	0x2e336567
    bcd6:	3174                	lbu	a3,7(a0)
    bcd8:	2e35                	jal	c014 <__clz_tab+0x11c>
    bcda:	7874                	flw	fa3,116(s0)
    bcdc:	3d74                	lbu	a3,31(a0)
    bcde:	2522                	lhu	s0,10(a0)
    bce0:	2264                	lbu	s1,6(a2)
    bce2:	0000                	unimp
    bce4:	6170                	flw	fa2,68(a0)
    bce6:	2e346567          	0x2e346567
    bcea:	366e                	lhu	a1,46(a2)
    bcec:	762e                	flw	fa2,232(sp)
    bcee:	6c61                	lui	s8,0x18
    bcf0:	253d                	jal	c31e <_ctype_+0x5e>
    bcf2:	0064                	addi	s1,sp,12
    bcf4:	6170                	flw	fa2,68(a0)
    bcf6:	2e346567          	0x2e346567
    bcfa:	376a                	lhu	a0,46(a4)
    bcfc:	762e                	flw	fa2,232(sp)
    bcfe:	6c61                	lui	s8,0x18
    bd00:	253d                	jal	c32e <_ctype_+0x6e>
    bd02:	0064                	addi	s1,sp,12
    bd04:	6170                	flw	fa2,68(a0)
    bd06:	2e346567          	0x2e346567
    bd0a:	3974                	lbu	a3,23(a0)
    bd0c:	742e                	flw	fs0,232(sp)
    bd0e:	7478                	flw	fa4,108(s0)
    bd10:	223d                	jal	be3e <table_week+0x102>
    bd12:	6425                	lui	s0,0x9
    bd14:	0022                	c.slli	zero,0x8
    bd16:	0000                	unimp
    bd18:	0000                	unimp
    bd1a:	42c8                	lw	a0,4(a3)
    bd1c:	6552                	flw	fa0,20(sp)
    bd1e:	64253d73          	csrrc	s10,0x642,a0
    bd22:	0a0d                	addi	s4,s4,3
    bd24:	0000                	unimp
    bd26:	0000                	unimp
    bd28:	0000                	unimp
    bd2a:	3f80                	lbu	s0,25(a5)
    bd2c:	0000                	unimp
    bd2e:	41a0                	lw	s0,64(a1)

0000bd30 <mon_table>:
    bd30:	1c1f 1e1f 1e1f 1f1f 1f1e 1f1e               ............

0000bd3c <table_week>:
    bd3c:	0300 0603 0401 0206 0005 0503 0000 4268     ..............hB
    bd4c:	0000 40a0 0000 3980 0000 40c0 0000 4357     ...@...9...@..WC
    bd5c:	0000 4248 0000 4304 0000 42a0 0000 41c8     ..HB...C...B...A
    bd6c:	0000 4270 0000 4220 0000 4120 999a 9999     ..pB.. B.. A....
    bd7c:	9999 3fb9 d70a 70a3 0a3d 3fd7 6042 d0e5     ...?...p=..?B`..
    bd8c:	db22 3fe9 f45c e9b8 fdbb 4035 0000 0000     "..?\.....5@....
    bd9c:	0000 4059 1744 5441 21fb 4009 0000 0000     ..Y@D.AT.!.@....
    bdac:	0000 400c cccd cccc cccc 3fec 7dae ffff     ...@.......?.}..
    bdbc:	7c32 ffff 7d42 ffff 7d4a ffff 7d42 ffff     2|..B}..J}..B}..
    bdcc:	7c62 ffff 7d42 ffff 7d4a ffff 7c32 ffff     b|..B}..J}..2|..
    bddc:	7c32 ffff 7c62 ffff 7d4a ffff 7da4 ffff     2|..b|..J}...}..
    bdec:	7da4 ffff 7da4 ffff 7c62 ffff 8454 ffff     .}...}..b|..T...
    bdfc:	8346 ffff 8346 ffff 8344 ffff 834c ffff     F...F...D...L...
    be0c:	834c ffff 8312 ffff 8344 ffff 834c ffff     L.......D...L...
    be1c:	8312 ffff 834c ffff 8344 ffff 8440 ffff     ....L...D...@...
    be2c:	8440 ffff 8440 ffff 8312 ffff 9390 ffff     @...@...........
    be3c:	92b6 ffff 938a ffff 92be ffff 938a ffff     ................
    be4c:	9284 ffff 938a ffff 92be ffff 92b6 ffff     ................
    be5c:	92b6 ffff 9284 ffff 92be ffff 92c4 ffff     ................
    be6c:	92c4 ffff 92c4 ffff 9284 ffff 9276 ffff     ............v...
    be7c:	9276 ffff 934a ffff 9426 ffff 934a ffff     v...J...&...J...
    be8c:	9244 ffff 934a ffff 9426 ffff 9276 ffff     D...J...&...v...
    be9c:	9276 ffff 9244 ffff 9426 ffff 9284 ffff     v...D...&.......
    beac:	9284 ffff 9284 ffff 9244 ffff 96fa ffff     ........D.......
    bebc:	9648 ffff 9648 ffff 9646 ffff 964c ffff     H...H...F...L...
    becc:	964c ffff 961c ffff 9646 ffff 964c ffff     L.......F...L...
    bedc:	961c ffff 964c ffff 9646 ffff 96e8 ffff     ....L...F.......
    beec:	96e8 ffff 96e8 ffff 961c ffff               ............

0000bef8 <__clz_tab>:
    bef8:	0100 0202 0303 0303 0404 0404 0404 0404     ................
    bf08:	0505 0505 0505 0505 0505 0505 0505 0505     ................
    bf18:	0606 0606 0606 0606 0606 0606 0606 0606     ................
    bf28:	0606 0606 0606 0606 0606 0606 0606 0606     ................
    bf38:	0707 0707 0707 0707 0707 0707 0707 0707     ................
    bf48:	0707 0707 0707 0707 0707 0707 0707 0707     ................
    bf58:	0707 0707 0707 0707 0707 0707 0707 0707     ................
    bf68:	0707 0707 0707 0707 0707 0707 0707 0707     ................
    bf78:	0808 0808 0808 0808 0808 0808 0808 0808     ................
    bf88:	0808 0808 0808 0808 0808 0808 0808 0808     ................
    bf98:	0808 0808 0808 0808 0808 0808 0808 0808     ................
    bfa8:	0808 0808 0808 0808 0808 0808 0808 0808     ................
    bfb8:	0808 0808 0808 0808 0808 0808 0808 0808     ................
    bfc8:	0808 0808 0808 0808 0808 0808 0808 0808     ................
    bfd8:	0808 0808 0808 0808 0808 0808 0808 0808     ................
    bfe8:	0808 0808 0808 0808 0808 0808 0808 0808     ................
    bff8:	ffff ffff ffff 7fef 4e49 0046 6e69 0066     ........INF.inf.
    c008:	414e 004e 616e 006e 0030 0000 3130 3332     NAN.nan.0...0123
    c018:	3534 3736 3938 4241 4443 4645 0000 0000     456789ABCDEF....
    c028:	3130 3332 3534 3736 3938 6261 6463 6665     0123456789abcdef
    c038:	0000 0000 2565 646c 0000 0000 0000 7fc0     ....e%ld........
    c048:	b034 ffff b020 ffff b052 ffff b058 ffff     4... ...R...X...
    c058:	b034 ffff 0000 0000 0000 0000 0000 3fe0     4..............?
    c068:	0000 0000 0000 3ff0 0000 0000 0000 4000     .......?.......@
    c078:	0000 ffc0 ffff 41df 3595 94a0 ffff 3fdf     .......A.5.....?
    c088:	e535 35af 0000 3fe0 3595 94a0 ffff 3fcf     5..5...?.5.....?
    c098:	666e 0000 6e69 7469 0079 0000 6e61 0000     nf..inity...an..

0000c0a8 <fpi.3395>:
    c0a8:	0035 0000 fbce ffff 03cb 0000 0001 0000     5...............
    c0b8:	0000 0000                                   ....

0000c0bc <fpinan.3431>:
    c0bc:	0034 0000 fbce ffff 03cb 0000 0001 0000     4...............
    c0cc:	0000 0000                                   ....

0000c0d0 <tinytens>:
    c0d0:	89bc 97d8 d2b2 3c9c a733 d5a8 f623 3949     .......<3...#.I9
    c0e0:	a73d 44f4 0ffd 32a5 979d cf8c ba08 255b     =..D...2......[%
    c0f0:	6f43 64ac 0628 1168 0000 0000 0000 3ff8     Co.d(.h........?
    c100:	4361 636f 87a7 3fd2 c8b3 8b60 8a28 3fc6     aCoc...?..`.(..?
    c110:	79fb 509f 4413 3fd3 0000 0000 0000 4024     .y.P.D.?......$@
    c120:	0000 0000 0000 401c 0000 0000 0000 4014     .......@.......@
    c130:	6e49 6966 696e 7974 0000 0000 614e 004e     Infinity....NaN.

0000c140 <__sf_fake_stderr>:
	...

0000c160 <__sf_fake_stdin>:
	...

0000c180 <__sf_fake_stdout>:
	...
    c1a0:	0043 0000 4f50 4953 0058 0000 002e 0000     C...POSIX.......

0000c1b0 <__mprec_bigtens>:
    c1b0:	8000 37e0 c379 4341 6e17 b505 b8b5 4693     ...7y.AC.n.....F
    c1c0:	f9f5 e93f 4f03 4d38 1d32 f930 7748 5a82     ..?..O8M2.0.Hw.Z
    c1d0:	bf3c 7f73 4fdd 7515                         <.s..O.u

0000c1d8 <__mprec_tens>:
    c1d8:	0000 0000 0000 3ff0 0000 0000 0000 4024     .......?......$@
    c1e8:	0000 0000 0000 4059 0000 0000 4000 408f     ......Y@.....@.@
    c1f8:	0000 0000 8800 40c3 0000 0000 6a00 40f8     .......@.....j.@
    c208:	0000 0000 8480 412e 0000 0000 12d0 4163     .......A......cA
    c218:	0000 0000 d784 4197 0000 0000 cd65 41cd     .......A....e..A
    c228:	0000 2000 a05f 4202 0000 e800 4876 4237     ... _..B....vH7B
    c238:	0000 a200 1a94 426d 0000 e540 309c 42a2     ......mB..@..0.B
    c248:	0000 1e90 bcc4 42d6 0000 2634 6bf5 430c     .......B..4&.k.C
    c258:	8000 37e0 c379 4341 a000 85d8 3457 4376     ...7y.AC....W4vC
    c268:	c800 674e c16d 43ab 3d00 6091 58e4 43e1     ..Ngm..C.=.`.X.C
    c278:	8c40 78b5 af1d 4415 ef50 d6e2 1ae4 444b     @..x...DP.....KD
    c288:	d592 064d f0cf 4480 4af6 c7e1 2d02 44b5     ..M....D.J...-.D
    c298:	9db4 79d9 7843 44ea                         ...yCx.D

0000c2a0 <p05.3319>:
    c2a0:	0005 0000 0019 0000 007d 0000 2d23 2b30     ........}...#-0+
    c2b0:	0020 0000 6c68 004c 6665 4567 4746 0000      ...hlL.efgEFG..

0000c2c0 <_ctype_>:
    c2c0:	2000 2020 2020 2020 2020 2828 2828 2028     .         ((((( 
    c2d0:	2020 2020 2020 2020 2020 2020 2020 2020                     
    c2e0:	8820 1010 1010 1010 1010 1010 1010 1010      ...............
    c2f0:	0410 0404 0404 0404 0404 1004 1010 1010     ................
    c300:	1010 4141 4141 4141 0101 0101 0101 0101     ..AAAAAA........
    c310:	0101 0101 0101 0101 0101 0101 1010 1010     ................
    c320:	1010 4242 4242 4242 0202 0202 0202 0202     ..BBBBBB........
    c330:	0202 0202 0202 0202 0202 0202 1010 1010     ................
    c340:	0020 0000 0000 0000 0000 0000 0000 0000      ...............
	...
